 DELETE

 Timestamp is 67cfa1a6 (Tue Mar 11 11:36:22 2025)

 Preferred load address is 0000000140000000

 Start         Length     Name                   Class
 0001:00000000 000d9de5H .textbss                DATA
 0002:00000000 000108a0H .text$di                CODE
 0002:000108a0 001af020H .text$mn                CODE
 0002:001bf8c0 00001040H .text$mn$00             CODE
 0002:001c0900 00001f30H .text$mn$21             CODE
 0002:001c2830 000092c0H .text$x                 CODE
 0002:001cbaf0 000010a2H .text$yd                CODE
 0003:00000000 00000110H .CRT$XCA                DATA
 0003:00000110 00000110H .CRT$XCAA               DATA
 0003:00000220 00000378H .CRT$XCC                DATA
 0003:00000598 00000148H .CRT$XCL                DATA
 0003:000006e0 00000110H .CRT$XCU                DATA
 0003:000007f0 00000110H .CRT$XCZ                DATA
 0003:00000900 00000110H .CRT$XIA                DATA
 0003:00000a10 00000110H .CRT$XIAA               DATA
 0003:00000b20 00000110H .CRT$XIAC               DATA
 0003:00000c30 00000158H .CRT$XIC                DATA
 0003:00000d88 00000110H .CRT$XIZ                DATA
 0003:00000e98 00000110H .CRT$XPA                DATA
 0003:00000fa8 00000120H .CRT$XPX                DATA
 0003:000010c8 00000110H .CRT$XPXA               DATA
 0003:000011d8 00000110H .CRT$XPZ                DATA
 0003:000012e8 00000110H .CRT$XTA                DATA
 0003:000013f8 00000128H .CRT$XTZ                DATA
 0003:00001520 000365b0H .rdata                  DATA
 0003:00037ad0 000002b0H .rdata$00               DATA
 0003:00037d80 00000200H .rdata$CastGuardVftablesA DATA
 0003:00037f80 000001a0H .rdata$CastGuardVftablesC DATA
 0003:00038120 00003920H .rdata$r                DATA
 0003:0003ba40 00000188H .rdata$zzzdbg           DATA
 0003:0003bbc8 00000110H .rtc$IAA                DATA
 0003:0003bcd8 00000110H .rtc$IMZ                DATA
 0003:0003bde8 00000110H .rtc$IZZ                DATA
 0003:0003bef8 00000110H .rtc$TAA                DATA
 0003:0003c008 00000110H .rtc$TMZ                DATA
 0003:0003c118 00000110H .rtc$TZZ                DATA
 0003:0003c228 00015e20H .xdata                  DATA
 0003:00052048 000007dbH .xdata$x                DATA
 0003:00052823 00000000H .edata                  DATA
 0004:00000000 00001218H .data                   DATA
 0004:00001218 00000488H .data$r                 DATA
 0004:000016a0 00001410H .data$rs                DATA
 0004:00002ab0 00002a40H .bss                    DATA
 0005:00000000 00015cb4H .pdata                  DATA
 0006:00000000 000004f8H .idata$5                DATA
 0006:000004f8 00000014H .idata$2                DATA
 0006:0000050c 00000014H .idata$3                DATA
 0006:00000520 000004f8H .idata$4                DATA
 0006:00000a18 00000b2fH .idata$6                DATA
 0007:00000000 00000268H .msvcjmc                DATA
 0008:00000000 00000175H .00cfg                  DATA
 0009:00000000 00000170H .rsrc$01                DATA
 0009:00000170 000001b6H .rsrc$02                DATA

  Address         Publics by Value              Rva+Base               Lib:Object

 0000:00000000       __AbsoluteZero             0000000000000000     <absolute>
 0000:00000000       ___safe_se_handler_count   0000000000000000     <absolute>
 0000:00000000       ___safe_se_handler_table   0000000000000000     <absolute>
 0000:00000000       __arm64x_extra_rfe_table   0000000000000000     <absolute>
 0000:00000000       __arm64x_extra_rfe_table_size 0000000000000000     <absolute>
 0000:00000000       __arm64x_native_entrypoint 0000000000000000     <absolute>
 0000:00000000       __arm64x_redirection_metadata 0000000000000000     <absolute>
 0000:00000000       __arm64x_redirection_metadata_count 0000000000000000     <absolute>
 0000:00000000       __dynamic_value_reloc_table 0000000000000000     <absolute>
 0000:00000000       __enclave_config           0000000000000000     <absolute>
 0000:00000000       __guard_check_icall_a64n_fptr 0000000000000000     <absolute>
 0000:00000000       __guard_eh_cont_count      0000000000000000     <absolute>
 0000:00000000       __guard_eh_cont_table      0000000000000000     <absolute>
 0000:00000000       __guard_fids_count         0000000000000000     <absolute>
 0000:00000000       __guard_fids_table         0000000000000000     <absolute>
 0000:00000000       __guard_iat_count          0000000000000000     <absolute>
 0000:00000000       __guard_iat_table          0000000000000000     <absolute>
 0000:00000000       __guard_longjmp_count      0000000000000000     <absolute>
 0000:00000000       __guard_longjmp_table      0000000000000000     <absolute>
 0000:00000000       __hybrid_auxiliary_delayload_iat 0000000000000000     <absolute>
 0000:00000000       __hybrid_auxiliary_delayload_iat_copy 0000000000000000     <absolute>
 0000:00000000       __hybrid_auxiliary_iat     0000000000000000     <absolute>
 0000:00000000       __hybrid_auxiliary_iat_copy 0000000000000000     <absolute>
 0000:00000000       __hybrid_code_map          0000000000000000     <absolute>
 0000:00000000       __hybrid_code_map_count    0000000000000000     <absolute>
 0000:00000000       __hybrid_image_info_bitfield 0000000000000000     <absolute>
 0000:00000000       __volatile_metadata        0000000000000000     <absolute>
 0000:00000000       __x64_code_ranges_to_entry_points 0000000000000000     <absolute>
 0000:00000000       __x64_code_ranges_to_entry_points_count 0000000000000000     <absolute>
 0000:00000100       __guard_flags              0000000000000100     <absolute>
 0000:00000000       __ImageBase                0000000140000000     <linker-defined>
 0001:00000000       __enc$textbss$begin        0000000140001000     <linker-defined>
 0001:000d9de5       __enc$textbss$end          00000001400dade5     <linker-defined>
 0002:000108a0       ??$?0$$BY03D$0A@@path@filesystem@std@@QEAA@AEAY03$$CBDW4format@012@@Z 00000001400eb8a0 f i main.obj
 0002:00010930       ??$?0$$BY0BF@D$0A@@path@filesystem@std@@QEAA@AEAY0BF@$$CBDW4format@012@@Z 00000001400eb930 f i main.obj
 0002:000109c0       ??$?0$$BY0L@D$0A@@path@filesystem@std@@QEAA@AEAY0L@$$CBDW4format@012@@Z 00000001400eb9c0 f i main.obj
 0002:00010a50       ??$?0$$BY0O@D$0A@@path@filesystem@std@@QEAA@AEAY0O@$$CBDW4format@012@@Z 00000001400eba50 f i main.obj
 0002:00010ae0       ??$?0$$V@?$_Compressed_pair@V?$allocator@D@std@@V?$_String_val@U?$_Simple_types@D@std@@@2@$00@std@@QEAA@U_Zero_then_variadic_args_t@1@@Z 00000001400ebae0 f i main.obj
 0002:00010b50       ??$?0$$V@?$_Compressed_pair@V?$allocator@_W@std@@V?$_String_val@U?$_Simple_types@_W@std@@@2@$00@std@@QEAA@U_Zero_then_variadic_args_t@1@@Z 00000001400ebb50 f i main.obj
 0002:00010bc0       ??$?0AEAPEAV_Facet_base@std@@@?$_Compressed_pair@U?$default_delete@V_Facet_base@std@@@std@@PEAV_Facet_base@2@$00@std@@QEAA@U_Zero_then_variadic_args_t@1@AEAPEAV_Facet_base@1@@Z 00000001400ebbc0 f i main.obj
 0002:00010c30       ??$?0AEBV?$allocator@D@std@@$$V@?$_Compressed_pair@V?$allocator@D@std@@V?$_String_val@U?$_Simple_types@D@std@@@2@$00@std@@QEAA@U_One_then_variadic_args_t@1@AEBV?$allocator@D@1@@Z 00000001400ebc30 f i main.obj
 0002:00010c90       ??$?0AEBV?$allocator@_W@std@@$$V@?$_Compressed_pair@V?$allocator@_W@std@@V?$_String_val@U?$_Simple_types@_W@std@@@2@$00@std@@QEAA@U_One_then_variadic_args_t@1@AEBV?$allocator@_W@1@@Z 00000001400ebc90 f i main.obj
 0002:00010cf0       ??$?0D@?$allocator@U_Container_proxy@std@@@std@@QEAA@AEBV?$allocator@D@1@@Z 00000001400ebcf0 f i main.obj
 0002:00010d40       ??$?0U?$default_delete@V_Facet_base@std@@@std@@$0A@@?$unique_ptr@V_Facet_base@std@@U?$default_delete@V_Facet_base@std@@@2@@std@@QEAA@PEAV_Facet_base@1@@Z 00000001400ebd40 f i main.obj
 0002:00010dc0       ??$?0V?$allocator@D@std@@$$V@?$_Compressed_pair@V?$allocator@D@std@@V?$_String_val@U?$_Simple_types@D@std@@@2@$00@std@@QEAA@U_One_then_variadic_args_t@1@$$QEAV?$allocator@D@1@@Z 00000001400ebdc0 f i main.obj
 0002:00010e20       ??$?0V?$allocator@_W@std@@$$V@?$_Compressed_pair@V?$allocator@_W@std@@V?$_String_val@U?$_Simple_types@_W@std@@@2@$00@std@@QEAA@U_One_then_variadic_args_t@1@$$QEAV?$allocator@_W@1@@Z 00000001400ebe20 f i main.obj
 0002:00010e80       ??$?0V?$basic_string_view@_WU?$char_traits@_W@std@@@std@@$0A@@?$basic_string@_WU?$char_traits@_W@std@@V?$allocator@_W@2@@std@@QEAA@AEBV?$basic_string_view@_WU?$char_traits@_W@std@@@1@AEBV?$allocator@_W@1@@Z 00000001400ebe80 f i main.obj
 0002:00010ff0       ??$?0V?$basic_string_view@_WU?$char_traits@_W@std@@@std@@$0A@@path@filesystem@std@@QEAA@AEBV?$basic_string_view@_WU?$char_traits@_W@std@@@2@W4format@012@@Z 00000001400ebff0 f i main.obj
 0002:00011080       ??$?0Vpath@filesystem@std@@$0A@@?$basic_ofstream@DU?$char_traits@D@std@@@std@@QEAA@AEBVpath@filesystem@1@HH@Z 00000001400ec080 f i main.obj
 0002:00011180       ??$?0_W@?$allocator@U_Container_proxy@std@@@std@@QEAA@AEBV?$allocator@_W@1@@Z 00000001400ec180 f i main.obj
 0002:000111d0       ??$?YV?$basic_string_view@DU?$char_traits@D@std@@@std@@$0A@@?$basic_string@DU?$char_traits@D@std@@V?$allocator@D@2@@std@@QEAAAEAV01@AEBV?$basic_string_view@DU?$char_traits@D@std@@@1@@Z 00000001400ec1d0 f i main.obj
 0002:00011230       ??$_Adl_verify_range@PEADPEBD@std@@YAXAEBQEADAEBQEBD@Z 00000001400ec230 f i main.obj
 0002:00011320       ??$_Adl_verify_range@PEBDPEBD@std@@YAXAEBQEBD0@Z 00000001400ec320 f i main.obj
 0002:00011410       ??$_Adl_verify_range@PEB_WPEB_W@std@@YAXAEBQEB_W0@Z 00000001400ec410 f i main.obj
 0002:00011500       ??$_Alloc_proxy@V?$allocator@U_Container_proxy@std@@@std@@@_Container_base12@std@@QEAAX$$QEAV?$allocator@U_Container_proxy@std@@@1@@Z 00000001400ec500 f i main.obj
 0002:000115b0       ??$_Allocate@$0BA@U_Default_allocate_traits@std@@@std@@YAPEAX_K@Z 00000001400ec5b0 f i main.obj
 0002:00011650       ??$_Allocate_at_least_helper@V?$allocator@D@std@@@std@@YAPEADAEAV?$allocator@D@0@AEA_K@Z 00000001400ec650 f i main.obj
 0002:000116b0       ??$_Allocate_at_least_helper@V?$allocator@_W@std@@@std@@YAPEA_WAEAV?$allocator@_W@0@AEA_K@Z 00000001400ec6b0 f i main.obj
 0002:00011710       ??$_Allocate_for_capacity@$0A@@?$basic_string@DU?$char_traits@D@std@@V?$allocator@D@2@@std@@CAPEADAEAV?$allocator@D@1@AEA_K@Z 00000001400ec710 f i main.obj
 0002:00011820       ??$_Allocate_for_capacity@$0A@@?$basic_string@_WU?$char_traits@_W@std@@V?$allocator@_W@2@@std@@CAPEA_WAEAV?$allocator@_W@1@AEA_K@Z 00000001400ec820 f i main.obj
 0002:00011930       ??$_Allocate_manually_vector_aligned@U_Default_allocate_traits@std@@@std@@YAPEAX_K@Z 00000001400ec930 f i main.obj
 0002:00011a90       ??$_Bit_cast@_KT_Addr_storage@error_category@std@@$0A@@std@@YA_KAEBT_Addr_storage@error_category@0@@Z 00000001400eca90 f i main.obj
 0002:00011af0       ??$_Bitmask_includes_any@W4__std_fs_file_attr@@@std@@YA_NW4__std_fs_file_attr@@0@Z 00000001400ecaf0 f i main.obj
 0002:00011b70       ??$_Construct@$00PEBD@?$basic_string@DU?$char_traits@D@std@@V?$allocator@D@2@@std@@AEAAXQEBD_K@Z 00000001400ecb70 f i main.obj
 0002:00011e50       ??$_Construct@$00PEB_W@?$basic_string@_WU?$char_traits@_W@std@@V?$allocator@_W@2@@std@@AEAAXQEB_W_K@Z 00000001400ece50 f i main.obj
 0002:00012140       ??$_Construct@$01PEBD@?$basic_string@DU?$char_traits@D@std@@V?$allocator@D@2@@std@@AEAAXQEBD_K@Z 00000001400ed140 f i main.obj
 0002:000123d0       ??$_Construct@$01PEB_W@?$basic_string@_WU?$char_traits@_W@std@@V?$allocator@_W@2@@std@@AEAAXQEB_W_K@Z 00000001400ed3d0 f i main.obj
 0002:00012660       ??$_Construct_in_place@PEADAEAPEAD@std@@YAXAEAPEAD0@Z 00000001400ed660 f i main.obj
 0002:00012710       ??$_Construct_in_place@PEADAEBQEAD@std@@YAXAEAPEADAEBQEAD@Z 00000001400ed710 f i main.obj
 0002:000127c0       ??$_Construct_in_place@PEA_WAEBQEA_W@std@@YAXAEAPEA_WAEBQEA_W@Z 00000001400ed7c0 f i main.obj
 0002:00012870       ??$_Construct_in_place@U_Container_proxy@std@@PEAU_Container_base12@2@@std@@YAXAEAU_Container_proxy@0@$$QEAPEAU_Container_base12@0@@Z 00000001400ed870 f i main.obj
 0002:00012930       ??$_Convert_Source_to_wide@$$BY03DU_Normal_conversion@filesystem@std@@@filesystem@std@@YA?AV?$basic_string@_WU?$char_traits@_W@std@@V?$allocator@_W@2@@1@AEAY03$$CBDU_Normal_conversion@01@@Z 00000001400ed930 f i main.obj
 0002:000129f0       ??$_Convert_Source_to_wide@$$BY0BF@DU_Normal_conversion@filesystem@std@@@filesystem@std@@YA?AV?$basic_string@_WU?$char_traits@_W@std@@V?$allocator@_W@2@@1@AEAY0BF@$$CBDU_Normal_conversion@01@@Z 00000001400ed9f0 f i main.obj
 0002:00012ab0       ??$_Convert_Source_to_wide@$$BY0L@DU_Normal_conversion@filesystem@std@@@filesystem@std@@YA?AV?$basic_string@_WU?$char_traits@_W@std@@V?$allocator@_W@2@@1@AEAY0L@$$CBDU_Normal_conversion@01@@Z 00000001400edab0 f i main.obj
 0002:00012b70       ??$_Convert_Source_to_wide@$$BY0O@DU_Normal_conversion@filesystem@std@@@filesystem@std@@YA?AV?$basic_string@_WU?$char_traits@_W@std@@V?$allocator@_W@2@@1@AEAY0O@$$CBDU_Normal_conversion@01@@Z 00000001400edb70 f i main.obj
 0002:00012c30       ??$_Convert_Source_to_wide@V?$basic_string_view@_WU?$char_traits@_W@std@@@std@@U_Normal_conversion@filesystem@2@@filesystem@std@@YA?AV?$basic_string@_WU?$char_traits@_W@std@@V?$allocator@_W@2@@1@AEBV?$basic_string_view@_WU?$char_traits@_W@std@@@1@U_Normal_conversion@01@@Z 00000001400edc30 f i main.obj
 0002:00012cf0       ??$_Convert_size@_K_K@std@@YA_K_K@Z 00000001400edcf0 f i main.obj
 0002:00012d30       ??$_Convert_stringoid_to_wide@U_Normal_conversion@filesystem@std@@@filesystem@std@@YA?AV?$basic_string@_WU?$char_traits@_W@std@@V?$allocator@_W@2@@1@V?$basic_string_view@DU?$char_traits@D@std@@@1@U_Normal_conversion@01@@Z 00000001400edd30 f i main.obj
 0002:00012e10       ??$_Convert_stringoid_to_wide@U_Normal_conversion@filesystem@std@@@filesystem@std@@YA?AV?$basic_string@_WU?$char_traits@_W@std@@V?$allocator@_W@2@@1@V?$basic_string_view@_WU?$char_traits@_W@std@@@1@U_Normal_conversion@01@@Z 00000001400ede10 f i main.obj
 0002:00012ed0       ??$_Convert_wide_to_narrow_replace_chars@U?$char_traits@D@std@@V?$allocator@D@2@@filesystem@std@@YA?AV?$basic_string@DU?$char_traits@D@std@@V?$allocator@D@2@@1@W4__std_code_page@@V?$basic_string_view@_WU?$char_traits@_W@std@@@1@AEBV?$allocator@D@1@@Z 00000001400eded0 f i main.obj
 0002:00013110       ??$_Deallocate@$0BA@@std@@YAXPEAX_K@Z 00000001400ee110 f i main.obj
 0002:000131b0       ??$_Deallocate_plain@V?$allocator@U_Container_proxy@std@@@std@@@std@@YAXAEAV?$allocator@U_Container_proxy@std@@@0@QEAU_Container_proxy@0@@Z 00000001400ee1b0 f i main.obj
 0002:00013210       ??$_Delete_plain_internal@V?$allocator@U_Container_proxy@std@@@std@@@std@@YAXAEAV?$allocator@U_Container_proxy@std@@@0@QEAU_Container_proxy@0@@Z 00000001400ee210 f i main.obj
 0002:00013270       ??$_Destroy_in_place@PEAD@std@@YAXAEAPEAD@Z 00000001400ee270 f i main.obj
 0002:000132b0       ??$_Destroy_in_place@PEA_W@std@@YAXAEAPEA_W@Z 00000001400ee2b0 f i main.obj
 0002:000132f0       ??$_Fgetc@D@std@@YA_NAEADPEAU_iobuf@@@Z 00000001400ee2f0 f i main.obj
 0002:00013360       ??$_Fputc@D@std@@YA_NDPEAU_iobuf@@@Z 00000001400ee360 f i main.obj
 0002:000133e0       ??$_Get_size_of_n@$00@std@@YA_K_K@Z 00000001400ee3e0 f i main.obj
 0002:00013430       ??$_Get_size_of_n@$01@std@@YA_K_K@Z 00000001400ee430 f i main.obj
 0002:000134b0       ??$_Get_size_of_n@$0BA@@std@@YA_K_K@Z 00000001400ee4b0 f i main.obj
 0002:00013530       ??$_Get_unwrapped@AEAPEB_W@std@@YA?A_TAEAPEB_W@Z 00000001400ee530 f i main.obj
 0002:00013580       ??$_Get_unwrapped@AEBQEB_W@std@@YA?A_TAEBQEB_W@Z 00000001400ee580 f i main.obj
 0002:000135d0       ??$_Immortalize_memcpy_image@V_Generic_error_category@std@@@std@@YAAEBV_Generic_error_category@0@XZ 00000001400ee5d0 f i main.obj
 0002:00013610       ??$_Immortalize_memcpy_image@V_Iostream_error_category2@std@@@std@@YAAEBV_Iostream_error_category2@0@XZ 00000001400ee610 f i main.obj
 0002:00013650       ??$_Immortalize_memcpy_image@V_System_error_category@std@@@std@@YAAEBV_System_error_category@0@XZ 00000001400ee650 f i main.obj
 0002:00013690       ??$_In_range@H_K@std@@YA_N_K@Z 00000001400ee690 f i main.obj
 0002:00013710       ??$_Max_limit@_J@std@@YA_JXZ 00000001400ee710 f i main.obj
 0002:00013760       ??$_Pocca@V?$allocator@_W@std@@@std@@YAXAEAV?$allocator@_W@0@AEBV10@@Z 00000001400ee760 f i main.obj
 0002:000137a0       ??$_Reallocate_for@V<lambda_1>@?1??assign@?$basic_string@_WU?$char_traits@_W@std@@V?$allocator@_W@2@@std@@QEAAAEAV34@QEB_W_K@Z@PEB_W@?$basic_string@_WU?$char_traits@_W@std@@V?$allocator@_W@2@@std@@AEAAAEAV01@_KV<lambda_1>@?1??assign@01@QEAAAEAV01@QEB_W0@Z@PEB_W@Z 00000001400ee7a0 f i main.obj
 0002:000139a0       ??$_Reallocate_grow_by@V<lambda_1>@?1??append@?$basic_string@DU?$char_traits@D@std@@V?$allocator@D@2@@std@@QEAAAEAV34@QEBD_K@Z@PEBD_K@?$basic_string@DU?$char_traits@D@std@@V?$allocator@D@2@@std@@AEAAAEAV01@_KV<lambda_1>@?1??append@01@QEAAAEAV01@QEBD0@Z@PEBD_K@Z 00000001400ee9a0 f i main.obj
 0002:00013c60       ??$_Reallocate_grow_by@V<lambda_1>@?1??append@?$basic_string@DU?$char_traits@D@std@@V?$allocator@D@2@@std@@QEAAAEAV34@_KD@Z@_KD@?$basic_string@DU?$char_traits@D@std@@V?$allocator@D@2@@std@@AEAAAEAV01@_KV<lambda_1>@?1??append@01@QEAAAEAV01@0D@Z@_KD@Z 00000001400eec60 f i main.obj
 0002:00013f20       ??$_Reallocate_grow_by@V<lambda_1>@?1??append@?$basic_string@_WU?$char_traits@_W@std@@V?$allocator@_W@2@@std@@QEAAAEAV34@QEB_W_K@Z@PEB_W_K@?$basic_string@_WU?$char_traits@_W@std@@V?$allocator@_W@2@@std@@AEAAAEAV01@_KV<lambda_1>@?1??append@01@QEAAAEAV01@QEB_W0@Z@PEB_W_K@Z 00000001400eef20 f i main.obj
 0002:000141e0       ??$_Reallocate_grow_by@V<lambda_1>@?1??append@?$basic_string@_WU?$char_traits@_W@std@@V?$allocator@_W@2@@std@@QEAAAEAV34@_K_W@Z@_K_W@?$basic_string@_WU?$char_traits@_W@std@@V?$allocator@_W@2@@std@@AEAAAEAV01@_KV<lambda_1>@?1??append@01@QEAAAEAV01@0_W@Z@_K_W@Z 00000001400ef1e0 f i main.obj
 0002:000144a0       ??$_Reallocate_grow_by@V<lambda_1>@?1??push_back@?$basic_string@DU?$char_traits@D@std@@V?$allocator@D@2@@std@@QEAAXD@Z@D@?$basic_string@DU?$char_traits@D@std@@V?$allocator@D@2@@std@@AEAAAEAV01@_KV<lambda_1>@?1??push_back@01@QEAAXD@Z@D@Z 00000001400ef4a0 f i main.obj
 0002:00014740       ??$_Reallocate_grow_by@V<lambda_1>@?1??push_back@?$basic_string@_WU?$char_traits@_W@std@@V?$allocator@_W@2@@std@@QEAAX_W@Z@_W@?$basic_string@_WU?$char_traits@_W@std@@V?$allocator@_W@2@@std@@AEAAAEAV01@_KV<lambda_1>@?1??push_back@01@QEAAX_W@Z@_W@Z 00000001400ef740 f i main.obj
 0002:000149f0       ??$_Reallocate_grow_by@V<lambda_1>@?1??reserve@?$basic_string@DU?$char_traits@D@std@@V?$allocator@D@2@@std@@QEAAX_K@Z@$$V@?$basic_string@DU?$char_traits@D@std@@V?$allocator@D@2@@std@@AEAAAEAV01@_KV<lambda_1>@?1??reserve@01@QEAAX0@Z@@Z 00000001400ef9f0 f i main.obj
 0002:00014c70       ??$_Reallocate_grow_by@V<lambda_1>@?4???$_Resize_and_overwrite@V<lambda_1>@?4???Kfilesystem@std@@YA?AVpath@23@AEBV423@0@Z@@?$basic_string@_WU?$char_traits@_W@std@@V?$allocator@_W@2@@std@@QEAAX_KV1?4???Kfilesystem@3@YA?AVpath@43@AEBV543@1@Z@@Z@$$V@?$basic_string@_WU?$char_traits@_W@std@@V?$allocator@_W@2@@std@@AEAAAEAV01@_KV<lambda_1>@?4???$_Resize_and_overwrite@V<lambda_1>@?4???Kfilesystem@std@@YA?AVpath@23@AEBV423@0@Z@@01@QEAAX0V2?4???Kfilesystem@1@YA?AVpath@31@AEBV431@1@Z@@Z@@Z 00000001400efc70 f i main.obj
 0002:00014ef0       ??$_Resize_and_overwrite@V<lambda_1>@?4???Kfilesystem@std@@YA?AVpath@23@AEBV423@0@Z@@?$basic_string@_WU?$char_traits@_W@std@@V?$allocator@_W@2@@std@@QEAAX_KV<lambda_1>@?4???Kfilesystem@1@YA?AVpath@31@AEBV431@1@Z@@Z 00000001400efef0 f i main.obj
 0002:00015140       ??$_Seek_wrapped@PEB_WAEAPEB_W@std@@YAXAEAPEB_W0@Z 00000001400f0140 f i main.obj
 0002:000151a0       ??$_Stringoid_from_Source@D$03@filesystem@std@@YA?AV?$basic_string_view@DU?$char_traits@D@std@@@1@AEAY03$$CBD@Z 00000001400f01a0 f i main.obj
 0002:000152e0       ??$_Stringoid_from_Source@D$0BF@@filesystem@std@@YA?AV?$basic_string_view@DU?$char_traits@D@std@@@1@AEAY0BF@$$CBD@Z 00000001400f02e0 f i main.obj
 0002:00015420       ??$_Stringoid_from_Source@D$0L@@filesystem@std@@YA?AV?$basic_string_view@DU?$char_traits@D@std@@@1@AEAY0L@$$CBD@Z 00000001400f0420 f i main.obj
 0002:00015560       ??$_Stringoid_from_Source@D$0O@@filesystem@std@@YA?AV?$basic_string_view@DU?$char_traits@D@std@@@1@AEAY0O@$$CBD@Z 00000001400f0560 f i main.obj
 0002:000156a0       ??$_Stringoid_from_Source@_WU?$char_traits@_W@std@@@filesystem@std@@YA?A_PAEBV?$basic_string_view@_WU?$char_traits@_W@std@@@1@@Z 00000001400f06a0 f i main.obj
 0002:00015740       ??$_Traits_compare@U?$char_traits@_W@std@@@std@@YAHQEB_W_K01@Z 00000001400f0740 f i main.obj
 0002:00015810       ??$_Unaligned_load@I@filesystem@std@@YAIPEBX@Z 00000001400f0810 f i main.obj
 0002:000158d0       ??$_Unfancy@D@std@@YAPEADPEAD@Z 00000001400f08d0 f i main.obj
 0002:00015910       ??$_Unfancy@U_Container_proxy@std@@@std@@YAPEAU_Container_proxy@0@PEAU10@@Z 00000001400f0910 f i main.obj
 0002:00015950       ??$_Unfancy@_W@std@@YAPEA_WPEA_W@Z 00000001400f0950 f i main.obj
 0002:00015990       ??$_Ungetc@D@std@@YA_NAEBDPEAU_iobuf@@@Z 00000001400f0990 f i main.obj
 0002:00015a20       ??$addressof@$$CBV?$basic_string@_WU?$char_traits@_W@std@@V?$allocator@_W@2@@std@@@std@@YAPEBV?$basic_string@_WU?$char_traits@_W@std@@V?$allocator@_W@2@@0@AEBV10@@Z 00000001400f0a20 f i main.obj
 0002:00015a60       ??$addressof@$$CBV?$codecvt@DDU_Mbstatet@@@std@@@std@@YAPEBV?$codecvt@DDU_Mbstatet@@@0@AEBV10@@Z 00000001400f0a60 f i main.obj
 0002:00015aa0       ??$addressof@PEAD@std@@YAPEAPEADAEAPEAD@Z 00000001400f0aa0 f i main.obj
 0002:00015ae0       ??$addressof@PEA_W@std@@YAPEAPEA_WAEAPEA_W@Z 00000001400f0ae0 f i main.obj
 0002:00015b20       ??$addressof@U_Container_base12@std@@@std@@YAPEAU_Container_base12@0@AEAU10@@Z 00000001400f0b20 f i main.obj
 0002:00015b60       ??$addressof@U_Container_proxy@std@@@std@@YAPEAU_Container_proxy@0@AEAU10@@Z 00000001400f0b60 f i main.obj
 0002:00015ba0       ??$addressof@V?$_String_val@U?$_Simple_types@D@std@@@std@@@std@@YAPEAV?$_String_val@U?$_Simple_types@D@std@@@0@AEAV10@@Z 00000001400f0ba0 f i main.obj
 0002:00015be0       ??$addressof@V?$basic_filebuf@DU?$char_traits@D@std@@@std@@@std@@YAPEAV?$basic_filebuf@DU?$char_traits@D@std@@@0@AEAV10@@Z 00000001400f0be0 f i main.obj
 0002:00015c20       ??$append@V?$basic_string_view@DU?$char_traits@D@std@@@std@@$0A@@?$basic_string@DU?$char_traits@D@std@@V?$allocator@D@2@@std@@QEAAAEAV01@AEBV?$basic_string_view@DU?$char_traits@D@std@@@1@@Z 00000001400f0c20 f i main.obj
 0002:00015d40       ??$construct_at@D$$V@std@@YAPEADQEAD@Z 00000001400f0d40 f i main.obj
 0002:00015dd0       ??$construct_at@PEADAEAPEAD@std@@YAPEAPEADQEAPEADAEAPEAD@Z 00000001400f0dd0 f i main.obj
 0002:00015e50       ??$construct_at@PEADAEBQEAD@std@@YAPEAPEADQEAPEADAEBQEAD@Z 00000001400f0e50 f i main.obj
 0002:00015ed0       ??$construct_at@PEA_WAEBQEA_W@std@@YAPEAPEA_WQEAPEA_WAEBQEA_W@Z 00000001400f0ed0 f i main.obj
 0002:00015f50       ??$construct_at@U_Container_proxy@std@@PEAU_Container_base12@2@@std@@YAPEAU_Container_proxy@0@QEAU10@$$QEAPEAU_Container_base12@0@@Z 00000001400f0f50 f i main.obj
 0002:00015fd0       ??$construct_at@_W$$V@std@@YAPEA_WQEA_W@Z 00000001400f0fd0 f i main.obj
 0002:00016060       ??$exchange@PEAU_Iterator_base12@std@@$$T@std@@YAPEAU_Iterator_base12@0@AEAPEAU10@$$QEA$$T@Z 00000001400f1060 f i main.obj
 0002:000160d0       ??$exchange@PEAV_Facet_base@std@@$$T@std@@YAPEAV_Facet_base@0@AEAPEAV10@$$QEA$$T@Z 00000001400f10d0 f i main.obj
 0002:00016140       ??$find_if@PEB_WU_Is_slash_oper@filesystem@std@@@std@@YAPEB_WPEB_WQEB_WU_Is_slash_oper@filesystem@0@@Z 00000001400f1140 f i main.obj
 0002:00016290       ??$find_if_not@PEB_WU_Is_slash_oper@filesystem@std@@@std@@YAPEB_WPEB_WQEB_WU_Is_slash_oper@filesystem@0@@Z 00000001400f1290 f i main.obj
 0002:000163e0       ??$max@_K@std@@YAAEB_KAEB_K0@Z 00000001400f13e0 f i main.obj
 0002:00016480       ??$min@_J@std@@YAAEB_JAEB_J0@Z 00000001400f1480 f i main.obj
 0002:00016520       ??$min@_K@std@@YAAEB_KAEB_K0@Z 00000001400f1520 f i main.obj
 0002:000165c0       ??$use_facet@V?$codecvt@DDU_Mbstatet@@@std@@@std@@YAAEBV?$codecvt@DDU_Mbstatet@@@0@AEBVlocale@0@@Z 00000001400f15c0 f i main.obj
 0002:000167b0       ??$use_facet@V?$ctype@D@std@@@std@@YAAEBV?$ctype@D@0@AEBVlocale@0@@Z 00000001400f17b0 f i main.obj
 0002:000169a0       ??0<lambda_1>@?4???Kfilesystem@std@@YA?AVpath@12@AEBV312@0@Z@QEAA@AEBQEB_WAEB_KAEB_N12@Z 00000001400f19a0 f i main.obj
 0002:00016a70       ??0?$_Container_proxy_ptr12@V?$allocator@U_Container_proxy@std@@@std@@@std@@QEAA@AEAV?$allocator@U_Container_proxy@std@@@1@AEAU_Container_base12@1@@Z 00000001400f1a70 f i main.obj
 0002:00016b60       ??0?$_String_val@U?$_Simple_types@D@std@@@std@@QEAA@XZ 00000001400f1b60 f i main.obj
 0002:00016bf0       ??0?$_String_val@U?$_Simple_types@_W@std@@@std@@QEAA@XZ 00000001400f1bf0 f i main.obj
 0002:00016c80       ??0?$_Yarn@D@std@@QEAA@XZ  00000001400f1c80 f i main.obj
 0002:00016ce0       ??0?$_Yarn@_W@std@@QEAA@XZ 00000001400f1ce0 f i main.obj
 0002:00016d40       ??0?$allocator@D@std@@QEAA@XZ 00000001400f1d40 f i main.obj
 0002:00016d80       ??0?$allocator@_W@std@@QEAA@XZ 00000001400f1d80 f i main.obj
 0002:00016dc0       ??0?$basic_filebuf@DU?$char_traits@D@std@@@std@@QEAA@XZ 00000001400f1dc0 f i main.obj
 0002:00016e40       ??0?$basic_ios@DU?$char_traits@D@std@@@std@@IEAA@XZ 00000001400f1e40 f i main.obj
 0002:00016ee0       ??0?$basic_ofstream@DU?$char_traits@D@std@@@std@@QEAA@PEB_WHH@Z 00000001400f1ee0 f i main.obj
 0002:000170d0       ??0?$basic_ostream@DU?$char_traits@D@std@@@std@@QEAA@PEAV?$basic_streambuf@DU?$char_traits@D@std@@@1@_N@Z 00000001400f20d0 f i main.obj
 0002:00017230       ??0?$basic_streambuf@DU?$char_traits@D@std@@@std@@IEAA@XZ 00000001400f2230 f i main.obj
 0002:000173f0       ??0?$basic_string@DU?$char_traits@D@std@@V?$allocator@D@2@@std@@QEAA@$$QEAV01@@Z 00000001400f23f0 f i main.obj
 0002:000174f0       ??0?$basic_string@DU?$char_traits@D@std@@V?$allocator@D@2@@std@@QEAA@AEBV01@@Z 00000001400f24f0 f i main.obj
 0002:00017600       ??0?$basic_string@DU?$char_traits@D@std@@V?$allocator@D@2@@std@@QEAA@AEBV?$allocator@D@1@@Z 00000001400f2600 f i main.obj
 0002:00017690       ??0?$basic_string@DU?$char_traits@D@std@@V?$allocator@D@2@@std@@QEAA@QEBD@Z 00000001400f2690 f i main.obj
 0002:00017740       ??0?$basic_string@DU?$char_traits@D@std@@V?$allocator@D@2@@std@@QEAA@QEBD_K@Z 00000001400f2740 f i main.obj
 0002:000177e0       ??0?$basic_string@DU?$char_traits@D@std@@V?$allocator@D@2@@std@@QEAA@XZ 00000001400f27e0 f i main.obj
 0002:00017860       ??0?$basic_string@_WU?$char_traits@_W@std@@V?$allocator@_W@2@@std@@QEAA@AEBV01@@Z 00000001400f2860 f i main.obj
 0002:00017970       ??0?$basic_string@_WU?$char_traits@_W@std@@V?$allocator@_W@2@@std@@QEAA@XZ 00000001400f2970 f i main.obj
 0002:000179f0       ??0?$basic_string_view@DU?$char_traits@D@std@@@std@@QEAA@QEBD@Z 00000001400f29f0 f i main.obj
 0002:00017a70       ??0?$basic_string_view@DU?$char_traits@D@std@@@std@@QEAA@QEBD_K@Z 00000001400f2a70 f i main.obj
 0002:00017ba0       ??0?$basic_string_view@_WU?$char_traits@_W@std@@@std@@QEAA@QEB_W_K@Z 00000001400f2ba0 f i main.obj
 0002:00017cd0       ??0?$codecvt@DDU_Mbstatet@@@std@@QEAA@AEBV_Locinfo@1@_K@Z 00000001400f2cd0 f i main.obj
 0002:00017d70       ??0?$ctype@D@std@@QEAA@AEBV_Locinfo@1@_K@Z 00000001400f2d70 f i main.obj
 0002:00017e10       ??0?$fpos@U_Mbstatet@@@std@@QEAA@U_Mbstatet@@_J@Z 00000001400f2e10 f i main.obj
 0002:00017ea0       ??0?$fpos@U_Mbstatet@@@std@@QEAA@_J@Z 00000001400f2ea0 f i main.obj
 0002:00017f30       ??0_Basic_container_proxy_ptr12@std@@IEAA@XZ 00000001400f2f30 f i main.obj
 0002:00017f80       ??0_Bxty@?$_String_val@U?$_Simple_types@D@std@@@std@@QEAA@XZ 00000001400f2f80 f i main.obj
 0002:00017fe0       ??0_Bxty@?$_String_val@U?$_Simple_types@_W@std@@@std@@QEAA@XZ 00000001400f2fe0 f i main.obj
 0002:00018040       ??0_Container_base12@std@@QEAA@XZ 00000001400f3040 f i main.obj
 0002:00018090       ??0_Container_proxy@std@@QEAA@PEAU_Container_base12@1@@Z 00000001400f3090 f i main.obj
 0002:00018100       ??0_Facet_base@std@@QEAA@XZ 00000001400f3100 f i main.obj
 0002:00018140       ??0_File_status_and_error@filesystem@std@@QEAA@XZ 00000001400f3140 f i main.obj
 0002:00018190       ??0_Locinfo@std@@QEAA@PEBD@Z 00000001400f3190 f i main.obj
 0002:000182d0       ??0_System_error@std@@IEAA@Verror_code@1@@Z 00000001400f32d0 f i main.obj
 0002:000183b0       ??0_System_error@std@@IEAA@Verror_code@1@AEBV?$basic_string@DU?$char_traits@D@std@@V?$allocator@D@2@@1@@Z 00000001400f33b0 f i main.obj
 0002:00018520       ??0_System_error@std@@QEAA@AEBV01@@Z 00000001400f3520 f i main.obj
 0002:000185b0       ??0_System_error_message@std@@QEAA@K@Z 00000001400f35b0 f i main.obj
 0002:00018630       ??0bad_alloc@std@@AEAA@QEBD@Z 00000001400f3630 f i main.obj
 0002:000186b0       ??0bad_alloc@std@@QEAA@AEBV01@@Z 00000001400f36b0 f i main.obj
 0002:00018720       ??0bad_array_new_length@std@@QEAA@AEBV01@@Z 00000001400f3720 f i main.obj
 0002:00018790       ??0bad_array_new_length@std@@QEAA@XZ 00000001400f3790 f i main.obj
 0002:00018800       ??0bad_cast@std@@QEAA@AEBV01@@Z 00000001400f3800 f i main.obj
 0002:00018870       ??0bad_cast@std@@QEAA@XZ   00000001400f3870 f i main.obj
 0002:000188f0       ??0codecvt_base@std@@QEAA@_K@Z 00000001400f38f0 f i main.obj
 0002:00018970       ??0ctype_base@std@@QEAA@_K@Z 00000001400f3970 f i main.obj
 0002:000189f0       ??0error_code@std@@QEAA@HAEBVerror_category@1@@Z 00000001400f39f0 f i main.obj
 0002:00018a70       ??0error_code@std@@QEAA@XZ 00000001400f3a70 f i main.obj
 0002:00018ae0       ??0error_condition@std@@QEAA@HAEBVerror_category@1@@Z 00000001400f3ae0 f i main.obj
 0002:00018b60       ??0exception@std@@QEAA@AEBV01@@Z 00000001400f3b60 f i main.obj
 0002:00018c00       ??0exception@std@@QEAA@QEBD@Z 00000001400f3c00 f i main.obj
 0002:00018d10       ??0exception@std@@QEAA@QEBDH@Z 00000001400f3d10 f i main.obj
 0002:00018db0       ??0facet@locale@std@@IEAA@_K@Z 00000001400f3db0 f i main.obj
 0002:00018e30       ??0failure@ios_base@std@@QEAA@AEBV012@@Z 00000001400f3e30 f i main.obj
 0002:00018ea0       ??0failure@ios_base@std@@QEAA@PEBDAEBVerror_code@2@@Z 00000001400f3ea0 f i main.obj
 0002:00018f50       ??0file_status@filesystem@std@@QEAA@XZ 00000001400f3f50 f i main.obj
 0002:00018fb0       ??0filesystem_error@filesystem@std@@QEAA@AEBV012@@Z 00000001400f3fb0 f i main.obj
 0002:000190c0       ??0filesystem_error@filesystem@std@@QEAA@AEBV?$basic_string@DU?$char_traits@D@std@@V?$allocator@D@2@@2@AEBVpath@12@Verror_code@2@@Z 00000001400f40c0 f i main.obj
 0002:00019290       ??0filesystem_error@filesystem@std@@QEAA@AEBV?$basic_string@DU?$char_traits@D@std@@V?$allocator@D@2@@2@Verror_code@2@@Z 00000001400f4290 f i main.obj
 0002:000193a0       ??0id@locale@std@@QEAA@_K@Z 00000001400f43a0 f i main.obj
 0002:00019400       ??0ios_base@std@@IEAA@XZ   00000001400f4400 f i main.obj
 0002:00019500       ??0locale@std@@QEAA@AEBV01@@Z 00000001400f4500 f i main.obj
 0002:00019590       ??0locale@std@@QEAA@XZ     00000001400f4590 f i main.obj
 0002:000195f0       ??0path@filesystem@std@@QEAA@AEBV012@@Z 00000001400f45f0 f i main.obj
 0002:00019670       ??0path@filesystem@std@@QEAA@XZ 00000001400f4670 f i main.obj
 0002:000196d0       ??0runtime_error@std@@QEAA@AEBV01@@Z 00000001400f46d0 f i main.obj
 0002:00019740       ??0runtime_error@std@@QEAA@AEBV?$basic_string@DU?$char_traits@D@std@@V?$allocator@D@2@@1@@Z 00000001400f4740 f i main.obj
 0002:000197c0       ??0system_error@std@@QEAA@AEBV01@@Z 00000001400f47c0 f i main.obj
 0002:00019830       ??0system_error@std@@QEAA@Verror_code@1@@Z 00000001400f4830 f i main.obj
 0002:000198d0       ??0system_error@std@@QEAA@Verror_code@1@AEBV?$basic_string@DU?$char_traits@D@std@@V?$allocator@D@2@@1@@Z 00000001400f48d0 f i main.obj
 0002:00019980       ??0system_error@std@@QEAA@Verror_code@1@PEBD@Z 00000001400f4980 f i main.obj
 0002:00019a50       ??1?$_Compressed_pair@V?$allocator@D@std@@V?$_String_val@U?$_Simple_types@D@std@@@2@$00@std@@QEAA@XZ 00000001400f4a50 f i main.obj
 0002:00019a90       ??1?$_Compressed_pair@V?$allocator@_W@std@@V?$_String_val@U?$_Simple_types@_W@std@@@2@$00@std@@QEAA@XZ 00000001400f4a90 f i main.obj
 0002:00019ad0       ??1?$_Container_proxy_ptr12@V?$allocator@U_Container_proxy@std@@@std@@@std@@QEAA@XZ 00000001400f4ad0 f i main.obj
 0002:00019b40       ??1?$_String_val@U?$_Simple_types@D@std@@@std@@QEAA@XZ 00000001400f4b40 f i main.obj
 0002:00019b80       ??1?$_String_val@U?$_Simple_types@_W@std@@@std@@QEAA@XZ 00000001400f4b80 f i main.obj
 0002:00019bc0       ??1?$_Yarn@D@std@@QEAA@XZ  00000001400f4bc0 f i main.obj
 0002:00019c10       ??1?$_Yarn@_W@std@@QEAA@XZ 00000001400f4c10 f i main.obj
 0002:00019c60       ??1?$basic_filebuf@DU?$char_traits@D@std@@@std@@UEAA@XZ 00000001400f4c60 f i main.obj
 0002:00019d10       ??1?$basic_ios@DU?$char_traits@D@std@@@std@@UEAA@XZ 00000001400f4d10 f i main.obj
 0002:00019d70       ??1?$basic_ofstream@DU?$char_traits@D@std@@@std@@UEAA@XZ 00000001400f4d70 f i main.obj
 0002:00019e60       ??1?$basic_ostream@DU?$char_traits@D@std@@@std@@UEAA@XZ 00000001400f4e60 f i main.obj
 0002:00019f00       ??1?$basic_streambuf@DU?$char_traits@D@std@@@std@@UEAA@XZ 00000001400f4f00 f i main.obj
 0002:00019fa0       ??1?$basic_string@DU?$char_traits@D@std@@V?$allocator@D@2@@std@@QEAA@XZ 00000001400f4fa0 f i main.obj
 0002:0001a0b0       ??1?$basic_string@_WU?$char_traits@_W@std@@V?$allocator@_W@2@@std@@QEAA@XZ 00000001400f50b0 f i main.obj
 0002:0001a1c0       ??1?$codecvt@DDU_Mbstatet@@@std@@MEAA@XZ 00000001400f51c0 f i main.obj
 0002:0001a220       ??1?$ctype@D@std@@MEAA@XZ  00000001400f5220 f i main.obj
 0002:0001a290       ??1?$unique_ptr@V_Facet_base@std@@U?$default_delete@V_Facet_base@std@@@2@@std@@QEAA@XZ 00000001400f5290 f i main.obj
 0002:0001a320       ??1_Bxty@?$_String_val@U?$_Simple_types@D@std@@@std@@QEAA@XZ 00000001400f5320 f i main.obj
 0002:0001a360       ??1_Bxty@?$_String_val@U?$_Simple_types@_W@std@@@std@@QEAA@XZ 00000001400f5360 f i main.obj
 0002:0001a3a0       ??1_Facet_base@std@@UEAA@XZ 00000001400f53a0 f i main.obj
 0002:0001a3f0       ??1_Generic_error_category@std@@UEAA@XZ 00000001400f53f0 f i main.obj
 0002:0001a430       ??1_Iostream_error_category2@std@@UEAA@XZ 00000001400f5430 f i main.obj
 0002:0001a470       ??1_Locinfo@std@@QEAA@XZ   00000001400f5470 f i main.obj
 0002:0001a560       ??1_System_error@std@@UEAA@XZ 00000001400f5560 f i main.obj
 0002:0001a5a0       ??1_System_error_category@std@@UEAA@XZ 00000001400f55a0 f i main.obj
 0002:0001a5e0       ??1_System_error_message@std@@QEAA@XZ 00000001400f55e0 f i main.obj
 0002:0001a630       ??1bad_alloc@std@@UEAA@XZ  00000001400f5630 f i main.obj
 0002:0001a670       ??1bad_array_new_length@std@@UEAA@XZ 00000001400f5670 f i main.obj
 0002:0001a6b0       ??1bad_cast@std@@UEAA@XZ   00000001400f56b0 f i main.obj
 0002:0001a6f0       ??1codecvt_base@std@@UEAA@XZ 00000001400f56f0 f i main.obj
 0002:0001a750       ??1ctype_base@std@@UEAA@XZ 00000001400f5750 f i main.obj
 0002:0001a7b0       ??1error_category@std@@UEAA@XZ 00000001400f57b0 f i main.obj
 0002:0001a7f0       ??1exception@std@@UEAA@XZ  00000001400f57f0 f i main.obj
 0002:0001a860       ??1facet@locale@std@@MEAA@XZ 00000001400f5860 f i main.obj
 0002:0001a8c0       ??1failure@ios_base@std@@UEAA@XZ 00000001400f58c0 f i main.obj
 0002:0001a900       ??1filesystem_error@filesystem@std@@UEAA@XZ 00000001400f5900 f i main.obj
 0002:0001a980       ??1ios_base@std@@UEAA@XZ   00000001400f5980 f i main.obj
 0002:0001a9e0       ??1locale@std@@QEAA@XZ     00000001400f59e0 f i main.obj
 0002:0001aab0       ??1path@filesystem@std@@QEAA@XZ 00000001400f5ab0 f i main.obj
 0002:0001ab00       ??1runtime_error@std@@UEAA@XZ 00000001400f5b00 f i main.obj
 0002:0001ab40       ??1system_error@std@@UEAA@XZ 00000001400f5b40 f i main.obj
 0002:0001ab80       ??2@YAPEAX_KPEAX@Z         00000001400f5b80 f i main.obj
 0002:0001abd0       ??2_Crt_new_delete@std@@SAPEAX_K@Z 00000001400f5bd0 f i main.obj
 0002:0001ac40       ??2_Crt_new_delete@std@@SAPEAX_KAEBUnothrow_t@1@@Z 00000001400f5c40 f i main.obj
 0002:0001acd0       ??3_Crt_new_delete@std@@SAXPEAX@Z 00000001400f5cd0 f i main.obj
 0002:0001ad20       ??4?$basic_string@_WU?$char_traits@_W@std@@V?$allocator@_W@2@@std@@QEAAAEAV01@AEBV01@@Z 00000001400f5d20 f i main.obj
 0002:0001ae20       ??4path@filesystem@std@@QEAAAEAV012@AEBV012@@Z 00000001400f5e20 f i main.obj
 0002:0001ae80       ??7ios_base@std@@QEBA_NXZ  00000001400f5e80 f i main.obj
 0002:0001aed0       ??8error_category@std@@QEBA_NAEBV01@@Z 00000001400f5ed0 f i main.obj
 0002:0001af80       ??8std@@YA_NAEBVerror_condition@0@0@Z 00000001400f5f80 f i main.obj
 0002:0001b070       ??B?$basic_string@_WU?$char_traits@_W@std@@V?$allocator@_W@2@@std@@QEBA?AV?$basic_string_view@_WU?$char_traits@_W@std@@@1@XZ 00000001400f6070 f i main.obj
 0002:0001b110       ??B?$fpos@U_Mbstatet@@@std@@QEBA_JXZ 00000001400f6110 f i main.obj
 0002:0001b160       ??Berror_code@std@@QEBA_NXZ 00000001400f6160 f i main.obj
 0002:0001b1d0       ??Bid@locale@std@@QEAA_KXZ 00000001400f61d0 f i main.obj
 0002:0001b2e0       ??I@YA?AW4__std_fs_file_attr@@W40@0@Z 00000001400f62e0 f i main.obj
 0002:0001b330       ??Kfilesystem@std@@YA?AVpath@01@AEBV201@0@Z 00000001400f6330 f i main.obj
 0002:0001b700       ??R<lambda_1>@?1??append@?$basic_string@DU?$char_traits@D@std@@V?$allocator@D@2@@std@@QEAAAEAV23@QEBD_K@Z@QEBA@QEAD0101@Z 00000001400f6700 f i main.obj
 0002:0001b7f0       ??R<lambda_1>@?1??append@?$basic_string@DU?$char_traits@D@std@@V?$allocator@D@2@@std@@QEAAAEAV23@_KD@Z@QEBA@QEADQEBD00D@Z 00000001400f67f0 f i main.obj
 0002:0001b8e0       ??R<lambda_1>@?1??append@?$basic_string@_WU?$char_traits@_W@std@@V?$allocator@_W@2@@std@@QEAAAEAV23@QEB_W_K@Z@QEBA@QEA_W0101@Z 00000001400f68e0 f i main.obj
 0002:0001b9d0       ??R<lambda_1>@?1??append@?$basic_string@_WU?$char_traits@_W@std@@V?$allocator@_W@2@@std@@QEAAAEAV23@_K_W@Z@QEBA@QEA_WQEB_W001@Z 00000001400f69d0 f i main.obj
 0002:0001bac0       ??R<lambda_1>@?1??assign@?$basic_string@_WU?$char_traits@_W@std@@V?$allocator@_W@2@@std@@QEAAAEAV23@QEB_W_K@Z@QEBA@QEA_W10@Z 00000001400f6ac0 f i main.obj
 0002:0001bb60       ??R<lambda_1>@?1??push_back@?$basic_string@DU?$char_traits@D@std@@V?$allocator@D@2@@std@@QEAAXD@Z@QEBA@QEADQEBD_KD@Z 00000001400f6b60 f i main.obj
 0002:0001bc30       ??R<lambda_1>@?1??push_back@?$basic_string@_WU?$char_traits@_W@std@@V?$allocator@_W@2@@std@@QEAAX_W@Z@QEBA@QEA_WQEB_W_K0@Z 00000001400f6c30 f i main.obj
 0002:0001bd00       ??R<lambda_1>@?1??reserve@?$basic_string@DU?$char_traits@D@std@@V?$allocator@D@2@@std@@QEAAX_K@Z@QEBA@QEADQEBD0@Z 00000001400f6d00 f i main.obj
 0002:0001bd70       ??R<lambda_1>@?4???$_Resize_and_overwrite@V<lambda_1>@?4???Kfilesystem@std@@YA?AVpath@23@AEBV423@0@Z@@?$basic_string@_WU?$char_traits@_W@std@@V?$allocator@_W@2@@std@@QEAAX_KV0?4???Kfilesystem@2@YA?AVpath@32@AEBV432@1@Z@@Z@QEBA@QEA_WQEB_W0@Z 00000001400f6d70 f i main.obj
 0002:0001bde0       ??R<lambda_1>@?4???Kfilesystem@std@@YA?AVpath@12@AEBV312@0@Z@QEBA@PEA_W_K@Z 00000001400f6de0 f i main.obj
 0002:0001bef0       ??R?$default_delete@V_Facet_base@std@@@std@@QEBAXPEAV_Facet_base@1@@Z 00000001400f6ef0 f i main.obj
 0002:0001bfa0       ??R_Is_slash_oper@filesystem@std@@QEBA_N_W@Z 00000001400f6fa0 f i main.obj
 0002:0001c020       ??Y?$basic_string@DU?$char_traits@D@std@@V?$allocator@D@2@@std@@QEAAAEAV01@AEBV01@@Z 00000001400f7020 f i main.obj
 0002:0001c080       ??Y?$basic_string@DU?$char_traits@D@std@@V?$allocator@D@2@@std@@QEAAAEAV01@D@Z 00000001400f7080 f i main.obj
 0002:0001c0e0       ??_0path@filesystem@std@@QEAAAEAV012@AEBV012@@Z 00000001400f70e0 f i main.obj
 0002:0001c3d0       ??_D?$basic_ofstream@DU?$char_traits@D@std@@@std@@QEAAXXZ 00000001400f73d0 f i main.obj
 0002:0001c430       ??_D?$basic_ostream@DU?$char_traits@D@std@@@std@@QEAAXXZ 00000001400f7430 f i main.obj
 0002:0001c488       ??_E?$basic_ofstream@DU?$char_traits@D@std@@@std@@$4PPPPPPPM@A@EAAPEAXI@Z 00000001400f7488 f i main.obj
 0002:0001c498       ??_E?$basic_ostream@DU?$char_traits@D@std@@@std@@$4PPPPPPPM@A@EAAPEAXI@Z 00000001400f7498 f i main.obj
 0002:0001c4b0       ??_E?$basic_filebuf@DU?$char_traits@D@std@@@std@@UEAAPEAXI@Z 00000001400f74b0 f i main.obj
 0002:0001c4b0       ??_G?$basic_filebuf@DU?$char_traits@D@std@@@std@@UEAAPEAXI@Z 00000001400f74b0 f i main.obj
 0002:0001c520       ??_E?$basic_ios@DU?$char_traits@D@std@@@std@@UEAAPEAXI@Z 00000001400f7520 f i main.obj
 0002:0001c520       ??_G?$basic_ios@DU?$char_traits@D@std@@@std@@UEAAPEAXI@Z 00000001400f7520 f i main.obj
 0002:0001c590       ??_E?$basic_ofstream@DU?$char_traits@D@std@@@std@@UEAAPEAXI@Z 00000001400f7590 f i main.obj
 0002:0001c590       ??_G?$basic_ofstream@DU?$char_traits@D@std@@@std@@UEAAPEAXI@Z 00000001400f7590 f i main.obj
 0002:0001c620       ??_E?$basic_ostream@DU?$char_traits@D@std@@@std@@UEAAPEAXI@Z 00000001400f7620 f i main.obj
 0002:0001c620       ??_G?$basic_ostream@DU?$char_traits@D@std@@@std@@UEAAPEAXI@Z 00000001400f7620 f i main.obj
 0002:0001c6a0       ??_E?$basic_streambuf@DU?$char_traits@D@std@@@std@@UEAAPEAXI@Z 00000001400f76a0 f i main.obj
 0002:0001c6a0       ??_G?$basic_streambuf@DU?$char_traits@D@std@@@std@@UEAAPEAXI@Z 00000001400f76a0 f i main.obj
 0002:0001c710       ??_E?$codecvt@DDU_Mbstatet@@@std@@MEAAPEAXI@Z 00000001400f7710 f i main.obj
 0002:0001c710       ??_G?$codecvt@DDU_Mbstatet@@@std@@MEAAPEAXI@Z 00000001400f7710 f i main.obj
 0002:0001c7a0       ??_E?$ctype@D@std@@MEAAPEAXI@Z 00000001400f77a0 f i main.obj
 0002:0001c7a0       ??_G?$ctype@D@std@@MEAAPEAXI@Z 00000001400f77a0 f i main.obj
 0002:0001c830       ??_E_Facet_base@std@@UEAAPEAXI@Z 00000001400f7830 f i main.obj
 0002:0001c830       ??_G_Facet_base@std@@UEAAPEAXI@Z 00000001400f7830 f i main.obj
 0002:0001c8a0       ??_E_Generic_error_category@std@@UEAAPEAXI@Z 00000001400f78a0 f i main.obj
 0002:0001c8a0       ??_G_Generic_error_category@std@@UEAAPEAXI@Z 00000001400f78a0 f i main.obj
 0002:0001c910       ??_E_Iostream_error_category2@std@@UEAAPEAXI@Z 00000001400f7910 f i main.obj
 0002:0001c910       ??_G_Iostream_error_category2@std@@UEAAPEAXI@Z 00000001400f7910 f i main.obj
 0002:0001c980       ??_E_System_error@std@@UEAAPEAXI@Z 00000001400f7980 f i main.obj
 0002:0001c980       ??_G_System_error@std@@UEAAPEAXI@Z 00000001400f7980 f i main.obj
 0002:0001c9f0       ??_E_System_error_category@std@@UEAAPEAXI@Z 00000001400f79f0 f i main.obj
 0002:0001c9f0       ??_G_System_error_category@std@@UEAAPEAXI@Z 00000001400f79f0 f i main.obj
 0002:0001ca60       ??_Ebad_alloc@std@@UEAAPEAXI@Z 00000001400f7a60 f i main.obj
 0002:0001ca60       ??_Gbad_alloc@std@@UEAAPEAXI@Z 00000001400f7a60 f i main.obj
 0002:0001cad0       ??_Ebad_array_new_length@std@@UEAAPEAXI@Z 00000001400f7ad0 f i main.obj
 0002:0001cad0       ??_Gbad_array_new_length@std@@UEAAPEAXI@Z 00000001400f7ad0 f i main.obj
 0002:0001cb40       ??_Ebad_cast@std@@UEAAPEAXI@Z 00000001400f7b40 f i main.obj
 0002:0001cb40       ??_Gbad_cast@std@@UEAAPEAXI@Z 00000001400f7b40 f i main.obj
 0002:0001cbb0       ??_Ecodecvt_base@std@@UEAAPEAXI@Z 00000001400f7bb0 f i main.obj
 0002:0001cbb0       ??_Gcodecvt_base@std@@UEAAPEAXI@Z 00000001400f7bb0 f i main.obj
 0002:0001cc40       ??_Ectype_base@std@@UEAAPEAXI@Z 00000001400f7c40 f i main.obj
 0002:0001cc40       ??_Gctype_base@std@@UEAAPEAXI@Z 00000001400f7c40 f i main.obj
 0002:0001ccd0       ??_Eexception@std@@UEAAPEAXI@Z 00000001400f7cd0 f i main.obj
 0002:0001ccd0       ??_Gexception@std@@UEAAPEAXI@Z 00000001400f7cd0 f i main.obj
 0002:0001cd40       ??_Efacet@locale@std@@MEAAPEAXI@Z 00000001400f7d40 f i main.obj
 0002:0001cd40       ??_Gfacet@locale@std@@MEAAPEAXI@Z 00000001400f7d40 f i main.obj
 0002:0001cdd0       ??_Efailure@ios_base@std@@UEAAPEAXI@Z 00000001400f7dd0 f i main.obj
 0002:0001cdd0       ??_Gfailure@ios_base@std@@UEAAPEAXI@Z 00000001400f7dd0 f i main.obj
 0002:0001ce40       ??_Efilesystem_error@filesystem@std@@UEAAPEAXI@Z 00000001400f7e40 f i main.obj
 0002:0001ce40       ??_Gfilesystem_error@filesystem@std@@UEAAPEAXI@Z 00000001400f7e40 f i main.obj
 0002:0001ceb0       ??_Eios_base@std@@UEAAPEAXI@Z 00000001400f7eb0 f i main.obj
 0002:0001ceb0       ??_Gios_base@std@@UEAAPEAXI@Z 00000001400f7eb0 f i main.obj
 0002:0001cf20       ??_Glocale@std@@QEAAPEAXI@Z 00000001400f7f20 f i main.obj
 0002:0001cfb0       ??_Eruntime_error@std@@UEAAPEAXI@Z 00000001400f7fb0 f i main.obj
 0002:0001cfb0       ??_Gruntime_error@std@@UEAAPEAXI@Z 00000001400f7fb0 f i main.obj
 0002:0001d020       ??_Esystem_error@std@@UEAAPEAXI@Z 00000001400f8020 f i main.obj
 0002:0001d020       ??_Gsystem_error@std@@UEAAPEAXI@Z 00000001400f8020 f i main.obj
 0002:0001d090       ??__Ksv@string_view_literals@literals@std@@YA?AV?$basic_string_view@DU?$char_traits@D@std@@@3@PEBD_K@Z 00000001400f8090 f i main.obj
 0002:0001d100       ?_Activate_SSO_buffer@?$_String_val@U?$_Simple_types@D@std@@@std@@QEAAXXZ 00000001400f8100 f i main.obj
 0002:0001d190       ?_Activate_SSO_buffer@?$_String_val@U?$_Simple_types@_W@std@@@std@@QEAAXXZ 00000001400f8190 f i main.obj
 0002:0001d210       ?_Adjust_manually_vector_aligned@std@@YAXAEAPEAXAEA_K@Z 00000001400f8210 f i main.obj
 0002:0001d450       ?_Allocate@_Default_allocate_traits@std@@SAPEAX_K@Z 00000001400f8450 f i main.obj
 0002:0001d4a0       ?_C_str@locale@std@@QEBAPEBDXZ 00000001400f84a0 f i main.obj
 0002:0001d530       ?_Calculate_growth@?$basic_string@DU?$char_traits@D@std@@V?$allocator@D@2@@std@@AEBA_K_K@Z 00000001400f8530 f i main.obj
 0002:0001d5c0       ?_Calculate_growth@?$basic_string@DU?$char_traits@D@std@@V?$allocator@D@2@@std@@CA_K_K00@Z 00000001400f85c0 f i main.obj
 0002:0001d720       ?_Calculate_growth@?$basic_string@_WU?$char_traits@_W@std@@V?$allocator@_W@2@@std@@AEBA_K_K@Z 00000001400f8720 f i main.obj
 0002:0001d7b0       ?_Calculate_growth@?$basic_string@_WU?$char_traits@_W@std@@V?$allocator@_W@2@@std@@CA_K_K00@Z 00000001400f87b0 f i main.obj
 0002:0001d910       ?_Check_convert_result@std@@YAHU__std_fs_convert_result@@@Z 00000001400f8910 f i main.obj
 0002:0001d970       ?_Check_offset@?$_String_val@U?$_Simple_types@D@std@@@std@@QEBAX_K@Z 00000001400f8970 f i main.obj
 0002:0001d9d0       ?_Check_offset@?$_String_val@U?$_Simple_types@_W@std@@@std@@QEBAX_K@Z 00000001400f89d0 f i main.obj
 0002:0001da30       ?_Clamp_suffix_size@?$_String_val@U?$_Simple_types@D@std@@@std@@QEBA_K_K0@Z 00000001400f8a30 f i main.obj
 0002:0001dab0       ?_Construct_empty@?$basic_string@DU?$char_traits@D@std@@V?$allocator@D@2@@std@@AEAAXXZ 00000001400f8ab0 f i main.obj
 0002:0001db90       ?_Construct_empty@?$basic_string@_WU?$char_traits@_W@std@@V?$allocator@_W@2@@std@@AEAAXXZ 00000001400f8b90 f i main.obj
 0002:0001dc70       ?_Convert_narrow_to_wide@filesystem@std@@YA?AV?$basic_string@_WU?$char_traits@_W@std@@V?$allocator@_W@2@@2@W4__std_code_page@@V?$basic_string_view@DU?$char_traits@D@std@@@2@@Z 00000001400f8c70 f i main.obj
 0002:0001dea0       ?_Deallocate_for_capacity@?$basic_string@DU?$char_traits@D@std@@V?$allocator@D@2@@std@@CAXAEAV?$allocator@D@2@QEAD_K@Z 00000001400f8ea0 f i main.obj
 0002:0001df10       ?_Deallocate_for_capacity@?$basic_string@_WU?$char_traits@_W@std@@V?$allocator@_W@2@@std@@CAXAEAV?$allocator@_W@2@QEA_W_K@Z 00000001400f8f10 f i main.obj
 0002:0001df80       ?_Decref@facet@locale@std@@UEAAPEAV_Facet_base@3@XZ 00000001400f8f80 f i main.obj
 0002:0001dff0       ?_Endwrite@?$basic_filebuf@DU?$char_traits@D@std@@@std@@IEAA_NXZ 00000001400f8ff0 f i main.obj
 0002:0001e280       ?_Eos@?$basic_string@DU?$char_traits@D@std@@V?$allocator@D@2@@std@@AEAAX_K@Z 00000001400f9280 f i main.obj
 0002:0001e310       ?_Eos@?$basic_string@_WU?$char_traits@_W@std@@V?$allocator@_W@2@@std@@AEAAX_K@Z 00000001400f9310 f i main.obj
 0002:0001e3b0       ?_Erase_noexcept@?$basic_string@DU?$char_traits@D@std@@V?$allocator@D@2@@std@@AEAAAEAV12@_K_K@Z 00000001400f93b0 f i main.obj
 0002:0001e4f0       ?_Find_relative_path@filesystem@std@@YAPEB_WQEB_W0@Z 00000001400f94f0 f i main.obj
 0002:0001e580       ?_Find_root_name_end@filesystem@std@@YAPEB_WQEB_W0@Z 00000001400f9580 f i main.obj
 0002:0001e8a0       ?_Get_any_status@filesystem@std@@YA?AU_File_status_and_error@12@AEBVpath@12@W4__std_fs_stats_flags@@@Z 00000001400f98a0 f i main.obj
 0002:0001e9c0       ?_Get_first@?$_Compressed_pair@U?$default_delete@V_Facet_base@std@@@std@@PEAV_Facet_base@2@$00@std@@QEAAAEAU?$default_delete@V_Facet_base@std@@@2@XZ 00000001400f99c0 f i main.obj
 0002:0001ea00       ?_Get_first@?$_Compressed_pair@V?$allocator@D@std@@V?$_String_val@U?$_Simple_types@D@std@@@2@$00@std@@QEAAAEAV?$allocator@D@2@XZ 00000001400f9a00 f i main.obj
 0002:0001ea40       ?_Get_first@?$_Compressed_pair@V?$allocator@D@std@@V?$_String_val@U?$_Simple_types@D@std@@@2@$00@std@@QEBAAEBV?$allocator@D@2@XZ 00000001400f9a40 f i main.obj
 0002:0001ea80       ?_Get_first@?$_Compressed_pair@V?$allocator@_W@std@@V?$_String_val@U?$_Simple_types@_W@std@@@2@$00@std@@QEAAAEAV?$allocator@_W@2@XZ 00000001400f9a80 f i main.obj
 0002:0001eac0       ?_Get_first@?$_Compressed_pair@V?$allocator@_W@std@@V?$_String_val@U?$_Simple_types@_W@std@@@2@$00@std@@QEBAAEBV?$allocator@_W@2@XZ 00000001400f9ac0 f i main.obj
 0002:0001eb00       ?_Getal@?$basic_string@DU?$char_traits@D@std@@V?$allocator@D@2@@std@@AEAAAEAV?$allocator@D@2@XZ 00000001400f9b00 f i main.obj
 0002:0001eb50       ?_Getal@?$basic_string@DU?$char_traits@D@std@@V?$allocator@D@2@@std@@AEBAAEBV?$allocator@D@2@XZ 00000001400f9b50 f i main.obj
 0002:0001eba0       ?_Getal@?$basic_string@_WU?$char_traits@_W@std@@V?$allocator@_W@2@@std@@AEAAAEAV?$allocator@_W@2@XZ 00000001400f9ba0 f i main.obj
 0002:0001ebf0       ?_Getal@?$basic_string@_WU?$char_traits@_W@std@@V?$allocator@_W@2@@std@@AEBAAEBV?$allocator@_W@2@XZ 00000001400f9bf0 f i main.obj
 0002:0001ec40       ?_Getcat@?$codecvt@DDU_Mbstatet@@@std@@SA_KPEAPEBVfacet@locale@2@PEBV42@@Z 00000001400f9c40 f i main.obj
 0002:0001edc0       ?_Getcat@?$ctype@D@std@@SA_KPEAPEBVfacet@locale@2@PEBV42@@Z 00000001400f9dc0 f i main.obj
 0002:0001ef40       ?_Getctype@_Locinfo@std@@QEBA?AU_Ctypevec@@XZ 00000001400f9f40 f i main.obj
 0002:0001efb0       ?_Getfacet@locale@std@@QEBAPEBVfacet@12@_K@Z 00000001400f9fb0 f i main.obj
 0002:0001f0c0       ?_Gnavail@?$basic_streambuf@DU?$char_traits@D@std@@@std@@IEBA_JXZ 00000001400fa0c0 f i main.obj
 0002:0001f140       ?_Gndec@?$basic_streambuf@DU?$char_traits@D@std@@@std@@IEAAPEADXZ 00000001400fa140 f i main.obj
 0002:0001f1e0       ?_Gninc@?$basic_streambuf@DU?$char_traits@D@std@@@std@@IEAAPEADXZ 00000001400fa1e0 f i main.obj
 0002:0001f290       ?_Has_drive_letter_prefix@filesystem@std@@YA_NQEB_W0@Z 00000001400fa290 f i main.obj
 0002:0001f330       ?_Incref@facet@locale@std@@UEAAXXZ 00000001400fa330 f i main.obj
 0002:0001f380       ?_Init@?$basic_filebuf@DU?$char_traits@D@std@@@std@@IEAAXPEAU_iobuf@@W4_Initfl@12@@Z 00000001400fa380 f i main.obj
 0002:0001f560       ?_Init@?$basic_streambuf@DU?$char_traits@D@std@@@std@@IEAAXPEAPEAD0PEAH001@Z 00000001400fa560 f i main.obj
 0002:0001f630       ?_Init@?$basic_streambuf@DU?$char_traits@D@std@@@std@@IEAAXXZ 00000001400fa630 f i main.obj
 0002:0001f740       ?_Init@?$codecvt@DDU_Mbstatet@@@std@@IEAAXAEBV_Locinfo@2@@Z 00000001400fa740 f i main.obj
 0002:0001f780       ?_Init@?$ctype@D@std@@IEAAXAEBV_Locinfo@2@@Z 00000001400fa780 f i main.obj
 0002:0001f7f0       ?_Init@ios_base@std@@IEAAXXZ 00000001400fa7f0 f i main.obj
 0002:0001f940       ?_Initcvt@?$basic_filebuf@DU?$char_traits@D@std@@@std@@IEAAXAEBV?$codecvt@DDU_Mbstatet@@@2@@Z 00000001400fa940 f i main.obj
 0002:0001f9e0       ?_Is_constant_evaluated@std@@YA_NXZ 00000001400fa9e0 f i main.obj
 0002:0001fa20       ?_Is_drive_prefix@filesystem@std@@YA_NQEB_W@Z 00000001400faa20 f i main.obj
 0002:0001fab0       ?_Large_mode_engaged@?$_String_val@U?$_Simple_types@D@std@@@std@@QEBA_NXZ 00000001400faab0 f i main.obj
 0002:0001fb20       ?_Large_mode_engaged@?$_String_val@U?$_Simple_types@_W@std@@@std@@QEBA_NXZ 00000001400fab20 f i main.obj
 0002:0001fb90       ?_Lock@?$basic_filebuf@DU?$char_traits@D@std@@@std@@UEAAXXZ 00000001400fab90 f i main.obj
 0002:0001fc00       ?_Lock@?$basic_streambuf@DU?$char_traits@D@std@@@std@@UEAAXXZ 00000001400fac00 f i main.obj
 0002:0001fc40       ?_Make_ec@std@@YA?AVerror_code@1@W4__std_win_error@@@Z 00000001400fac40 f i main.obj
 0002:0001fcb0       ?_Makestr@_System_error@std@@CA?AV?$basic_string@DU?$char_traits@D@std@@V?$allocator@D@2@@2@Verror_code@2@V32@@Z 00000001400facb0 f i main.obj
 0002:0001fde0       ?_Myptr@?$_String_val@U?$_Simple_types@D@std@@@std@@QEAAPEADXZ 00000001400fade0 f i main.obj
 0002:0001fe60       ?_Myptr@?$_String_val@U?$_Simple_types@D@std@@@std@@QEBAPEBDXZ 00000001400fae60 f i main.obj
 0002:0001fee0       ?_Myptr@?$_String_val@U?$_Simple_types@_W@std@@@std@@QEAAPEA_WXZ 00000001400faee0 f i main.obj
 0002:0001ff60       ?_Myptr@?$_String_val@U?$_Simple_types@_W@std@@@std@@QEBAPEB_WXZ 00000001400faf60 f i main.obj
 0002:0001ffe0       ?_Orphan_all@_Container_base12@std@@QEAAXXZ 00000001400fafe0 f i main.obj
 0002:00020050       ?_Orphan_all_locked_v3@_Container_base12@std@@AEAAXXZ 00000001400fb050 f i main.obj
 0002:00020110       ?_Orphan_all_unlocked_v3@_Container_base12@std@@AEAAXXZ 00000001400fb110 f i main.obj
 0002:000201c0       ?_Parse_parent_path@filesystem@std@@YA?AV?$basic_string_view@_WU?$char_traits@_W@std@@@2@V32@@Z 00000001400fb1c0 f i main.obj
 0002:00020310       ?_Pnavail@?$basic_streambuf@DU?$char_traits@D@std@@@std@@IEBA_JXZ 00000001400fb310 f i main.obj
 0002:00020390       ?_Pninc@?$basic_streambuf@DU?$char_traits@D@std@@@std@@IEAAPEADXZ 00000001400fb390 f i main.obj
 0002:00020440       ?_Pretty_message@filesystem_error@filesystem@std@@CA?AV?$basic_string@DU?$char_traits@D@std@@V?$allocator@D@2@@3@V?$basic_string_view@DU?$char_traits@D@std@@@3@AEBVpath@23@1@Z 00000001400fb440 f i main.obj
 0002:00020830       ?_Range_compare@filesystem@std@@YAHQEB_W000@Z 00000001400fb830 f i main.obj
 0002:000208d0       ?_Refresh@file_status@filesystem@std@@QEAAXW4__std_win_error@@AEBU__std_fs_stats@@@Z 00000001400fb8d0 f i main.obj
 0002:00020aa0       ?_Release@_Basic_container_proxy_ptr12@std@@QEAAXXZ 00000001400fbaa0 f i main.obj
 0002:00020af0       ?_Reset_back@?$basic_filebuf@DU?$char_traits@D@std@@@std@@AEAAXXZ 00000001400fbaf0 f i main.obj
 0002:00020b90       ?_Set_back@?$basic_filebuf@DU?$char_traits@D@std@@@std@@AEAAXXZ 00000001400fbb90 f i main.obj
 0002:00020c70       ?_Swap_proxy_and_iterators@?$basic_string@DU?$char_traits@D@std@@V?$allocator@D@2@@std@@AEAAXAEAV12@@Z 00000001400fbc70 f i main.obj
 0002:00020ce0       ?_Swap_proxy_and_iterators@_Container_base12@std@@QEAAXAEAU12@@Z 00000001400fbce0 f i main.obj
 0002:00020d60       ?_Swap_proxy_and_iterators_locked@_Container_base12@std@@AEAAXAEAU12@@Z 00000001400fbd60 f i main.obj
 0002:00020e30       ?_Swap_proxy_and_iterators_unlocked@_Container_base12@std@@AEAAXAEAU12@@Z 00000001400fbe30 f i main.obj
 0002:00020f00       ?_Switch_to_buf@_Bxty@?$_String_val@U?$_Simple_types@D@std@@@std@@QEAAXXZ 00000001400fbf00 f i main.obj
 0002:00020fa0       ?_Switch_to_buf@_Bxty@?$_String_val@U?$_Simple_types@_W@std@@@std@@QEAAXXZ 00000001400fbfa0 f i main.obj
 0002:00021040       ?_Take_contents@?$basic_string@DU?$char_traits@D@std@@V?$allocator@D@2@@std@@AEAAXAEAV12@@Z 00000001400fc040 f i main.obj
 0002:000212e0       ?_Throw_bad_array_new_length@std@@YAXXZ 00000001400fc2e0 f i main.obj
 0002:00021340       ?_Throw_bad_cast@std@@YAXXZ 00000001400fc340 f i main.obj
 0002:000213a0       ?_Throw_fs_error@filesystem@std@@YAXPEBDAEBVerror_code@2@@Z 00000001400fc3a0 f i main.obj
 0002:000214b0       ?_Throw_fs_error@filesystem@std@@YAXPEBDAEBVerror_code@2@AEBVpath@12@@Z 00000001400fc4b0 f i main.obj
 0002:000215a0       ?_Throw_fs_error@filesystem@std@@YAXPEBDW4__std_win_error@@AEBVpath@12@@Z 00000001400fc5a0 f i main.obj
 0002:000216a0       ?_Throw_system_error@std@@YAXW4errc@1@@Z 00000001400fc6a0 f i main.obj
 0002:00021740       ?_Throw_system_error_from_std_win_error@std@@YAXW4__std_win_error@@@Z 00000001400fc740 f i main.obj
 0002:000217e0       ?_Tidy@?$_Yarn@D@std@@AEAAXXZ 00000001400fc7e0 f i main.obj
 0002:00021850       ?_Tidy@?$_Yarn@_W@std@@AEAAXXZ 00000001400fc850 f i main.obj
 0002:000218c0       ?_Tidy@?$ctype@D@std@@IEAAXXZ 00000001400fc8c0 f i main.obj
 0002:00021970       ?_Tidy_deallocate@?$basic_string@DU?$char_traits@D@std@@V?$allocator@D@2@@std@@AEAAXXZ 00000001400fc970 f i main.obj
 0002:00021a70       ?_Tidy_deallocate@?$basic_string@_WU?$char_traits@_W@std@@V?$allocator@_W@2@@std@@AEAAXXZ 00000001400fca70 f i main.obj
 0002:00021b70       ?_Unlock@?$basic_filebuf@DU?$char_traits@D@std@@@std@@UEAAXXZ 00000001400fcb70 f i main.obj
 0002:00021be0       ?_Unlock@?$basic_streambuf@DU?$char_traits@D@std@@@std@@UEAAXXZ 00000001400fcbe0 f i main.obj
 0002:00021c20       ?_Xlen_string@std@@YAXXZ   00000001400fcc20 f i main.obj
 0002:00021c60       ?_Xran@?$_String_val@U?$_Simple_types@D@std@@@std@@SAXXZ 00000001400fcc60 f i main.obj
 0002:00021ca0       ?_Xran@?$_String_val@U?$_Simple_types@_W@std@@@std@@SAXXZ 00000001400fcca0 f i main.obj
 0002:00021ce0       ?__autoclassinit2@?$basic_ofstream@DU?$char_traits@D@std@@@std@@QEAAX_K@Z 00000001400fcce0 f i main.obj
 0002:00021d20       ?__autoclassinit2@?$basic_string_view@DU?$char_traits@D@std@@@std@@QEAAX_K@Z 00000001400fcd20 f i main.obj
 0002:00021d60       ?__autoclassinit2@?$basic_string_view@_WU?$char_traits@_W@std@@@std@@QEAAX_K@Z 00000001400fcd60 f i main.obj
 0002:00021da0       ?__autoclassinit2@?$unique_ptr@V_Facet_base@std@@U?$default_delete@V_Facet_base@std@@@2@@std@@QEAAX_K@Z 00000001400fcda0 f i main.obj
 0002:00021de0       ?__autoclassinit2@error_code@std@@QEAAX_K@Z 00000001400fcde0 f i main.obj
 0002:00021e20       ?__autoclassinit2@locale@std@@QEAAX_K@Z 00000001400fce20 f i main.obj
 0002:00021e60       ?__empty_global_delete@@YAXPEAX@Z 00000001400fce60 f i main.obj
 0002:00021ea0       ?__empty_global_delete@@YAXPEAXW4align_val_t@std@@@Z 00000001400fcea0 f i main.obj
 0002:00021ee0       ?__empty_global_delete@@YAXPEAX_K@Z 00000001400fcee0 f i main.obj
 0002:00021ee0       ?__global_delete@@YAXPEAX_K@Z 00000001400fcee0 f i main.obj
 0002:00021f20       ?__empty_global_delete@@YAXPEAX_KW4align_val_t@std@@@Z 00000001400fcf20 f i main.obj
 0002:00021f70       ?allocate@?$allocator@D@std@@QEAAPEAD_K@Z 00000001400fcf70 f i main.obj
 0002:00021fd0       ?allocate@?$allocator@U_Container_proxy@std@@@std@@QEAAPEAU_Container_proxy@2@_K@Z 00000001400fcfd0 f i main.obj
 0002:00022030       ?allocate@?$allocator@_W@std@@QEAAPEA_W_K@Z 00000001400fd030 f i main.obj
 0002:00022090       ?always_noconv@codecvt_base@std@@QEBA_NXZ 00000001400fd090 f i main.obj
 0002:000220e0       ?append@?$basic_string@DU?$char_traits@D@std@@V?$allocator@D@2@@std@@QEAAAEAV12@AEBV12@@Z 00000001400fd0e0 f i main.obj
 0002:00022170       ?append@?$basic_string@DU?$char_traits@D@std@@V?$allocator@D@2@@std@@QEAAAEAV12@QEBD@Z 00000001400fd170 f i main.obj
 0002:000221e0       ?append@?$basic_string@DU?$char_traits@D@std@@V?$allocator@D@2@@std@@QEAAAEAV12@QEBD_K@Z 00000001400fd1e0 f i main.obj
 0002:00022350       ?append@?$basic_string@DU?$char_traits@D@std@@V?$allocator@D@2@@std@@QEAAAEAV12@_KD@Z 00000001400fd350 f i main.obj
 0002:000224c0       ?append@?$basic_string@_WU?$char_traits@_W@std@@V?$allocator@_W@2@@std@@QEAAAEAV12@QEB_W_K@Z 00000001400fd4c0 f i main.obj
 0002:00022630       ?append@?$basic_string@_WU?$char_traits@_W@std@@V?$allocator@_W@2@@std@@QEAAAEAV12@_K_W@Z 00000001400fd630 f i main.obj
 0002:000227a0       ?assign@?$_Char_traits@DH@std@@SAPEADQEAD_KD@Z 00000001400fd7a0 f i main.obj
 0002:00022840       ?assign@?$_Char_traits@DH@std@@SAXAEADAEBD@Z 00000001400fd840 f i main.obj
 0002:000228a0       ?assign@?$_Char_traits@_WG@std@@SAPEA_WQEA_W_K_W@Z 00000001400fd8a0 f i main.obj
 0002:00022940       ?assign@?$_Char_traits@_WG@std@@SAXAEA_WAEB_W@Z 00000001400fd940 f i main.obj
 0002:000229a0       ?assign@?$_Narrow_char_traits@DH@std@@SAPEADQEAD_KD@Z 00000001400fd9a0 f i main.obj
 0002:00022a40       ?assign@?$_Narrow_char_traits@DH@std@@SAXAEADAEBD@Z 00000001400fda40 f i main.obj
 0002:00022ac0       ?assign@?$_WChar_traits@_W@std@@SAPEA_WQEA_W_K_W@Z 00000001400fdac0 f i main.obj
 0002:00022b60       ?assign@?$_WChar_traits@_W@std@@SAXAEA_WAEB_W@Z 00000001400fdb60 f i main.obj
 0002:00022be0       ?assign@?$basic_string@_WU?$char_traits@_W@std@@V?$allocator@_W@2@@std@@QEAAAEAV12@QEB_W_K@Z 00000001400fdbe0 f i main.obj
 0002:00022cf0       ?c_str@?$_Yarn@D@std@@QEBAPEBDXZ 00000001400fdcf0 f i main.obj
 0002:00022d70       ?c_str@?$basic_string@DU?$char_traits@D@std@@V?$allocator@D@2@@std@@QEBAPEBDXZ 00000001400fdd70 f i main.obj
 0002:00022dc0       ?c_str@?$basic_string@_WU?$char_traits@_W@std@@V?$allocator@_W@2@@std@@QEBAPEB_WXZ 00000001400fddc0 f i main.obj
 0002:00022e10       ?c_str@path@filesystem@std@@QEBAPEB_WXZ 00000001400fde10 f i main.obj
 0002:00022e60       ?category@error_code@std@@QEBAAEBVerror_category@2@XZ 00000001400fde60 f i main.obj
 0002:00022eb0       ?category@error_condition@std@@QEBAAEBVerror_category@2@XZ 00000001400fdeb0 f i main.obj
 0002:00022f00       ?clear@?$basic_ios@DU?$char_traits@D@std@@@std@@QEAAXH_N@Z 00000001400fdf00 f i main.obj
 0002:00022fb0       ?clear@error_code@std@@QEAAXXZ 00000001400fdfb0 f i main.obj
 0002:00023010       ?clear@ios_base@std@@QEAAXH@Z 00000001400fe010 f i main.obj
 0002:00023070       ?clear@ios_base@std@@QEAAXH_N@Z 00000001400fe070 f i main.obj
 0002:000231b0       ?close@?$basic_filebuf@DU?$char_traits@D@std@@@std@@QEAAPEAV12@XZ 00000001400fe1b0 f i main.obj
 0002:00023290       ?close@?$basic_ofstream@DU?$char_traits@D@std@@@std@@QEAAXXZ 00000001400fe290 f i main.obj
 0002:00023330       ?compare@?$_WChar_traits@_W@std@@SAHQEB_W0_K@Z 00000001400fe330 f i main.obj
 0002:00023490       ?copy@?$_Char_traits@DH@std@@SAPEADQEADQEBD_K@Z 00000001400fe490 f i main.obj
 0002:00023580       ?copy@?$_Char_traits@_WG@std@@SAPEA_WQEA_WQEB_W_K@Z 00000001400fe580 f i main.obj
 0002:00023670       ?current_path@filesystem@std@@YA?AVpath@12@AEAVerror_code@2@@Z 00000001400fe670 f i main.obj
 0002:000237e0       ?current_path@filesystem@std@@YA?AVpath@12@XZ 00000001400fe7e0 f i main.obj
 0002:00023910       ?data@?$basic_string@DU?$char_traits@D@std@@V?$allocator@D@2@@std@@QEAAPEADXZ 00000001400fe910 f i main.obj
 0002:00023960       ?data@?$basic_string@_WU?$char_traits@_W@std@@V?$allocator@_W@2@@std@@QEAAPEA_WXZ 00000001400fe960 f i main.obj
 0002:000239b0       ?data@?$basic_string@_WU?$char_traits@_W@std@@V?$allocator@_W@2@@std@@QEBAPEB_WXZ 00000001400fe9b0 f i main.obj
 0002:00023a00       ?data@?$basic_string_view@DU?$char_traits@D@std@@@std@@QEBAPEBDXZ 00000001400fea00 f i main.obj
 0002:00023a50       ?data@?$basic_string_view@_WU?$char_traits@_W@std@@@std@@QEBAPEB_WXZ 00000001400fea50 f i main.obj
 0002:00023aa0       ?deallocate@?$_Default_allocator_traits@V?$allocator@U_Container_proxy@std@@@std@@@std@@SAXAEAV?$allocator@U_Container_proxy@std@@@2@QEAU_Container_proxy@2@_K@Z 00000001400feaa0 f i main.obj
 0002:00023b40       ?deallocate@?$allocator@D@std@@QEAAXQEAD_K@Z 00000001400feb40 f i main.obj
 0002:00023c50       ?deallocate@?$allocator@U_Container_proxy@std@@@std@@QEAAXQEAU_Container_proxy@2@_K@Z 00000001400fec50 f i main.obj
 0002:00023d60       ?deallocate@?$allocator@_W@std@@QEAAXQEA_W_K@Z 00000001400fed60 f i main.obj
 0002:00023e70       ?default_error_condition@_System_error_category@std@@UEBA?AVerror_condition@2@H@Z 00000001400fee70 f i main.obj
 0002:00023f60       ?default_error_condition@error_category@std@@UEBA?AVerror_condition@2@H@Z 00000001400fef60 f i main.obj
 0002:00023fd0       ?do_always_noconv@?$codecvt@DDU_Mbstatet@@@std@@MEBA_NXZ 00000001400fefd0 f i main.obj
 0002:00024010       ?do_always_noconv@codecvt_base@std@@MEBA_NXZ 00000001400ff010 f i main.obj
 0002:00024050       ?do_encoding@codecvt_base@std@@MEBAHXZ 00000001400ff050 f i main.obj
 0002:00024090       ?do_in@?$codecvt@DDU_Mbstatet@@@std@@MEBAHAEAU_Mbstatet@@PEBD1AEAPEBDPEAD3AEAPEAD@Z 00000001400ff090 f i main.obj
 0002:00024110       ?do_length@?$codecvt@DDU_Mbstatet@@@std@@MEBAHAEAU_Mbstatet@@PEBD1_K@Z 00000001400ff110 f i main.obj
 0002:00024220       ?do_max_length@codecvt_base@std@@MEBAHXZ 00000001400ff220 f i main.obj
 0002:00024260       ?do_narrow@?$ctype@D@std@@MEBADDD@Z 00000001400ff260 f i main.obj
 0002:000242b0       ?do_narrow@?$ctype@D@std@@MEBAPEBDPEBD0DPEAD@Z 00000001400ff2b0 f i main.obj
 0002:00024350       ?do_out@?$codecvt@DDU_Mbstatet@@@std@@MEBAHAEAU_Mbstatet@@PEBD1AEAPEBDPEAD3AEAPEAD@Z 00000001400ff350 f i main.obj
 0002:000243d0       ?do_tolower@?$ctype@D@std@@MEBADD@Z 00000001400ff3d0 f i main.obj
 0002:00024430       ?do_tolower@?$ctype@D@std@@MEBAPEBDPEADPEBD@Z 00000001400ff430 f i main.obj
 0002:000244f0       ?do_toupper@?$ctype@D@std@@MEBADD@Z 00000001400ff4f0 f i main.obj
 0002:00024550       ?do_toupper@?$ctype@D@std@@MEBAPEBDPEADPEBD@Z 00000001400ff550 f i main.obj
 0002:00024610       ?do_unshift@?$codecvt@DDU_Mbstatet@@@std@@MEBAHAEAU_Mbstatet@@PEAD1AEAPEAD@Z 00000001400ff610 f i main.obj
 0002:00024680       ?do_widen@?$ctype@D@std@@MEBADD@Z 00000001400ff680 f i main.obj
 0002:000246d0       ?do_widen@?$ctype@D@std@@MEBAPEBDPEBD0PEAD@Z 00000001400ff6d0 f i main.obj
 0002:00024770       ?eback@?$basic_streambuf@DU?$char_traits@D@std@@@std@@IEBAPEADXZ 00000001400ff770 f i main.obj
 0002:000247c0       ?egptr@?$basic_streambuf@DU?$char_traits@D@std@@@std@@IEBAPEADXZ 00000001400ff7c0 f i main.obj
 0002:00024820       ?empty@?$basic_string@DU?$char_traits@D@std@@V?$allocator@D@2@@std@@QEBA_NXZ 00000001400ff820 f i main.obj
 0002:00024890       ?empty@?$basic_string_view@DU?$char_traits@D@std@@@std@@QEBA_NXZ 00000001400ff890 f i main.obj
 0002:00024900       ?empty@?$basic_string_view@_WU?$char_traits@_W@std@@@std@@QEBA_NXZ 00000001400ff900 f i main.obj
 0002:00024970       ?eof@?$_Narrow_char_traits@DH@std@@SAHXZ 00000001400ff970 f i main.obj
 0002:000249b0       ?epptr@?$basic_streambuf@DU?$char_traits@D@std@@@std@@IEBAPEADXZ 00000001400ff9b0 f i main.obj
 0002:00024a10       ?eq_int_type@?$_Narrow_char_traits@DH@std@@SA_NHH@Z 00000001400ffa10 f i main.obj
 0002:00024a80       ?equivalent@error_category@std@@UEBA_NAEBVerror_code@2@H@Z 00000001400ffa80 f i main.obj
 0002:00024b30       ?equivalent@error_category@std@@UEBA_NHAEBVerror_condition@2@@Z 00000001400ffb30 f i main.obj
 0002:00024bc0       ?erase@?$basic_string@DU?$char_traits@D@std@@V?$allocator@D@2@@std@@QEAAAEAV12@_K0@Z 00000001400ffbc0 f i main.obj
 0002:00024c50       ?erase@?$basic_string@_WU?$char_traits@_W@std@@V?$allocator@_W@2@@std@@QEAAAEAV12@_K@Z 00000001400ffc50 f i main.obj
 0002:00024ce0       ?exists@filesystem@std@@YA_NAEBVpath@12@@Z 00000001400ffce0 f i main.obj
 0002:00024df0       ?exists@filesystem@std@@YA_NAEBVpath@12@AEAVerror_code@2@@Z 00000001400ffdf0 f i main.obj
 0002:00024eb0       ?fail@ios_base@std@@QEBA_NXZ 00000001400ffeb0 f i main.obj
 0002:00024f20       ?front@?$basic_string@DU?$char_traits@D@std@@V?$allocator@D@2@@std@@QEAAAEADXZ 00000001400fff20 f i main.obj
 0002:00025020       ?gbump@?$basic_streambuf@DU?$char_traits@D@std@@@std@@IEAAXH@Z 0000000140100020 f i main.obj
 0002:000250b0       ?generic_category@std@@YAAEBVerror_category@1@XZ 00000001401000b0 f i main.obj
 0002:000250f0       ?getloc@?$basic_streambuf@DU?$char_traits@D@std@@@std@@QEBA?AVlocale@2@XZ 00000001401000f0 f i main.obj
 0002:00025160       ?getloc@ios_base@std@@QEBA?AVlocale@2@XZ 0000000140100160 f i main.obj
 0002:000251d0       ?gptr@?$basic_streambuf@DU?$char_traits@D@std@@@std@@IEBAPEADXZ 00000001401001d0 f i main.obj
 0002:00025220       ?imbue@?$basic_filebuf@DU?$char_traits@D@std@@@std@@MEAAXAEBVlocale@2@@Z 0000000140100220 f i main.obj
 0002:00025280       ?imbue@?$basic_streambuf@DU?$char_traits@D@std@@@std@@MEAAXAEBVlocale@2@@Z 0000000140100280 f i main.obj
 0002:000252c0       ?in@?$codecvt@DDU_Mbstatet@@@std@@QEBAHAEAU_Mbstatet@@PEBD1AEAPEBDPEAD3AEAPEAD@Z 00000001401002c0 f i main.obj
 0002:00025390       ?init@?$basic_ios@DU?$char_traits@D@std@@@std@@IEAAXPEAV?$basic_streambuf@DU?$char_traits@D@std@@@2@_N@Z 0000000140100390 f i main.obj
 0002:00025480       ?iostream_category@std@@YAAEBVerror_category@1@XZ 0000000140100480 f i main.obj
 0002:000254c0       ?is_absolute@path@filesystem@std@@QEBA_NXZ 00000001401004c0 f i main.obj
 0002:00025600       ?is_constant_evaluated@std@@YA_NXZ 0000000140100600 f i main.obj
 0002:00025640       ?length@?$_Narrow_char_traits@DH@std@@SA_KQEBD@Z 0000000140100640 f i main.obj
 0002:000256c0       ?make_error_code@std@@YA?AVerror_code@1@W4errc@1@@Z 00000001401006c0 f i main.obj
 0002:00025730       ?make_error_code@std@@YA?AVerror_code@1@W4io_errc@1@@Z 0000000140100730 f i main.obj
 0002:000257a0       ?max_size@?$_Default_allocator_traits@V?$allocator@D@std@@@std@@SA_KAEBV?$allocator@D@2@@Z 00000001401007a0 f i main.obj
 0002:000257e0       ?max_size@?$_Default_allocator_traits@V?$allocator@_W@std@@@std@@SA_KAEBV?$allocator@_W@2@@Z 00000001401007e0 f i main.obj
 0002:00025830       ?max_size@?$basic_string@DU?$char_traits@D@std@@V?$allocator@D@2@@std@@QEBA_KXZ 0000000140100830 f i main.obj
 0002:00025950       ?max_size@?$basic_string@_WU?$char_traits@_W@std@@V?$allocator@_W@2@@std@@QEBA_KXZ 0000000140100950 f i main.obj
 0002:00025a70       ?message@_Generic_error_category@std@@UEBA?AV?$basic_string@DU?$char_traits@D@std@@V?$allocator@D@2@@2@H@Z 0000000140100a70 f i main.obj
 0002:00025b00       ?message@_Iostream_error_category2@std@@UEBA?AV?$basic_string@DU?$char_traits@D@std@@V?$allocator@D@2@@2@H@Z 0000000140100b00 f i main.obj
 0002:00025be0       ?message@_System_error_category@std@@UEBA?AV?$basic_string@DU?$char_traits@D@std@@V?$allocator@D@2@@2@H@Z 0000000140100be0 f i main.obj
 0002:00025d60       ?message@error_code@std@@QEBA?AV?$basic_string@DU?$char_traits@D@std@@V?$allocator@D@2@@2@XZ 0000000140100d60 f i main.obj
 0002:00025e30       ?move@?$_Char_traits@DH@std@@SAPEADQEADQEBD_K@Z 0000000140100e30 f i main.obj
 0002:00025fe0       ?move@?$_Char_traits@_WG@std@@SAPEA_WQEA_WQEB_W_K@Z 0000000140100fe0 f i main.obj
 0002:00026190       ?name@_Generic_error_category@std@@UEBAPEBDXZ 0000000140101190 f i main.obj
 0002:000261d0       ?name@_Iostream_error_category2@std@@UEBAPEBDXZ 00000001401011d0 f i main.obj
 0002:00026210       ?name@_System_error_category@std@@UEBAPEBDXZ 0000000140101210 f i main.obj
 0002:00026250       ?native@path@filesystem@std@@QEBAAEBV?$basic_string@_WU?$char_traits@_W@std@@V?$allocator@_W@2@@3@XZ 0000000140101250 f i main.obj
 0002:00026290       ?not_eof@?$_Narrow_char_traits@DH@std@@SAHH@Z 0000000140101290 f i main.obj
 0002:00026330       ?open@?$basic_filebuf@DU?$char_traits@D@std@@@std@@QEAAPEAV12@PEB_WHH@Z 0000000140101330 f i main.obj
 0002:00026460       ?out@?$codecvt@DDU_Mbstatet@@@std@@QEBAHAEAU_Mbstatet@@PEBD1AEAPEBDPEAD3AEAPEAD@Z 0000000140101460 f i main.obj
 0002:00026530       ?overflow@?$basic_filebuf@DU?$char_traits@D@std@@@std@@MEAAHH@Z 0000000140101530 f i main.obj
 0002:00026900       ?overflow@?$basic_streambuf@DU?$char_traits@D@std@@@std@@MEAAHH@Z 0000000140101900 f i main.obj
 0002:00026940       ?parent_path@path@filesystem@std@@QEBA?AV123@XZ 0000000140101940 f i main.obj
 0002:00026a20       ?pbackfail@?$basic_filebuf@DU?$char_traits@D@std@@@std@@MEAAHH@Z 0000000140101a20 f i main.obj
 0002:00026c50       ?pbackfail@?$basic_streambuf@DU?$char_traits@D@std@@@std@@MEAAHH@Z 0000000140101c50 f i main.obj
 0002:00026c90       ?pbump@?$basic_streambuf@DU?$char_traits@D@std@@@std@@IEAAXH@Z 0000000140101c90 f i main.obj
 0002:00026d20       ?permissions@file_status@filesystem@std@@QEAAXW4perms@23@@Z 0000000140101d20 f i main.obj
 0002:00026d70       ?pptr@?$basic_streambuf@DU?$char_traits@D@std@@@std@@IEBAPEADXZ 0000000140101d70 f i main.obj
 0002:00026dc0       ?push_back@?$basic_string@DU?$char_traits@D@std@@V?$allocator@D@2@@std@@QEAAXD@Z 0000000140101dc0 f i main.obj
 0002:00026ed0       ?push_back@?$basic_string@_WU?$char_traits@_W@std@@V?$allocator@_W@2@@std@@QEAAX_W@Z 0000000140101ed0 f i main.obj
 0002:00026fe0       ?rdstate@ios_base@std@@QEBAHXZ 0000000140101fe0 f i main.obj
 0002:00027030       ?release@?$unique_ptr@V_Facet_base@std@@U?$default_delete@V_Facet_base@std@@@2@@std@@QEAAPEAV_Facet_base@2@XZ 0000000140102030 f i main.obj
 0002:00027090       ?remove@filesystem@std@@YA_NAEBVpath@12@@Z 0000000140102090 f i main.obj
 0002:00027150       ?reserve@?$basic_string@DU?$char_traits@D@std@@V?$allocator@D@2@@std@@QEAAX_K@Z 0000000140102150 f i main.obj
 0002:00027200       ?resize@?$basic_string@DU?$char_traits@D@std@@V?$allocator@D@2@@std@@QEAAX_KD@Z 0000000140102200 f i main.obj
 0002:000272c0       ?resize@?$basic_string@_WU?$char_traits@_W@std@@V?$allocator@_W@2@@std@@QEAAX_K_W@Z 00000001401022c0 f i main.obj
 0002:00027380       ?seekoff@?$basic_filebuf@DU?$char_traits@D@std@@@std@@MEAA?AV?$fpos@U_Mbstatet@@@2@_JHH@Z 0000000140102380 f i main.obj
 0002:00027580       ?seekoff@?$basic_streambuf@DU?$char_traits@D@std@@@std@@MEAA?AV?$fpos@U_Mbstatet@@@2@_JHH@Z 0000000140102580 f i main.obj
 0002:000275f0       ?seekpos@?$basic_filebuf@DU?$char_traits@D@std@@@std@@MEAA?AV?$fpos@U_Mbstatet@@@2@V32@H@Z 00000001401025f0 f i main.obj
 0002:00027790       ?seekpos@?$basic_streambuf@DU?$char_traits@D@std@@@std@@MEAA?AV?$fpos@U_Mbstatet@@@2@V32@H@Z 0000000140102790 f i main.obj
 0002:00027800       ?select_on_container_copy_construction@?$_Default_allocator_traits@V?$allocator@D@std@@@std@@SA?AV?$allocator@D@2@AEBV32@@Z 0000000140102800 f i main.obj
 0002:00027850       ?select_on_container_copy_construction@?$_Default_allocator_traits@V?$allocator@_W@std@@@std@@SA?AV?$allocator@_W@2@AEBV32@@Z 0000000140102850 f i main.obj
 0002:000278a0       ?setbuf@?$basic_filebuf@DU?$char_traits@D@std@@@std@@MEAAPEAV?$basic_streambuf@DU?$char_traits@D@std@@@2@PEAD_J@Z 00000001401028a0 f i main.obj
 0002:000279a0       ?setbuf@?$basic_streambuf@DU?$char_traits@D@std@@@std@@MEAAPEAV12@PEAD_J@Z 00000001401029a0 f i main.obj
 0002:000279f0       ?setg@?$basic_streambuf@DU?$char_traits@D@std@@@std@@IEAAXPEAD00@Z 00000001401029f0 f i main.obj
 0002:00027aa0       ?setp@?$basic_streambuf@DU?$char_traits@D@std@@@std@@IEAAXPEAD0@Z 0000000140102aa0 f i main.obj
 0002:00027b40       ?setstate@?$basic_ios@DU?$char_traits@D@std@@@std@@QEAAXH_N@Z 0000000140102b40 f i main.obj
 0002:00027bc0       ?showmanyc@?$basic_streambuf@DU?$char_traits@D@std@@@std@@MEAA_JXZ 0000000140102bc0 f i main.obj
 0002:00027c00       ?size@?$basic_string@DU?$char_traits@D@std@@V?$allocator@D@2@@std@@QEBA_KXZ 0000000140102c00 f i main.obj
 0002:00027c50       ?size@?$basic_string@_WU?$char_traits@_W@std@@V?$allocator@_W@2@@std@@QEBA_KXZ 0000000140102c50 f i main.obj
 0002:00027ca0       ?size@?$basic_string_view@DU?$char_traits@D@std@@@std@@QEBA_KXZ 0000000140102ca0 f i main.obj
 0002:00027cf0       ?size@?$basic_string_view@_WU?$char_traits@_W@std@@@std@@QEBA_KXZ 0000000140102cf0 f i main.obj
 0002:00027d40       ?state@?$fpos@U_Mbstatet@@@std@@QEBA?AU_Mbstatet@@XZ 0000000140102d40 f i main.obj
 0002:00027da0       ?status@filesystem@std@@YA?AVfile_status@12@AEBVpath@12@AEAVerror_code@2@@Z 0000000140102da0 f i main.obj
 0002:00027ec0       ?sync@?$basic_filebuf@DU?$char_traits@D@std@@@std@@MEAAHXZ 0000000140102ec0 f i main.obj
 0002:00027fb0       ?sync@?$basic_streambuf@DU?$char_traits@D@std@@@std@@MEAAHXZ 0000000140102fb0 f i main.obj
 0002:00027ff0       ?system_category@std@@YAAEBVerror_category@1@XZ 0000000140102ff0 f i main.obj
 0002:00028030       ?to_char_type@?$_Narrow_char_traits@DH@std@@SADH@Z 0000000140103030 f i main.obj
 0002:00028070       ?to_int_type@?$_Narrow_char_traits@DH@std@@SAHD@Z 0000000140103070 f i main.obj
 0002:000280b0       ?type@file_status@filesystem@std@@QEAAXW4file_type@23@@Z 00000001401030b0 f i main.obj
 0002:00028100       ?type@file_status@filesystem@std@@QEBA?AW4file_type@23@XZ 0000000140103100 f i main.obj
 0002:00028140       ?uflow@?$basic_filebuf@DU?$char_traits@D@std@@@std@@MEAAHXZ 0000000140103140 f i main.obj
 0002:000285c0       ?uflow@?$basic_streambuf@DU?$char_traits@D@std@@@std@@MEAAHXZ 00000001401035c0 f i main.obj
 0002:00028680       ?underflow@?$basic_filebuf@DU?$char_traits@D@std@@@std@@MEAAHXZ 0000000140103680 f i main.obj
 0002:000287b0       ?underflow@?$basic_streambuf@DU?$char_traits@D@std@@@std@@MEAAHXZ 00000001401037b0 f i main.obj
 0002:000287f0       ?unshift@?$codecvt@DDU_Mbstatet@@@std@@QEBAHAEAU_Mbstatet@@PEAD1AEAPEAD@Z 00000001401037f0 f i main.obj
 0002:00028890       ?value@error_code@std@@QEBAHXZ 0000000140103890 f i main.obj
 0002:000288d0       ?value@error_condition@std@@QEBAHXZ 00000001401038d0 f i main.obj
 0002:00028910       ?what@exception@std@@UEBAPEBDXZ 0000000140103910 f i main.obj
 0002:00028990       ?what@filesystem_error@filesystem@std@@UEBAPEBDXZ 0000000140103990 f i main.obj
 0002:000289e0       ?widen@?$basic_ios@DU?$char_traits@D@std@@@std@@QEBADD@Z 00000001401039e0 f i main.obj
 0002:00028aa0       ?widen@?$ctype@D@std@@QEBADD@Z 0000000140103aa0 f i main.obj
 0002:00028b10       ?xsgetn@?$basic_filebuf@DU?$char_traits@D@std@@@std@@MEAA_JPEAD_J@Z 0000000140103b10 f i main.obj
 0002:00028e20       ?xsgetn@?$basic_streambuf@DU?$char_traits@D@std@@@std@@MEAA_JPEAD_J@Z 0000000140103e20 f i main.obj
 0002:00028fd0       ?xsputn@?$basic_filebuf@DU?$char_traits@D@std@@@std@@MEAA_JPEBD_J@Z 0000000140103fd0 f i main.obj
 0002:000291a0       ?xsputn@?$basic_streambuf@DU?$char_traits@D@std@@@std@@MEAA_JPEBD_J@Z 00000001401041a0 f i main.obj
 0002:00029390       __JustMyCode_Default       0000000140104390 f i main.obj
 0002:000293a0       __std_is_file_not_found    00000001401043a0 f i main.obj
 0002:00029430       wmain                      0000000140104430 f   main.obj
 0002:00029d20       wmemcmp                    0000000140104d20 f i main.obj
 0002:00029e20       wmemset                    0000000140104e20 f i main.obj
 0002:00029ebe       Sleep                      0000000140104ebe f   kernel32:KERNEL32.dll
 0002:00029ed0       ??0_Init_locks@std@@QEAA@XZ 0000000140104ed0 f   libcpmtd:xlock.obj
 0002:00029f80       ??0_Lockit@std@@QEAA@H@Z   0000000140104f80 f   libcpmtd:xlock.obj
 0002:0002a000       ??0_Lockit@std@@QEAA@XZ    0000000140105000 f   libcpmtd:xlock.obj
 0002:0002a070       ??1_Init_locks@std@@QEAA@XZ 0000000140105070 f   libcpmtd:xlock.obj
 0002:0002a110       ??1_Lockit@std@@QEAA@XZ    0000000140105110 f   libcpmtd:xlock.obj
 0002:0002a170       ?_Init_locks_ctor@_Init_locks@std@@CAXPEAV12@@Z 0000000140105170 f   libcpmtd:xlock.obj
 0002:0002a210       ?_Init_locks_dtor@_Init_locks@std@@CAXPEAV12@@Z 0000000140105210 f   libcpmtd:xlock.obj
 0002:0002a2b0       ?_Lockit_ctor@_Lockit@std@@CAXPEAV12@@Z 00000001401052b0 f   libcpmtd:xlock.obj
 0002:0002a2f0       ?_Lockit_ctor@_Lockit@std@@CAXPEAV12@H@Z 00000001401052f0 f   libcpmtd:xlock.obj
 0002:0002a360       ?_Lockit_ctor@_Lockit@std@@SAXH@Z 0000000140105360 f   libcpmtd:xlock.obj
 0002:0002a3b0       ?_Lockit_dtor@_Lockit@std@@CAXPEAV12@@Z 00000001401053b0 f   libcpmtd:xlock.obj
 0002:0002a3f0       ?_Lockit_dtor@_Lockit@std@@SAXH@Z 00000001401053f0 f   libcpmtd:xlock.obj
 0002:0002a440       ??0bad_alloc@std@@QEAA@XZ  0000000140105440 f i libcpmtd:xthrow.obj
 0002:0002a490       ??0bad_function_call@std@@QEAA@AEBV01@@Z 0000000140105490 f i libcpmtd:xthrow.obj
 0002:0002a4e0       ??0bad_function_call@std@@QEAA@XZ 00000001401054e0 f i libcpmtd:xthrow.obj
 0002:0002a520       ??0exception@std@@QEAA@XZ  0000000140105520 f i libcpmtd:xthrow.obj
 0002:0002a560       ??0invalid_argument@std@@QEAA@AEBV01@@Z 0000000140105560 f i libcpmtd:xthrow.obj
 0002:0002a5b0       ??0invalid_argument@std@@QEAA@PEBD@Z 00000001401055b0 f i libcpmtd:xthrow.obj
 0002:0002a600       ??0length_error@std@@QEAA@AEBV01@@Z 0000000140105600 f i libcpmtd:xthrow.obj
 0002:0002a650       ??0length_error@std@@QEAA@PEBD@Z 0000000140105650 f i libcpmtd:xthrow.obj
 0002:0002a6a0       ??0logic_error@std@@QEAA@AEBV01@@Z 00000001401056a0 f i libcpmtd:xthrow.obj
 0002:0002a6f0       ??0logic_error@std@@QEAA@PEBD@Z 00000001401056f0 f i libcpmtd:xthrow.obj
 0002:0002a740       ??0out_of_range@std@@QEAA@AEBV01@@Z 0000000140105740 f i libcpmtd:xthrow.obj
 0002:0002a790       ??0out_of_range@std@@QEAA@PEBD@Z 0000000140105790 f i libcpmtd:xthrow.obj
 0002:0002a7e0       ??0overflow_error@std@@QEAA@AEBV01@@Z 00000001401057e0 f i libcpmtd:xthrow.obj
 0002:0002a830       ??0overflow_error@std@@QEAA@PEBD@Z 0000000140105830 f i libcpmtd:xthrow.obj
 0002:0002a880       ??0regex_error@std@@QEAA@AEBV01@@Z 0000000140105880 f i libcpmtd:xthrow.obj
 0002:0002a8e0       ??0regex_error@std@@QEAA@W4error_type@regex_constants@1@@Z 00000001401058e0 f i libcpmtd:xthrow.obj
 0002:0002a940       ??0runtime_error@std@@QEAA@PEBD@Z 0000000140105940 f i libcpmtd:xthrow.obj
 0002:0002a990       ??1bad_function_call@std@@UEAA@XZ 0000000140105990 f i libcpmtd:xthrow.obj
 0002:0002a9b0       ??1invalid_argument@std@@UEAA@XZ 00000001401059b0 f i libcpmtd:xthrow.obj
 0002:0002a9d0       ??1length_error@std@@UEAA@XZ 00000001401059d0 f i libcpmtd:xthrow.obj
 0002:0002a9f0       ??1logic_error@std@@UEAA@XZ 00000001401059f0 f i libcpmtd:xthrow.obj
 0002:0002aa10       ??1out_of_range@std@@UEAA@XZ 0000000140105a10 f i libcpmtd:xthrow.obj
 0002:0002aa30       ??1overflow_error@std@@UEAA@XZ 0000000140105a30 f i libcpmtd:xthrow.obj
 0002:0002aa50       ??1regex_error@std@@UEAA@XZ 0000000140105a50 f i libcpmtd:xthrow.obj
 0002:0002aa70       ??_Ebad_function_call@std@@UEAAPEAXI@Z 0000000140105a70 f i libcpmtd:xthrow.obj
 0002:0002aa70       ??_Gbad_function_call@std@@UEAAPEAXI@Z 0000000140105a70 f i libcpmtd:xthrow.obj
 0002:0002aac0       ??_Einvalid_argument@std@@UEAAPEAXI@Z 0000000140105ac0 f i libcpmtd:xthrow.obj
 0002:0002aac0       ??_Ginvalid_argument@std@@UEAAPEAXI@Z 0000000140105ac0 f i libcpmtd:xthrow.obj
 0002:0002ab10       ??_Elength_error@std@@UEAAPEAXI@Z 0000000140105b10 f i libcpmtd:xthrow.obj
 0002:0002ab10       ??_Glength_error@std@@UEAAPEAXI@Z 0000000140105b10 f i libcpmtd:xthrow.obj
 0002:0002ab60       ??_Elogic_error@std@@UEAAPEAXI@Z 0000000140105b60 f i libcpmtd:xthrow.obj
 0002:0002ab60       ??_Glogic_error@std@@UEAAPEAXI@Z 0000000140105b60 f i libcpmtd:xthrow.obj
 0002:0002abb0       ??_Eout_of_range@std@@UEAAPEAXI@Z 0000000140105bb0 f i libcpmtd:xthrow.obj
 0002:0002abb0       ??_Gout_of_range@std@@UEAAPEAXI@Z 0000000140105bb0 f i libcpmtd:xthrow.obj
 0002:0002ac00       ??_Eoverflow_error@std@@UEAAPEAXI@Z 0000000140105c00 f i libcpmtd:xthrow.obj
 0002:0002ac00       ??_Goverflow_error@std@@UEAAPEAXI@Z 0000000140105c00 f i libcpmtd:xthrow.obj
 0002:0002ac50       ??_Eregex_error@std@@UEAAPEAXI@Z 0000000140105c50 f i libcpmtd:xthrow.obj
 0002:0002ac50       ??_Gregex_error@std@@UEAAPEAXI@Z 0000000140105c50 f i libcpmtd:xthrow.obj
 0002:0002aca0       ?_Stringify@regex_error@std@@CAPEBDW4error_type@regex_constants@2@@Z 0000000140105ca0 f i libcpmtd:xthrow.obj
 0002:0002adf0       ?_Xbad_alloc@std@@YAXXZ    0000000140105df0 f   libcpmtd:xthrow.obj
 0002:0002ae20       ?_Xbad_function_call@std@@YAXXZ 0000000140105e20 f   libcpmtd:xthrow.obj
 0002:0002ae50       ?_Xinvalid_argument@std@@YAXPEBD@Z 0000000140105e50 f   libcpmtd:xthrow.obj
 0002:0002ae90       ?_Xlength_error@std@@YAXPEBD@Z 0000000140105e90 f   libcpmtd:xthrow.obj
 0002:0002aed0       ?_Xout_of_range@std@@YAXPEBD@Z 0000000140105ed0 f   libcpmtd:xthrow.obj
 0002:0002af10       ?_Xoverflow_error@std@@YAXPEBD@Z 0000000140105f10 f   libcpmtd:xthrow.obj
 0002:0002af50       ?_Xregex_error@std@@YAXW4error_type@regex_constants@1@@Z 0000000140105f50 f   libcpmtd:xthrow.obj
 0002:0002af90       ?_Xruntime_error@std@@YAXPEBD@Z 0000000140105f90 f   libcpmtd:xthrow.obj
 0002:0002afd0       ?what@bad_function_call@std@@UEBAPEBDXZ 0000000140105fd0 f i libcpmtd:xthrow.obj
 0002:0002b000       __std_get_string_size_without_trailing_whitespace 0000000140106000 f   libcpmtd:syserror_import_lib.obj
 0002:0002b070       __std_system_error_allocate_message 0000000140106070 f   libcpmtd:syserror_import_lib.obj
 0002:0002b120       __std_system_error_deallocate_message 0000000140106120 f   libcpmtd:syserror_import_lib.obj
 0002:0002b140       ?_Syserror_map@std@@YAPEBDH@Z 0000000140106140 f   libcpmtd:syserror.obj
 0002:0002b1e0       ?_Winerror_map@std@@YAHH@Z 00000001401061e0 f   libcpmtd:syserror.obj
 0002:0002b270       ?_Winerror_message@std@@YAKKPEADK@Z 0000000140106270 f   libcpmtd:syserror.obj
 0002:0002b2f0       ??0?$_Yarn@D@std@@QEAA@PEBD@Z 00000001401062f0 f i libcpmtd:locale0.obj
 0002:0002b340       ??0_Fac_node@std@@QEAA@PEAU01@PEAV_Facet_base@1@@Z 0000000140106340 f i libcpmtd:locale0.obj
 0002:0002b380       ??0_Locimp@locale@std@@AEAA@AEBV012@@Z 0000000140106380 f i libcpmtd:locale0.obj
 0002:0002b470       ??0_Locimp@locale@std@@AEAA@_N@Z 0000000140106470 f i libcpmtd:locale0.obj
 0002:0002b520       ??0locale@std@@AEAA@U_Secret_locale_construct_tag@01@PEAV_Locimp@01@@Z 0000000140106520 f i libcpmtd:locale0.obj
 0002:0002b550       ??0locale@std@@QEAA@W4_Uninitialized@1@@Z 0000000140106550 f i libcpmtd:locale0.obj
 0002:0002b570       ??1_Fac_node@std@@QEAA@XZ  0000000140106570 f i libcpmtd:locale0.obj
 0002:0002b620       ??1_Fac_tidy_reg_t@std@@QEAA@XZ 0000000140106620 f i libcpmtd:locale0.obj
 0002:0002b6a0       ??1_Locimp@locale@std@@MEAA@XZ 00000001401066a0 f i libcpmtd:locale0.obj
 0002:0002b700       ??2_Fac_node@std@@SAPEAX_K@Z 0000000140106700 f i libcpmtd:locale0.obj
 0002:0002b780       ??3_Fac_node@std@@SAXPEAX@Z 0000000140106780 f i libcpmtd:locale0.obj
 0002:0002b7b0       ??4?$_Yarn@D@std@@QEAAAEAV01@PEBD@Z 00000001401067b0 f i libcpmtd:locale0.obj
 0002:0002b8c0       ??_G_Fac_node@std@@QEAAPEAXI@Z 00000001401068c0 f i libcpmtd:locale0.obj
 0002:0002b930       ??_E_Locimp@locale@std@@MEAAPEAXI@Z 0000000140106930 f i libcpmtd:locale0.obj
 0002:0002b930       ??_G_Locimp@locale@std@@MEAAPEAXI@Z 0000000140106930 f i libcpmtd:locale0.obj
 0002:0002b9a0       ?_C_str@?$_Yarn@D@std@@QEBAPEBDXZ 00000001401069a0 f i libcpmtd:locale0.obj
 0002:0002b9f0       ?_Empty@?$_Yarn@D@std@@QEBA_NXZ 00000001401069f0 f i libcpmtd:locale0.obj
 0002:0002ba30       ?_Facet_Register@std@@YAXPEAV_Facet_base@1@@Z 0000000140106a30 f   libcpmtd:locale0.obj
 0002:0002bab0       ?_Getgloballocale@locale@std@@CAPEAV_Locimp@12@XZ 0000000140106ab0 f   libcpmtd:locale0.obj
 0002:0002bac0       ?_Init@locale@std@@CAPEAV_Locimp@12@_N@Z 0000000140106ac0 f   libcpmtd:locale0.obj
 0002:0002bc30       ?_Locimp_dtor@_Locimp@locale@std@@CAXPEAV123@@Z 0000000140106c30 f   libcpmtd:locale0.obj
 0002:0002bd70       ?_Locinfo_ctor@_Locinfo@std@@SAXPEAV12@PEBD@Z 0000000140106d70 f   libcpmtd:locale0.obj
 0002:0002be50       ?_Locinfo_dtor@_Locinfo@std@@SAXPEAV12@@Z 0000000140106e50 f   libcpmtd:locale0.obj
 0002:0002beb0       ?_New_Locimp@_Locimp@locale@std@@CAPEAV123@AEBV123@@Z 0000000140106eb0 f   libcpmtd:locale0.obj
 0002:0002bf20       ?_New_Locimp@_Locimp@locale@std@@CAPEAV123@_N@Z 0000000140106f20 f   libcpmtd:locale0.obj
 0002:0002bf90       ?_Setgloballocale@locale@std@@CAXPEAX@Z 0000000140106f90 f   libcpmtd:locale0.obj
 0002:0002bfe0       ?classic@locale@std@@SAAEBV12@XZ 0000000140106fe0 f   libcpmtd:locale0.obj
 0002:0002c040       ?empty@locale@std@@SA?AV12@XZ 0000000140107040 f   libcpmtd:locale0.obj
 0002:0002c0b0       _Deletegloballocale        00000001401070b0 f   libcpmtd:locale0.obj
 0002:0002c1c0       _Getctype                  00000001401071c0 f   libcpmtd:_tolower.obj
 0002:0002c2f0       _Tolower                   00000001401072f0 f   libcpmtd:_tolower.obj
 0002:0002c640       _Toupper                   0000000140107640 f   libcpmtd:_toupper.obj
 0002:0002c990       ?_Addstd@ios_base@std@@SAXPEAV12@@Z 0000000140107990 f   libcpmtd:ios.obj
 0002:0002caa0       ?_Callfns@ios_base@std@@AEAAXW4event@12@@Z 0000000140107aa0 f i libcpmtd:ios.obj
 0002:0002cb30       ?_Ios_base_dtor@ios_base@std@@CAXPEAV12@@Z 0000000140107b30 f   libcpmtd:ios.obj
 0002:0002cbf0       ?_Tidy@ios_base@std@@AEAAXXZ 0000000140107bf0 f i libcpmtd:ios.obj
 0002:0002cf90       ?_Fiopen@std@@YAPEAU_iobuf@@PEBDHH@Z 0000000140107f90 f   libcpmtd:fiopen.obj
 0002:0002cfd0       ?_Fiopen@std@@YAPEAU_iobuf@@PEBGHH@Z 0000000140107fd0 f   libcpmtd:fiopen.obj
 0002:0002d010       ?_Fiopen@std@@YAPEAU_iobuf@@PEB_WHH@Z 0000000140108010 f   libcpmtd:fiopen.obj
 0002:0002d0f0       ??$?R_W@__crt_internal_free_policy@@QEBAXQEB_W@Z 00000001401080f0 f i libcpmtd:filesystem.obj
 0002:0002d120       ??$_Bitmask_includes_any@W4__std_fs_stats_flags@@@std@@YA_NW4__std_fs_stats_flags@@0@Z 0000000140108120 f i libcpmtd:filesystem.obj
 0002:0002d170       ??0?$__crt_unique_heap_ptr@_WU__crt_internal_free_policy@@@@QEAA@QEA_W@Z 0000000140108170 f i libcpmtd:filesystem.obj
 0002:0002d1a0       ??0_Fs_file@std@@QEAA@QEAX@Z 00000001401081a0 f i libcpmtd:filesystem.obj
 0002:0002d1d0       ??0_Fs_file@std@@QEAA@QEB_WW4__std_access_rights@@W4__std_fs_file_flags@@QEAW4__std_win_error@@@Z 00000001401081d0 f i libcpmtd:filesystem.obj
 0002:0002d230       ??1?$__crt_unique_heap_ptr@_WU__crt_internal_free_policy@@@@QEAA@XZ 0000000140108230 f i libcpmtd:filesystem.obj
 0002:0002d250       ??1_Fs_file@std@@QEAA@XZ   0000000140108250 f i libcpmtd:filesystem.obj
 0002:0002d280       ??4?$__crt_unique_heap_ptr@_WU__crt_internal_free_policy@@@@QEAAAEAV0@$$QEAV0@@Z 0000000140108280 f i libcpmtd:filesystem.obj
 0002:0002d2d0       ??B?$__crt_unique_heap_ptr@_WU__crt_internal_free_policy@@@@QEBA_NXZ 00000001401082d0 f i libcpmtd:filesystem.obj
 0002:0002d2f0       ??I@YA?AW4__std_fs_copy_options@@W40@0@Z 00000001401082f0 f i libcpmtd:filesystem.obj
 0002:0002d310       ??I@YA?AW4__std_fs_stats_flags@@W40@0@Z 0000000140108310 f i libcpmtd:filesystem.obj
 0002:0002d330       ??S@YA?AW4__std_fs_stats_flags@@W40@@Z 0000000140108330 f i libcpmtd:filesystem.obj
 0002:0002d340       ??U@YA?AW4__std_access_rights@@W40@0@Z 0000000140108340 f i libcpmtd:filesystem.obj
 0002:0002d360       ??U@YA?AW4__std_fs_file_flags@@W40@0@Z 0000000140108360 f i libcpmtd:filesystem.obj
 0002:0002d380       ??U@YA?AW4__std_fs_stats_flags@@W40@0@Z 0000000140108380 f i libcpmtd:filesystem.obj
 0002:0002d3a0       ??_4@YAAEAW4__std_fs_copy_options@@AEAW40@W40@@Z 00000001401083a0 f i libcpmtd:filesystem.obj
 0002:0002d3e0       ??_4@YAAEAW4__std_fs_stats_flags@@AEAW40@W40@@Z 00000001401083e0 f i libcpmtd:filesystem.obj
 0002:0002d4c0       ?_Get@_Fs_file@std@@QEBAPEAXXZ 00000001401084c0 f i libcpmtd:filesystem.obj
 0002:0002d890       ?get@?$__crt_unique_heap_ptr@_WU__crt_internal_free_policy@@@@QEBAPEA_WXZ 0000000140108890 f i libcpmtd:filesystem.obj
 0002:0002d8b0       ?is_valid@?$__crt_unique_heap_ptr@_WU__crt_internal_free_policy@@@@QEBA_NXZ 00000001401088b0 f i libcpmtd:filesystem.obj
 0002:0002d8f0       ?release@?$__crt_unique_heap_ptr@_WU__crt_internal_free_policy@@@@QEAAXXZ 00000001401088f0 f i libcpmtd:filesystem.obj
 0002:0002d930       _Stl_GetTempPath2W         0000000140108930 f   libcpmtd:filesystem.obj
 0002:0002d9d0       __std_fs_change_permissions 00000001401089d0 f   libcpmtd:filesystem.obj
 0002:0002dc60       __std_fs_close_handle      0000000140108c60 f   libcpmtd:filesystem.obj
 0002:0002dca0       __std_fs_code_page         0000000140108ca0 f   libcpmtd:filesystem.obj
 0002:0002dce0       __std_fs_convert_narrow_to_wide 0000000140108ce0 f   libcpmtd:filesystem.obj
 0002:0002dd80       __std_fs_convert_wide_to_narrow 0000000140108d80 f   libcpmtd:filesystem.obj
 0002:0002df70       __std_fs_convert_wide_to_narrow_replace_chars 0000000140108f70 f   libcpmtd:filesystem.obj
 0002:0002e0b0       __std_fs_copy_file         00000001401090b0 f   libcpmtd:filesystem.obj
 0002:0002e670       __std_fs_create_directory  0000000140109670 f   libcpmtd:filesystem.obj
 0002:0002e770       __std_fs_create_directory_symbolic_link 0000000140109770 f   libcpmtd:filesystem.obj
 0002:0002e7b0       __std_fs_create_directory_template 00000001401097b0 f   libcpmtd:filesystem.obj
 0002:0002e840       __std_fs_create_hard_link  0000000140109840 f   libcpmtd:filesystem.obj
 0002:0002e890       __std_fs_create_symbolic_link 0000000140109890 f   libcpmtd:filesystem.obj
 0002:0002e8c0       __std_fs_directory_iterator_advance 00000001401098c0 f   libcpmtd:filesystem.obj
 0002:0002e900       __std_fs_directory_iterator_close 0000000140109900 f   libcpmtd:filesystem.obj
 0002:0002e940       __std_fs_directory_iterator_open 0000000140109940 f   libcpmtd:filesystem.obj
 0002:0002e9d0       __std_fs_get_current_path  00000001401099d0 f   libcpmtd:filesystem.obj
 0002:0002ea50       __std_fs_get_file_attributes_by_handle 0000000140109a50 f   libcpmtd:filesystem.obj
 0002:0002eae0       __std_fs_get_file_id       0000000140109ae0 f   libcpmtd:filesystem.obj
 0002:0002eb90       __std_fs_get_final_path_name_by_handle 0000000140109b90 f   libcpmtd:filesystem.obj
 0002:0002ec20       __std_fs_get_full_path_name 0000000140109c20 f   libcpmtd:filesystem.obj
 0002:0002eca0       __std_fs_get_stats         0000000140109ca0 f   libcpmtd:filesystem.obj
 0002:0002f3a0       __std_fs_get_temp_path     000000014010a3a0 f   libcpmtd:filesystem.obj
 0002:0002f4c0       __std_fs_is_junction_from_reparse_data_buffer 000000014010a4c0 f   libcpmtd:filesystem.obj
 0002:0002f500       __std_fs_open_handle       000000014010a500 f   libcpmtd:filesystem.obj
 0002:0002f590       __std_fs_read_name_from_reparse_data_buffer 000000014010a590 f   libcpmtd:filesystem.obj
 0002:0002f780       __std_fs_read_reparse_data_buffer 000000014010a780 f   libcpmtd:filesystem.obj
 0002:0002f800       __std_fs_remove            000000014010a800 f   libcpmtd:filesystem.obj
 0002:0002fe10       __std_fs_rename            000000014010ae10 f   libcpmtd:filesystem.obj
 0002:0002fe60       __std_fs_resize_file       000000014010ae60 f   libcpmtd:filesystem.obj
 0002:0002ff50       __std_fs_set_current_path  000000014010af50 f   libcpmtd:filesystem.obj
 0002:0002ff80       __std_fs_set_last_write_time 000000014010af80 f   libcpmtd:filesystem.obj
 0002:00030060       __std_fs_space             000000014010b060 f   libcpmtd:filesystem.obj
 0002:00030470       __std_fs_write_reparse_data_buffer 000000014010b470 f   libcpmtd:filesystem.obj
 0002:00030500       _Mtxdst                    000000014010b500 f   libcpmtd:xmtx.obj
 0002:00030520       _Mtxinit                   000000014010b520 f   libcpmtd:xmtx.obj
 0002:00030550       _Mtxlock                   000000014010b550 f   libcpmtd:xmtx.obj
 0002:00030570       _Mtxunlock                 000000014010b570 f   libcpmtd:xmtx.obj
 0002:00030590       ??$?8DU?$char_traits@D@std@@@std@@YA_NAEBV?$istreambuf_iterator@DU?$char_traits@D@std@@@0@0@Z 000000014010b590 f i libcpmtd:locale.obj
 0002:000305c0       ??$_Adl_verify_range@PEADPEAD@std@@YAXAEBQEAD0@Z 000000014010b5c0 f i libcpmtd:locale.obj
 0002:00030690       ??$_Adl_verify_range@V?$istreambuf_iterator@DU?$char_traits@D@std@@@std@@V12@@std@@YAXAEBV?$istreambuf_iterator@DU?$char_traits@D@std@@@0@0@Z 000000014010b690 f i libcpmtd:locale.obj
 0002:000306a0       ??$_Construct@$0A@D@?$basic_string@DU?$char_traits@D@std@@V?$allocator@D@2@@std@@AEAAXD_K@Z 000000014010b6a0 f i libcpmtd:locale.obj
 0002:000308f0       ??$_Could_compare_equal_to_value_type@PEBDD@std@@YA_NAEBD@Z 000000014010b8f0 f i libcpmtd:locale.obj
 0002:00030950       ??$_Find_elem@D$0BL@@std@@YA_KAEAY0BL@$$CBDD@Z 000000014010b950 f i libcpmtd:locale.obj
 0002:00030990       ??$_Find_elem@D$0BN@@std@@YA_KAEAY0BN@$$CBDD@Z 000000014010b990 f i libcpmtd:locale.obj
 0002:000309d0       ??$_Find_unchecked@PEBDD@std@@YAPEBDPEBDQEBDAEBD@Z 000000014010b9d0 f i libcpmtd:locale.obj
 0002:00030ad0       ??$_Find_vectorized@$$CBDD@std@@YAPEBDQEBD0D@Z 000000014010bad0 f i libcpmtd:locale.obj
 0002:00030b10       ??$_Float_put_desired_precision@N@std@@YAH_JH@Z 000000014010bb10 f i libcpmtd:locale.obj
 0002:00030bd0       ??$_Float_put_desired_precision@O@std@@YAH_JH@Z 000000014010bbd0 f i libcpmtd:locale.obj
 0002:00030c90       ??$_Fput_v3@$0A@@?$num_put@DV?$ostreambuf_iterator@DU?$char_traits@D@std@@@std@@@std@@AEBA?AV?$ostreambuf_iterator@DU?$char_traits@D@std@@@1@V21@AEAVios_base@1@DPEBD_K_N@Z 000000014010bc90 f i libcpmtd:locale.obj
 0002:00031700       ??$_Get_unwrapped@AEBQEAD@std@@YA?A_TAEBQEAD@Z 000000014010c700 f i libcpmtd:locale.obj
 0002:00031720       ??$_Getloctxt@V?$istreambuf_iterator@DU?$char_traits@D@std@@@std@@D@std@@YAHAEAV?$istreambuf_iterator@DU?$char_traits@D@std@@@0@0_KPEBDW4_Case_sensitive@0@@Z 000000014010c720 f i libcpmtd:locale.obj
 0002:00031c70       ??$_Getvals@D@?$numpunct@D@std@@IEAAXDPEBUlconv@@U_Cvtvec@@@Z 000000014010cc70 f i libcpmtd:locale.obj
 0002:00031d00       ??$_Maklocchr@D@std@@YADDPEADAEBU_Cvtvec@@@Z 000000014010cd00 f i libcpmtd:locale.obj
 0002:00031d20       ??$_Maklocstr@D@std@@YAPEADPEBDPEADAEBU_Cvtvec@@@Z 000000014010cd20 f i libcpmtd:locale.obj
 0002:00031e00       ??$_Parse_fp_with_locale@$0A@@?$num_get@DV?$istreambuf_iterator@DU?$char_traits@D@std@@@std@@@std@@CA?AU_Num_get_parse_result@1@QEADHAEAV?$istreambuf_iterator@DU?$char_traits@D@std@@@1@1AEBVlocale@1@@Z 000000014010ce00 f i libcpmtd:locale.obj
 0002:00033510       ??$_Parse_int_with_locale@$0A@@?$num_get@DV?$istreambuf_iterator@DU?$char_traits@D@std@@@std@@@std@@CA?AU_Num_get_parse_result@1@QEADAEAV?$istreambuf_iterator@DU?$char_traits@D@std@@@1@1HAEBVlocale@1@@Z 000000014010e510 f i libcpmtd:locale.obj
 0002:00033ef0       ??$_Pocma@V?$allocator@D@std@@@std@@YAXAEAV?$allocator@D@0@0@Z 000000014010eef0 f i libcpmtd:locale.obj
 0002:00033f00       ??$_Reallocate_grow_by@V<lambda_1>@?1??insert@?$basic_string@DU?$char_traits@D@std@@V?$allocator@D@2@@std@@QEAAAEAV34@_K0D@Z@_K_KD@?$basic_string@DU?$char_traits@D@std@@V?$allocator@D@2@@std@@AEAAAEAV01@_KV<lambda_1>@?1??insert@01@QEAAAEAV01@00D@Z@_K2D@Z 000000014010ef00 f i libcpmtd:locale.obj
 0002:00034190       ??$_Reverse_vectorized@$00@std@@YAXPEAX0@Z 000000014010f190 f i libcpmtd:locale.obj
 0002:000341c0       ??$_To_address@PEAD@std@@YA?A_PAEBQEAD@Z 000000014010f1c0 f i libcpmtd:locale.obj
 0002:000341f0       ??$_To_address@PEBD@std@@YA?A_PAEBQEBD@Z 000000014010f1f0 f i libcpmtd:locale.obj
 0002:00034220       ??$addressof@V?$basic_string@DU?$char_traits@D@std@@V?$allocator@D@2@@std@@@std@@YAPEAV?$basic_string@DU?$char_traits@D@std@@V?$allocator@D@2@@0@AEAV10@@Z 000000014010f220 f i libcpmtd:locale.obj
 0002:00034230       ??$begin@$$CBD$0BL@@std@@YAPEBDAEAY0BL@$$CBD@Z 000000014010f230 f i libcpmtd:locale.obj
 0002:00034240       ??$begin@$$CBD$0BN@@std@@YAPEBDAEAY0BN@$$CBD@Z 000000014010f240 f i libcpmtd:locale.obj
 0002:00034250       ??$end@$$CBD$0BL@@std@@YAPEBDAEAY0BL@$$CBD@Z 000000014010f250 f i libcpmtd:locale.obj
 0002:00034270       ??$end@$$CBD$0BN@@std@@YAPEBDAEAY0BN@$$CBD@Z 000000014010f270 f i libcpmtd:locale.obj
 0002:00034290       ??$isfinite@N@@YA_NN@Z     000000014010f290 f i libcpmtd:locale.obj
 0002:000342e0       ??$isfinite@O@@YA_NO@Z     000000014010f2e0 f i libcpmtd:locale.obj
 0002:00034330       ??$reverse@PEAD@std@@YAXQEAD0@Z 000000014010f330 f i libcpmtd:locale.obj
 0002:00034440       ??$swap@D$0A@@std@@YAXAEAD0@Z 000000014010f440 f i libcpmtd:locale.obj
 0002:00034490       ??$to_address@$$CBD@std@@YAPEBDQEBD@Z 000000014010f490 f i libcpmtd:locale.obj
 0002:000344a0       ??$to_address@D@std@@YAPEADQEAD@Z 000000014010f4a0 f i libcpmtd:locale.obj
 0002:000344b0       ??$use_facet@V?$num_get@DV?$istreambuf_iterator@DU?$char_traits@D@std@@@std@@@std@@@std@@YAAEBV?$num_get@DV?$istreambuf_iterator@DU?$char_traits@D@std@@@std@@@0@AEBVlocale@0@@Z 000000014010f4b0 f i libcpmtd:locale.obj
 0002:00034610       ??$use_facet@V?$num_put@DV?$ostreambuf_iterator@DU?$char_traits@D@std@@@std@@@std@@@std@@YAAEBV?$num_put@DV?$ostreambuf_iterator@DU?$char_traits@D@std@@@std@@@0@AEBVlocale@0@@Z 000000014010f610 f i libcpmtd:locale.obj
 0002:00034770       ??$use_facet@V?$numpunct@D@std@@@std@@YAAEBV?$numpunct@D@0@AEBVlocale@0@@Z 000000014010f770 f i libcpmtd:locale.obj
 0002:000348d0       ??0?$basic_string@DU?$char_traits@D@std@@V?$allocator@D@2@@std@@QEAA@_KD@Z 000000014010f8d0 f i libcpmtd:locale.obj
 0002:00034930       ??0?$num_get@DV?$istreambuf_iterator@DU?$char_traits@D@std@@@std@@@std@@QEAA@AEBV_Locinfo@1@_K@Z 000000014010f930 f i libcpmtd:locale.obj
 0002:00034990       ??0?$num_put@DV?$ostreambuf_iterator@DU?$char_traits@D@std@@@std@@@std@@QEAA@AEBV_Locinfo@1@_K@Z 000000014010f990 f i libcpmtd:locale.obj
 0002:000349f0       ??0?$numpunct@D@std@@QEAA@AEBV_Locinfo@1@_K_N@Z 000000014010f9f0 f i libcpmtd:locale.obj
 0002:00034a60       ??1?$_Tidy_guard@V?$numpunct@D@std@@@std@@QEAA@XZ 000000014010fa60 f i libcpmtd:locale.obj
 0002:00034a90       ??1?$num_get@DV?$istreambuf_iterator@DU?$char_traits@D@std@@@std@@@std@@MEAA@XZ 000000014010fa90 f i libcpmtd:locale.obj
 0002:00034ad0       ??1?$num_put@DV?$ostreambuf_iterator@DU?$char_traits@D@std@@@std@@@std@@MEAA@XZ 000000014010fad0 f i libcpmtd:locale.obj
 0002:00034b10       ??1?$numpunct@D@std@@MEAA@XZ 000000014010fb10 f i libcpmtd:locale.obj
 0002:00034b50       ??4?$basic_string@DU?$char_traits@D@std@@V?$allocator@D@2@@std@@QEAAAEAV01@$$QEAV01@@Z 000000014010fb50 f i libcpmtd:locale.obj
 0002:00034bf0       ??4?$ostreambuf_iterator@DU?$char_traits@D@std@@@std@@QEAAAEAV01@D@Z 000000014010fbf0 f i libcpmtd:locale.obj
 0002:00034c80       ??A?$basic_string@DU?$char_traits@D@std@@V?$allocator@D@2@@std@@QEAAAEAD_K@Z 000000014010fc80 f i libcpmtd:locale.obj
 0002:00034d60       ??A?$basic_string@DU?$char_traits@D@std@@V?$allocator@D@2@@std@@QEBAAEBD_K@Z 000000014010fd60 f i libcpmtd:locale.obj
 0002:00034e40       ??D?$istreambuf_iterator@DU?$char_traits@D@std@@@std@@QEBADXZ 000000014010fe40 f i libcpmtd:locale.obj
 0002:00034f20       ??D?$ostreambuf_iterator@DU?$char_traits@D@std@@@std@@QEAAAEAV01@XZ 000000014010ff20 f i libcpmtd:locale.obj
 0002:00034f30       ??E?$istreambuf_iterator@DU?$char_traits@D@std@@@std@@QEAAAEAV01@XZ 000000014010ff30 f i libcpmtd:locale.obj
 0002:00034ff0       ??E?$ostreambuf_iterator@DU?$char_traits@D@std@@@std@@QEAAAEAV01@XZ 000000014010fff0 f i libcpmtd:locale.obj
 0002:00035000       ??R<lambda_1>@?1??insert@?$basic_string@DU?$char_traits@D@std@@V?$allocator@D@2@@std@@QEAAAEAV23@_K0D@Z@QEBA@QEADQEBD000D@Z 0000000140110000 f i libcpmtd:locale.obj
 0002:000350d0       ??_E?$num_get@DV?$istreambuf_iterator@DU?$char_traits@D@std@@@std@@@std@@MEAAPEAXI@Z 00000001401100d0 f i libcpmtd:locale.obj
 0002:000350d0       ??_G?$num_get@DV?$istreambuf_iterator@DU?$char_traits@D@std@@@std@@@std@@MEAAPEAXI@Z 00000001401100d0 f i libcpmtd:locale.obj
 0002:00035140       ??_E?$num_put@DV?$ostreambuf_iterator@DU?$char_traits@D@std@@@std@@@std@@MEAAPEAXI@Z 0000000140110140 f i libcpmtd:locale.obj
 0002:00035140       ??_G?$num_put@DV?$ostreambuf_iterator@DU?$char_traits@D@std@@@std@@@std@@MEAAPEAXI@Z 0000000140110140 f i libcpmtd:locale.obj
 0002:000351b0       ??_E?$numpunct@D@std@@MEAAPEAXI@Z 00000001401101b0 f i libcpmtd:locale.obj
 0002:000351b0       ??_G?$numpunct@D@std@@MEAAPEAXI@Z 00000001401101b0 f i libcpmtd:locale.obj
 0002:00035220       ?_Addfac@_Locimp@locale@std@@AEAAXPEAVfacet@23@_K@Z 0000000140110220 f i libcpmtd:locale.obj
 0002:00035260       ?_Apply_annotation@?$basic_string@DU?$char_traits@D@std@@V?$allocator@D@2@@std@@CAXQEBD_K11@Z 0000000140110260 f i libcpmtd:locale.obj
 0002:000353c0       ?_Clamp_to_end@_Asan_aligned_pointers@std@@QEBAPEBXPEBX@Z 00000001401103c0 f i libcpmtd:locale.obj
 0002:00035400       ?_Create_annotation@?$basic_string@DU?$char_traits@D@std@@V?$allocator@D@2@@std@@AEBAXXZ 0000000140110400 f i libcpmtd:locale.obj
 0002:00035490       ?_Ffmt@?$num_put@DV?$ostreambuf_iterator@DU?$char_traits@D@std@@@std@@@std@@AEBAPEADPEADDH@Z 0000000140110490 f i libcpmtd:locale.obj
 0002:00035660       ?_Get_asan_aligned_after@std@@YAPEBXQEBX@Z 0000000140110660 f i libcpmtd:locale.obj
 0002:00035680       ?_Getcat@?$num_get@DV?$istreambuf_iterator@DU?$char_traits@D@std@@@std@@@std@@SA_KPEAPEBVfacet@locale@2@PEBV42@@Z 0000000140110680 f i libcpmtd:locale.obj
 0002:000357b0       ?_Getcat@?$num_put@DV?$ostreambuf_iterator@DU?$char_traits@D@std@@@std@@@std@@SA_KPEAPEBVfacet@locale@2@PEBV42@@Z 00000001401107b0 f i libcpmtd:locale.obj
 0002:000358e0       ?_Getcat@?$numpunct@D@std@@SA_KPEAPEBVfacet@locale@2@PEBV42@@Z 00000001401108e0 f i libcpmtd:locale.obj
 0002:00035a20       ?_Getcvt@_Locinfo@std@@QEBA?AU_Cvtvec@@XZ 0000000140110a20 f i libcpmtd:locale.obj
 0002:00035a70       ?_Getfalse@_Locinfo@std@@QEBAPEBDXZ 0000000140110a70 f i libcpmtd:locale.obj
 0002:00035a80       ?_Getlconv@_Locinfo@std@@QEBAPEBUlconv@@XZ 0000000140110a80 f i libcpmtd:locale.obj
 0002:00035aa0       ?_Getname@_Locinfo@std@@QEBAPEBDXZ 0000000140110aa0 f i libcpmtd:locale.obj
 0002:00035ad0       ?_Gettrue@_Locinfo@std@@QEBAPEBDXZ 0000000140110ad0 f i libcpmtd:locale.obj
 0002:00035ae0       ?_Ifmt@?$num_put@DV?$ostreambuf_iterator@DU?$char_traits@D@std@@@std@@@std@@AEBAPEADPEADPEBDH@Z 0000000140110ae0 f i libcpmtd:locale.obj
 0002:00035cd0       ?_Inc@?$istreambuf_iterator@DU?$char_traits@D@std@@@std@@AEAAXXZ 0000000140110cd0 f i libcpmtd:locale.obj
 0002:00035d50       ?_Init@?$num_get@DV?$istreambuf_iterator@DU?$char_traits@D@std@@@std@@@std@@IEAAXAEBV_Locinfo@2@@Z 0000000140110d50 f i libcpmtd:locale.obj
 0002:00035d60       ?_Init@?$num_put@DV?$ostreambuf_iterator@DU?$char_traits@D@std@@@std@@@std@@IEAAXAEBV_Locinfo@2@@Z 0000000140110d60 f i libcpmtd:locale.obj
 0002:00035d70       ?_Init@?$numpunct@D@std@@IEAAXAEBV_Locinfo@2@_N@Z 0000000140110d70 f i libcpmtd:locale.obj
 0002:00035fc0       ?_Iput@?$num_put@DV?$ostreambuf_iterator@DU?$char_traits@D@std@@@std@@@std@@AEBA?AV?$ostreambuf_iterator@DU?$char_traits@D@std@@@2@V32@AEAVios_base@2@DPEAD_K@Z 0000000140110fc0 f i libcpmtd:locale.obj
 0002:000368e0       ?_Locimp_Addfac@_Locimp@locale@std@@CAXPEAV123@PEAVfacet@23@_K@Z 00000001401118e0 f   libcpmtd:locale.obj
 0002:00036b90       ?_Locimp_ctor@_Locimp@locale@std@@CAXPEAV123@AEBV123@@Z 0000000140111b90 f   libcpmtd:locale.obj
 0002:00036d50       ?_Locinfo_Addcats@_Locinfo@std@@SAAEAV12@PEAV12@HPEBD@Z 0000000140111d50 f   libcpmtd:locale.obj
 0002:00036f00       ?_Locinfo_ctor@_Locinfo@std@@SAXPEAV12@HPEBD@Z 0000000140111f00 f   libcpmtd:locale.obj
 0002:00036f90       ?_Makeloc@_Locimp@locale@std@@CAPEAV123@AEBV_Locinfo@3@HPEAV123@PEBV23@@Z 0000000140111f90 f   libcpmtd:locale.obj
 0002:00037750       ?_Modify_annotation@?$basic_string@DU?$char_traits@D@std@@V?$allocator@D@2@@std@@AEBAX_K0@Z 0000000140112750 f i libcpmtd:locale.obj
 0002:000377d0       ?_Peek@?$istreambuf_iterator@DU?$char_traits@D@std@@@std@@AEBADXZ 00000001401127d0 f i libcpmtd:locale.obj
 0002:00037870       ?_Put@?$num_put@DV?$ostreambuf_iterator@DU?$char_traits@D@std@@@std@@@std@@AEBA?AV?$ostreambuf_iterator@DU?$char_traits@D@std@@@2@V32@PEBD_K@Z 0000000140112870 f i libcpmtd:locale.obj
 0002:00037920       ?_Remove_annotation@?$basic_string@DU?$char_traits@D@std@@V?$allocator@D@2@@std@@AEBAXXZ 0000000140112920 f i libcpmtd:locale.obj
 0002:000379b0       ?_Rep@?$num_put@DV?$ostreambuf_iterator@DU?$char_traits@D@std@@@std@@@std@@AEBA?AV?$ostreambuf_iterator@DU?$char_traits@D@std@@@2@V32@D_K@Z 00000001401129b0 f i libcpmtd:locale.obj
 0002:00037a40       ?_Stodx_v3@std@@YANPEBDPEAPEADPEAH@Z 0000000140112a40 f i libcpmtd:locale.obj
 0002:00037ad0       ?_Stofx_v3@std@@YAMPEBDPEAPEADPEAH@Z 0000000140112ad0 f i libcpmtd:locale.obj
 0002:00037b60       ?_Tidy@?$numpunct@D@std@@AEAAXXZ 0000000140112b60 f i libcpmtd:locale.obj
 0002:00037bb0       ?abs@@YA_J_J@Z             0000000140112bb0 f i libcpmtd:locale.obj
 0002:00037bd0       ?assign@?$basic_string@DU?$char_traits@D@std@@V?$allocator@D@2@@std@@QEAAAEAV12@$$QEAV12@@Z 0000000140112bd0 f i libcpmtd:locale.obj
 0002:00037c00       ?data@?$basic_string@DU?$char_traits@D@std@@V?$allocator@D@2@@std@@QEBAPEBDXZ 0000000140112c00 f i libcpmtd:locale.obj
 0002:00037c30       ?decimal_point@?$numpunct@D@std@@QEBADXZ 0000000140112c30 f i libcpmtd:locale.obj
 0002:00037c70       ?do_decimal_point@?$numpunct@D@std@@MEBADXZ 0000000140112c70 f i libcpmtd:locale.obj
 0002:00037c90       ?do_falsename@?$numpunct@D@std@@MEBA?AV?$basic_string@DU?$char_traits@D@std@@V?$allocator@D@2@@2@XZ 0000000140112c90 f i libcpmtd:locale.obj
 0002:00037ce0       ?do_get@?$num_get@DV?$istreambuf_iterator@DU?$char_traits@D@std@@@std@@@std@@MEBA?AV?$istreambuf_iterator@DU?$char_traits@D@std@@@2@V32@0AEAVios_base@2@AEAHAEAG@Z 0000000140112ce0 f i libcpmtd:locale.obj
 0002:00037fe0       ?do_get@?$num_get@DV?$istreambuf_iterator@DU?$char_traits@D@std@@@std@@@std@@MEBA?AV?$istreambuf_iterator@DU?$char_traits@D@std@@@2@V32@0AEAVios_base@2@AEAHAEAI@Z 0000000140112fe0 f i libcpmtd:locale.obj
 0002:000380f0       ?do_get@?$num_get@DV?$istreambuf_iterator@DU?$char_traits@D@std@@@std@@@std@@MEBA?AV?$istreambuf_iterator@DU?$char_traits@D@std@@@2@V32@0AEAVios_base@2@AEAHAEAJ@Z 00000001401130f0 f i libcpmtd:locale.obj
 0002:00038320       ?do_get@?$num_get@DV?$istreambuf_iterator@DU?$char_traits@D@std@@@std@@@std@@MEBA?AV?$istreambuf_iterator@DU?$char_traits@D@std@@@2@V32@0AEAVios_base@2@AEAHAEAK@Z 0000000140113320 f i libcpmtd:locale.obj
 0002:00038550       ?do_get@?$num_get@DV?$istreambuf_iterator@DU?$char_traits@D@std@@@std@@@std@@MEBA?AV?$istreambuf_iterator@DU?$char_traits@D@std@@@2@V32@0AEAVios_base@2@AEAHAEAM@Z 0000000140113550 f i libcpmtd:locale.obj
 0002:00038760       ?do_get@?$num_get@DV?$istreambuf_iterator@DU?$char_traits@D@std@@@std@@@std@@MEBA?AV?$istreambuf_iterator@DU?$char_traits@D@std@@@2@V32@0AEAVios_base@2@AEAHAEAN@Z 0000000140113760 f i libcpmtd:locale.obj
 0002:00038970       ?do_get@?$num_get@DV?$istreambuf_iterator@DU?$char_traits@D@std@@@std@@@std@@MEBA?AV?$istreambuf_iterator@DU?$char_traits@D@std@@@2@V32@0AEAVios_base@2@AEAHAEAO@Z 0000000140113970 f i libcpmtd:locale.obj
 0002:00038a80       ?do_get@?$num_get@DV?$istreambuf_iterator@DU?$char_traits@D@std@@@std@@@std@@MEBA?AV?$istreambuf_iterator@DU?$char_traits@D@std@@@2@V32@0AEAVios_base@2@AEAHAEAPEAX@Z 0000000140113a80 f i libcpmtd:locale.obj
 0002:00038cb0       ?do_get@?$num_get@DV?$istreambuf_iterator@DU?$char_traits@D@std@@@std@@@std@@MEBA?AV?$istreambuf_iterator@DU?$char_traits@D@std@@@2@V32@0AEAVios_base@2@AEAHAEA_J@Z 0000000140113cb0 f i libcpmtd:locale.obj
 0002:00038ee0       ?do_get@?$num_get@DV?$istreambuf_iterator@DU?$char_traits@D@std@@@std@@@std@@MEBA?AV?$istreambuf_iterator@DU?$char_traits@D@std@@@2@V32@0AEAVios_base@2@AEAHAEA_K@Z 0000000140113ee0 f i libcpmtd:locale.obj
 0002:00039110       ?do_get@?$num_get@DV?$istreambuf_iterator@DU?$char_traits@D@std@@@std@@@std@@MEBA?AV?$istreambuf_iterator@DU?$char_traits@D@std@@@2@V32@0AEAVios_base@2@AEAHAEA_N@Z 0000000140114110 f i libcpmtd:locale.obj
 0002:00039600       ?do_grouping@?$numpunct@D@std@@MEBA?AV?$basic_string@DU?$char_traits@D@std@@V?$allocator@D@2@@2@XZ 0000000140114600 f i libcpmtd:locale.obj
 0002:00039650       ?do_put@?$num_put@DV?$ostreambuf_iterator@DU?$char_traits@D@std@@@std@@@std@@MEBA?AV?$ostreambuf_iterator@DU?$char_traits@D@std@@@2@V32@AEAVios_base@2@DJ@Z 0000000140114650 f i libcpmtd:locale.obj
 0002:000397b0       ?do_put@?$num_put@DV?$ostreambuf_iterator@DU?$char_traits@D@std@@@std@@@std@@MEBA?AV?$ostreambuf_iterator@DU?$char_traits@D@std@@@2@V32@AEAVios_base@2@DK@Z 00000001401147b0 f i libcpmtd:locale.obj
 0002:00039910       ?do_put@?$num_put@DV?$ostreambuf_iterator@DU?$char_traits@D@std@@@std@@@std@@MEBA?AV?$ostreambuf_iterator@DU?$char_traits@D@std@@@2@V32@AEAVios_base@2@DN@Z 0000000140114910 f i libcpmtd:locale.obj
 0002:00039cd0       ?do_put@?$num_put@DV?$ostreambuf_iterator@DU?$char_traits@D@std@@@std@@@std@@MEBA?AV?$ostreambuf_iterator@DU?$char_traits@D@std@@@2@V32@AEAVios_base@2@DO@Z 0000000140114cd0 f i libcpmtd:locale.obj
 0002:0003a090       ?do_put@?$num_put@DV?$ostreambuf_iterator@DU?$char_traits@D@std@@@std@@@std@@MEBA?AV?$ostreambuf_iterator@DU?$char_traits@D@std@@@2@V32@AEAVios_base@2@DPEBX@Z 0000000140115090 f i libcpmtd:locale.obj
 0002:0003a1b0       ?do_put@?$num_put@DV?$ostreambuf_iterator@DU?$char_traits@D@std@@@std@@@std@@MEBA?AV?$ostreambuf_iterator@DU?$char_traits@D@std@@@2@V32@AEAVios_base@2@D_J@Z 00000001401151b0 f i libcpmtd:locale.obj
 0002:0003a310       ?do_put@?$num_put@DV?$ostreambuf_iterator@DU?$char_traits@D@std@@@std@@@std@@MEBA?AV?$ostreambuf_iterator@DU?$char_traits@D@std@@@2@V32@AEAVios_base@2@D_K@Z 0000000140115310 f i libcpmtd:locale.obj
 0002:0003a470       ?do_put@?$num_put@DV?$ostreambuf_iterator@DU?$char_traits@D@std@@@std@@@std@@MEBA?AV?$ostreambuf_iterator@DU?$char_traits@D@std@@@2@V32@AEAVios_base@2@D_N@Z 0000000140115470 f i libcpmtd:locale.obj
 0002:0003a960       ?do_thousands_sep@?$numpunct@D@std@@MEBADXZ 0000000140115960 f i libcpmtd:locale.obj
 0002:0003a980       ?do_truename@?$numpunct@D@std@@MEBA?AV?$basic_string@DU?$char_traits@D@std@@V?$allocator@D@2@@2@XZ 0000000140115980 f i libcpmtd:locale.obj
 0002:0003a9d0       ?equal@?$istreambuf_iterator@DU?$char_traits@D@std@@@std@@QEBA_NAEBV12@@Z 00000001401159d0 f i libcpmtd:locale.obj
 0002:0003aa80       ?falsename@?$numpunct@D@std@@QEBA?AV?$basic_string@DU?$char_traits@D@std@@V?$allocator@D@2@@2@XZ 0000000140115a80 f i libcpmtd:locale.obj
 0002:0003ab00       ?flags@ios_base@std@@QEBAHXZ 0000000140115b00 f i libcpmtd:locale.obj
 0002:0003ab20       ?fpclassify@@YAHN@Z        0000000140115b20 f i libcpmtd:locale.obj
 0002:0003ab40       ?fpclassify@@YAHO@Z        0000000140115b40 f i libcpmtd:locale.obj
 0002:0003ab60       ?global@locale@std@@SA?AV12@AEBV12@@Z 0000000140115b60 f   libcpmtd:locale.obj
 0002:0003ad90       ?grouping@?$numpunct@D@std@@QEBA?AV?$basic_string@DU?$char_traits@D@std@@V?$allocator@D@2@@2@XZ 0000000140115d90 f i libcpmtd:locale.obj
 0002:0003ae10       ?insert@?$basic_string@DU?$char_traits@D@std@@V?$allocator@D@2@@std@@QEAAAEAV12@_K0D@Z 0000000140115e10 f i libcpmtd:locale.obj
 0002:0003afc0       ?precision@ios_base@std@@QEBA_JXZ 0000000140115fc0 f i libcpmtd:locale.obj
 0002:0003afe0       ?sbumpc@?$basic_streambuf@DU?$char_traits@D@std@@@std@@QEAAHXZ 0000000140115fe0 f i libcpmtd:locale.obj
 0002:0003b060       ?sgetc@?$basic_streambuf@DU?$char_traits@D@std@@@std@@QEAAHXZ 0000000140116060 f i libcpmtd:locale.obj
 0002:0003b0e0       ?sputc@?$basic_streambuf@DU?$char_traits@D@std@@@std@@QEAAHD@Z 00000001401160e0 f i libcpmtd:locale.obj
 0002:0003b190       ?thousands_sep@?$numpunct@D@std@@QEBADXZ 0000000140116190 f i libcpmtd:locale.obj
 0002:0003b1d0       ?tolower@?$ctype@D@std@@QEBADD@Z 00000001401161d0 f i libcpmtd:locale.obj
 0002:0003b230       ?truename@?$numpunct@D@std@@QEBA?AV?$basic_string@DU?$char_traits@D@std@@V?$allocator@D@2@@2@XZ 0000000140116230 f i libcpmtd:locale.obj
 0002:0003b2b0       ?widen@?$ctype@D@std@@QEBAPEBDPEBD0PEAD@Z 00000001401162b0 f i libcpmtd:locale.obj
 0002:0003b320       ?width@ios_base@std@@QEAA_J_J@Z 0000000140116320 f i libcpmtd:locale.obj
 0002:0003b360       ?width@ios_base@std@@QEBA_JXZ 0000000140116360 f i libcpmtd:locale.obj
 0002:0003b380       __local_stdio_printf_options 0000000140116380 f i libcpmtd:locale.obj
 0002:0003b390       _vsprintf_s_l              0000000140116390 f i libcpmtd:locale.obj
 0002:0003b420       fabsl                      0000000140116420 f i libcpmtd:locale.obj
 0002:0003b440       frexpl                     0000000140116440 f i libcpmtd:locale.obj
 0002:0003b470       sprintf_s                  0000000140116470 f i libcpmtd:locale.obj
 0002:0003b4e0       ??1_Init_atexit@@QEAA@XZ   00000001401164e0 f i libcpmtd:iosptrs.obj
 0002:0003b570       ?_Atexit@@YAXP6AXXZ@Z      0000000140116570 f   libcpmtd:iosptrs.obj
 0002:0003b5e0       ??0?$__crt_scoped_stack_ptr@_W@@QEAA@U?$__crt_scoped_stack_ptr_tag@_W@@@Z 00000001401165e0 f i libcpmtd:StlLCMapStringA.obj
 0002:0003b610       ??0?$__crt_scoped_stack_ptr_tag@_W@@QEAA@QEA_W@Z 0000000140116610 f i libcpmtd:StlLCMapStringA.obj
 0002:0003b640       ??1?$__crt_scoped_stack_ptr@_W@@QEAA@XZ 0000000140116640 f i libcpmtd:StlLCMapStringA.obj
 0002:0003b670       ??B?$__crt_scoped_stack_ptr@_W@@QEBA_NXZ 0000000140116670 f i libcpmtd:StlLCMapStringA.obj
 0002:0003b6b0       ?get@?$__crt_scoped_stack_ptr@_W@@QEBAPEA_WXZ 00000001401166b0 f i libcpmtd:StlLCMapStringA.obj
 0002:0003b6d0       _MallocaComputeSize        00000001401166d0 f i libcpmtd:StlLCMapStringA.obj
 0002:0003b720       _MarkAllocaS               0000000140116720 f i libcpmtd:StlLCMapStringA.obj
 0002:0003b760       __crtLCMapStringA          0000000140116760 f   libcpmtd:StlLCMapStringA.obj
 0002:0003be30       _freea_crt                 0000000140116e30 f i libcpmtd:StlLCMapStringA.obj
 0002:00079320       __std_bitset_to_string_1   0000000140154320 f   libcpmtd:vector_algorithms.obj
 0002:00079a20       __std_bitset_to_string_2   0000000140154a20 f   libcpmtd:vector_algorithms.obj
 0002:0007a090       __std_count_trivial_1      0000000140155090 f   libcpmtd:vector_algorithms.obj
 0002:0007a0d0       __std_count_trivial_2      00000001401550d0 f   libcpmtd:vector_algorithms.obj
 0002:0007a110       __std_count_trivial_4      0000000140155110 f   libcpmtd:vector_algorithms.obj
 0002:0007a150       __std_count_trivial_8      0000000140155150 f   libcpmtd:vector_algorithms.obj
 0002:0007a190       __std_find_first_of_trivial_1 0000000140155190 f   libcpmtd:vector_algorithms.obj
 0002:0007a1e0       __std_find_first_of_trivial_2 00000001401551e0 f   libcpmtd:vector_algorithms.obj
 0002:0007a230       __std_find_first_of_trivial_4 0000000140155230 f   libcpmtd:vector_algorithms.obj
 0002:0007a280       __std_find_first_of_trivial_8 0000000140155280 f   libcpmtd:vector_algorithms.obj
 0002:0007a2d0       __std_find_last_trivial_1  00000001401552d0 f   libcpmtd:vector_algorithms.obj
 0002:0007a310       __std_find_last_trivial_2  0000000140155310 f   libcpmtd:vector_algorithms.obj
 0002:0007a350       __std_find_last_trivial_4  0000000140155350 f   libcpmtd:vector_algorithms.obj
 0002:0007a390       __std_find_last_trivial_8  0000000140155390 f   libcpmtd:vector_algorithms.obj
 0002:0007a3d0       __std_find_trivial_1       00000001401553d0 f   libcpmtd:vector_algorithms.obj
 0002:0007a410       __std_find_trivial_2       0000000140155410 f   libcpmtd:vector_algorithms.obj
 0002:0007a450       __std_find_trivial_4       0000000140155450 f   libcpmtd:vector_algorithms.obj
 0002:0007a490       __std_find_trivial_8       0000000140155490 f   libcpmtd:vector_algorithms.obj
 0002:0007a4d0       __std_find_trivial_unsized_1 00000001401554d0 f   libcpmtd:vector_algorithms.obj
 0002:0007a510       __std_find_trivial_unsized_2 0000000140155510 f   libcpmtd:vector_algorithms.obj
 0002:0007a550       __std_find_trivial_unsized_4 0000000140155550 f   libcpmtd:vector_algorithms.obj
 0002:0007a580       __std_find_trivial_unsized_8 0000000140155580 f   libcpmtd:vector_algorithms.obj
 0002:0007a5b0       __std_max_1i               00000001401555b0 f   libcpmtd:vector_algorithms.obj
 0002:0007a5e0       __std_max_1u               00000001401555e0 f   libcpmtd:vector_algorithms.obj
 0002:0007a610       __std_max_2i               0000000140155610 f   libcpmtd:vector_algorithms.obj
 0002:0007a640       __std_max_2u               0000000140155640 f   libcpmtd:vector_algorithms.obj
 0002:0007a670       __std_max_4i               0000000140155670 f   libcpmtd:vector_algorithms.obj
 0002:0007a6a0       __std_max_4u               00000001401556a0 f   libcpmtd:vector_algorithms.obj
 0002:0007a6d0       __std_max_8i               00000001401556d0 f   libcpmtd:vector_algorithms.obj
 0002:0007a700       __std_max_8u               0000000140155700 f   libcpmtd:vector_algorithms.obj
 0002:0007a730       __std_max_d                0000000140155730 f   libcpmtd:vector_algorithms.obj
 0002:0007a760       __std_max_element_1        0000000140155760 f   libcpmtd:vector_algorithms.obj
 0002:0007a7a0       __std_max_element_2        00000001401557a0 f   libcpmtd:vector_algorithms.obj
 0002:0007a7e0       __std_max_element_4        00000001401557e0 f   libcpmtd:vector_algorithms.obj
 0002:0007a820       __std_max_element_8        0000000140155820 f   libcpmtd:vector_algorithms.obj
 0002:0007a860       __std_max_element_d        0000000140155860 f   libcpmtd:vector_algorithms.obj
 0002:0007a8a0       __std_max_element_f        00000001401558a0 f   libcpmtd:vector_algorithms.obj
 0002:0007a8e0       __std_max_f                00000001401558e0 f   libcpmtd:vector_algorithms.obj
 0002:0007a910       __std_min_1i               0000000140155910 f   libcpmtd:vector_algorithms.obj
 0002:0007a940       __std_min_1u               0000000140155940 f   libcpmtd:vector_algorithms.obj
 0002:0007a970       __std_min_2i               0000000140155970 f   libcpmtd:vector_algorithms.obj
 0002:0007a9a0       __std_min_2u               00000001401559a0 f   libcpmtd:vector_algorithms.obj
 0002:0007a9d0       __std_min_4i               00000001401559d0 f   libcpmtd:vector_algorithms.obj
 0002:0007aa00       __std_min_4u               0000000140155a00 f   libcpmtd:vector_algorithms.obj
 0002:0007aa30       __std_min_8i               0000000140155a30 f   libcpmtd:vector_algorithms.obj
 0002:0007aa60       __std_min_8u               0000000140155a60 f   libcpmtd:vector_algorithms.obj
 0002:0007aa90       __std_min_d                0000000140155a90 f   libcpmtd:vector_algorithms.obj
 0002:0007aac0       __std_min_element_1        0000000140155ac0 f   libcpmtd:vector_algorithms.obj
 0002:0007ab00       __std_min_element_2        0000000140155b00 f   libcpmtd:vector_algorithms.obj
 0002:0007ab40       __std_min_element_4        0000000140155b40 f   libcpmtd:vector_algorithms.obj
 0002:0007ab80       __std_min_element_8        0000000140155b80 f   libcpmtd:vector_algorithms.obj
 0002:0007abc0       __std_min_element_d        0000000140155bc0 f   libcpmtd:vector_algorithms.obj
 0002:0007ac00       __std_min_element_f        0000000140155c00 f   libcpmtd:vector_algorithms.obj
 0002:0007ac40       __std_min_f                0000000140155c40 f   libcpmtd:vector_algorithms.obj
 0002:0007ac70       __std_minmax_1i            0000000140155c70 f   libcpmtd:vector_algorithms.obj
 0002:0007acb0       __std_minmax_1u            0000000140155cb0 f   libcpmtd:vector_algorithms.obj
 0002:0007acf0       __std_minmax_2i            0000000140155cf0 f   libcpmtd:vector_algorithms.obj
 0002:0007ad30       __std_minmax_2u            0000000140155d30 f   libcpmtd:vector_algorithms.obj
 0002:0007ad70       __std_minmax_4i            0000000140155d70 f   libcpmtd:vector_algorithms.obj
 0002:0007adb0       __std_minmax_4u            0000000140155db0 f   libcpmtd:vector_algorithms.obj
 0002:0007adf0       __std_minmax_8i            0000000140155df0 f   libcpmtd:vector_algorithms.obj
 0002:0007ae70       __std_minmax_8u            0000000140155e70 f   libcpmtd:vector_algorithms.obj
 0002:0007aef0       __std_minmax_d             0000000140155ef0 f   libcpmtd:vector_algorithms.obj
 0002:0007af70       __std_minmax_element_1     0000000140155f70 f   libcpmtd:vector_algorithms.obj
 0002:0007afe0       __std_minmax_element_2     0000000140155fe0 f   libcpmtd:vector_algorithms.obj
 0002:0007b050       __std_minmax_element_4     0000000140156050 f   libcpmtd:vector_algorithms.obj
 0002:0007b0c0       __std_minmax_element_8     00000001401560c0 f   libcpmtd:vector_algorithms.obj
 0002:0007b130       __std_minmax_element_d     0000000140156130 f   libcpmtd:vector_algorithms.obj
 0002:0007b1a0       __std_minmax_element_f     00000001401561a0 f   libcpmtd:vector_algorithms.obj
 0002:0007b210       __std_minmax_f             0000000140156210 f   libcpmtd:vector_algorithms.obj
 0002:0007b250       __std_mismatch_1           0000000140156250 f   libcpmtd:vector_algorithms.obj
 0002:0007b290       __std_mismatch_2           0000000140156290 f   libcpmtd:vector_algorithms.obj
 0002:0007b2d0       __std_mismatch_4           00000001401562d0 f   libcpmtd:vector_algorithms.obj
 0002:0007b310       __std_mismatch_8           0000000140156310 f   libcpmtd:vector_algorithms.obj
 0002:0007b350       __std_replace_4            0000000140156350 f   libcpmtd:vector_algorithms.obj
 0002:0007b640       __std_replace_8            0000000140156640 f   libcpmtd:vector_algorithms.obj
 0002:0007b940       __std_reverse_copy_trivially_copyable_1 0000000140156940 f   libcpmtd:vector_algorithms.obj
 0002:0007bc60       __std_reverse_copy_trivially_copyable_2 0000000140156c60 f   libcpmtd:vector_algorithms.obj
 0002:0007bf80       __std_reverse_copy_trivially_copyable_4 0000000140156f80 f   libcpmtd:vector_algorithms.obj
 0002:0007c250       __std_reverse_copy_trivially_copyable_8 0000000140157250 f   libcpmtd:vector_algorithms.obj
 0002:0007c4f0       __std_reverse_trivially_swappable_1 00000001401574f0 f   libcpmtd:vector_algorithms.obj
 0002:0007c920       __std_reverse_trivially_swappable_2 0000000140157920 f   libcpmtd:vector_algorithms.obj
 0002:0007cd50       __std_reverse_trivially_swappable_4 0000000140157d50 f   libcpmtd:vector_algorithms.obj
 0002:0007d0f0       __std_reverse_trivially_swappable_8 00000001401580f0 f   libcpmtd:vector_algorithms.obj
 0002:0007d460       __std_swap_ranges_trivially_swappable 0000000140158460 f   libcpmtd:vector_algorithms.obj
 0002:0007d4c0       __std_swap_ranges_trivially_swappable_noalias 00000001401584c0 f   libcpmtd:vector_algorithms.obj
 0002:0007d910       wmemchr                    0000000140158910 f i libcpmtd:vector_algorithms.obj
 0002:0007d980       _Getcvt                    0000000140158980 f   libcpmtd:xwctomb.obj
 0002:0007dad0       _Wcrtomb                   0000000140158ad0 f   libcpmtd:xwctomb.obj
 0002:0007dca0       __Wcrtomb_lk               0000000140158ca0 f   libcpmtd:xwctomb.obj
 0002:0007dcf0       ??$?0$$V@?$_Compressed_pair@V?$allocator@G@std@@V?$_String_val@U?$_Simple_types@G@std@@@2@$00@std@@QEAA@U_Zero_then_variadic_args_t@1@@Z 0000000140158cf0 f i libcpmtd:wlocale.obj
 0002:0007dd30       ??$?0G@?$allocator@U_Container_proxy@std@@@std@@QEAA@AEBV?$allocator@G@1@@Z 0000000140158d30 f i libcpmtd:wlocale.obj
 0002:0007dd50       ??$?0V?$allocator@G@std@@$$V@?$_Compressed_pair@V?$allocator@G@std@@V?$_String_val@U?$_Simple_types@G@std@@@2@$00@std@@QEAA@U_One_then_variadic_args_t@1@$$QEAV?$allocator@G@1@@Z 0000000140158d50 f i libcpmtd:wlocale.obj
 0002:0007dd90       ??$?8GU?$char_traits@G@std@@@std@@YA_NAEBV?$istreambuf_iterator@GU?$char_traits@G@std@@@0@0@Z 0000000140158d90 f i libcpmtd:wlocale.obj
 0002:0007ddc0       ??$?8_WU?$char_traits@_W@std@@@std@@YA_NAEBV?$istreambuf_iterator@_WU?$char_traits@_W@std@@@0@0@Z 0000000140158dc0 f i libcpmtd:wlocale.obj
 0002:0007ddf0       ??$_Adl_verify_range@PEAGPEAG@std@@YAXAEBQEAG0@Z 0000000140158df0 f i libcpmtd:wlocale.obj
 0002:0007dec0       ??$_Adl_verify_range@PEAGPEBG@std@@YAXAEBQEAGAEBQEBG@Z 0000000140158ec0 f i libcpmtd:wlocale.obj
 0002:0007df90       ??$_Adl_verify_range@PEA_WPEA_W@std@@YAXAEBQEA_W0@Z 0000000140158f90 f i libcpmtd:wlocale.obj
 0002:0007e060       ??$_Adl_verify_range@PEA_WPEB_W@std@@YAXAEBQEA_WAEBQEB_W@Z 0000000140159060 f i libcpmtd:wlocale.obj
 0002:0007e130       ??$_Adl_verify_range@PEBGPEBG@std@@YAXAEBQEBG0@Z 0000000140159130 f i libcpmtd:wlocale.obj
 0002:0007e200       ??$_Adl_verify_range@V?$istreambuf_iterator@GU?$char_traits@G@std@@@std@@V12@@std@@YAXAEBV?$istreambuf_iterator@GU?$char_traits@G@std@@@0@0@Z 0000000140159200 f i libcpmtd:wlocale.obj
 0002:0007e210       ??$_Adl_verify_range@V?$istreambuf_iterator@_WU?$char_traits@_W@std@@@std@@V12@@std@@YAXAEBV?$istreambuf_iterator@_WU?$char_traits@_W@std@@@0@0@Z 0000000140159210 f i libcpmtd:wlocale.obj
 0002:0007e220       ??$_Allocate_at_least_helper@V?$allocator@G@std@@@std@@YAPEAGAEAV?$allocator@G@0@AEA_K@Z 0000000140159220 f i libcpmtd:wlocale.obj
 0002:0007e250       ??$_Allocate_for_capacity@$0A@@?$basic_string@GU?$char_traits@G@std@@V?$allocator@G@2@@std@@CAPEAGAEAV?$allocator@G@1@AEA_K@Z 0000000140159250 f i libcpmtd:wlocale.obj
 0002:0007e340       ??$_Construct@$00PEBG@?$basic_string@GU?$char_traits@G@std@@V?$allocator@G@2@@std@@AEAAXQEBG_K@Z 0000000140159340 f i libcpmtd:wlocale.obj
 0002:0007e5c0       ??$_Construct@$01PEBG@?$basic_string@GU?$char_traits@G@std@@V?$allocator@G@2@@std@@AEAAXQEBG_K@Z 00000001401595c0 f i libcpmtd:wlocale.obj
 0002:0007e7e0       ??$_Construct@$0A@G@?$basic_string@GU?$char_traits@G@std@@V?$allocator@G@2@@std@@AEAAXG_K@Z 00000001401597e0 f i libcpmtd:wlocale.obj
 0002:0007ea60       ??$_Construct@$0A@_W@?$basic_string@_WU?$char_traits@_W@std@@V?$allocator@_W@2@@std@@AEAAX_W_K@Z 0000000140159a60 f i libcpmtd:wlocale.obj
 0002:0007ece0       ??$_Construct_in_place@PEAGAEAPEAG@std@@YAXAEAPEAG0@Z 0000000140159ce0 f i libcpmtd:wlocale.obj
 0002:0007ed60       ??$_Construct_in_place@PEAGAEBQEAG@std@@YAXAEAPEAGAEBQEAG@Z 0000000140159d60 f i libcpmtd:wlocale.obj
 0002:0007ede0       ??$_Construct_in_place@PEA_WAEAPEA_W@std@@YAXAEAPEA_W0@Z 0000000140159de0 f i libcpmtd:wlocale.obj
 0002:0007ee60       ??$_Copy_unchecked@PEA_WPEA_WV?$ostreambuf_iterator@GU?$char_traits@G@std@@@std@@@std@@YA?AV?$ostreambuf_iterator@GU?$char_traits@G@std@@@0@PEA_W0V10@@Z 0000000140159e60 f i libcpmtd:wlocale.obj
 0002:0007ef10       ??$_Copy_unchecked@PEA_WPEA_WV?$ostreambuf_iterator@_WU?$char_traits@_W@std@@@std@@@std@@YA?AV?$ostreambuf_iterator@_WU?$char_traits@_W@std@@@0@PEA_W0V10@@Z 0000000140159f10 f i libcpmtd:wlocale.obj
 0002:0007efc0       ??$_Could_compare_equal_to_value_type@PEBGG@std@@YA_NAEBG@Z 0000000140159fc0 f i libcpmtd:wlocale.obj
 0002:0007f010       ??$_Could_compare_equal_to_value_type@PEB_W_W@std@@YA_NAEB_W@Z 000000014015a010 f i libcpmtd:wlocale.obj
 0002:0007f060       ??$_Destroy_in_place@PEAG@std@@YAXAEAPEAG@Z 000000014015a060 f i libcpmtd:wlocale.obj
 0002:0007f070       ??$_Find_elem@G$0BL@@std@@YA_KAEAY0BL@$$CBGG@Z 000000014015a070 f i libcpmtd:wlocale.obj
 0002:0007f0c0       ??$_Find_elem@G$0BN@@std@@YA_KAEAY0BN@$$CBGG@Z 000000014015a0c0 f i libcpmtd:wlocale.obj
 0002:0007f110       ??$_Find_elem@G$0M@@std@@YA_KAEAY0M@$$CBGG@Z 000000014015a110 f i libcpmtd:wlocale.obj
 0002:0007f160       ??$_Find_elem@_W$0BL@@std@@YA_KAEAY0BL@$$CB_W_W@Z 000000014015a160 f i libcpmtd:wlocale.obj
 0002:0007f1b0       ??$_Find_elem@_W$0BN@@std@@YA_KAEAY0BN@$$CB_W_W@Z 000000014015a1b0 f i libcpmtd:wlocale.obj
 0002:0007f200       ??$_Find_elem@_W$0M@@std@@YA_KAEAY0M@$$CB_W_W@Z 000000014015a200 f i libcpmtd:wlocale.obj
 0002:0007f250       ??$_Find_unchecked@PEBGG@std@@YAPEBGPEBGQEBGAEBG@Z 000000014015a250 f i libcpmtd:wlocale.obj
 0002:0007f350       ??$_Find_unchecked@PEB_W_W@std@@YAPEB_WPEB_WQEB_WAEB_W@Z 000000014015a350 f i libcpmtd:wlocale.obj
 0002:0007f450       ??$_Find_vectorized@$$CBGG@std@@YAPEBGQEBG0G@Z 000000014015a450 f i libcpmtd:wlocale.obj
 0002:0007f490       ??$_Find_vectorized@$$CB_W_W@std@@YAPEB_WQEB_W0_W@Z 000000014015a490 f i libcpmtd:wlocale.obj
 0002:0007f4d0       ??$_Fput_v3@$0A@@?$num_put@GV?$ostreambuf_iterator@GU?$char_traits@G@std@@@std@@@std@@AEBA?AV?$ostreambuf_iterator@GU?$char_traits@G@std@@@1@V21@AEAVios_base@1@GPEBD_K_N@Z 000000014015a4d0 f i libcpmtd:wlocale.obj
 0002:0007ff40       ??$_Fput_v3@$0A@@?$num_put@_WV?$ostreambuf_iterator@_WU?$char_traits@_W@std@@@std@@@std@@AEBA?AV?$ostreambuf_iterator@_WU?$char_traits@_W@std@@@1@V21@AEAVios_base@1@_WPEBD_K_N@Z 000000014015af40 f i libcpmtd:wlocale.obj
 0002:000809b0       ??$_Get_unwrapped@AEAPEA_W@std@@YA?A_TAEAPEA_W@Z 000000014015b9b0 f i libcpmtd:wlocale.obj
 0002:000809d0       ??$_Get_unwrapped_n@AEAV?$ostreambuf_iterator@GU?$char_traits@G@std@@@std@@_J@std@@YA?A_TAEAV?$ostreambuf_iterator@GU?$char_traits@G@std@@@0@_J@Z 000000014015b9d0 f i libcpmtd:wlocale.obj
 0002:000809f0       ??$_Get_unwrapped_n@AEAV?$ostreambuf_iterator@_WU?$char_traits@_W@std@@@std@@_J@std@@YA?A_TAEAV?$ostreambuf_iterator@_WU?$char_traits@_W@std@@@0@_J@Z 000000014015b9f0 f i libcpmtd:wlocale.obj
 0002:00080a10       ??$_Getint_v2@V?$istreambuf_iterator@GU?$char_traits@G@std@@@std@@G@std@@YAHAEAV?$istreambuf_iterator@GU?$char_traits@G@std@@@0@0HHAEAH1AEBV?$ctype@G@0@@Z 000000014015ba10 f i libcpmtd:wlocale.obj
 0002:00080f30       ??$_Getint_v2@V?$istreambuf_iterator@_WU?$char_traits@_W@std@@@std@@_W@std@@YAHAEAV?$istreambuf_iterator@_WU?$char_traits@_W@std@@@0@0HHAEAH1AEBV?$ctype@_W@0@@Z 000000014015bf30 f i libcpmtd:wlocale.obj
 0002:00081450       ??$_Getloctxt@V?$istreambuf_iterator@GU?$char_traits@G@std@@@std@@D@std@@YAHAEAV?$istreambuf_iterator@GU?$char_traits@G@std@@@0@0_KPEBDW4_Case_sensitive@0@@Z 000000014015c450 f i libcpmtd:wlocale.obj
 0002:000819a0       ??$_Getloctxt@V?$istreambuf_iterator@GU?$char_traits@G@std@@@std@@G@std@@YAHAEAV?$istreambuf_iterator@GU?$char_traits@G@std@@@0@0_KPEBGW4_Case_sensitive@0@@Z 000000014015c9a0 f i libcpmtd:wlocale.obj
 0002:00081ec0       ??$_Getloctxt@V?$istreambuf_iterator@_WU?$char_traits@_W@std@@@std@@D@std@@YAHAEAV?$istreambuf_iterator@_WU?$char_traits@_W@std@@@0@0_KPEBDW4_Case_sensitive@0@@Z 000000014015cec0 f i libcpmtd:wlocale.obj
 0002:00082410       ??$_Getloctxt@V?$istreambuf_iterator@_WU?$char_traits@_W@std@@@std@@_W@std@@YAHAEAV?$istreambuf_iterator@_WU?$char_traits@_W@std@@@0@0_KPEB_WW4_Case_sensitive@0@@Z 000000014015d410 f i libcpmtd:wlocale.obj
 0002:00082930       ??$_Getvals@G@?$_Mpunct@G@std@@IEAAXGPEBUlconv@@@Z 000000014015d930 f i libcpmtd:wlocale.obj
 0002:00082b40       ??$_Getvals@G@?$numpunct@G@std@@IEAAXGPEBUlconv@@U_Cvtvec@@@Z 000000014015db40 f i libcpmtd:wlocale.obj
 0002:00082bd0       ??$_Getvals@G@?$time_get@GV?$istreambuf_iterator@GU?$char_traits@G@std@@@std@@@std@@IEAAXGAEBV_Locinfo@1@@Z 000000014015dbd0 f i libcpmtd:wlocale.obj
 0002:00082d90       ??$_Getvals@_W@?$time_get@_WV?$istreambuf_iterator@_WU?$char_traits@_W@std@@@std@@@std@@IEAAX_WAEBV_Locinfo@1@@Z 000000014015dd90 f i libcpmtd:wlocale.obj
 0002:00082f50       ??$_Hash_array_representation@G@std@@YA_KQEBG_K@Z 000000014015df50 f i libcpmtd:wlocale.obj
 0002:00082f90       ??$_Hash_array_representation@_W@std@@YA_KQEB_W_K@Z 000000014015df90 f i libcpmtd:wlocale.obj
 0002:00082fd0       ??$_Idl_distance@PEA_WPEA_W@std@@YA?A_PAEBQEA_W0@Z 000000014015dfd0 f i libcpmtd:wlocale.obj
 0002:00083000       ??$_LStrcoll@G@std@@YAHPEBG000PEBU_Collvec@@@Z 000000014015e000 f i libcpmtd:wlocale.obj
 0002:00083100       ??$_LStrcoll@_W@std@@YAHPEB_W000PEBU_Collvec@@@Z 000000014015e100 f i libcpmtd:wlocale.obj
 0002:00083150       ??$_LStrxfrm@G@std@@YA_KPEAG0PEBG1PEBU_Collvec@@@Z 000000014015e150 f i libcpmtd:wlocale.obj
 0002:000831e0       ??$_LStrxfrm@_W@std@@YA_KPEA_W0PEB_W1PEBU_Collvec@@@Z 000000014015e1e0 f i libcpmtd:wlocale.obj
 0002:00083230       ??$_Maklocchr@G@std@@YAGDPEAGAEBU_Cvtvec@@@Z 000000014015e230 f i libcpmtd:wlocale.obj
 0002:000832a0       ??$_Maklocchr@_W@std@@YA_WDPEA_WAEBU_Cvtvec@@@Z 000000014015e2a0 f i libcpmtd:wlocale.obj
 0002:00083310       ??$_Maklocstr@G@std@@YAPEAGPEBDPEAGAEBU_Cvtvec@@@Z 000000014015e310 f i libcpmtd:wlocale.obj
 0002:00083560       ??$_Maklocstr@_W@std@@YAPEA_WPEBDPEA_WAEBU_Cvtvec@@@Z 000000014015e560 f i libcpmtd:wlocale.obj
 0002:000837b0       ??$_Parse_fp_with_locale@$0A@@?$num_get@GV?$istreambuf_iterator@GU?$char_traits@G@std@@@std@@@std@@CA?AU_Num_get_parse_result@1@QEADHAEAV?$istreambuf_iterator@GU?$char_traits@G@std@@@1@1AEBVlocale@1@@Z 000000014015e7b0 f i libcpmtd:wlocale.obj
 0002:00084f10       ??$_Parse_fp_with_locale@$0A@@?$num_get@_WV?$istreambuf_iterator@_WU?$char_traits@_W@std@@@std@@@std@@CA?AU_Num_get_parse_result@1@QEADHAEAV?$istreambuf_iterator@_WU?$char_traits@_W@std@@@1@1AEBVlocale@1@@Z 000000014015ff10 f i libcpmtd:wlocale.obj
 0002:00086670       ??$_Parse_int_with_locale@$0A@@?$num_get@GV?$istreambuf_iterator@GU?$char_traits@G@std@@@std@@@std@@CA?AU_Num_get_parse_result@1@QEADAEAV?$istreambuf_iterator@GU?$char_traits@G@std@@@1@1HAEBVlocale@1@@Z 0000000140161670 f i libcpmtd:wlocale.obj
 0002:00087060       ??$_Parse_int_with_locale@$0A@@?$num_get@_WV?$istreambuf_iterator@_WU?$char_traits@_W@std@@@std@@@std@@CA?AU_Num_get_parse_result@1@QEADAEAV?$istreambuf_iterator@_WU?$char_traits@_W@std@@@1@1HAEBVlocale@1@@Z 0000000140162060 f i libcpmtd:wlocale.obj
 0002:00087a50       ??$_Pocma@V?$allocator@G@std@@@std@@YAXAEAV?$allocator@G@0@0@Z 0000000140162a50 f i libcpmtd:wlocale.obj
 0002:00087a60       ??$_Pocma@V?$allocator@_W@std@@@std@@YAXAEAV?$allocator@_W@0@0@Z 0000000140162a60 f i libcpmtd:wlocale.obj
 0002:00087a70       ??$_Reallocate_grow_by@V<lambda_1>@?1??append@?$basic_string@GU?$char_traits@G@std@@V?$allocator@G@2@@std@@QEAAAEAV34@QEBG_K@Z@PEBG_K@?$basic_string@GU?$char_traits@G@std@@V?$allocator@G@2@@std@@AEAAAEAV01@_KV<lambda_1>@?1??append@01@QEAAAEAV01@QEBG0@Z@PEBG_K@Z 0000000140162a70 f i libcpmtd:wlocale.obj
 0002:00087cd0       ??$_Reallocate_grow_by@V<lambda_1>@?1??append@?$basic_string@GU?$char_traits@G@std@@V?$allocator@G@2@@std@@QEAAAEAV34@_KG@Z@_KG@?$basic_string@GU?$char_traits@G@std@@V?$allocator@G@2@@std@@AEAAAEAV01@_KV<lambda_1>@?1??append@01@QEAAAEAV01@0G@Z@_KG@Z 0000000140162cd0 f i libcpmtd:wlocale.obj
 0002:00087f30       ??$_Reallocate_grow_by@V<lambda_1>@?1??insert@?$basic_string@GU?$char_traits@G@std@@V?$allocator@G@2@@std@@QEAAAEAV34@_K0G@Z@_K_KG@?$basic_string@GU?$char_traits@G@std@@V?$allocator@G@2@@std@@AEAAAEAV01@_KV<lambda_1>@?1??insert@01@QEAAAEAV01@00G@Z@_K2G@Z 0000000140162f30 f i libcpmtd:wlocale.obj
 0002:000881c0       ??$_Reallocate_grow_by@V<lambda_1>@?1??insert@?$basic_string@_WU?$char_traits@_W@std@@V?$allocator@_W@2@@std@@QEAAAEAV34@_K0_W@Z@_K_K_W@?$basic_string@_WU?$char_traits@_W@std@@V?$allocator@_W@2@@std@@AEAAAEAV01@_KV<lambda_1>@?1??insert@01@QEAAAEAV01@00_W@Z@_K3_W@Z 00000001401631c0 f i libcpmtd:wlocale.obj
 0002:00088450       ??$_Reallocate_grow_by@V<lambda_1>@?1??push_back@?$basic_string@GU?$char_traits@G@std@@V?$allocator@G@2@@std@@QEAAXG@Z@G@?$basic_string@GU?$char_traits@G@std@@V?$allocator@G@2@@std@@AEAAAEAV01@_KV<lambda_1>@?1??push_back@01@QEAAXG@Z@G@Z 0000000140163450 f i libcpmtd:wlocale.obj
 0002:00088690       ??$_Refancy@PEAG$0A@@std@@YAPEAGPEAG@Z 0000000140163690 f i libcpmtd:wlocale.obj
 0002:000886a0       ??$_Refancy@PEA_W$0A@@std@@YAPEA_WPEA_W@Z 00000001401636a0 f i libcpmtd:wlocale.obj
 0002:000886b0       ??$_Seek_wrapped@V?$ostreambuf_iterator@GU?$char_traits@G@std@@@std@@V12@@std@@YAXAEAV?$ostreambuf_iterator@GU?$char_traits@G@std@@@0@$$QEAV10@@Z 00000001401636b0 f i libcpmtd:wlocale.obj
 0002:000886e0       ??$_Seek_wrapped@V?$ostreambuf_iterator@_WU?$char_traits@_W@std@@@std@@V12@@std@@YAXAEAV?$ostreambuf_iterator@_WU?$char_traits@_W@std@@@0@$$QEAV10@@Z 00000001401636e0 f i libcpmtd:wlocale.obj
 0002:00088710       ??$_To_address@PEBG@std@@YA?A_PAEBQEBG@Z 0000000140163710 f i libcpmtd:wlocale.obj
 0002:00088740       ??$_To_address@PEB_W@std@@YA?A_PAEBQEB_W@Z 0000000140163740 f i libcpmtd:wlocale.obj
 0002:00088770       ??$_Unfancy@$$CBG@std@@YAPEBGPEBG@Z 0000000140163770 f i libcpmtd:wlocale.obj
 0002:00088780       ??$_Unfancy@$$CB_W@std@@YAPEB_WPEB_W@Z 0000000140163780 f i libcpmtd:wlocale.obj
 0002:00088790       ??$_Unfancy@G@std@@YAPEAGPEAG@Z 0000000140163790 f i libcpmtd:wlocale.obj
 0002:000887a0       ??$addressof@$$CBV?$moneypunct@G$00@std@@@std@@YAPEBV?$moneypunct@G$00@0@AEBV10@@Z 00000001401637a0 f i libcpmtd:wlocale.obj
 0002:000887b0       ??$addressof@$$CBV?$moneypunct@G$0A@@std@@@std@@YAPEBV?$moneypunct@G$0A@@0@AEBV10@@Z 00000001401637b0 f i libcpmtd:wlocale.obj
 0002:000887c0       ??$addressof@$$CBV?$moneypunct@_W$00@std@@@std@@YAPEBV?$moneypunct@_W$00@0@AEBV10@@Z 00000001401637c0 f i libcpmtd:wlocale.obj
 0002:000887d0       ??$addressof@$$CBV?$moneypunct@_W$0A@@std@@@std@@YAPEBV?$moneypunct@_W$0A@@0@AEBV10@@Z 00000001401637d0 f i libcpmtd:wlocale.obj
 0002:000887e0       ??$addressof@PEAG@std@@YAPEAPEAGAEAPEAG@Z 00000001401637e0 f i libcpmtd:wlocale.obj
 0002:000887f0       ??$addressof@V?$_String_val@U?$_Simple_types@G@std@@@std@@@std@@YAPEAV?$_String_val@U?$_Simple_types@G@std@@@0@AEAV10@@Z 00000001401637f0 f i libcpmtd:wlocale.obj
 0002:00088800       ??$addressof@V?$_String_val@U?$_Simple_types@_W@std@@@std@@@std@@YAPEAV?$_String_val@U?$_Simple_types@_W@std@@@0@AEAV10@@Z 0000000140163800 f i libcpmtd:wlocale.obj
 0002:00088810       ??$addressof@V?$basic_string@GU?$char_traits@G@std@@V?$allocator@G@2@@std@@@std@@YAPEAV?$basic_string@GU?$char_traits@G@std@@V?$allocator@G@2@@0@AEAV10@@Z 0000000140163810 f i libcpmtd:wlocale.obj
 0002:00088820       ??$addressof@V?$basic_string@_WU?$char_traits@_W@std@@V?$allocator@_W@2@@std@@@std@@YAPEAV?$basic_string@_WU?$char_traits@_W@std@@V?$allocator@_W@2@@0@AEAV10@@Z 0000000140163820 f i libcpmtd:wlocale.obj
 0002:00088830       ??$begin@$$CBD$0M@@std@@YAPEBDAEAY0M@$$CBD@Z 0000000140163830 f i libcpmtd:wlocale.obj
 0002:00088840       ??$construct_at@G$$V@std@@YAPEAGQEAG@Z 0000000140163840 f i libcpmtd:wlocale.obj
 0002:00088890       ??$construct_at@PEAGAEAPEAG@std@@YAPEAPEAGQEAPEAGAEAPEAG@Z 0000000140163890 f i libcpmtd:wlocale.obj
 0002:000888e0       ??$construct_at@PEAGAEBQEAG@std@@YAPEAPEAGQEAPEAGAEBQEAG@Z 00000001401638e0 f i libcpmtd:wlocale.obj
 0002:00088930       ??$construct_at@PEA_WAEAPEA_W@std@@YAPEAPEA_WQEAPEA_WAEAPEA_W@Z 0000000140163930 f i libcpmtd:wlocale.obj
 0002:00088980       ??$copy@PEA_WV?$ostreambuf_iterator@GU?$char_traits@G@std@@@std@@@std@@YA?AV?$ostreambuf_iterator@GU?$char_traits@G@std@@@0@PEA_W0V10@@Z 0000000140163980 f i libcpmtd:wlocale.obj
 0002:00088ae0       ??$copy@PEA_WV?$ostreambuf_iterator@_WU?$char_traits@_W@std@@@std@@@std@@YA?AV?$ostreambuf_iterator@_WU?$char_traits@_W@std@@@0@PEA_W0V10@@Z 0000000140163ae0 f i libcpmtd:wlocale.obj
 0002:00088c40       ??$end@$$CBD$0M@@std@@YAPEBDAEAY0M@$$CBD@Z 0000000140163c40 f i libcpmtd:wlocale.obj
 0002:00088c60       ??$to_address@$$CBG@std@@YAPEBGQEBG@Z 0000000140163c60 f i libcpmtd:wlocale.obj
 0002:00088c70       ??$to_address@$$CB_W@std@@YAPEB_WQEB_W@Z 0000000140163c70 f i libcpmtd:wlocale.obj
 0002:00088c80       ??$use_facet@V?$codecvt@GDU_Mbstatet@@@std@@@std@@YAAEBV?$codecvt@GDU_Mbstatet@@@0@AEBVlocale@0@@Z 0000000140163c80 f i libcpmtd:wlocale.obj
 0002:00088de0       ??$use_facet@V?$codecvt@_WDU_Mbstatet@@@std@@@std@@YAAEBV?$codecvt@_WDU_Mbstatet@@@0@AEBVlocale@0@@Z 0000000140163de0 f i libcpmtd:wlocale.obj
 0002:00088f40       ??$use_facet@V?$collate@G@std@@@std@@YAAEBV?$collate@G@0@AEBVlocale@0@@Z 0000000140163f40 f i libcpmtd:wlocale.obj
 0002:000890a0       ??$use_facet@V?$collate@_W@std@@@std@@YAAEBV?$collate@_W@0@AEBVlocale@0@@Z 00000001401640a0 f i libcpmtd:wlocale.obj
 0002:00089200       ??$use_facet@V?$ctype@G@std@@@std@@YAAEBV?$ctype@G@0@AEBVlocale@0@@Z 0000000140164200 f i libcpmtd:wlocale.obj
 0002:00089360       ??$use_facet@V?$ctype@_W@std@@@std@@YAAEBV?$ctype@_W@0@AEBVlocale@0@@Z 0000000140164360 f i libcpmtd:wlocale.obj
 0002:000894c0       ??$use_facet@V?$messages@G@std@@@std@@YAAEBV?$messages@G@0@AEBVlocale@0@@Z 00000001401644c0 f i libcpmtd:wlocale.obj
 0002:00089620       ??$use_facet@V?$messages@_W@std@@@std@@YAAEBV?$messages@_W@0@AEBVlocale@0@@Z 0000000140164620 f i libcpmtd:wlocale.obj
 0002:00089780       ??$use_facet@V?$money_get@GV?$istreambuf_iterator@GU?$char_traits@G@std@@@std@@@std@@@std@@YAAEBV?$money_get@GV?$istreambuf_iterator@GU?$char_traits@G@std@@@std@@@0@AEBVlocale@0@@Z 0000000140164780 f i libcpmtd:wlocale.obj
 0002:000898e0       ??$use_facet@V?$money_get@_WV?$istreambuf_iterator@_WU?$char_traits@_W@std@@@std@@@std@@@std@@YAAEBV?$money_get@_WV?$istreambuf_iterator@_WU?$char_traits@_W@std@@@std@@@0@AEBVlocale@0@@Z 00000001401648e0 f i libcpmtd:wlocale.obj
 0002:00089a40       ??$use_facet@V?$money_put@GV?$ostreambuf_iterator@GU?$char_traits@G@std@@@std@@@std@@@std@@YAAEBV?$money_put@GV?$ostreambuf_iterator@GU?$char_traits@G@std@@@std@@@0@AEBVlocale@0@@Z 0000000140164a40 f i libcpmtd:wlocale.obj
 0002:00089ba0       ??$use_facet@V?$money_put@_WV?$ostreambuf_iterator@_WU?$char_traits@_W@std@@@std@@@std@@@std@@YAAEBV?$money_put@_WV?$ostreambuf_iterator@_WU?$char_traits@_W@std@@@std@@@0@AEBVlocale@0@@Z 0000000140164ba0 f i libcpmtd:wlocale.obj
 0002:00089d00       ??$use_facet@V?$moneypunct@G$00@std@@@std@@YAAEBV?$moneypunct@G$00@0@AEBVlocale@0@@Z 0000000140164d00 f i libcpmtd:wlocale.obj
 0002:00089e60       ??$use_facet@V?$moneypunct@G$0A@@std@@@std@@YAAEBV?$moneypunct@G$0A@@0@AEBVlocale@0@@Z 0000000140164e60 f i libcpmtd:wlocale.obj
 0002:00089fc0       ??$use_facet@V?$moneypunct@_W$00@std@@@std@@YAAEBV?$moneypunct@_W$00@0@AEBVlocale@0@@Z 0000000140164fc0 f i libcpmtd:wlocale.obj
 0002:0008a120       ??$use_facet@V?$moneypunct@_W$0A@@std@@@std@@YAAEBV?$moneypunct@_W$0A@@0@AEBVlocale@0@@Z 0000000140165120 f i libcpmtd:wlocale.obj
 0002:0008a280       ??$use_facet@V?$num_get@GV?$istreambuf_iterator@GU?$char_traits@G@std@@@std@@@std@@@std@@YAAEBV?$num_get@GV?$istreambuf_iterator@GU?$char_traits@G@std@@@std@@@0@AEBVlocale@0@@Z 0000000140165280 f i libcpmtd:wlocale.obj
 0002:0008a3e0       ??$use_facet@V?$num_get@_WV?$istreambuf_iterator@_WU?$char_traits@_W@std@@@std@@@std@@@std@@YAAEBV?$num_get@_WV?$istreambuf_iterator@_WU?$char_traits@_W@std@@@std@@@0@AEBVlocale@0@@Z 00000001401653e0 f i libcpmtd:wlocale.obj
 0002:0008a540       ??$use_facet@V?$num_put@GV?$ostreambuf_iterator@GU?$char_traits@G@std@@@std@@@std@@@std@@YAAEBV?$num_put@GV?$ostreambuf_iterator@GU?$char_traits@G@std@@@std@@@0@AEBVlocale@0@@Z 0000000140165540 f i libcpmtd:wlocale.obj
 0002:0008a6a0       ??$use_facet@V?$num_put@_WV?$ostreambuf_iterator@_WU?$char_traits@_W@std@@@std@@@std@@@std@@YAAEBV?$num_put@_WV?$ostreambuf_iterator@_WU?$char_traits@_W@std@@@std@@@0@AEBVlocale@0@@Z 00000001401656a0 f i libcpmtd:wlocale.obj
 0002:0008a800       ??$use_facet@V?$numpunct@G@std@@@std@@YAAEBV?$numpunct@G@0@AEBVlocale@0@@Z 0000000140165800 f i libcpmtd:wlocale.obj
 0002:0008a960       ??$use_facet@V?$numpunct@_W@std@@@std@@YAAEBV?$numpunct@_W@0@AEBVlocale@0@@Z 0000000140165960 f i libcpmtd:wlocale.obj
 0002:0008aac0       ??$use_facet@V?$time_get@GV?$istreambuf_iterator@GU?$char_traits@G@std@@@std@@@std@@@std@@YAAEBV?$time_get@GV?$istreambuf_iterator@GU?$char_traits@G@std@@@std@@@0@AEBVlocale@0@@Z 0000000140165ac0 f i libcpmtd:wlocale.obj
 0002:0008ac20       ??$use_facet@V?$time_get@_WV?$istreambuf_iterator@_WU?$char_traits@_W@std@@@std@@@std@@@std@@YAAEBV?$time_get@_WV?$istreambuf_iterator@_WU?$char_traits@_W@std@@@std@@@0@AEBVlocale@0@@Z 0000000140165c20 f i libcpmtd:wlocale.obj
 0002:0008ad80       ??$use_facet@V?$time_put@GV?$ostreambuf_iterator@GU?$char_traits@G@std@@@std@@@std@@@std@@YAAEBV?$time_put@GV?$ostreambuf_iterator@GU?$char_traits@G@std@@@std@@@0@AEBVlocale@0@@Z 0000000140165d80 f i libcpmtd:wlocale.obj
 0002:0008aee0       ??$use_facet@V?$time_put@_WV?$ostreambuf_iterator@_WU?$char_traits@_W@std@@@std@@@std@@@std@@YAAEBV?$time_put@_WV?$ostreambuf_iterator@_WU?$char_traits@_W@std@@@std@@@0@AEBVlocale@0@@Z 0000000140165ee0 f i libcpmtd:wlocale.obj
 0002:0008b040       ??0?$_Mpunct@G@std@@QEAA@AEBV_Locinfo@1@_K_N2@Z 0000000140166040 f i libcpmtd:wlocale.obj
 0002:0008b0c0       ??0?$_Mpunct@_W@std@@QEAA@AEBV_Locinfo@1@_K_N2@Z 00000001401660c0 f i libcpmtd:wlocale.obj
 0002:0008b140       ??0?$_String_const_iterator@V?$_String_val@U?$_Simple_types@G@std@@@std@@@std@@QEAA@$$QEAV01@@Z 0000000140166140 f i libcpmtd:wlocale.obj
 0002:0008b190       ??0?$_String_const_iterator@V?$_String_val@U?$_Simple_types@G@std@@@std@@@std@@QEAA@AEBV01@@Z 0000000140166190 f i libcpmtd:wlocale.obj
 0002:0008b1e0       ??0?$_String_const_iterator@V?$_String_val@U?$_Simple_types@G@std@@@std@@@std@@QEAA@PEBGPEBU_Container_base12@1@@Z 00000001401661e0 f i libcpmtd:wlocale.obj
 0002:0008b240       ??0?$_String_const_iterator@V?$_String_val@U?$_Simple_types@G@std@@@std@@@std@@QEAA@XZ 0000000140166240 f i libcpmtd:wlocale.obj
 0002:0008b280       ??0?$_String_const_iterator@V?$_String_val@U?$_Simple_types@_W@std@@@std@@@std@@QEAA@$$QEAV01@@Z 0000000140166280 f i libcpmtd:wlocale.obj
 0002:0008b2d0       ??0?$_String_const_iterator@V?$_String_val@U?$_Simple_types@_W@std@@@std@@@std@@QEAA@AEBV01@@Z 00000001401662d0 f i libcpmtd:wlocale.obj
 0002:0008b320       ??0?$_String_const_iterator@V?$_String_val@U?$_Simple_types@_W@std@@@std@@@std@@QEAA@PEB_WPEBU_Container_base12@1@@Z 0000000140166320 f i libcpmtd:wlocale.obj
 0002:0008b380       ??0?$_String_const_iterator@V?$_String_val@U?$_Simple_types@_W@std@@@std@@@std@@QEAA@XZ 0000000140166380 f i libcpmtd:wlocale.obj
 0002:0008b3c0       ??0?$_String_iterator@V?$_String_val@U?$_Simple_types@G@std@@@std@@@std@@QEAA@AEBV01@@Z 00000001401663c0 f i libcpmtd:wlocale.obj
 0002:0008b400       ??0?$_String_iterator@V?$_String_val@U?$_Simple_types@G@std@@@std@@@std@@QEAA@PEBGPEBU_Container_base12@1@@Z 0000000140166400 f i libcpmtd:wlocale.obj
 0002:0008b440       ??0?$_String_iterator@V?$_String_val@U?$_Simple_types@_W@std@@@std@@@std@@QEAA@AEBV01@@Z 0000000140166440 f i libcpmtd:wlocale.obj
 0002:0008b480       ??0?$_String_iterator@V?$_String_val@U?$_Simple_types@_W@std@@@std@@@std@@QEAA@PEB_WPEBU_Container_base12@1@@Z 0000000140166480 f i libcpmtd:wlocale.obj
 0002:0008b4c0       ??0?$_String_val@U?$_Simple_types@G@std@@@std@@QEAA@XZ 00000001401664c0 f i libcpmtd:wlocale.obj
 0002:0008b520       ??0?$allocator@G@std@@QEAA@XZ 0000000140166520 f i libcpmtd:wlocale.obj
 0002:0008b530       ??0?$basic_string@GU?$char_traits@G@std@@V?$allocator@G@2@@std@@QEAA@AEBV01@@Z 0000000140166530 f i libcpmtd:wlocale.obj
 0002:0008b5f0       ??0?$basic_string@GU?$char_traits@G@std@@V?$allocator@G@2@@std@@QEAA@QEBG@Z 00000001401665f0 f i libcpmtd:wlocale.obj
 0002:0008b660       ??0?$basic_string@GU?$char_traits@G@std@@V?$allocator@G@2@@std@@QEAA@QEBG_K@Z 0000000140166660 f i libcpmtd:wlocale.obj
 0002:0008b6c0       ??0?$basic_string@GU?$char_traits@G@std@@V?$allocator@G@2@@std@@QEAA@XZ 00000001401666c0 f i libcpmtd:wlocale.obj
 0002:0008b710       ??0?$basic_string@GU?$char_traits@G@std@@V?$allocator@G@2@@std@@QEAA@_KG@Z 0000000140166710 f i libcpmtd:wlocale.obj
 0002:0008b770       ??0?$basic_string@_WU?$char_traits@_W@std@@V?$allocator@_W@2@@std@@QEAA@QEB_W@Z 0000000140166770 f i libcpmtd:wlocale.obj
 0002:0008b7e0       ??0?$basic_string@_WU?$char_traits@_W@std@@V?$allocator@_W@2@@std@@QEAA@QEB_W_K@Z 00000001401667e0 f i libcpmtd:wlocale.obj
 0002:0008b840       ??0?$basic_string@_WU?$char_traits@_W@std@@V?$allocator@_W@2@@std@@QEAA@_K_W@Z 0000000140166840 f i libcpmtd:wlocale.obj
 0002:0008b8a0       ??0?$codecvt@GDU_Mbstatet@@@std@@QEAA@AEBV_Locinfo@1@_K@Z 00000001401668a0 f i libcpmtd:wlocale.obj
 0002:0008b900       ??0?$codecvt@_WDU_Mbstatet@@@std@@QEAA@AEBV_Locinfo@1@_K@Z 0000000140166900 f i libcpmtd:wlocale.obj
 0002:0008b960       ??0?$collate@G@std@@QEAA@AEBV_Locinfo@1@_K@Z 0000000140166960 f i libcpmtd:wlocale.obj
 0002:0008b9c0       ??0?$collate@_W@std@@QEAA@AEBV_Locinfo@1@_K@Z 00000001401669c0 f i libcpmtd:wlocale.obj
 0002:0008ba20       ??0?$ctype@G@std@@QEAA@AEBV_Locinfo@1@_K@Z 0000000140166a20 f i libcpmtd:wlocale.obj
 0002:0008ba80       ??0?$ctype@_W@std@@QEAA@AEBV_Locinfo@1@_K@Z 0000000140166a80 f i libcpmtd:wlocale.obj
 0002:0008bae0       ??0?$messages@G@std@@QEAA@AEBV_Locinfo@1@_K@Z 0000000140166ae0 f i libcpmtd:wlocale.obj
 0002:0008bb40       ??0?$messages@_W@std@@QEAA@AEBV_Locinfo@1@_K@Z 0000000140166b40 f i libcpmtd:wlocale.obj
 0002:0008bba0       ??0?$money_get@GV?$istreambuf_iterator@GU?$char_traits@G@std@@@std@@@std@@QEAA@AEBV_Locinfo@1@_K@Z 0000000140166ba0 f i libcpmtd:wlocale.obj
 0002:0008bc00       ??0?$money_get@_WV?$istreambuf_iterator@_WU?$char_traits@_W@std@@@std@@@std@@QEAA@AEBV_Locinfo@1@_K@Z 0000000140166c00 f i libcpmtd:wlocale.obj
 0002:0008bc60       ??0?$money_put@GV?$ostreambuf_iterator@GU?$char_traits@G@std@@@std@@@std@@QEAA@AEBV_Locinfo@1@_K@Z 0000000140166c60 f i libcpmtd:wlocale.obj
 0002:0008bcc0       ??0?$money_put@_WV?$ostreambuf_iterator@_WU?$char_traits@_W@std@@@std@@@std@@QEAA@AEBV_Locinfo@1@_K@Z 0000000140166cc0 f i libcpmtd:wlocale.obj
 0002:0008bd20       ??0?$moneypunct@G$00@std@@QEAA@AEBV_Locinfo@1@_K_N@Z 0000000140166d20 f i libcpmtd:wlocale.obj
 0002:0008bd90       ??0?$moneypunct@G$0A@@std@@QEAA@AEBV_Locinfo@1@_K_N@Z 0000000140166d90 f i libcpmtd:wlocale.obj
 0002:0008be00       ??0?$moneypunct@_W$00@std@@QEAA@AEBV_Locinfo@1@_K_N@Z 0000000140166e00 f i libcpmtd:wlocale.obj
 0002:0008be70       ??0?$moneypunct@_W$0A@@std@@QEAA@AEBV_Locinfo@1@_K_N@Z 0000000140166e70 f i libcpmtd:wlocale.obj
 0002:0008bee0       ??0?$num_get@GV?$istreambuf_iterator@GU?$char_traits@G@std@@@std@@@std@@QEAA@AEBV_Locinfo@1@_K@Z 0000000140166ee0 f i libcpmtd:wlocale.obj
 0002:0008bf40       ??0?$num_get@_WV?$istreambuf_iterator@_WU?$char_traits@_W@std@@@std@@@std@@QEAA@AEBV_Locinfo@1@_K@Z 0000000140166f40 f i libcpmtd:wlocale.obj
 0002:0008bfa0       ??0?$num_put@GV?$ostreambuf_iterator@GU?$char_traits@G@std@@@std@@@std@@QEAA@AEBV_Locinfo@1@_K@Z 0000000140166fa0 f i libcpmtd:wlocale.obj
 0002:0008c000       ??0?$num_put@_WV?$ostreambuf_iterator@_WU?$char_traits@_W@std@@@std@@@std@@QEAA@AEBV_Locinfo@1@_K@Z 0000000140167000 f i libcpmtd:wlocale.obj
 0002:0008c060       ??0?$numpunct@G@std@@QEAA@AEBV_Locinfo@1@_K_N@Z 0000000140167060 f i libcpmtd:wlocale.obj
 0002:0008c0d0       ??0?$numpunct@_W@std@@QEAA@AEBV_Locinfo@1@_K_N@Z 00000001401670d0 f i libcpmtd:wlocale.obj
 0002:0008c140       ??0?$time_get@GV?$istreambuf_iterator@GU?$char_traits@G@std@@@std@@@std@@QEAA@AEBV_Locinfo@1@_K@Z 0000000140167140 f i libcpmtd:wlocale.obj
 0002:0008c1a0       ??0?$time_get@_WV?$istreambuf_iterator@_WU?$char_traits@_W@std@@@std@@@std@@QEAA@AEBV_Locinfo@1@_K@Z 00000001401671a0 f i libcpmtd:wlocale.obj
 0002:0008c200       ??0?$time_put@GV?$ostreambuf_iterator@GU?$char_traits@G@std@@@std@@@std@@QEAA@AEBV_Locinfo@1@_K@Z 0000000140167200 f i libcpmtd:wlocale.obj
 0002:0008c280       ??0?$time_put@_WV?$ostreambuf_iterator@_WU?$char_traits@_W@std@@@std@@@std@@QEAA@AEBV_Locinfo@1@_K@Z 0000000140167280 f i libcpmtd:wlocale.obj
 0002:0008c300       ??0_Bxty@?$_String_val@U?$_Simple_types@G@std@@@std@@QEAA@XZ 0000000140167300 f i libcpmtd:wlocale.obj
 0002:0008c330       ??0_Iterator_base12@std@@QEAA@AEBU01@@Z 0000000140167330 f i libcpmtd:wlocale.obj
 0002:0008c390       ??0_Iterator_base12@std@@QEAA@XZ 0000000140167390 f i libcpmtd:wlocale.obj
 0002:0008c3c0       ??0_Timevec@std@@QEAA@PEAX@Z 00000001401673c0 f i libcpmtd:wlocale.obj
 0002:0008c3f0       ??0messages_base@std@@QEAA@_K@Z 00000001401673f0 f i libcpmtd:wlocale.obj
 0002:0008c440       ??0money_base@std@@QEAA@_K@Z 0000000140167440 f i libcpmtd:wlocale.obj
 0002:0008c490       ??0time_base@std@@QEAA@_K@Z 0000000140167490 f i libcpmtd:wlocale.obj
 0002:0008c4e0       ??1?$_Compressed_pair@V?$allocator@G@std@@V?$_String_val@U?$_Simple_types@G@std@@@2@$00@std@@QEAA@XZ 00000001401674e0 f i libcpmtd:wlocale.obj
 0002:0008c510       ??1?$_Mpunct@G@std@@MEAA@XZ 0000000140167510 f i libcpmtd:wlocale.obj
 0002:0008c550       ??1?$_Mpunct@_W@std@@MEAA@XZ 0000000140167550 f i libcpmtd:wlocale.obj
 0002:0008c590       ??1?$_String_const_iterator@V?$_String_val@U?$_Simple_types@G@std@@@std@@@std@@QEAA@XZ 0000000140167590 f i libcpmtd:wlocale.obj
 0002:0008c5b0       ??1?$_String_const_iterator@V?$_String_val@U?$_Simple_types@_W@std@@@std@@@std@@QEAA@XZ 00000001401675b0 f i libcpmtd:wlocale.obj
 0002:0008c5d0       ??1?$_String_iterator@V?$_String_val@U?$_Simple_types@G@std@@@std@@@std@@QEAA@XZ 00000001401675d0 f i libcpmtd:wlocale.obj
 0002:0008c5f0       ??1?$_String_iterator@V?$_String_val@U?$_Simple_types@_W@std@@@std@@@std@@QEAA@XZ 00000001401675f0 f i libcpmtd:wlocale.obj
 0002:0008c610       ??1?$_String_val@U?$_Simple_types@G@std@@@std@@QEAA@XZ 0000000140167610 f i libcpmtd:wlocale.obj
 0002:0008c640       ??1?$_Tidy_guard@V?$_Mpunct@G@std@@@std@@QEAA@XZ 0000000140167640 f i libcpmtd:wlocale.obj
 0002:0008c670       ??1?$_Tidy_guard@V?$_Mpunct@_W@std@@@std@@QEAA@XZ 0000000140167670 f i libcpmtd:wlocale.obj
 0002:0008c6a0       ??1?$_Tidy_guard@V?$numpunct@G@std@@@std@@QEAA@XZ 00000001401676a0 f i libcpmtd:wlocale.obj
 0002:0008c6d0       ??1?$_Tidy_guard@V?$numpunct@_W@std@@@std@@QEAA@XZ 00000001401676d0 f i libcpmtd:wlocale.obj
 0002:0008c700       ??1?$_Tidy_guard@V?$time_get@GV?$istreambuf_iterator@GU?$char_traits@G@std@@@std@@@std@@@std@@QEAA@XZ 0000000140167700 f i libcpmtd:wlocale.obj
 0002:0008c730       ??1?$_Tidy_guard@V?$time_get@_WV?$istreambuf_iterator@_WU?$char_traits@_W@std@@@std@@@std@@@std@@QEAA@XZ 0000000140167730 f i libcpmtd:wlocale.obj
 0002:0008c760       ??1?$basic_string@GU?$char_traits@G@std@@V?$allocator@G@2@@std@@QEAA@XZ 0000000140167760 f i libcpmtd:wlocale.obj
 0002:0008c7f0       ??1?$codecvt@GDU_Mbstatet@@@std@@MEAA@XZ 00000001401677f0 f i libcpmtd:wlocale.obj
 0002:0008c830       ??1?$codecvt@_WDU_Mbstatet@@@std@@MEAA@XZ 0000000140167830 f i libcpmtd:wlocale.obj
 0002:0008c870       ??1?$collate@G@std@@MEAA@XZ 0000000140167870 f i libcpmtd:wlocale.obj
 0002:0008c8c0       ??1?$collate@_W@std@@MEAA@XZ 00000001401678c0 f i libcpmtd:wlocale.obj
 0002:0008c910       ??1?$ctype@G@std@@MEAA@XZ  0000000140167910 f i libcpmtd:wlocale.obj
 0002:0008c980       ??1?$ctype@_W@std@@MEAA@XZ 0000000140167980 f i libcpmtd:wlocale.obj
 0002:0008c9f0       ??1?$messages@G@std@@MEAA@XZ 00000001401679f0 f i libcpmtd:wlocale.obj
 0002:0008ca30       ??1?$messages@_W@std@@MEAA@XZ 0000000140167a30 f i libcpmtd:wlocale.obj
 0002:0008ca70       ??1?$money_get@GV?$istreambuf_iterator@GU?$char_traits@G@std@@@std@@@std@@MEAA@XZ 0000000140167a70 f i libcpmtd:wlocale.obj
 0002:0008cab0       ??1?$money_get@_WV?$istreambuf_iterator@_WU?$char_traits@_W@std@@@std@@@std@@MEAA@XZ 0000000140167ab0 f i libcpmtd:wlocale.obj
 0002:0008caf0       ??1?$money_put@GV?$ostreambuf_iterator@GU?$char_traits@G@std@@@std@@@std@@MEAA@XZ 0000000140167af0 f i libcpmtd:wlocale.obj
 0002:0008cb30       ??1?$money_put@_WV?$ostreambuf_iterator@_WU?$char_traits@_W@std@@@std@@@std@@MEAA@XZ 0000000140167b30 f i libcpmtd:wlocale.obj
 0002:0008cb70       ??1?$moneypunct@G$00@std@@MEAA@XZ 0000000140167b70 f i libcpmtd:wlocale.obj
 0002:0008cbb0       ??1?$moneypunct@G$0A@@std@@MEAA@XZ 0000000140167bb0 f i libcpmtd:wlocale.obj
 0002:0008cbf0       ??1?$moneypunct@_W$00@std@@MEAA@XZ 0000000140167bf0 f i libcpmtd:wlocale.obj
 0002:0008cc30       ??1?$moneypunct@_W$0A@@std@@MEAA@XZ 0000000140167c30 f i libcpmtd:wlocale.obj
 0002:0008cc70       ??1?$num_get@GV?$istreambuf_iterator@GU?$char_traits@G@std@@@std@@@std@@MEAA@XZ 0000000140167c70 f i libcpmtd:wlocale.obj
 0002:0008ccb0       ??1?$num_get@_WV?$istreambuf_iterator@_WU?$char_traits@_W@std@@@std@@@std@@MEAA@XZ 0000000140167cb0 f i libcpmtd:wlocale.obj
 0002:0008ccf0       ??1?$num_put@GV?$ostreambuf_iterator@GU?$char_traits@G@std@@@std@@@std@@MEAA@XZ 0000000140167cf0 f i libcpmtd:wlocale.obj
 0002:0008cd30       ??1?$num_put@_WV?$ostreambuf_iterator@_WU?$char_traits@_W@std@@@std@@@std@@MEAA@XZ 0000000140167d30 f i libcpmtd:wlocale.obj
 0002:0008cd70       ??1?$numpunct@G@std@@MEAA@XZ 0000000140167d70 f i libcpmtd:wlocale.obj
 0002:0008cdb0       ??1?$numpunct@_W@std@@MEAA@XZ 0000000140167db0 f i libcpmtd:wlocale.obj
 0002:0008cdf0       ??1?$time_get@GV?$istreambuf_iterator@GU?$char_traits@G@std@@@std@@@std@@MEAA@XZ 0000000140167df0 f i libcpmtd:wlocale.obj
 0002:0008ce30       ??1?$time_get@_WV?$istreambuf_iterator@_WU?$char_traits@_W@std@@@std@@@std@@MEAA@XZ 0000000140167e30 f i libcpmtd:wlocale.obj
 0002:0008ce70       ??1?$time_put@GV?$ostreambuf_iterator@GU?$char_traits@G@std@@@std@@@std@@MEAA@XZ 0000000140167e70 f i libcpmtd:wlocale.obj
 0002:0008cec0       ??1?$time_put@_WV?$ostreambuf_iterator@_WU?$char_traits@_W@std@@@std@@@std@@MEAA@XZ 0000000140167ec0 f i libcpmtd:wlocale.obj
 0002:0008cf10       ??1_Bxty@?$_String_val@U?$_Simple_types@G@std@@@std@@QEAA@XZ 0000000140167f10 f i libcpmtd:wlocale.obj
 0002:0008cf20       ??1_Iterator_base12@std@@QEAA@XZ 0000000140167f20 f i libcpmtd:wlocale.obj
 0002:0008cf60       ??1_Timevec@std@@QEAA@XZ   0000000140167f60 f i libcpmtd:wlocale.obj
 0002:0008cf90       ??1messages_base@std@@UEAA@XZ 0000000140167f90 f i libcpmtd:wlocale.obj
 0002:0008cfb0       ??1money_base@std@@UEAA@XZ 0000000140167fb0 f i libcpmtd:wlocale.obj
 0002:0008cfd0       ??1time_base@std@@UEAA@XZ  0000000140167fd0 f i libcpmtd:wlocale.obj
 0002:0008d010       ??4?$_String_const_iterator@V?$_String_val@U?$_Simple_types@G@std@@@std@@@std@@QEAAAEAV01@$$QEAV01@@Z 0000000140168010 f i libcpmtd:wlocale.obj
 0002:0008d060       ??4?$_String_const_iterator@V?$_String_val@U?$_Simple_types@_W@std@@@std@@@std@@QEAAAEAV01@$$QEAV01@@Z 0000000140168060 f i libcpmtd:wlocale.obj
 0002:0008d0b0       ??4?$_Yarn@_W@std@@QEAAAEAV01@PEB_W@Z 00000001401680b0 f i libcpmtd:wlocale.obj
 0002:0008d1c0       ??4?$basic_string@GU?$char_traits@G@std@@V?$allocator@G@2@@std@@QEAAAEAV01@$$QEAV01@@Z 00000001401681c0 f i libcpmtd:wlocale.obj
 0002:0008d260       ??4?$basic_string@_WU?$char_traits@_W@std@@V?$allocator@_W@2@@std@@QEAAAEAV01@$$QEAV01@@Z 0000000140168260 f i libcpmtd:wlocale.obj
 0002:0008d300       ??4?$ostreambuf_iterator@GU?$char_traits@G@std@@@std@@QEAAAEAV01@G@Z 0000000140168300 f i libcpmtd:wlocale.obj
 0002:0008d390       ??4?$ostreambuf_iterator@_WU?$char_traits@_W@std@@@std@@QEAAAEAV01@_W@Z 0000000140168390 f i libcpmtd:wlocale.obj
 0002:0008d420       ??4_Iterator_base12@std@@QEAAAEAU01@AEBU01@@Z 0000000140168420 f i libcpmtd:wlocale.obj
 0002:0008d480       ??4_Timevec@std@@QEAAAEAV01@AEBV01@@Z 0000000140168480 f i libcpmtd:wlocale.obj
 0002:0008d4e0       ??8?$_String_const_iterator@V?$_String_val@U?$_Simple_types@G@std@@@std@@@std@@QEBA_NAEBV01@@Z 00000001401684e0 f i libcpmtd:wlocale.obj
 0002:0008d540       ??8?$_String_const_iterator@V?$_String_val@U?$_Simple_types@_W@std@@@std@@@std@@QEBA_NAEBV01@@Z 0000000140168540 f i libcpmtd:wlocale.obj
 0002:0008d5a0       ??A?$basic_string@GU?$char_traits@G@std@@V?$allocator@G@2@@std@@QEAAAEAG_K@Z 00000001401685a0 f i libcpmtd:wlocale.obj
 0002:0008d680       ??A?$basic_string@GU?$char_traits@G@std@@V?$allocator@G@2@@std@@QEBAAEBG_K@Z 0000000140168680 f i libcpmtd:wlocale.obj
 0002:0008d760       ??A?$basic_string@_WU?$char_traits@_W@std@@V?$allocator@_W@2@@std@@QEAAAEA_W_K@Z 0000000140168760 f i libcpmtd:wlocale.obj
 0002:0008d840       ??A?$basic_string@_WU?$char_traits@_W@std@@V?$allocator@_W@2@@std@@QEBAAEB_W_K@Z 0000000140168840 f i libcpmtd:wlocale.obj
 0002:0008d920       ??D?$_String_const_iterator@V?$_String_val@U?$_Simple_types@G@std@@@std@@@std@@QEBAAEBGXZ 0000000140168920 f i libcpmtd:wlocale.obj
 0002:0008db80       ??D?$_String_const_iterator@V?$_String_val@U?$_Simple_types@_W@std@@@std@@@std@@QEBAAEB_WXZ 0000000140168b80 f i libcpmtd:wlocale.obj
 0002:0008dde0       ??D?$_String_iterator@V?$_String_val@U?$_Simple_types@G@std@@@std@@@std@@QEBAAEAGXZ 0000000140168de0 f i libcpmtd:wlocale.obj
 0002:0008de00       ??D?$_String_iterator@V?$_String_val@U?$_Simple_types@_W@std@@@std@@@std@@QEBAAEA_WXZ 0000000140168e00 f i libcpmtd:wlocale.obj
 0002:0008de20       ??D?$istreambuf_iterator@GU?$char_traits@G@std@@@std@@QEBAGXZ 0000000140168e20 f i libcpmtd:wlocale.obj
 0002:0008df00       ??D?$istreambuf_iterator@_WU?$char_traits@_W@std@@@std@@QEBA_WXZ 0000000140168f00 f i libcpmtd:wlocale.obj
 0002:0008dfe0       ??D?$ostreambuf_iterator@GU?$char_traits@G@std@@@std@@QEAAAEAV01@XZ 0000000140168fe0 f i libcpmtd:wlocale.obj
 0002:0008dff0       ??D?$ostreambuf_iterator@_WU?$char_traits@_W@std@@@std@@QEAAAEAV01@XZ 0000000140168ff0 f i libcpmtd:wlocale.obj
 0002:0008e000       ??E?$_String_const_iterator@V?$_String_val@U?$_Simple_types@G@std@@@std@@@std@@QEAAAEAV01@XZ 0000000140169000 f i libcpmtd:wlocale.obj
 0002:0008e250       ??E?$_String_const_iterator@V?$_String_val@U?$_Simple_types@_W@std@@@std@@@std@@QEAAAEAV01@XZ 0000000140169250 f i libcpmtd:wlocale.obj
 0002:0008e4a0       ??E?$_String_iterator@V?$_String_val@U?$_Simple_types@G@std@@@std@@@std@@QEAAAEAV01@XZ 00000001401694a0 f i libcpmtd:wlocale.obj
 0002:0008e4d0       ??E?$_String_iterator@V?$_String_val@U?$_Simple_types@_W@std@@@std@@@std@@QEAAAEAV01@XZ 00000001401694d0 f i libcpmtd:wlocale.obj
 0002:0008e500       ??E?$istreambuf_iterator@GU?$char_traits@G@std@@@std@@QEAAAEAV01@XZ 0000000140169500 f i libcpmtd:wlocale.obj
 0002:0008e5c0       ??E?$istreambuf_iterator@_WU?$char_traits@_W@std@@@std@@QEAAAEAV01@XZ 00000001401695c0 f i libcpmtd:wlocale.obj
 0002:0008e680       ??E?$ostreambuf_iterator@GU?$char_traits@G@std@@@std@@QEAAAEAV01@H@Z 0000000140169680 f i libcpmtd:wlocale.obj
 0002:0008e6a0       ??E?$ostreambuf_iterator@GU?$char_traits@G@std@@@std@@QEAAAEAV01@XZ 00000001401696a0 f i libcpmtd:wlocale.obj
 0002:0008e6b0       ??E?$ostreambuf_iterator@_WU?$char_traits@_W@std@@@std@@QEAAAEAV01@H@Z 00000001401696b0 f i libcpmtd:wlocale.obj
 0002:0008e6d0       ??E?$ostreambuf_iterator@_WU?$char_traits@_W@std@@@std@@QEAAAEAV01@XZ 00000001401696d0 f i libcpmtd:wlocale.obj
 0002:0008e6e0       ??G?$_String_iterator@V?$_String_val@U?$_Simple_types@G@std@@@std@@@std@@QEBA?AV01@_J@Z 00000001401696e0 f i libcpmtd:wlocale.obj
 0002:0008e730       ??G?$_String_iterator@V?$_String_val@U?$_Simple_types@_W@std@@@std@@@std@@QEBA?AV01@_J@Z 0000000140169730 f i libcpmtd:wlocale.obj
 0002:0008e780       ??H?$_String_iterator@V?$_String_val@U?$_Simple_types@G@std@@@std@@@std@@QEBA?AV01@_J@Z 0000000140169780 f i libcpmtd:wlocale.obj
 0002:0008e7d0       ??H?$_String_iterator@V?$_String_val@U?$_Simple_types@_W@std@@@std@@@std@@QEBA?AV01@_J@Z 00000001401697d0 f i libcpmtd:wlocale.obj
 0002:0008e820       ??R<lambda_1>@?1??append@?$basic_string@GU?$char_traits@G@std@@V?$allocator@G@2@@std@@QEAAAEAV23@QEBG_K@Z@QEBA@QEAG0101@Z 0000000140169820 f i libcpmtd:wlocale.obj
 0002:0008e8c0       ??R<lambda_1>@?1??append@?$basic_string@GU?$char_traits@G@std@@V?$allocator@G@2@@std@@QEAAAEAV23@_KG@Z@QEBA@QEAGQEBG00G@Z 00000001401698c0 f i libcpmtd:wlocale.obj
 0002:0008e970       ??R<lambda_1>@?1??insert@?$basic_string@GU?$char_traits@G@std@@V?$allocator@G@2@@std@@QEAAAEAV23@_K0G@Z@QEBA@QEAGQEBG000G@Z 0000000140169970 f i libcpmtd:wlocale.obj
 0002:0008ea40       ??R<lambda_1>@?1??insert@?$basic_string@_WU?$char_traits@_W@std@@V?$allocator@_W@2@@std@@QEAAAEAV23@_K0_W@Z@QEBA@QEA_WQEB_W0001@Z 0000000140169a40 f i libcpmtd:wlocale.obj
 0002:0008eb10       ??R<lambda_1>@?1??push_back@?$basic_string@GU?$char_traits@G@std@@V?$allocator@G@2@@std@@QEAAXG@Z@QEBA@QEAGQEBG_KG@Z 0000000140169b10 f i libcpmtd:wlocale.obj
 0002:0008eba0       ??Y?$_String_const_iterator@V?$_String_val@U?$_Simple_types@G@std@@@std@@@std@@QEAAAEAV01@_J@Z 0000000140169ba0 f i libcpmtd:wlocale.obj
 0002:0008ec00       ??Y?$_String_const_iterator@V?$_String_val@U?$_Simple_types@_W@std@@@std@@@std@@QEAAAEAV01@_J@Z 0000000140169c00 f i libcpmtd:wlocale.obj
 0002:0008ec60       ??Y?$_String_iterator@V?$_String_val@U?$_Simple_types@G@std@@@std@@@std@@QEAAAEAV01@_J@Z 0000000140169c60 f i libcpmtd:wlocale.obj
 0002:0008ec90       ??Y?$_String_iterator@V?$_String_val@U?$_Simple_types@_W@std@@@std@@@std@@QEAAAEAV01@_J@Z 0000000140169c90 f i libcpmtd:wlocale.obj
 0002:0008ecc0       ??Y?$basic_string@GU?$char_traits@G@std@@V?$allocator@G@2@@std@@QEAAAEAV01@AEBV01@@Z 0000000140169cc0 f i libcpmtd:wlocale.obj
 0002:0008ecf0       ??Y?$basic_string@_WU?$char_traits@_W@std@@V?$allocator@_W@2@@std@@QEAAAEAV01@AEBV01@@Z 0000000140169cf0 f i libcpmtd:wlocale.obj
 0002:0008ed20       ??Z?$_String_const_iterator@V?$_String_val@U?$_Simple_types@G@std@@@std@@@std@@QEAAAEAV01@_J@Z 0000000140169d20 f i libcpmtd:wlocale.obj
 0002:0008ed60       ??Z?$_String_const_iterator@V?$_String_val@U?$_Simple_types@_W@std@@@std@@@std@@QEAAAEAV01@_J@Z 0000000140169d60 f i libcpmtd:wlocale.obj
 0002:0008eda0       ??Z?$_String_iterator@V?$_String_val@U?$_Simple_types@G@std@@@std@@@std@@QEAAAEAV01@_J@Z 0000000140169da0 f i libcpmtd:wlocale.obj
 0002:0008edd0       ??Z?$_String_iterator@V?$_String_val@U?$_Simple_types@_W@std@@@std@@@std@@QEAAAEAV01@_J@Z 0000000140169dd0 f i libcpmtd:wlocale.obj
 0002:0008ee00       ??_E?$_Mpunct@G@std@@MEAAPEAXI@Z 0000000140169e00 f i libcpmtd:wlocale.obj
 0002:0008ee00       ??_G?$_Mpunct@G@std@@MEAAPEAXI@Z 0000000140169e00 f i libcpmtd:wlocale.obj
 0002:0008ee70       ??_E?$_Mpunct@_W@std@@MEAAPEAXI@Z 0000000140169e70 f i libcpmtd:wlocale.obj
 0002:0008ee70       ??_G?$_Mpunct@_W@std@@MEAAPEAXI@Z 0000000140169e70 f i libcpmtd:wlocale.obj
 0002:0008eee0       ??_E?$codecvt@GDU_Mbstatet@@@std@@MEAAPEAXI@Z 0000000140169ee0 f i libcpmtd:wlocale.obj
 0002:0008eee0       ??_G?$codecvt@GDU_Mbstatet@@@std@@MEAAPEAXI@Z 0000000140169ee0 f i libcpmtd:wlocale.obj
 0002:0008ef50       ??_E?$codecvt@_WDU_Mbstatet@@@std@@MEAAPEAXI@Z 0000000140169f50 f i libcpmtd:wlocale.obj
 0002:0008ef50       ??_G?$codecvt@_WDU_Mbstatet@@@std@@MEAAPEAXI@Z 0000000140169f50 f i libcpmtd:wlocale.obj
 0002:0008efc0       ??_E?$collate@G@std@@MEAAPEAXI@Z 0000000140169fc0 f i libcpmtd:wlocale.obj
 0002:0008efc0       ??_G?$collate@G@std@@MEAAPEAXI@Z 0000000140169fc0 f i libcpmtd:wlocale.obj
 0002:0008f030       ??_E?$collate@_W@std@@MEAAPEAXI@Z 000000014016a030 f i libcpmtd:wlocale.obj
 0002:0008f030       ??_G?$collate@_W@std@@MEAAPEAXI@Z 000000014016a030 f i libcpmtd:wlocale.obj
 0002:0008f0a0       ??_E?$ctype@G@std@@MEAAPEAXI@Z 000000014016a0a0 f i libcpmtd:wlocale.obj
 0002:0008f0a0       ??_G?$ctype@G@std@@MEAAPEAXI@Z 000000014016a0a0 f i libcpmtd:wlocale.obj
 0002:0008f110       ??_E?$ctype@_W@std@@MEAAPEAXI@Z 000000014016a110 f i libcpmtd:wlocale.obj
 0002:0008f110       ??_G?$ctype@_W@std@@MEAAPEAXI@Z 000000014016a110 f i libcpmtd:wlocale.obj
 0002:0008f180       ??_E?$messages@G@std@@MEAAPEAXI@Z 000000014016a180 f i libcpmtd:wlocale.obj
 0002:0008f180       ??_G?$messages@G@std@@MEAAPEAXI@Z 000000014016a180 f i libcpmtd:wlocale.obj
 0002:0008f1f0       ??_E?$messages@_W@std@@MEAAPEAXI@Z 000000014016a1f0 f i libcpmtd:wlocale.obj
 0002:0008f1f0       ??_G?$messages@_W@std@@MEAAPEAXI@Z 000000014016a1f0 f i libcpmtd:wlocale.obj
 0002:0008f260       ??_E?$money_get@GV?$istreambuf_iterator@GU?$char_traits@G@std@@@std@@@std@@MEAAPEAXI@Z 000000014016a260 f i libcpmtd:wlocale.obj
 0002:0008f260       ??_G?$money_get@GV?$istreambuf_iterator@GU?$char_traits@G@std@@@std@@@std@@MEAAPEAXI@Z 000000014016a260 f i libcpmtd:wlocale.obj
 0002:0008f2d0       ??_E?$money_get@_WV?$istreambuf_iterator@_WU?$char_traits@_W@std@@@std@@@std@@MEAAPEAXI@Z 000000014016a2d0 f i libcpmtd:wlocale.obj
 0002:0008f2d0       ??_G?$money_get@_WV?$istreambuf_iterator@_WU?$char_traits@_W@std@@@std@@@std@@MEAAPEAXI@Z 000000014016a2d0 f i libcpmtd:wlocale.obj
 0002:0008f340       ??_E?$money_put@GV?$ostreambuf_iterator@GU?$char_traits@G@std@@@std@@@std@@MEAAPEAXI@Z 000000014016a340 f i libcpmtd:wlocale.obj
 0002:0008f340       ??_G?$money_put@GV?$ostreambuf_iterator@GU?$char_traits@G@std@@@std@@@std@@MEAAPEAXI@Z 000000014016a340 f i libcpmtd:wlocale.obj
 0002:0008f3b0       ??_E?$money_put@_WV?$ostreambuf_iterator@_WU?$char_traits@_W@std@@@std@@@std@@MEAAPEAXI@Z 000000014016a3b0 f i libcpmtd:wlocale.obj
 0002:0008f3b0       ??_G?$money_put@_WV?$ostreambuf_iterator@_WU?$char_traits@_W@std@@@std@@@std@@MEAAPEAXI@Z 000000014016a3b0 f i libcpmtd:wlocale.obj
 0002:0008f420       ??_E?$moneypunct@G$00@std@@MEAAPEAXI@Z 000000014016a420 f i libcpmtd:wlocale.obj
 0002:0008f420       ??_G?$moneypunct@G$00@std@@MEAAPEAXI@Z 000000014016a420 f i libcpmtd:wlocale.obj
 0002:0008f490       ??_E?$moneypunct@G$0A@@std@@MEAAPEAXI@Z 000000014016a490 f i libcpmtd:wlocale.obj
 0002:0008f490       ??_G?$moneypunct@G$0A@@std@@MEAAPEAXI@Z 000000014016a490 f i libcpmtd:wlocale.obj
 0002:0008f500       ??_E?$moneypunct@_W$00@std@@MEAAPEAXI@Z 000000014016a500 f i libcpmtd:wlocale.obj
 0002:0008f500       ??_G?$moneypunct@_W$00@std@@MEAAPEAXI@Z 000000014016a500 f i libcpmtd:wlocale.obj
 0002:0008f570       ??_E?$moneypunct@_W$0A@@std@@MEAAPEAXI@Z 000000014016a570 f i libcpmtd:wlocale.obj
 0002:0008f570       ??_G?$moneypunct@_W$0A@@std@@MEAAPEAXI@Z 000000014016a570 f i libcpmtd:wlocale.obj
 0002:0008f5e0       ??_E?$num_get@GV?$istreambuf_iterator@GU?$char_traits@G@std@@@std@@@std@@MEAAPEAXI@Z 000000014016a5e0 f i libcpmtd:wlocale.obj
 0002:0008f5e0       ??_G?$num_get@GV?$istreambuf_iterator@GU?$char_traits@G@std@@@std@@@std@@MEAAPEAXI@Z 000000014016a5e0 f i libcpmtd:wlocale.obj
 0002:0008f650       ??_E?$num_get@_WV?$istreambuf_iterator@_WU?$char_traits@_W@std@@@std@@@std@@MEAAPEAXI@Z 000000014016a650 f i libcpmtd:wlocale.obj
 0002:0008f650       ??_G?$num_get@_WV?$istreambuf_iterator@_WU?$char_traits@_W@std@@@std@@@std@@MEAAPEAXI@Z 000000014016a650 f i libcpmtd:wlocale.obj
 0002:0008f6c0       ??_E?$num_put@GV?$ostreambuf_iterator@GU?$char_traits@G@std@@@std@@@std@@MEAAPEAXI@Z 000000014016a6c0 f i libcpmtd:wlocale.obj
 0002:0008f6c0       ??_G?$num_put@GV?$ostreambuf_iterator@GU?$char_traits@G@std@@@std@@@std@@MEAAPEAXI@Z 000000014016a6c0 f i libcpmtd:wlocale.obj
 0002:0008f730       ??_E?$num_put@_WV?$ostreambuf_iterator@_WU?$char_traits@_W@std@@@std@@@std@@MEAAPEAXI@Z 000000014016a730 f i libcpmtd:wlocale.obj
 0002:0008f730       ??_G?$num_put@_WV?$ostreambuf_iterator@_WU?$char_traits@_W@std@@@std@@@std@@MEAAPEAXI@Z 000000014016a730 f i libcpmtd:wlocale.obj
 0002:0008f7a0       ??_E?$numpunct@G@std@@MEAAPEAXI@Z 000000014016a7a0 f i libcpmtd:wlocale.obj
 0002:0008f7a0       ??_G?$numpunct@G@std@@MEAAPEAXI@Z 000000014016a7a0 f i libcpmtd:wlocale.obj
 0002:0008f810       ??_E?$numpunct@_W@std@@MEAAPEAXI@Z 000000014016a810 f i libcpmtd:wlocale.obj
 0002:0008f810       ??_G?$numpunct@_W@std@@MEAAPEAXI@Z 000000014016a810 f i libcpmtd:wlocale.obj
 0002:0008f880       ??_E?$time_get@GV?$istreambuf_iterator@GU?$char_traits@G@std@@@std@@@std@@MEAAPEAXI@Z 000000014016a880 f i libcpmtd:wlocale.obj
 0002:0008f880       ??_G?$time_get@GV?$istreambuf_iterator@GU?$char_traits@G@std@@@std@@@std@@MEAAPEAXI@Z 000000014016a880 f i libcpmtd:wlocale.obj
 0002:0008f8f0       ??_E?$time_get@_WV?$istreambuf_iterator@_WU?$char_traits@_W@std@@@std@@@std@@MEAAPEAXI@Z 000000014016a8f0 f i libcpmtd:wlocale.obj
 0002:0008f8f0       ??_G?$time_get@_WV?$istreambuf_iterator@_WU?$char_traits@_W@std@@@std@@@std@@MEAAPEAXI@Z 000000014016a8f0 f i libcpmtd:wlocale.obj
 0002:0008f960       ??_E?$time_put@GV?$ostreambuf_iterator@GU?$char_traits@G@std@@@std@@@std@@MEAAPEAXI@Z 000000014016a960 f i libcpmtd:wlocale.obj
 0002:0008f960       ??_G?$time_put@GV?$ostreambuf_iterator@GU?$char_traits@G@std@@@std@@@std@@MEAAPEAXI@Z 000000014016a960 f i libcpmtd:wlocale.obj
 0002:0008f9d0       ??_E?$time_put@_WV?$ostreambuf_iterator@_WU?$char_traits@_W@std@@@std@@@std@@MEAAPEAXI@Z 000000014016a9d0 f i libcpmtd:wlocale.obj
 0002:0008f9d0       ??_G?$time_put@_WV?$ostreambuf_iterator@_WU?$char_traits@_W@std@@@std@@@std@@MEAAPEAXI@Z 000000014016a9d0 f i libcpmtd:wlocale.obj
 0002:0008fa40       ??_Emessages_base@std@@UEAAPEAXI@Z 000000014016aa40 f i libcpmtd:wlocale.obj
 0002:0008fa40       ??_Gmessages_base@std@@UEAAPEAXI@Z 000000014016aa40 f i libcpmtd:wlocale.obj
 0002:0008fab0       ??_Emoney_base@std@@UEAAPEAXI@Z 000000014016aab0 f i libcpmtd:wlocale.obj
 0002:0008fab0       ??_Gmoney_base@std@@UEAAPEAXI@Z 000000014016aab0 f i libcpmtd:wlocale.obj
 0002:0008fb20       ??_Etime_base@std@@UEAAPEAXI@Z 000000014016ab20 f i libcpmtd:wlocale.obj
 0002:0008fb20       ??_Gtime_base@std@@UEAAPEAXI@Z 000000014016ab20 f i libcpmtd:wlocale.obj
 0002:0008fb90       ?_Activate_SSO_buffer@?$_String_val@U?$_Simple_types@G@std@@@std@@QEAAXXZ 000000014016ab90 f i libcpmtd:wlocale.obj
 0002:0008fbf0       ?_Adopt@_Iterator_base12@std@@QEAAXPEBU_Container_base12@2@@Z 000000014016abf0 f i libcpmtd:wlocale.obj
 0002:0008fc50       ?_Adopt_locked@_Iterator_base12@std@@AEAAXPEBU_Container_base12@2@@Z 000000014016ac50 f i libcpmtd:wlocale.obj
 0002:0008fca0       ?_Adopt_unlocked@_Iterator_base12@std@@AEAAXPEBU_Container_base12@2@@Z 000000014016aca0 f i libcpmtd:wlocale.obj
 0002:0008fd50       ?_Apply_annotation@?$basic_string@GU?$char_traits@G@std@@V?$allocator@G@2@@std@@CAXQEBG_K11@Z 000000014016ad50 f i libcpmtd:wlocale.obj
 0002:0008feb0       ?_Apply_annotation@?$basic_string@_WU?$char_traits@_W@std@@V?$allocator@_W@2@@std@@CAXQEB_W_K11@Z 000000014016aeb0 f i libcpmtd:wlocale.obj
 0002:00090010       ?_Assign_locked@_Iterator_base12@std@@AEAAXAEBU12@@Z 000000014016b010 f i libcpmtd:wlocale.obj
 0002:00090060       ?_Assign_unlocked@_Iterator_base12@std@@AEAAXAEBU12@@Z 000000014016b060 f i libcpmtd:wlocale.obj
 0002:000900d0       ?_C_str@?$_Yarn@_W@std@@QEBAPEB_WXZ 000000014016b0d0 f i libcpmtd:wlocale.obj
 0002:00090120       ?_Calculate_growth@?$basic_string@GU?$char_traits@G@std@@V?$allocator@G@2@@std@@AEBA_K_K@Z 000000014016b120 f i libcpmtd:wlocale.obj
 0002:00090180       ?_Calculate_growth@?$basic_string@GU?$char_traits@G@std@@V?$allocator@G@2@@std@@CA_K_K00@Z 000000014016b180 f i libcpmtd:wlocale.obj
 0002:00090240       ?_Check_offset@?$_String_val@U?$_Simple_types@G@std@@@std@@QEBAX_K@Z 000000014016b240 f i libcpmtd:wlocale.obj
 0002:00090280       ?_Compat@?$_String_const_iterator@V?$_String_val@U?$_Simple_types@G@std@@@std@@@std@@QEBAXAEBV12@@Z 000000014016b280 f i libcpmtd:wlocale.obj
 0002:00090360       ?_Compat@?$_String_const_iterator@V?$_String_val@U?$_Simple_types@_W@std@@@std@@@std@@QEBAXAEBV12@@Z 000000014016b360 f i libcpmtd:wlocale.obj
 0002:00090440       ?_Construct_empty@?$basic_string@GU?$char_traits@G@std@@V?$allocator@G@2@@std@@AEAAXXZ 000000014016b440 f i libcpmtd:wlocale.obj
 0002:000904f0       ?_Create_annotation@?$basic_string@GU?$char_traits@G@std@@V?$allocator@G@2@@std@@AEBAXXZ 000000014016b4f0 f i libcpmtd:wlocale.obj
 0002:00090580       ?_Create_annotation@?$basic_string@_WU?$char_traits@_W@std@@V?$allocator@_W@2@@std@@AEBAXXZ 000000014016b580 f i libcpmtd:wlocale.obj
 0002:00090610       ?_Deallocate_for_capacity@?$basic_string@GU?$char_traits@G@std@@V?$allocator@G@2@@std@@CAXAEAV?$allocator@G@2@QEAG_K@Z 000000014016b610 f i libcpmtd:wlocale.obj
 0002:00090650       ?_Donarrow@?$ctype@G@std@@IEBADGD@Z 000000014016b650 f i libcpmtd:wlocale.obj
 0002:00090710       ?_Donarrow@?$ctype@_W@std@@IEBAD_WD@Z 000000014016b710 f i libcpmtd:wlocale.obj
 0002:000907d0       ?_Dowiden@?$ctype@G@std@@IEBAGD@Z 000000014016b7d0 f i libcpmtd:wlocale.obj
 0002:00090850       ?_Dowiden@?$ctype@_W@std@@IEBA_WD@Z 000000014016b850 f i libcpmtd:wlocale.obj
 0002:000908e0       ?_Empty@?$_Yarn@_W@std@@QEBA_NXZ 000000014016b8e0 f i libcpmtd:wlocale.obj
 0002:00090920       ?_Eos@?$basic_string@GU?$char_traits@G@std@@V?$allocator@G@2@@std@@AEAAX_K@Z 000000014016b920 f i libcpmtd:wlocale.obj
 0002:000909a0       ?_Ffmt@?$num_put@GV?$ostreambuf_iterator@GU?$char_traits@G@std@@@std@@@std@@AEBAPEADPEADDH@Z 000000014016b9a0 f i libcpmtd:wlocale.obj
 0002:00090b70       ?_Ffmt@?$num_put@_WV?$ostreambuf_iterator@_WU?$char_traits@_W@std@@@std@@@std@@AEBAPEADPEADDH@Z 000000014016bb70 f i libcpmtd:wlocale.obj
 0002:00090d40       ?_Fnv1a_append_bytes@std@@YA_K_KQEBE_K@Z 000000014016bd40 f i libcpmtd:wlocale.obj
 0002:00090de0       ?_Get_first@?$_Compressed_pair@V?$allocator@G@std@@V?$_String_val@U?$_Simple_types@G@std@@@2@$00@std@@QEAAAEAV?$allocator@G@2@XZ 000000014016bde0 f i libcpmtd:wlocale.obj
 0002:00090df0       ?_Get_first@?$_Compressed_pair@V?$allocator@G@std@@V?$_String_val@U?$_Simple_types@G@std@@@2@$00@std@@QEBAAEBV?$allocator@G@2@XZ 000000014016bdf0 f i libcpmtd:wlocale.obj
 0002:00090e00       ?_Getal@?$basic_string@GU?$char_traits@G@std@@V?$allocator@G@2@@std@@AEAAAEAV?$allocator@G@2@XZ 000000014016be00 f i libcpmtd:wlocale.obj
 0002:00090e30       ?_Getal@?$basic_string@GU?$char_traits@G@std@@V?$allocator@G@2@@std@@AEBAAEBV?$allocator@G@2@XZ 000000014016be30 f i libcpmtd:wlocale.obj
 0002:00090e60       ?_Getcat@?$codecvt@GDU_Mbstatet@@@std@@SA_KPEAPEBVfacet@locale@2@PEBV42@@Z 000000014016be60 f i libcpmtd:wlocale.obj
 0002:00090f90       ?_Getcat@?$codecvt@_WDU_Mbstatet@@@std@@SA_KPEAPEBVfacet@locale@2@PEBV42@@Z 000000014016bf90 f i libcpmtd:wlocale.obj
 0002:000910c0       ?_Getcat@?$collate@G@std@@SA_KPEAPEBVfacet@locale@2@PEBV42@@Z 000000014016c0c0 f i libcpmtd:wlocale.obj
 0002:00091280       ?_Getcat@?$collate@_W@std@@SA_KPEAPEBVfacet@locale@2@PEBV42@@Z 000000014016c280 f i libcpmtd:wlocale.obj
 0002:00091440       ?_Getcat@?$ctype@G@std@@SA_KPEAPEBVfacet@locale@2@PEBV42@@Z 000000014016c440 f i libcpmtd:wlocale.obj
 0002:00091570       ?_Getcat@?$ctype@_W@std@@SA_KPEAPEBVfacet@locale@2@PEBV42@@Z 000000014016c570 f i libcpmtd:wlocale.obj
 0002:000916a0       ?_Getcat@?$messages@G@std@@SA_KPEAPEBVfacet@locale@2@PEBV42@@Z 000000014016c6a0 f i libcpmtd:wlocale.obj
 0002:000917d0       ?_Getcat@?$messages@_W@std@@SA_KPEAPEBVfacet@locale@2@PEBV42@@Z 000000014016c7d0 f i libcpmtd:wlocale.obj
 0002:00091900       ?_Getcat@?$money_get@GV?$istreambuf_iterator@GU?$char_traits@G@std@@@std@@@std@@SA_KPEAPEBVfacet@locale@2@PEBV42@@Z 000000014016c900 f i libcpmtd:wlocale.obj
 0002:00091a30       ?_Getcat@?$money_get@_WV?$istreambuf_iterator@_WU?$char_traits@_W@std@@@std@@@std@@SA_KPEAPEBVfacet@locale@2@PEBV42@@Z 000000014016ca30 f i libcpmtd:wlocale.obj
 0002:00091b60       ?_Getcat@?$money_put@GV?$ostreambuf_iterator@GU?$char_traits@G@std@@@std@@@std@@SA_KPEAPEBVfacet@locale@2@PEBV42@@Z 000000014016cb60 f i libcpmtd:wlocale.obj
 0002:00091c90       ?_Getcat@?$money_put@_WV?$ostreambuf_iterator@_WU?$char_traits@_W@std@@@std@@@std@@SA_KPEAPEBVfacet@locale@2@PEBV42@@Z 000000014016cc90 f i libcpmtd:wlocale.obj
 0002:00091dc0       ?_Getcat@?$moneypunct@G$00@std@@SA_KPEAPEBVfacet@locale@2@PEBV42@@Z 000000014016cdc0 f i libcpmtd:wlocale.obj
 0002:00091f00       ?_Getcat@?$moneypunct@G$0A@@std@@SA_KPEAPEBVfacet@locale@2@PEBV42@@Z 000000014016cf00 f i libcpmtd:wlocale.obj
 0002:00092040       ?_Getcat@?$moneypunct@_W$00@std@@SA_KPEAPEBVfacet@locale@2@PEBV42@@Z 000000014016d040 f i libcpmtd:wlocale.obj
 0002:00092180       ?_Getcat@?$moneypunct@_W$0A@@std@@SA_KPEAPEBVfacet@locale@2@PEBV42@@Z 000000014016d180 f i libcpmtd:wlocale.obj
 0002:000922c0       ?_Getcat@?$num_get@GV?$istreambuf_iterator@GU?$char_traits@G@std@@@std@@@std@@SA_KPEAPEBVfacet@locale@2@PEBV42@@Z 000000014016d2c0 f i libcpmtd:wlocale.obj
 0002:000923f0       ?_Getcat@?$num_get@_WV?$istreambuf_iterator@_WU?$char_traits@_W@std@@@std@@@std@@SA_KPEAPEBVfacet@locale@2@PEBV42@@Z 000000014016d3f0 f i libcpmtd:wlocale.obj
 0002:00092520       ?_Getcat@?$num_put@GV?$ostreambuf_iterator@GU?$char_traits@G@std@@@std@@@std@@SA_KPEAPEBVfacet@locale@2@PEBV42@@Z 000000014016d520 f i libcpmtd:wlocale.obj
 0002:00092650       ?_Getcat@?$num_put@_WV?$ostreambuf_iterator@_WU?$char_traits@_W@std@@@std@@@std@@SA_KPEAPEBVfacet@locale@2@PEBV42@@Z 000000014016d650 f i libcpmtd:wlocale.obj
 0002:00092780       ?_Getcat@?$numpunct@G@std@@SA_KPEAPEBVfacet@locale@2@PEBV42@@Z 000000014016d780 f i libcpmtd:wlocale.obj
 0002:000928c0       ?_Getcat@?$numpunct@_W@std@@SA_KPEAPEBVfacet@locale@2@PEBV42@@Z 000000014016d8c0 f i libcpmtd:wlocale.obj
 0002:00092a00       ?_Getcat@?$time_get@GV?$istreambuf_iterator@GU?$char_traits@G@std@@@std@@@std@@SA_KPEAPEBVfacet@locale@2@PEBV42@@Z 000000014016da00 f i libcpmtd:wlocale.obj
 0002:00092b30       ?_Getcat@?$time_get@_WV?$istreambuf_iterator@_WU?$char_traits@_W@std@@@std@@@std@@SA_KPEAPEBVfacet@locale@2@PEBV42@@Z 000000014016db30 f i libcpmtd:wlocale.obj
 0002:00092c60       ?_Getcat@?$time_put@GV?$ostreambuf_iterator@GU?$char_traits@G@std@@@std@@@std@@SA_KPEAPEBVfacet@locale@2@PEBV42@@Z 000000014016dc60 f i libcpmtd:wlocale.obj
 0002:00092d90       ?_Getcat@?$time_put@_WV?$ostreambuf_iterator@_WU?$char_traits@_W@std@@@std@@@std@@SA_KPEAPEBVfacet@locale@2@PEBV42@@Z 000000014016dd90 f i libcpmtd:wlocale.obj
 0002:00092ec0       ?_Getcoll@_Locinfo@std@@QEBA?AU_Collvec@@XZ 000000014016dec0 f i libcpmtd:wlocale.obj
 0002:00092f10       ?_Getcont@_Iterator_base12@std@@QEBAPEBU_Container_base12@2@XZ 000000014016df10 f i libcpmtd:wlocale.obj
 0002:00092f60       ?_Getdateorder@_Locinfo@std@@QEBAHXZ 000000014016df60 f i libcpmtd:wlocale.obj
 0002:00092f80       ?_Getdays@_Locinfo@std@@QEBAPEBDXZ 000000014016df80 f i libcpmtd:wlocale.obj
 0002:00093030       ?_Getfmt@?$time_get@GV?$istreambuf_iterator@GU?$char_traits@G@std@@@std@@@std@@IEBA?AV?$istreambuf_iterator@GU?$char_traits@G@std@@@2@V32@0AEAVios_base@2@AEAHPEAUtm@@PEBD@Z 000000014016e030 f i libcpmtd:wlocale.obj
 0002:000933c0       ?_Getfmt@?$time_get@_WV?$istreambuf_iterator@_WU?$char_traits@_W@std@@@std@@@std@@IEBA?AV?$istreambuf_iterator@_WU?$char_traits@_W@std@@@2@V32@0AEAVios_base@2@AEAHPEAUtm@@PEBD@Z 000000014016e3c0 f i libcpmtd:wlocale.obj
 0002:00093750       ?_Getint@?$time_get@GV?$istreambuf_iterator@GU?$char_traits@G@std@@@std@@@std@@AEBAHAEAV?$istreambuf_iterator@GU?$char_traits@G@std@@@2@0HHAEAHAEBV?$ctype@G@2@@Z 000000014016e750 f i libcpmtd:wlocale.obj
 0002:000937d0       ?_Getint@?$time_get@_WV?$istreambuf_iterator@_WU?$char_traits@_W@std@@@std@@@std@@AEBAHAEAV?$istreambuf_iterator@_WU?$char_traits@_W@std@@@2@0HHAEAHAEBV?$ctype@_W@2@@Z 000000014016e7d0 f i libcpmtd:wlocale.obj
 0002:00093850       ?_Getmfld@?$money_get@GV?$istreambuf_iterator@GU?$char_traits@G@std@@@std@@@std@@AEBA?AV?$basic_string@DU?$char_traits@D@std@@V?$allocator@D@2@@2@AEAV?$istreambuf_iterator@GU?$char_traits@G@std@@@2@0_NAEAVios_base@2@AEAY0M@G@Z 000000014016e850 f i libcpmtd:wlocale.obj
 0002:00094ec0       ?_Getmfld@?$money_get@_WV?$istreambuf_iterator@_WU?$char_traits@_W@std@@@std@@@std@@AEBA?AV?$basic_string@DU?$char_traits@D@std@@V?$allocator@D@2@@2@AEAV?$istreambuf_iterator@_WU?$char_traits@_W@std@@@2@0_NAEAVios_base@2@AEAY0M@_W@Z 000000014016fec0 f i libcpmtd:wlocale.obj
 0002:00096530       ?_Getmonths@_Locinfo@std@@QEBAPEBDXZ 0000000140171530 f i libcpmtd:wlocale.obj
 0002:000965e0       ?_Getptr@_Timevec@std@@QEBAPEAXXZ 00000001401715e0 f i libcpmtd:wlocale.obj
 0002:00096600       ?_Getvals@?$_Mpunct@_W@std@@IEAAX_WPEBUlconv@@@Z 0000000140171600 f i libcpmtd:wlocale.obj
 0002:00096760       ?_Getvals@?$numpunct@_W@std@@IEAAX_WPEBUlconv@@U_Cvtvec@@@Z 0000000140171760 f i libcpmtd:wlocale.obj
 0002:000967d0       ?_Gnavail@?$basic_streambuf@GU?$char_traits@G@std@@@std@@IEBA_JXZ 00000001401717d0 f i libcpmtd:wlocale.obj
 0002:00096820       ?_Gnavail@?$basic_streambuf@_WU?$char_traits@_W@std@@@std@@IEBA_JXZ 0000000140171820 f i libcpmtd:wlocale.obj
 0002:00096870       ?_Gninc@?$basic_streambuf@GU?$char_traits@G@std@@@std@@IEAAPEAGXZ 0000000140171870 f i libcpmtd:wlocale.obj
 0002:000968e0       ?_Gninc@?$basic_streambuf@_WU?$char_traits@_W@std@@@std@@IEAAPEA_WXZ 00000001401718e0 f i libcpmtd:wlocale.obj
 0002:00096950       ?_Ifmt@?$num_put@GV?$ostreambuf_iterator@GU?$char_traits@G@std@@@std@@@std@@AEBAPEADPEADPEBDH@Z 0000000140171950 f i libcpmtd:wlocale.obj
 0002:00096b40       ?_Ifmt@?$num_put@_WV?$ostreambuf_iterator@_WU?$char_traits@_W@std@@@std@@@std@@AEBAPEADPEADPEBDH@Z 0000000140171b40 f i libcpmtd:wlocale.obj
 0002:00096d30       ?_Inc@?$istreambuf_iterator@GU?$char_traits@G@std@@@std@@AEAAXXZ 0000000140171d30 f i libcpmtd:wlocale.obj
 0002:00096dc0       ?_Inc@?$istreambuf_iterator@_WU?$char_traits@_W@std@@@std@@AEAAXXZ 0000000140171dc0 f i libcpmtd:wlocale.obj
 0002:00096e50       ?_Init@?$_Mpunct@G@std@@IEAAXAEBV_Locinfo@2@_N@Z 0000000140171e50 f i libcpmtd:wlocale.obj
 0002:00097140       ?_Init@?$_Mpunct@_W@std@@IEAAXAEBV_Locinfo@2@_N@Z 0000000140172140 f i libcpmtd:wlocale.obj
 0002:00097430       ?_Init@?$codecvt@GDU_Mbstatet@@@std@@IEAAXAEBV_Locinfo@2@@Z 0000000140172430 f i libcpmtd:wlocale.obj
 0002:000974b0       ?_Init@?$codecvt@_WDU_Mbstatet@@@std@@IEAAXAEBV_Locinfo@2@@Z 00000001401724b0 f i libcpmtd:wlocale.obj
 0002:00097530       ?_Init@?$collate@G@std@@IEAAXAEBV_Locinfo@2@@Z 0000000140172530 f i libcpmtd:wlocale.obj
 0002:00097580       ?_Init@?$collate@_W@std@@IEAAXAEBV_Locinfo@2@@Z 0000000140172580 f i libcpmtd:wlocale.obj
 0002:000975d0       ?_Init@?$ctype@G@std@@IEAAXAEBV_Locinfo@2@@Z 00000001401725d0 f i libcpmtd:wlocale.obj
 0002:00097680       ?_Init@?$ctype@_W@std@@IEAAXAEBV_Locinfo@2@@Z 0000000140172680 f i libcpmtd:wlocale.obj
 0002:00097730       ?_Init@?$messages@G@std@@IEAAXAEBV_Locinfo@2@@Z 0000000140172730 f i libcpmtd:wlocale.obj
 0002:00097740       ?_Init@?$messages@_W@std@@IEAAXAEBV_Locinfo@2@@Z 0000000140172740 f i libcpmtd:wlocale.obj
 0002:00097750       ?_Init@?$money_get@GV?$istreambuf_iterator@GU?$char_traits@G@std@@@std@@@std@@IEAAXAEBV_Locinfo@2@@Z 0000000140172750 f i libcpmtd:wlocale.obj
 0002:00097760       ?_Init@?$money_get@_WV?$istreambuf_iterator@_WU?$char_traits@_W@std@@@std@@@std@@IEAAXAEBV_Locinfo@2@@Z 0000000140172760 f i libcpmtd:wlocale.obj
 0002:00097770       ?_Init@?$money_put@GV?$ostreambuf_iterator@GU?$char_traits@G@std@@@std@@@std@@IEAAXAEBV_Locinfo@2@@Z 0000000140172770 f i libcpmtd:wlocale.obj
 0002:00097780       ?_Init@?$money_put@_WV?$ostreambuf_iterator@_WU?$char_traits@_W@std@@@std@@@std@@IEAAXAEBV_Locinfo@2@@Z 0000000140172780 f i libcpmtd:wlocale.obj
 0002:00097790       ?_Init@?$num_get@GV?$istreambuf_iterator@GU?$char_traits@G@std@@@std@@@std@@IEAAXAEBV_Locinfo@2@@Z 0000000140172790 f i libcpmtd:wlocale.obj
 0002:000977a0       ?_Init@?$num_get@_WV?$istreambuf_iterator@_WU?$char_traits@_W@std@@@std@@@std@@IEAAXAEBV_Locinfo@2@@Z 00000001401727a0 f i libcpmtd:wlocale.obj
 0002:000977b0       ?_Init@?$num_put@GV?$ostreambuf_iterator@GU?$char_traits@G@std@@@std@@@std@@IEAAXAEBV_Locinfo@2@@Z 00000001401727b0 f i libcpmtd:wlocale.obj
 0002:000977c0       ?_Init@?$num_put@_WV?$ostreambuf_iterator@_WU?$char_traits@_W@std@@@std@@@std@@IEAAXAEBV_Locinfo@2@@Z 00000001401727c0 f i libcpmtd:wlocale.obj
 0002:000977d0       ?_Init@?$numpunct@G@std@@IEAAXAEBV_Locinfo@2@_N@Z 00000001401727d0 f i libcpmtd:wlocale.obj
 0002:00097a30       ?_Init@?$numpunct@_W@std@@IEAAXAEBV_Locinfo@2@_N@Z 0000000140172a30 f i libcpmtd:wlocale.obj
 0002:00097c90       ?_Init@?$time_get@GV?$istreambuf_iterator@GU?$char_traits@G@std@@@std@@@std@@IEAAXAEBV_Locinfo@2@@Z 0000000140172c90 f i libcpmtd:wlocale.obj
 0002:00097d30       ?_Init@?$time_get@_WV?$istreambuf_iterator@_WU?$char_traits@_W@std@@@std@@@std@@IEAAXAEBV_Locinfo@2@@Z 0000000140172d30 f i libcpmtd:wlocale.obj
 0002:00097dd0       ?_Init@?$time_put@GV?$ostreambuf_iterator@GU?$char_traits@G@std@@@std@@@std@@IEAAXAEBV_Locinfo@2@@Z 0000000140172dd0 f i libcpmtd:wlocale.obj
 0002:00097e40       ?_Init@?$time_put@_WV?$ostreambuf_iterator@_WU?$char_traits@_W@std@@@std@@@std@@IEAAXAEBV_Locinfo@2@@Z 0000000140172e40 f i libcpmtd:wlocale.obj
 0002:00097eb0       ?_Iput@?$num_put@GV?$ostreambuf_iterator@GU?$char_traits@G@std@@@std@@@std@@AEBA?AV?$ostreambuf_iterator@GU?$char_traits@G@std@@@2@V32@AEAVios_base@2@GPEAD_K@Z 0000000140172eb0 f i libcpmtd:wlocale.obj
 0002:000987c0       ?_Iput@?$num_put@_WV?$ostreambuf_iterator@_WU?$char_traits@_W@std@@@std@@@std@@AEBA?AV?$ostreambuf_iterator@_WU?$char_traits@_W@std@@@2@V32@AEAVios_base@2@_WPEAD_K@Z 00000001401737c0 f i libcpmtd:wlocale.obj
 0002:000990d0       ?_Large_mode_engaged@?$_String_val@U?$_Simple_types@G@std@@@std@@QEBA_NXZ 00000001401740d0 f i libcpmtd:wlocale.obj
 0002:00099110       ?_Makeushloc@_Locimp@locale@std@@CAXAEBV_Locinfo@3@HPEAV123@PEBV23@@Z 0000000140174110 f   libcpmtd:wlocale.obj
 0002:0009a380       ?_Makewloc@_Locimp@locale@std@@CAXAEBV_Locinfo@3@HPEAV123@PEBV23@@Z 0000000140175380 f   libcpmtd:wlocale.obj
 0002:0009b5f0       ?_Maklocwcs@std@@YAPEA_WPEB_W@Z 00000001401765f0 f i libcpmtd:wlocale.obj
 0002:0009b680       ?_Makpat@?$_Mpunct@G@std@@AEAAXAEAUpattern@money_base@2@III@Z 0000000140176680 f i libcpmtd:wlocale.obj
 0002:0009b740       ?_Makpat@?$_Mpunct@_W@std@@AEAAXAEAUpattern@money_base@2@III@Z 0000000140176740 f i libcpmtd:wlocale.obj
 0002:0009b800       ?_Modify_annotation@?$basic_string@GU?$char_traits@G@std@@V?$allocator@G@2@@std@@AEBAX_K0@Z 0000000140176800 f i libcpmtd:wlocale.obj
 0002:0009b880       ?_Modify_annotation@?$basic_string@_WU?$char_traits@_W@std@@V?$allocator@_W@2@@std@@AEBAX_K0@Z 0000000140176880 f i libcpmtd:wlocale.obj
 0002:0009b900       ?_Myptr@?$_String_val@U?$_Simple_types@G@std@@@std@@QEAAPEAGXZ 0000000140176900 f i libcpmtd:wlocale.obj
 0002:0009b960       ?_Myptr@?$_String_val@U?$_Simple_types@G@std@@@std@@QEBAPEBGXZ 0000000140176960 f i libcpmtd:wlocale.obj
 0002:0009b9c0       ?_Orphan_me_locked_v3@_Iterator_base12@std@@AEAAXXZ 00000001401769c0 f i libcpmtd:wlocale.obj
 0002:0009ba00       ?_Orphan_me_unlocked_v3@_Iterator_base12@std@@AEAAXXZ 0000000140176a00 f i libcpmtd:wlocale.obj
 0002:0009bb40       ?_Peek@?$istreambuf_iterator@GU?$char_traits@G@std@@@std@@AEBAGXZ 0000000140176b40 f i libcpmtd:wlocale.obj
 0002:0009bbf0       ?_Peek@?$istreambuf_iterator@_WU?$char_traits@_W@std@@@std@@AEBA_WXZ 0000000140176bf0 f i libcpmtd:wlocale.obj
 0002:0009bca0       ?_Pnavail@?$basic_streambuf@GU?$char_traits@G@std@@@std@@IEBA_JXZ 0000000140176ca0 f i libcpmtd:wlocale.obj
 0002:0009bcf0       ?_Pnavail@?$basic_streambuf@_WU?$char_traits@_W@std@@@std@@IEBA_JXZ 0000000140176cf0 f i libcpmtd:wlocale.obj
 0002:0009bd40       ?_Pninc@?$basic_streambuf@GU?$char_traits@G@std@@@std@@IEAAPEAGXZ 0000000140176d40 f i libcpmtd:wlocale.obj
 0002:0009bdb0       ?_Pninc@?$basic_streambuf@_WU?$char_traits@_W@std@@@std@@IEAAPEA_WXZ 0000000140176db0 f i libcpmtd:wlocale.obj
 0002:0009be20       ?_Put@?$money_put@GV?$ostreambuf_iterator@GU?$char_traits@G@std@@@std@@@std@@CA?AV?$ostreambuf_iterator@GU?$char_traits@G@std@@@2@V32@V?$_String_const_iterator@V?$_String_val@U?$_Simple_types@G@std@@@std@@@2@_K@Z 0000000140176e20 f i libcpmtd:wlocale.obj
 0002:0009bee0       ?_Put@?$money_put@_WV?$ostreambuf_iterator@_WU?$char_traits@_W@std@@@std@@@std@@CA?AV?$ostreambuf_iterator@_WU?$char_traits@_W@std@@@2@V32@V?$_String_const_iterator@V?$_String_val@U?$_Simple_types@_W@std@@@std@@@2@_K@Z 0000000140176ee0 f i libcpmtd:wlocale.obj
 0002:0009bfa0       ?_Put@?$num_put@GV?$ostreambuf_iterator@GU?$char_traits@G@std@@@std@@@std@@AEBA?AV?$ostreambuf_iterator@GU?$char_traits@G@std@@@2@V32@PEBG_K@Z 0000000140176fa0 f i libcpmtd:wlocale.obj
 0002:0009c050       ?_Put@?$num_put@_WV?$ostreambuf_iterator@_WU?$char_traits@_W@std@@@std@@@std@@AEBA?AV?$ostreambuf_iterator@_WU?$char_traits@_W@std@@@2@V32@PEB_W_K@Z 0000000140177050 f i libcpmtd:wlocale.obj
 0002:0009c100       ?_Putmfld@?$money_put@GV?$ostreambuf_iterator@GU?$char_traits@G@std@@@std@@@std@@AEBA?AV?$ostreambuf_iterator@GU?$char_traits@G@std@@@2@V32@_NAEAVios_base@2@G1V?$basic_string@GU?$char_traits@G@std@@V?$allocator@G@2@@2@G@Z 0000000140177100 f i libcpmtd:wlocale.obj
 0002:0009d7f0       ?_Putmfld@?$money_put@_WV?$ostreambuf_iterator@_WU?$char_traits@_W@std@@@std@@@std@@AEBA?AV?$ostreambuf_iterator@_WU?$char_traits@_W@std@@@2@V32@_NAEAVios_base@2@_W1V?$basic_string@_WU?$char_traits@_W@std@@V?$allocator@_W@2@@2@3@Z 00000001401787f0 f i libcpmtd:wlocale.obj
 0002:0009eee0       ?_Remove_annotation@?$basic_string@GU?$char_traits@G@std@@V?$allocator@G@2@@std@@AEBAXXZ 0000000140179ee0 f i libcpmtd:wlocale.obj
 0002:0009ef70       ?_Remove_annotation@?$basic_string@_WU?$char_traits@_W@std@@V?$allocator@_W@2@@std@@AEBAXXZ 0000000140179f70 f i libcpmtd:wlocale.obj
 0002:0009f000       ?_Rep@?$money_put@GV?$ostreambuf_iterator@GU?$char_traits@G@std@@@std@@@std@@CA?AV?$ostreambuf_iterator@GU?$char_traits@G@std@@@2@V32@G_K@Z 000000014017a000 f i libcpmtd:wlocale.obj
 0002:0009f0a0       ?_Rep@?$money_put@_WV?$ostreambuf_iterator@_WU?$char_traits@_W@std@@@std@@@std@@CA?AV?$ostreambuf_iterator@_WU?$char_traits@_W@std@@@2@V32@_W_K@Z 000000014017a0a0 f i libcpmtd:wlocale.obj
 0002:0009f140       ?_Rep@?$num_put@GV?$ostreambuf_iterator@GU?$char_traits@G@std@@@std@@@std@@AEBA?AV?$ostreambuf_iterator@GU?$char_traits@G@std@@@2@V32@G_K@Z 000000014017a140 f i libcpmtd:wlocale.obj
 0002:0009f1e0       ?_Rep@?$num_put@_WV?$ostreambuf_iterator@_WU?$char_traits@_W@std@@@std@@@std@@AEBA?AV?$ostreambuf_iterator@_WU?$char_traits@_W@std@@@2@V32@_W_K@Z 000000014017a1e0 f i libcpmtd:wlocale.obj
 0002:0009f280       ?_Swap_proxy_and_iterators@?$basic_string@GU?$char_traits@G@std@@V?$allocator@G@2@@std@@AEAAXAEAV12@@Z 000000014017a280 f i libcpmtd:wlocale.obj
 0002:0009f2c0       ?_Swap_proxy_and_iterators@?$basic_string@_WU?$char_traits@_W@std@@V?$allocator@_W@2@@std@@AEAAXAEAV12@@Z 000000014017a2c0 f i libcpmtd:wlocale.obj
 0002:0009f300       ?_Switch_to_buf@_Bxty@?$_String_val@U?$_Simple_types@G@std@@@std@@QEAAXXZ 000000014017a300 f i libcpmtd:wlocale.obj
 0002:0009f370       ?_Take_contents@?$basic_string@GU?$char_traits@G@std@@V?$allocator@G@2@@std@@AEAAXAEAV12@@Z 000000014017a370 f i libcpmtd:wlocale.obj
 0002:0009f4e0       ?_Take_contents@?$basic_string@_WU?$char_traits@_W@std@@V?$allocator@_W@2@@std@@AEAAXAEAV12@@Z 000000014017a4e0 f i libcpmtd:wlocale.obj
 0002:0009f650       ?_Tidy@?$_Mpunct@G@std@@AEAAXXZ 000000014017a650 f i libcpmtd:wlocale.obj
 0002:0009f6b0       ?_Tidy@?$_Mpunct@_W@std@@AEAAXXZ 000000014017a6b0 f i libcpmtd:wlocale.obj
 0002:0009f710       ?_Tidy@?$numpunct@G@std@@AEAAXXZ 000000014017a710 f i libcpmtd:wlocale.obj
 0002:0009f760       ?_Tidy@?$numpunct@_W@std@@AEAAXXZ 000000014017a760 f i libcpmtd:wlocale.obj
 0002:0009f7b0       ?_Tidy@?$time_get@GV?$istreambuf_iterator@GU?$char_traits@G@std@@@std@@@std@@AEAAXXZ 000000014017a7b0 f i libcpmtd:wlocale.obj
 0002:0009f800       ?_Tidy@?$time_get@_WV?$istreambuf_iterator@_WU?$char_traits@_W@std@@@std@@@std@@AEAAXXZ 000000014017a800 f i libcpmtd:wlocale.obj
 0002:0009f850       ?_Tidy_deallocate@?$basic_string@GU?$char_traits@G@std@@V?$allocator@G@2@@std@@AEAAXXZ 000000014017a850 f i libcpmtd:wlocale.obj
 0002:0009f940       ?_Verify_offset@?$_String_const_iterator@V?$_String_val@U?$_Simple_types@G@std@@@std@@@std@@QEBAX_J@Z 000000014017a940 f i libcpmtd:wlocale.obj
 0002:0009fc80       ?_Verify_offset@?$_String_const_iterator@V?$_String_val@U?$_Simple_types@_W@std@@@std@@@std@@QEBAX_J@Z 000000014017ac80 f i libcpmtd:wlocale.obj
 0002:0009ffc0       ?_W_Getdays@_Locinfo@std@@QEBAPEBGXZ 000000014017afc0 f i libcpmtd:wlocale.obj
 0002:000a0070       ?_W_Getmonths@_Locinfo@std@@QEBAPEBGXZ 000000014017b070 f i libcpmtd:wlocale.obj
 0002:000a0120       ?_W_Gettnames@_Locinfo@std@@QEBA?AV_Timevec@2@XZ 000000014017b120 f i libcpmtd:wlocale.obj
 0002:000a0170       ?_Xran@?$_String_val@U?$_Simple_types@G@std@@@std@@SAXXZ 000000014017b170 f i libcpmtd:wlocale.obj
 0002:000a0190       ?allocate@?$allocator@G@std@@QEAAPEAG_K@Z 000000014017b190 f i libcpmtd:wlocale.obj
 0002:000a01c0       ?append@?$basic_string@GU?$char_traits@G@std@@V?$allocator@G@2@@std@@QEAAAEAV12@AEBV12@@Z 000000014017b1c0 f i libcpmtd:wlocale.obj
 0002:000a0220       ?append@?$basic_string@GU?$char_traits@G@std@@V?$allocator@G@2@@std@@QEAAAEAV12@QEBG_K@Z 000000014017b220 f i libcpmtd:wlocale.obj
 0002:000a0370       ?append@?$basic_string@GU?$char_traits@G@std@@V?$allocator@G@2@@std@@QEAAAEAV12@_KG@Z 000000014017b370 f i libcpmtd:wlocale.obj
 0002:000a04c0       ?append@?$basic_string@_WU?$char_traits@_W@std@@V?$allocator@_W@2@@std@@QEAAAEAV12@AEBV12@@Z 000000014017b4c0 f i libcpmtd:wlocale.obj
 0002:000a0520       ?assign@?$_Char_traits@GG@std@@SAPEAGQEAG_KG@Z 000000014017b520 f i libcpmtd:wlocale.obj
 0002:000a0590       ?assign@?$_Char_traits@GG@std@@SAXAEAGAEBG@Z 000000014017b590 f i libcpmtd:wlocale.obj
 0002:000a05c0       ?assign@?$_WChar_traits@G@std@@SAPEAGQEAG_KG@Z 000000014017b5c0 f i libcpmtd:wlocale.obj
 0002:000a0630       ?assign@?$_WChar_traits@G@std@@SAXAEAGAEBG@Z 000000014017b630 f i libcpmtd:wlocale.obj
 0002:000a0690       ?assign@?$basic_string@GU?$char_traits@G@std@@V?$allocator@G@2@@std@@QEAAAEAV12@$$QEAV12@@Z 000000014017b690 f i libcpmtd:wlocale.obj
 0002:000a06c0       ?assign@?$basic_string@_WU?$char_traits@_W@std@@V?$allocator@_W@2@@std@@QEAAAEAV12@$$QEAV12@@Z 000000014017b6c0 f i libcpmtd:wlocale.obj
 0002:000a06f0       ?begin@?$basic_string@GU?$char_traits@G@std@@V?$allocator@G@2@@std@@QEAA?AV?$_String_iterator@V?$_String_val@U?$_Simple_types@G@std@@@std@@@2@XZ 000000014017b6f0 f i libcpmtd:wlocale.obj
 0002:000a0760       ?begin@?$basic_string@_WU?$char_traits@_W@std@@V?$allocator@_W@2@@std@@QEAA?AV?$_String_iterator@V?$_String_val@U?$_Simple_types@_W@std@@@std@@@2@XZ 000000014017b760 f i libcpmtd:wlocale.obj
 0002:000a07d0       ?c_str@?$basic_string@GU?$char_traits@G@std@@V?$allocator@G@2@@std@@QEBAPEBGXZ 000000014017b7d0 f i libcpmtd:wlocale.obj
 0002:000a0800       ?copy@?$_Char_traits@GG@std@@SAPEAGQEAGQEBG_K@Z 000000014017b800 f i libcpmtd:wlocale.obj
 0002:000a08b0       ?curr_symbol@?$_Mpunct@G@std@@QEBA?AV?$basic_string@GU?$char_traits@G@std@@V?$allocator@G@2@@2@XZ 000000014017b8b0 f i libcpmtd:wlocale.obj
 0002:000a0930       ?curr_symbol@?$_Mpunct@_W@std@@QEBA?AV?$basic_string@_WU?$char_traits@_W@std@@V?$allocator@_W@2@@2@XZ 000000014017b930 f i libcpmtd:wlocale.obj
 0002:000a09b0       ?date_order@?$time_get@GV?$istreambuf_iterator@GU?$char_traits@G@std@@@std@@@std@@QEBA?AW4dateorder@time_base@2@XZ 000000014017b9b0 f i libcpmtd:wlocale.obj
 0002:000a09f0       ?date_order@?$time_get@_WV?$istreambuf_iterator@_WU?$char_traits@_W@std@@@std@@@std@@QEBA?AW4dateorder@time_base@2@XZ 000000014017b9f0 f i libcpmtd:wlocale.obj
 0002:000a0a30       ?deallocate@?$allocator@G@std@@QEAAXQEAG_K@Z 000000014017ba30 f i libcpmtd:wlocale.obj
 0002:000a0b20       ?decimal_point@?$_Mpunct@G@std@@QEBAGXZ 000000014017bb20 f i libcpmtd:wlocale.obj
 0002:000a0b60       ?decimal_point@?$_Mpunct@_W@std@@QEBA_WXZ 000000014017bb60 f i libcpmtd:wlocale.obj
 0002:000a0ba0       ?decimal_point@?$numpunct@G@std@@QEBAGXZ 000000014017bba0 f i libcpmtd:wlocale.obj
 0002:000a0be0       ?decimal_point@?$numpunct@_W@std@@QEBA_WXZ 000000014017bbe0 f i libcpmtd:wlocale.obj
 0002:000a0c20       ?do_always_noconv@?$codecvt@GDU_Mbstatet@@@std@@MEBA_NXZ 000000014017bc20 f i libcpmtd:wlocale.obj
 0002:000a0c30       ?do_always_noconv@?$codecvt@_WDU_Mbstatet@@@std@@MEBA_NXZ 000000014017bc30 f i libcpmtd:wlocale.obj
 0002:000a0c40       ?do_close@?$messages@G@std@@MEBAXH@Z 000000014017bc40 f i libcpmtd:wlocale.obj
 0002:000a0c50       ?do_close@?$messages@_W@std@@MEBAXH@Z 000000014017bc50 f i libcpmtd:wlocale.obj
 0002:000a0c60       ?do_compare@?$collate@G@std@@MEBAHPEBG000@Z 000000014017bc60 f i libcpmtd:wlocale.obj
 0002:000a0d30       ?do_compare@?$collate@_W@std@@MEBAHPEB_W000@Z 000000014017bd30 f i libcpmtd:wlocale.obj
 0002:000a0e00       ?do_curr_symbol@?$_Mpunct@G@std@@MEBA?AV?$basic_string@GU?$char_traits@G@std@@V?$allocator@G@2@@2@XZ 000000014017be00 f i libcpmtd:wlocale.obj
 0002:000a0e50       ?do_curr_symbol@?$_Mpunct@_W@std@@MEBA?AV?$basic_string@_WU?$char_traits@_W@std@@V?$allocator@_W@2@@2@XZ 000000014017be50 f i libcpmtd:wlocale.obj
 0002:000a0ea0       ?do_date_order@?$time_get@GV?$istreambuf_iterator@GU?$char_traits@G@std@@@std@@@std@@MEBA?AW4dateorder@time_base@2@XZ 000000014017bea0 f i libcpmtd:wlocale.obj
 0002:000a0ec0       ?do_date_order@?$time_get@_WV?$istreambuf_iterator@_WU?$char_traits@_W@std@@@std@@@std@@MEBA?AW4dateorder@time_base@2@XZ 000000014017bec0 f i libcpmtd:wlocale.obj
 0002:000a0ee0       ?do_decimal_point@?$_Mpunct@G@std@@MEBAGXZ 000000014017bee0 f i libcpmtd:wlocale.obj
 0002:000a0f00       ?do_decimal_point@?$_Mpunct@_W@std@@MEBA_WXZ 000000014017bf00 f i libcpmtd:wlocale.obj
 0002:000a0f20       ?do_decimal_point@?$numpunct@G@std@@MEBAGXZ 000000014017bf20 f i libcpmtd:wlocale.obj
 0002:000a0f40       ?do_decimal_point@?$numpunct@_W@std@@MEBA_WXZ 000000014017bf40 f i libcpmtd:wlocale.obj
 0002:000a0f60       ?do_encoding@?$codecvt@GDU_Mbstatet@@@std@@MEBAHXZ 000000014017bf60 f i libcpmtd:wlocale.obj
 0002:000a0fa0       ?do_encoding@?$codecvt@_WDU_Mbstatet@@@std@@MEBAHXZ 000000014017bfa0 f i libcpmtd:wlocale.obj
 0002:000a0fe0       ?do_falsename@?$numpunct@G@std@@MEBA?AV?$basic_string@GU?$char_traits@G@std@@V?$allocator@G@2@@2@XZ 000000014017bfe0 f i libcpmtd:wlocale.obj
 0002:000a1030       ?do_falsename@?$numpunct@_W@std@@MEBA?AV?$basic_string@_WU?$char_traits@_W@std@@V?$allocator@_W@2@@2@XZ 000000014017c030 f i libcpmtd:wlocale.obj
 0002:000a1080       ?do_frac_digits@?$_Mpunct@G@std@@MEBAHXZ 000000014017c080 f i libcpmtd:wlocale.obj
 0002:000a10a0       ?do_frac_digits@?$_Mpunct@_W@std@@MEBAHXZ 000000014017c0a0 f i libcpmtd:wlocale.obj
 0002:000a10c0       ?do_get@?$messages@G@std@@MEBA?AV?$basic_string@GU?$char_traits@G@std@@V?$allocator@G@2@@2@HHHAEBV32@@Z 000000014017c0c0 f i libcpmtd:wlocale.obj
 0002:000a1120       ?do_get@?$messages@_W@std@@MEBA?AV?$basic_string@_WU?$char_traits@_W@std@@V?$allocator@_W@2@@2@HHHAEBV32@@Z 000000014017c120 f i libcpmtd:wlocale.obj
 0002:000a1180       ?do_get@?$money_get@GV?$istreambuf_iterator@GU?$char_traits@G@std@@@std@@@std@@MEBA?AV?$istreambuf_iterator@GU?$char_traits@G@std@@@2@V32@0_NAEAVios_base@2@AEAHAEAO@Z 000000014017c180 f i libcpmtd:wlocale.obj
 0002:000a1370       ?do_get@?$money_get@GV?$istreambuf_iterator@GU?$char_traits@G@std@@@std@@@std@@MEBA?AV?$istreambuf_iterator@GU?$char_traits@G@std@@@2@V32@0_NAEAVios_base@2@AEAHAEAV?$basic_string@GU?$char_traits@G@std@@V?$allocator@G@2@@2@@Z 000000014017c370 f i libcpmtd:wlocale.obj
 0002:000a15f0       ?do_get@?$money_get@_WV?$istreambuf_iterator@_WU?$char_traits@_W@std@@@std@@@std@@MEBA?AV?$istreambuf_iterator@_WU?$char_traits@_W@std@@@2@V32@0_NAEAVios_base@2@AEAHAEAO@Z 000000014017c5f0 f i libcpmtd:wlocale.obj
 0002:000a17e0       ?do_get@?$money_get@_WV?$istreambuf_iterator@_WU?$char_traits@_W@std@@@std@@@std@@MEBA?AV?$istreambuf_iterator@_WU?$char_traits@_W@std@@@2@V32@0_NAEAVios_base@2@AEAHAEAV?$basic_string@_WU?$char_traits@_W@std@@V?$allocator@_W@2@@2@@Z 000000014017c7e0 f i libcpmtd:wlocale.obj
 0002:000a1a60       ?do_get@?$num_get@GV?$istreambuf_iterator@GU?$char_traits@G@std@@@std@@@std@@MEBA?AV?$istreambuf_iterator@GU?$char_traits@G@std@@@2@V32@0AEAVios_base@2@AEAHAEAG@Z 000000014017ca60 f i libcpmtd:wlocale.obj
 0002:000a1d60       ?do_get@?$num_get@GV?$istreambuf_iterator@GU?$char_traits@G@std@@@std@@@std@@MEBA?AV?$istreambuf_iterator@GU?$char_traits@G@std@@@2@V32@0AEAVios_base@2@AEAHAEAI@Z 000000014017cd60 f i libcpmtd:wlocale.obj
 0002:000a1e70       ?do_get@?$num_get@GV?$istreambuf_iterator@GU?$char_traits@G@std@@@std@@@std@@MEBA?AV?$istreambuf_iterator@GU?$char_traits@G@std@@@2@V32@0AEAVios_base@2@AEAHAEAJ@Z 000000014017ce70 f i libcpmtd:wlocale.obj
 0002:000a20a0       ?do_get@?$num_get@GV?$istreambuf_iterator@GU?$char_traits@G@std@@@std@@@std@@MEBA?AV?$istreambuf_iterator@GU?$char_traits@G@std@@@2@V32@0AEAVios_base@2@AEAHAEAK@Z 000000014017d0a0 f i libcpmtd:wlocale.obj
 0002:000a22d0       ?do_get@?$num_get@GV?$istreambuf_iterator@GU?$char_traits@G@std@@@std@@@std@@MEBA?AV?$istreambuf_iterator@GU?$char_traits@G@std@@@2@V32@0AEAVios_base@2@AEAHAEAM@Z 000000014017d2d0 f i libcpmtd:wlocale.obj
 0002:000a24e0       ?do_get@?$num_get@GV?$istreambuf_iterator@GU?$char_traits@G@std@@@std@@@std@@MEBA?AV?$istreambuf_iterator@GU?$char_traits@G@std@@@2@V32@0AEAVios_base@2@AEAHAEAN@Z 000000014017d4e0 f i libcpmtd:wlocale.obj
 0002:000a26f0       ?do_get@?$num_get@GV?$istreambuf_iterator@GU?$char_traits@G@std@@@std@@@std@@MEBA?AV?$istreambuf_iterator@GU?$char_traits@G@std@@@2@V32@0AEAVios_base@2@AEAHAEAO@Z 000000014017d6f0 f i libcpmtd:wlocale.obj
 0002:000a2800       ?do_get@?$num_get@GV?$istreambuf_iterator@GU?$char_traits@G@std@@@std@@@std@@MEBA?AV?$istreambuf_iterator@GU?$char_traits@G@std@@@2@V32@0AEAVios_base@2@AEAHAEAPEAX@Z 000000014017d800 f i libcpmtd:wlocale.obj
 0002:000a2a30       ?do_get@?$num_get@GV?$istreambuf_iterator@GU?$char_traits@G@std@@@std@@@std@@MEBA?AV?$istreambuf_iterator@GU?$char_traits@G@std@@@2@V32@0AEAVios_base@2@AEAHAEA_J@Z 000000014017da30 f i libcpmtd:wlocale.obj
 0002:000a2c60       ?do_get@?$num_get@GV?$istreambuf_iterator@GU?$char_traits@G@std@@@std@@@std@@MEBA?AV?$istreambuf_iterator@GU?$char_traits@G@std@@@2@V32@0AEAVios_base@2@AEAHAEA_K@Z 000000014017dc60 f i libcpmtd:wlocale.obj
 0002:000a2e90       ?do_get@?$num_get@GV?$istreambuf_iterator@GU?$char_traits@G@std@@@std@@@std@@MEBA?AV?$istreambuf_iterator@GU?$char_traits@G@std@@@2@V32@0AEAVios_base@2@AEAHAEA_N@Z 000000014017de90 f i libcpmtd:wlocale.obj
 0002:000a3380       ?do_get@?$num_get@_WV?$istreambuf_iterator@_WU?$char_traits@_W@std@@@std@@@std@@MEBA?AV?$istreambuf_iterator@_WU?$char_traits@_W@std@@@2@V32@0AEAVios_base@2@AEAHAEAG@Z 000000014017e380 f i libcpmtd:wlocale.obj
 0002:000a3680       ?do_get@?$num_get@_WV?$istreambuf_iterator@_WU?$char_traits@_W@std@@@std@@@std@@MEBA?AV?$istreambuf_iterator@_WU?$char_traits@_W@std@@@2@V32@0AEAVios_base@2@AEAHAEAI@Z 000000014017e680 f i libcpmtd:wlocale.obj
 0002:000a3790       ?do_get@?$num_get@_WV?$istreambuf_iterator@_WU?$char_traits@_W@std@@@std@@@std@@MEBA?AV?$istreambuf_iterator@_WU?$char_traits@_W@std@@@2@V32@0AEAVios_base@2@AEAHAEAJ@Z 000000014017e790 f i libcpmtd:wlocale.obj
 0002:000a39c0       ?do_get@?$num_get@_WV?$istreambuf_iterator@_WU?$char_traits@_W@std@@@std@@@std@@MEBA?AV?$istreambuf_iterator@_WU?$char_traits@_W@std@@@2@V32@0AEAVios_base@2@AEAHAEAK@Z 000000014017e9c0 f i libcpmtd:wlocale.obj
 0002:000a3bf0       ?do_get@?$num_get@_WV?$istreambuf_iterator@_WU?$char_traits@_W@std@@@std@@@std@@MEBA?AV?$istreambuf_iterator@_WU?$char_traits@_W@std@@@2@V32@0AEAVios_base@2@AEAHAEAM@Z 000000014017ebf0 f i libcpmtd:wlocale.obj
 0002:000a3e00       ?do_get@?$num_get@_WV?$istreambuf_iterator@_WU?$char_traits@_W@std@@@std@@@std@@MEBA?AV?$istreambuf_iterator@_WU?$char_traits@_W@std@@@2@V32@0AEAVios_base@2@AEAHAEAN@Z 000000014017ee00 f i libcpmtd:wlocale.obj
 0002:000a4010       ?do_get@?$num_get@_WV?$istreambuf_iterator@_WU?$char_traits@_W@std@@@std@@@std@@MEBA?AV?$istreambuf_iterator@_WU?$char_traits@_W@std@@@2@V32@0AEAVios_base@2@AEAHAEAO@Z 000000014017f010 f i libcpmtd:wlocale.obj
 0002:000a4120       ?do_get@?$num_get@_WV?$istreambuf_iterator@_WU?$char_traits@_W@std@@@std@@@std@@MEBA?AV?$istreambuf_iterator@_WU?$char_traits@_W@std@@@2@V32@0AEAVios_base@2@AEAHAEAPEAX@Z 000000014017f120 f i libcpmtd:wlocale.obj
 0002:000a4350       ?do_get@?$num_get@_WV?$istreambuf_iterator@_WU?$char_traits@_W@std@@@std@@@std@@MEBA?AV?$istreambuf_iterator@_WU?$char_traits@_W@std@@@2@V32@0AEAVios_base@2@AEAHAEA_J@Z 000000014017f350 f i libcpmtd:wlocale.obj
 0002:000a4580       ?do_get@?$num_get@_WV?$istreambuf_iterator@_WU?$char_traits@_W@std@@@std@@@std@@MEBA?AV?$istreambuf_iterator@_WU?$char_traits@_W@std@@@2@V32@0AEAVios_base@2@AEAHAEA_K@Z 000000014017f580 f i libcpmtd:wlocale.obj
 0002:000a47b0       ?do_get@?$num_get@_WV?$istreambuf_iterator@_WU?$char_traits@_W@std@@@std@@@std@@MEBA?AV?$istreambuf_iterator@_WU?$char_traits@_W@std@@@2@V32@0AEAVios_base@2@AEAHAEA_N@Z 000000014017f7b0 f i libcpmtd:wlocale.obj
 0002:000a4ca0       ?do_get@?$time_get@GV?$istreambuf_iterator@GU?$char_traits@G@std@@@std@@@std@@MEBA?AV?$istreambuf_iterator@GU?$char_traits@G@std@@@2@V32@0AEAVios_base@2@AEAHPEAUtm@@DD@Z 000000014017fca0 f i libcpmtd:wlocale.obj
 0002:000a5f10       ?do_get@?$time_get@_WV?$istreambuf_iterator@_WU?$char_traits@_W@std@@@std@@@std@@MEBA?AV?$istreambuf_iterator@_WU?$char_traits@_W@std@@@2@V32@0AEAVios_base@2@AEAHPEAUtm@@DD@Z 0000000140180f10 f i libcpmtd:wlocale.obj
 0002:000a7180       ?do_get_date@?$time_get@GV?$istreambuf_iterator@GU?$char_traits@G@std@@@std@@@std@@MEBA?AV?$istreambuf_iterator@GU?$char_traits@G@std@@@2@V32@0AEAVios_base@2@AEAHPEAUtm@@@Z 0000000140182180 f i libcpmtd:wlocale.obj
 0002:000a7e80       ?do_get_date@?$time_get@_WV?$istreambuf_iterator@_WU?$char_traits@_W@std@@@std@@@std@@MEBA?AV?$istreambuf_iterator@_WU?$char_traits@_W@std@@@2@V32@0AEAVios_base@2@AEAHPEAUtm@@@Z 0000000140182e80 f i libcpmtd:wlocale.obj
 0002:000a8b80       ?do_get_monthname@?$time_get@GV?$istreambuf_iterator@GU?$char_traits@G@std@@@std@@@std@@MEBA?AV?$istreambuf_iterator@GU?$char_traits@G@std@@@2@V32@0AEAVios_base@2@AEAHPEAUtm@@@Z 0000000140183b80 f i libcpmtd:wlocale.obj
 0002:000a8c30       ?do_get_monthname@?$time_get@_WV?$istreambuf_iterator@_WU?$char_traits@_W@std@@@std@@@std@@MEBA?AV?$istreambuf_iterator@_WU?$char_traits@_W@std@@@2@V32@0AEAVios_base@2@AEAHPEAUtm@@@Z 0000000140183c30 f i libcpmtd:wlocale.obj
 0002:000a8ce0       ?do_get_time@?$time_get@GV?$istreambuf_iterator@GU?$char_traits@G@std@@@std@@@std@@MEBA?AV?$istreambuf_iterator@GU?$char_traits@G@std@@@2@V32@0AEAVios_base@2@AEAHPEAUtm@@@Z 0000000140183ce0 f i libcpmtd:wlocale.obj
 0002:000a9030       ?do_get_time@?$time_get@_WV?$istreambuf_iterator@_WU?$char_traits@_W@std@@@std@@@std@@MEBA?AV?$istreambuf_iterator@_WU?$char_traits@_W@std@@@2@V32@0AEAVios_base@2@AEAHPEAUtm@@@Z 0000000140184030 f i libcpmtd:wlocale.obj
 0002:000a9380       ?do_get_weekday@?$time_get@GV?$istreambuf_iterator@GU?$char_traits@G@std@@@std@@@std@@MEBA?AV?$istreambuf_iterator@GU?$char_traits@G@std@@@2@V32@0AEAVios_base@2@AEAHPEAUtm@@@Z 0000000140184380 f i libcpmtd:wlocale.obj
 0002:000a9430       ?do_get_weekday@?$time_get@_WV?$istreambuf_iterator@_WU?$char_traits@_W@std@@@std@@@std@@MEBA?AV?$istreambuf_iterator@_WU?$char_traits@_W@std@@@2@V32@0AEAVios_base@2@AEAHPEAUtm@@@Z 0000000140184430 f i libcpmtd:wlocale.obj
 0002:000a94e0       ?do_get_year@?$time_get@GV?$istreambuf_iterator@GU?$char_traits@G@std@@@std@@@std@@MEBA?AV?$istreambuf_iterator@GU?$char_traits@G@std@@@2@V32@0AEAVios_base@2@AEAHPEAUtm@@@Z 00000001401844e0 f i libcpmtd:wlocale.obj
 0002:000a9670       ?do_get_year@?$time_get@_WV?$istreambuf_iterator@_WU?$char_traits@_W@std@@@std@@@std@@MEBA?AV?$istreambuf_iterator@_WU?$char_traits@_W@std@@@2@V32@0AEAVios_base@2@AEAHPEAUtm@@@Z 0000000140184670 f i libcpmtd:wlocale.obj
 0002:000a9800       ?do_grouping@?$_Mpunct@G@std@@MEBA?AV?$basic_string@DU?$char_traits@D@std@@V?$allocator@D@2@@2@XZ 0000000140184800 f i libcpmtd:wlocale.obj
 0002:000a9850       ?do_grouping@?$_Mpunct@_W@std@@MEBA?AV?$basic_string@DU?$char_traits@D@std@@V?$allocator@D@2@@2@XZ 0000000140184850 f i libcpmtd:wlocale.obj
 0002:000a98a0       ?do_grouping@?$numpunct@G@std@@MEBA?AV?$basic_string@DU?$char_traits@D@std@@V?$allocator@D@2@@2@XZ 00000001401848a0 f i libcpmtd:wlocale.obj
 0002:000a98f0       ?do_grouping@?$numpunct@_W@std@@MEBA?AV?$basic_string@DU?$char_traits@D@std@@V?$allocator@D@2@@2@XZ 00000001401848f0 f i libcpmtd:wlocale.obj
 0002:000a9940       ?do_hash@?$collate@G@std@@MEBAJPEBG0@Z 0000000140184940 f i libcpmtd:wlocale.obj
 0002:000a99a0       ?do_hash@?$collate@_W@std@@MEBAJPEB_W0@Z 00000001401849a0 f i libcpmtd:wlocale.obj
 0002:000a9a00       ?do_in@?$codecvt@GDU_Mbstatet@@@std@@MEBAHAEAU_Mbstatet@@PEBD1AEAPEBDPEAG3AEAPEAG@Z 0000000140184a00 f i libcpmtd:wlocale.obj
 0002:000a9bb0       ?do_in@?$codecvt@_WDU_Mbstatet@@@std@@MEBAHAEAU_Mbstatet@@PEBD1AEAPEBDPEA_W3AEAPEA_W@Z 0000000140184bb0 f i libcpmtd:wlocale.obj
 0002:000a9d60       ?do_is@?$ctype@G@std@@MEBAPEBGPEBG0PEAF@Z 0000000140184d60 f i libcpmtd:wlocale.obj
 0002:000a9dc0       ?do_is@?$ctype@G@std@@MEBA_NFG@Z 0000000140184dc0 f i libcpmtd:wlocale.obj
 0002:000a9e30       ?do_is@?$ctype@_W@std@@MEBAPEB_WPEB_W0PEAF@Z 0000000140184e30 f i libcpmtd:wlocale.obj
 0002:000a9e90       ?do_is@?$ctype@_W@std@@MEBA_NF_W@Z 0000000140184e90 f i libcpmtd:wlocale.obj
 0002:000a9f00       ?do_length@?$codecvt@GDU_Mbstatet@@@std@@MEBAHAEAU_Mbstatet@@PEBD1_K@Z 0000000140184f00 f i libcpmtd:wlocale.obj
 0002:000aa040       ?do_length@?$codecvt@_WDU_Mbstatet@@@std@@MEBAHAEAU_Mbstatet@@PEBD1_K@Z 0000000140185040 f i libcpmtd:wlocale.obj
 0002:000aa180       ?do_max_length@?$codecvt@GDU_Mbstatet@@@std@@MEBAHXZ 0000000140185180 f i libcpmtd:wlocale.obj
 0002:000aa1a0       ?do_max_length@?$codecvt@_WDU_Mbstatet@@@std@@MEBAHXZ 00000001401851a0 f i libcpmtd:wlocale.obj
 0002:000aa1c0       ?do_narrow@?$ctype@G@std@@MEBADGD@Z 00000001401851c0 f i libcpmtd:wlocale.obj
 0002:000aa200       ?do_narrow@?$ctype@G@std@@MEBAPEBGPEBG0DPEAD@Z 0000000140185200 f i libcpmtd:wlocale.obj
 0002:000aa2a0       ?do_narrow@?$ctype@_W@std@@MEBAD_WD@Z 00000001401852a0 f i libcpmtd:wlocale.obj
 0002:000aa2e0       ?do_narrow@?$ctype@_W@std@@MEBAPEB_WPEB_W0DPEAD@Z 00000001401852e0 f i libcpmtd:wlocale.obj
 0002:000aa380       ?do_neg_format@?$_Mpunct@G@std@@MEBA?AUpattern@money_base@2@XZ 0000000140185380 f i libcpmtd:wlocale.obj
 0002:000aa3b0       ?do_neg_format@?$_Mpunct@_W@std@@MEBA?AUpattern@money_base@2@XZ 00000001401853b0 f i libcpmtd:wlocale.obj
 0002:000aa3e0       ?do_negative_sign@?$_Mpunct@G@std@@MEBA?AV?$basic_string@GU?$char_traits@G@std@@V?$allocator@G@2@@2@XZ 00000001401853e0 f i libcpmtd:wlocale.obj
 0002:000aa430       ?do_negative_sign@?$_Mpunct@_W@std@@MEBA?AV?$basic_string@_WU?$char_traits@_W@std@@V?$allocator@_W@2@@2@XZ 0000000140185430 f i libcpmtd:wlocale.obj
 0002:000aa480       ?do_open@?$messages@G@std@@MEBAHAEBV?$basic_string@DU?$char_traits@D@std@@V?$allocator@D@2@@2@AEBVlocale@2@@Z 0000000140185480 f i libcpmtd:wlocale.obj
 0002:000aa4a0       ?do_open@?$messages@_W@std@@MEBAHAEBV?$basic_string@DU?$char_traits@D@std@@V?$allocator@D@2@@2@AEBVlocale@2@@Z 00000001401854a0 f i libcpmtd:wlocale.obj
 0002:000aa4c0       ?do_out@?$codecvt@GDU_Mbstatet@@@std@@MEBAHAEAU_Mbstatet@@PEBG1AEAPEBGPEAD3AEAPEAD@Z 00000001401854c0 f i libcpmtd:wlocale.obj
 0002:000aa780       ?do_out@?$codecvt@_WDU_Mbstatet@@@std@@MEBAHAEAU_Mbstatet@@PEB_W1AEAPEB_WPEAD3AEAPEAD@Z 0000000140185780 f i libcpmtd:wlocale.obj
 0002:000aaa40       ?do_pos_format@?$_Mpunct@G@std@@MEBA?AUpattern@money_base@2@XZ 0000000140185a40 f i libcpmtd:wlocale.obj
 0002:000aaa70       ?do_pos_format@?$_Mpunct@_W@std@@MEBA?AUpattern@money_base@2@XZ 0000000140185a70 f i libcpmtd:wlocale.obj
 0002:000aaaa0       ?do_positive_sign@?$_Mpunct@G@std@@MEBA?AV?$basic_string@GU?$char_traits@G@std@@V?$allocator@G@2@@2@XZ 0000000140185aa0 f i libcpmtd:wlocale.obj
 0002:000aaaf0       ?do_positive_sign@?$_Mpunct@_W@std@@MEBA?AV?$basic_string@_WU?$char_traits@_W@std@@V?$allocator@_W@2@@2@XZ 0000000140185af0 f i libcpmtd:wlocale.obj
 0002:000aab40       ?do_put@?$money_put@GV?$ostreambuf_iterator@GU?$char_traits@G@std@@@std@@@std@@MEBA?AV?$ostreambuf_iterator@GU?$char_traits@G@std@@@2@V32@_NAEAVios_base@2@GAEBV?$basic_string@GU?$char_traits@G@std@@V?$allocator@G@2@@2@@Z 0000000140185b40 f i libcpmtd:wlocale.obj
 0002:000aaf40       ?do_put@?$money_put@GV?$ostreambuf_iterator@GU?$char_traits@G@std@@@std@@@std@@MEBA?AV?$ostreambuf_iterator@GU?$char_traits@G@std@@@2@V32@_NAEAVios_base@2@GO@Z 0000000140185f40 f i libcpmtd:wlocale.obj
 0002:000ab2c0       ?do_put@?$money_put@_WV?$ostreambuf_iterator@_WU?$char_traits@_W@std@@@std@@@std@@MEBA?AV?$ostreambuf_iterator@_WU?$char_traits@_W@std@@@2@V32@_NAEAVios_base@2@_WAEBV?$basic_string@_WU?$char_traits@_W@std@@V?$allocator@_W@2@@2@@Z 00000001401862c0 f i libcpmtd:wlocale.obj
 0002:000ab6c0       ?do_put@?$money_put@_WV?$ostreambuf_iterator@_WU?$char_traits@_W@std@@@std@@@std@@MEBA?AV?$ostreambuf_iterator@_WU?$char_traits@_W@std@@@2@V32@_NAEAVios_base@2@_WO@Z 00000001401866c0 f i libcpmtd:wlocale.obj
 0002:000aba40       ?do_put@?$num_put@GV?$ostreambuf_iterator@GU?$char_traits@G@std@@@std@@@std@@MEBA?AV?$ostreambuf_iterator@GU?$char_traits@G@std@@@2@V32@AEAVios_base@2@GJ@Z 0000000140186a40 f i libcpmtd:wlocale.obj
 0002:000abba0       ?do_put@?$num_put@GV?$ostreambuf_iterator@GU?$char_traits@G@std@@@std@@@std@@MEBA?AV?$ostreambuf_iterator@GU?$char_traits@G@std@@@2@V32@AEAVios_base@2@GK@Z 0000000140186ba0 f i libcpmtd:wlocale.obj
 0002:000abd00       ?do_put@?$num_put@GV?$ostreambuf_iterator@GU?$char_traits@G@std@@@std@@@std@@MEBA?AV?$ostreambuf_iterator@GU?$char_traits@G@std@@@2@V32@AEAVios_base@2@GN@Z 0000000140186d00 f i libcpmtd:wlocale.obj
 0002:000ac0c0       ?do_put@?$num_put@GV?$ostreambuf_iterator@GU?$char_traits@G@std@@@std@@@std@@MEBA?AV?$ostreambuf_iterator@GU?$char_traits@G@std@@@2@V32@AEAVios_base@2@GO@Z 00000001401870c0 f i libcpmtd:wlocale.obj
 0002:000ac480       ?do_put@?$num_put@GV?$ostreambuf_iterator@GU?$char_traits@G@std@@@std@@@std@@MEBA?AV?$ostreambuf_iterator@GU?$char_traits@G@std@@@2@V32@AEAVios_base@2@GPEBX@Z 0000000140187480 f i libcpmtd:wlocale.obj
 0002:000ac5b0       ?do_put@?$num_put@GV?$ostreambuf_iterator@GU?$char_traits@G@std@@@std@@@std@@MEBA?AV?$ostreambuf_iterator@GU?$char_traits@G@std@@@2@V32@AEAVios_base@2@G_J@Z 00000001401875b0 f i libcpmtd:wlocale.obj
 0002:000ac710       ?do_put@?$num_put@GV?$ostreambuf_iterator@GU?$char_traits@G@std@@@std@@@std@@MEBA?AV?$ostreambuf_iterator@GU?$char_traits@G@std@@@2@V32@AEAVios_base@2@G_K@Z 0000000140187710 f i libcpmtd:wlocale.obj
 0002:000ac870       ?do_put@?$num_put@GV?$ostreambuf_iterator@GU?$char_traits@G@std@@@std@@@std@@MEBA?AV?$ostreambuf_iterator@GU?$char_traits@G@std@@@2@V32@AEAVios_base@2@G_N@Z 0000000140187870 f i libcpmtd:wlocale.obj
 0002:000acd60       ?do_put@?$num_put@_WV?$ostreambuf_iterator@_WU?$char_traits@_W@std@@@std@@@std@@MEBA?AV?$ostreambuf_iterator@_WU?$char_traits@_W@std@@@2@V32@AEAVios_base@2@_WJ@Z 0000000140187d60 f i libcpmtd:wlocale.obj
 0002:000acec0       ?do_put@?$num_put@_WV?$ostreambuf_iterator@_WU?$char_traits@_W@std@@@std@@@std@@MEBA?AV?$ostreambuf_iterator@_WU?$char_traits@_W@std@@@2@V32@AEAVios_base@2@_WK@Z 0000000140187ec0 f i libcpmtd:wlocale.obj
 0002:000ad020       ?do_put@?$num_put@_WV?$ostreambuf_iterator@_WU?$char_traits@_W@std@@@std@@@std@@MEBA?AV?$ostreambuf_iterator@_WU?$char_traits@_W@std@@@2@V32@AEAVios_base@2@_WN@Z 0000000140188020 f i libcpmtd:wlocale.obj
 0002:000ad3e0       ?do_put@?$num_put@_WV?$ostreambuf_iterator@_WU?$char_traits@_W@std@@@std@@@std@@MEBA?AV?$ostreambuf_iterator@_WU?$char_traits@_W@std@@@2@V32@AEAVios_base@2@_WO@Z 00000001401883e0 f i libcpmtd:wlocale.obj
 0002:000ad7a0       ?do_put@?$num_put@_WV?$ostreambuf_iterator@_WU?$char_traits@_W@std@@@std@@@std@@MEBA?AV?$ostreambuf_iterator@_WU?$char_traits@_W@std@@@2@V32@AEAVios_base@2@_WPEBX@Z 00000001401887a0 f i libcpmtd:wlocale.obj
 0002:000ad8d0       ?do_put@?$num_put@_WV?$ostreambuf_iterator@_WU?$char_traits@_W@std@@@std@@@std@@MEBA?AV?$ostreambuf_iterator@_WU?$char_traits@_W@std@@@2@V32@AEAVios_base@2@_W_J@Z 00000001401888d0 f i libcpmtd:wlocale.obj
 0002:000ada30       ?do_put@?$num_put@_WV?$ostreambuf_iterator@_WU?$char_traits@_W@std@@@std@@@std@@MEBA?AV?$ostreambuf_iterator@_WU?$char_traits@_W@std@@@2@V32@AEAVios_base@2@_W_K@Z 0000000140188a30 f i libcpmtd:wlocale.obj
 0002:000adb90       ?do_put@?$num_put@_WV?$ostreambuf_iterator@_WU?$char_traits@_W@std@@@std@@@std@@MEBA?AV?$ostreambuf_iterator@_WU?$char_traits@_W@std@@@2@V32@AEAVios_base@2@_W_N@Z 0000000140188b90 f i libcpmtd:wlocale.obj
 0002:000ae080       ?do_put@?$time_put@GV?$ostreambuf_iterator@GU?$char_traits@G@std@@@std@@@std@@MEBA?AV?$ostreambuf_iterator@GU?$char_traits@G@std@@@2@V32@AEAVios_base@2@GPEBUtm@@DD@Z 0000000140189080 f i libcpmtd:wlocale.obj
 0002:000ae3c0       ?do_put@?$time_put@_WV?$ostreambuf_iterator@_WU?$char_traits@_W@std@@@std@@@std@@MEBA?AV?$ostreambuf_iterator@_WU?$char_traits@_W@std@@@2@V32@AEAVios_base@2@_WPEBUtm@@DD@Z 00000001401893c0 f i libcpmtd:wlocale.obj
 0002:000ae700       ?do_scan_is@?$ctype@G@std@@MEBAPEBGFPEBG0@Z 0000000140189700 f i libcpmtd:wlocale.obj
 0002:000ae790       ?do_scan_is@?$ctype@_W@std@@MEBAPEB_WFPEB_W0@Z 0000000140189790 f i libcpmtd:wlocale.obj
 0002:000ae820       ?do_scan_not@?$ctype@G@std@@MEBAPEBGFPEBG0@Z 0000000140189820 f i libcpmtd:wlocale.obj
 0002:000ae8b0       ?do_scan_not@?$ctype@_W@std@@MEBAPEB_WFPEB_W0@Z 00000001401898b0 f i libcpmtd:wlocale.obj
 0002:000ae940       ?do_thousands_sep@?$_Mpunct@G@std@@MEBAGXZ 0000000140189940 f i libcpmtd:wlocale.obj
 0002:000ae960       ?do_thousands_sep@?$_Mpunct@_W@std@@MEBA_WXZ 0000000140189960 f i libcpmtd:wlocale.obj
 0002:000ae980       ?do_thousands_sep@?$numpunct@G@std@@MEBAGXZ 0000000140189980 f i libcpmtd:wlocale.obj
 0002:000ae9a0       ?do_thousands_sep@?$numpunct@_W@std@@MEBA_WXZ 00000001401899a0 f i libcpmtd:wlocale.obj
 0002:000ae9c0       ?do_tolower@?$ctype@G@std@@MEBAGG@Z 00000001401899c0 f i libcpmtd:wlocale.obj
 0002:000aea00       ?do_tolower@?$ctype@G@std@@MEBAPEBGPEAGPEBG@Z 0000000140189a00 f i libcpmtd:wlocale.obj
 0002:000aea90       ?do_tolower@?$ctype@_W@std@@MEBAPEB_WPEA_WPEB_W@Z 0000000140189a90 f i libcpmtd:wlocale.obj
 0002:000aeb20       ?do_tolower@?$ctype@_W@std@@MEBA_W_W@Z 0000000140189b20 f i libcpmtd:wlocale.obj
 0002:000aeb60       ?do_toupper@?$ctype@G@std@@MEBAGG@Z 0000000140189b60 f i libcpmtd:wlocale.obj
 0002:000aeba0       ?do_toupper@?$ctype@G@std@@MEBAPEBGPEAGPEBG@Z 0000000140189ba0 f i libcpmtd:wlocale.obj
 0002:000aec30       ?do_toupper@?$ctype@_W@std@@MEBAPEB_WPEA_WPEB_W@Z 0000000140189c30 f i libcpmtd:wlocale.obj
 0002:000aecc0       ?do_toupper@?$ctype@_W@std@@MEBA_W_W@Z 0000000140189cc0 f i libcpmtd:wlocale.obj
 0002:000aed00       ?do_transform@?$collate@G@std@@MEBA?AV?$basic_string@GU?$char_traits@G@std@@V?$allocator@G@2@@2@PEBG0@Z 0000000140189d00 f i libcpmtd:wlocale.obj
 0002:000aeec0       ?do_transform@?$collate@_W@std@@MEBA?AV?$basic_string@_WU?$char_traits@_W@std@@V?$allocator@_W@2@@2@PEB_W0@Z 0000000140189ec0 f i libcpmtd:wlocale.obj
 0002:000af080       ?do_truename@?$numpunct@G@std@@MEBA?AV?$basic_string@GU?$char_traits@G@std@@V?$allocator@G@2@@2@XZ 000000014018a080 f i libcpmtd:wlocale.obj
 0002:000af0d0       ?do_truename@?$numpunct@_W@std@@MEBA?AV?$basic_string@_WU?$char_traits@_W@std@@V?$allocator@_W@2@@2@XZ 000000014018a0d0 f i libcpmtd:wlocale.obj
 0002:000af120       ?do_unshift@?$codecvt@GDU_Mbstatet@@@std@@MEBAHAEAU_Mbstatet@@PEAD1AEAPEAD@Z 000000014018a120 f i libcpmtd:wlocale.obj
 0002:000af280       ?do_unshift@?$codecvt@_WDU_Mbstatet@@@std@@MEBAHAEAU_Mbstatet@@PEAD1AEAPEAD@Z 000000014018a280 f i libcpmtd:wlocale.obj
 0002:000af3e0       ?do_widen@?$ctype@G@std@@MEBAGD@Z 000000014018a3e0 f i libcpmtd:wlocale.obj
 0002:000af410       ?do_widen@?$ctype@G@std@@MEBAPEBDPEBD0PEAG@Z 000000014018a410 f i libcpmtd:wlocale.obj
 0002:000af4b0       ?do_widen@?$ctype@_W@std@@MEBAPEBDPEBD0PEA_W@Z 000000014018a4b0 f i libcpmtd:wlocale.obj
 0002:000af550       ?do_widen@?$ctype@_W@std@@MEBA_WD@Z 000000014018a550 f i libcpmtd:wlocale.obj
 0002:000af580       ?empty@?$basic_string@GU?$char_traits@G@std@@V?$allocator@G@2@@std@@QEBA_NXZ 000000014018a580 f i libcpmtd:wlocale.obj
 0002:000af5c0       ?empty@?$basic_string@_WU?$char_traits@_W@std@@V?$allocator@_W@2@@std@@QEBA_NXZ 000000014018a5c0 f i libcpmtd:wlocale.obj
 0002:000af600       ?end@?$basic_string@GU?$char_traits@G@std@@V?$allocator@G@2@@std@@QEAA?AV?$_String_iterator@V?$_String_val@U?$_Simple_types@G@std@@@std@@@2@XZ 000000014018a600 f i libcpmtd:wlocale.obj
 0002:000af680       ?end@?$basic_string@_WU?$char_traits@_W@std@@V?$allocator@_W@2@@std@@QEAA?AV?$_String_iterator@V?$_String_val@U?$_Simple_types@_W@std@@@std@@@2@XZ 000000014018a680 f i libcpmtd:wlocale.obj
 0002:000af700       ?eof@?$_WChar_traits@G@std@@SAGXZ 000000014018a700 f i libcpmtd:wlocale.obj
 0002:000af710       ?eof@?$_WChar_traits@_W@std@@SAGXZ 000000014018a710 f i libcpmtd:wlocale.obj
 0002:000af720       ?eq_int_type@?$_WChar_traits@G@std@@SA_NGG@Z 000000014018a720 f i libcpmtd:wlocale.obj
 0002:000af770       ?eq_int_type@?$_WChar_traits@_W@std@@SA_NGG@Z 000000014018a770 f i libcpmtd:wlocale.obj
 0002:000af7c0       ?equal@?$istreambuf_iterator@GU?$char_traits@G@std@@@std@@QEBA_NAEBV12@@Z 000000014018a7c0 f i libcpmtd:wlocale.obj
 0002:000af870       ?equal@?$istreambuf_iterator@_WU?$char_traits@_W@std@@@std@@QEBA_NAEBV12@@Z 000000014018a870 f i libcpmtd:wlocale.obj
 0002:000af920       ?erase@?$basic_string@DU?$char_traits@D@std@@V?$allocator@D@2@@std@@QEAAAEAV12@_K@Z 000000014018a920 f i libcpmtd:wlocale.obj
 0002:000af970       ?erase@?$basic_string@GU?$char_traits@G@std@@V?$allocator@G@2@@std@@QEAAAEAV12@_K@Z 000000014018a970 f i libcpmtd:wlocale.obj
 0002:000af9c0       ?falsename@?$numpunct@G@std@@QEBA?AV?$basic_string@GU?$char_traits@G@std@@V?$allocator@G@2@@2@XZ 000000014018a9c0 f i libcpmtd:wlocale.obj
 0002:000afa40       ?falsename@?$numpunct@_W@std@@QEBA?AV?$basic_string@_WU?$char_traits@_W@std@@V?$allocator@_W@2@@2@XZ 000000014018aa40 f i libcpmtd:wlocale.obj
 0002:000afac0       ?frac_digits@?$_Mpunct@G@std@@QEBAHXZ 000000014018aac0 f i libcpmtd:wlocale.obj
 0002:000afb00       ?frac_digits@?$_Mpunct@_W@std@@QEBAHXZ 000000014018ab00 f i libcpmtd:wlocale.obj
 0002:000afb40       ?get_monthname@?$time_get@GV?$istreambuf_iterator@GU?$char_traits@G@std@@@std@@@std@@QEBA?AV?$istreambuf_iterator@GU?$char_traits@G@std@@@2@V32@0AEAVios_base@2@AEAHPEAUtm@@@Z 000000014018ab40 f i libcpmtd:wlocale.obj
 0002:000afc40       ?get_monthname@?$time_get@_WV?$istreambuf_iterator@_WU?$char_traits@_W@std@@@std@@@std@@QEBA?AV?$istreambuf_iterator@_WU?$char_traits@_W@std@@@2@V32@0AEAVios_base@2@AEAHPEAUtm@@@Z 000000014018ac40 f i libcpmtd:wlocale.obj
 0002:000afd40       ?get_weekday@?$time_get@GV?$istreambuf_iterator@GU?$char_traits@G@std@@@std@@@std@@QEBA?AV?$istreambuf_iterator@GU?$char_traits@G@std@@@2@V32@0AEAVios_base@2@AEAHPEAUtm@@@Z 000000014018ad40 f i libcpmtd:wlocale.obj
 0002:000afe40       ?get_weekday@?$time_get@_WV?$istreambuf_iterator@_WU?$char_traits@_W@std@@@std@@@std@@QEBA?AV?$istreambuf_iterator@_WU?$char_traits@_W@std@@@2@V32@0AEAVios_base@2@AEAHPEAUtm@@@Z 000000014018ae40 f i libcpmtd:wlocale.obj
 0002:000aff40       ?get_year@?$time_get@GV?$istreambuf_iterator@GU?$char_traits@G@std@@@std@@@std@@QEBA?AV?$istreambuf_iterator@GU?$char_traits@G@std@@@2@V32@0AEAVios_base@2@AEAHPEAUtm@@@Z 000000014018af40 f i libcpmtd:wlocale.obj
 0002:000b0040       ?get_year@?$time_get@_WV?$istreambuf_iterator@_WU?$char_traits@_W@std@@@std@@@std@@QEBA?AV?$istreambuf_iterator@_WU?$char_traits@_W@std@@@2@V32@0AEAVios_base@2@AEAHPEAUtm@@@Z 000000014018b040 f i libcpmtd:wlocale.obj
 0002:000b0140       ?gptr@?$basic_streambuf@GU?$char_traits@G@std@@@std@@IEBAPEAGXZ 000000014018b140 f i libcpmtd:wlocale.obj
 0002:000b0160       ?gptr@?$basic_streambuf@_WU?$char_traits@_W@std@@@std@@IEBAPEA_WXZ 000000014018b160 f i libcpmtd:wlocale.obj
 0002:000b0180       ?grouping@?$_Mpunct@G@std@@QEBA?AV?$basic_string@DU?$char_traits@D@std@@V?$allocator@D@2@@2@XZ 000000014018b180 f i libcpmtd:wlocale.obj
 0002:000b0200       ?grouping@?$_Mpunct@_W@std@@QEBA?AV?$basic_string@DU?$char_traits@D@std@@V?$allocator@D@2@@2@XZ 000000014018b200 f i libcpmtd:wlocale.obj
 0002:000b0280       ?grouping@?$numpunct@G@std@@QEBA?AV?$basic_string@DU?$char_traits@D@std@@V?$allocator@D@2@@2@XZ 000000014018b280 f i libcpmtd:wlocale.obj
 0002:000b0300       ?grouping@?$numpunct@_W@std@@QEBA?AV?$basic_string@DU?$char_traits@D@std@@V?$allocator@D@2@@2@XZ 000000014018b300 f i libcpmtd:wlocale.obj
 0002:000b0380       ?insert@?$basic_string@GU?$char_traits@G@std@@V?$allocator@G@2@@std@@QEAAAEAV12@_K0G@Z 000000014018b380 f i libcpmtd:wlocale.obj
 0002:000b0530       ?insert@?$basic_string@_WU?$char_traits@_W@std@@V?$allocator@_W@2@@std@@QEAAAEAV12@_K0_W@Z 000000014018b530 f i libcpmtd:wlocale.obj
 0002:000b06e0       ?is@?$ctype@G@std@@QEBA_NFG@Z 000000014018b6e0 f i libcpmtd:wlocale.obj
 0002:000b0750       ?is@?$ctype@_W@std@@QEBA_NF_W@Z 000000014018b750 f i libcpmtd:wlocale.obj
 0002:000b07c0       ?length@?$_Char_traits@GG@std@@SA_KPEBG@Z 000000014018b7c0 f i libcpmtd:wlocale.obj
 0002:000b0820       ?length@?$_WChar_traits@G@std@@SA_KPEBG@Z 000000014018b820 f i libcpmtd:wlocale.obj
 0002:000b0860       ?length@?$_WChar_traits@_W@std@@SA_KPEB_W@Z 000000014018b860 f i libcpmtd:wlocale.obj
 0002:000b08d0       ?max_size@?$_Default_allocator_traits@V?$allocator@G@std@@@std@@SA_KAEBV?$allocator@G@2@@Z 000000014018b8d0 f i libcpmtd:wlocale.obj
 0002:000b08f0       ?max_size@?$basic_string@GU?$char_traits@G@std@@V?$allocator@G@2@@std@@QEBA_KXZ 000000014018b8f0 f i libcpmtd:wlocale.obj
 0002:000b0980       ?move@?$_Char_traits@GG@std@@SAPEAGQEAGQEBG_K@Z 000000014018b980 f i libcpmtd:wlocale.obj
 0002:000b0af0       ?name@locale@std@@QEBA?AV?$basic_string@DU?$char_traits@D@std@@V?$allocator@D@2@@2@XZ 000000014018baf0 f i libcpmtd:wlocale.obj
 0002:000b0c60       ?narrow@?$ctype@G@std@@QEBADGD@Z 000000014018bc60 f i libcpmtd:wlocale.obj
 0002:000b0cd0       ?narrow@?$ctype@_W@std@@QEBAD_WD@Z 000000014018bcd0 f i libcpmtd:wlocale.obj
 0002:000b0d40       ?neg_format@?$_Mpunct@G@std@@QEBA?AUpattern@money_base@2@XZ 000000014018bd40 f i libcpmtd:wlocale.obj
 0002:000b0da0       ?neg_format@?$_Mpunct@_W@std@@QEBA?AUpattern@money_base@2@XZ 000000014018bda0 f i libcpmtd:wlocale.obj
 0002:000b0e00       ?negative_sign@?$_Mpunct@G@std@@QEBA?AV?$basic_string@GU?$char_traits@G@std@@V?$allocator@G@2@@2@XZ 000000014018be00 f i libcpmtd:wlocale.obj
 0002:000b0e80       ?negative_sign@?$_Mpunct@_W@std@@QEBA?AV?$basic_string@_WU?$char_traits@_W@std@@V?$allocator@_W@2@@2@XZ 000000014018be80 f i libcpmtd:wlocale.obj
 0002:000b0f00       ?pos_format@?$_Mpunct@G@std@@QEBA?AUpattern@money_base@2@XZ 000000014018bf00 f i libcpmtd:wlocale.obj
 0002:000b0f60       ?pos_format@?$_Mpunct@_W@std@@QEBA?AUpattern@money_base@2@XZ 000000014018bf60 f i libcpmtd:wlocale.obj
 0002:000b0fc0       ?positive_sign@?$_Mpunct@G@std@@QEBA?AV?$basic_string@GU?$char_traits@G@std@@V?$allocator@G@2@@2@XZ 000000014018bfc0 f i libcpmtd:wlocale.obj
 0002:000b1040       ?positive_sign@?$_Mpunct@_W@std@@QEBA?AV?$basic_string@_WU?$char_traits@_W@std@@V?$allocator@_W@2@@2@XZ 000000014018c040 f i libcpmtd:wlocale.obj
 0002:000b10c0       ?push_back@?$basic_string@GU?$char_traits@G@std@@V?$allocator@G@2@@std@@QEAAXG@Z 000000014018c0c0 f i libcpmtd:wlocale.obj
 0002:000b11c0       ?resize@?$basic_string@GU?$char_traits@G@std@@V?$allocator@G@2@@std@@QEAAX_KG@Z 000000014018c1c0 f i libcpmtd:wlocale.obj
 0002:000b1250       ?sbumpc@?$basic_streambuf@GU?$char_traits@G@std@@@std@@QEAAGXZ 000000014018c250 f i libcpmtd:wlocale.obj
 0002:000b12d0       ?sbumpc@?$basic_streambuf@_WU?$char_traits@_W@std@@@std@@QEAAGXZ 000000014018c2d0 f i libcpmtd:wlocale.obj
 0002:000b1350       ?select_on_container_copy_construction@?$_Default_allocator_traits@V?$allocator@G@std@@@std@@SA?AV?$allocator@G@2@AEBV32@@Z 000000014018c350 f i libcpmtd:wlocale.obj
 0002:000b1370       ?setstate@ios_base@std@@QEAAXH@Z 000000014018c370 f i libcpmtd:wlocale.obj
 0002:000b13b0       ?sgetc@?$basic_streambuf@GU?$char_traits@G@std@@@std@@QEAAGXZ 000000014018c3b0 f i libcpmtd:wlocale.obj
 0002:000b1430       ?sgetc@?$basic_streambuf@_WU?$char_traits@_W@std@@@std@@QEAAGXZ 000000014018c430 f i libcpmtd:wlocale.obj
 0002:000b14b0       ?size@?$basic_string@GU?$char_traits@G@std@@V?$allocator@G@2@@std@@QEBA_KXZ 000000014018c4b0 f i libcpmtd:wlocale.obj
 0002:000b14d0       ?sputc@?$basic_streambuf@GU?$char_traits@G@std@@@std@@QEAAGG@Z 000000014018c4d0 f i libcpmtd:wlocale.obj
 0002:000b1590       ?sputc@?$basic_streambuf@_WU?$char_traits@_W@std@@@std@@QEAAG_W@Z 000000014018c590 f i libcpmtd:wlocale.obj
 0002:000b1650       ?thousands_sep@?$_Mpunct@G@std@@QEBAGXZ 000000014018c650 f i libcpmtd:wlocale.obj
 0002:000b1690       ?thousands_sep@?$_Mpunct@_W@std@@QEBA_WXZ 000000014018c690 f i libcpmtd:wlocale.obj
 0002:000b16d0       ?thousands_sep@?$numpunct@G@std@@QEBAGXZ 000000014018c6d0 f i libcpmtd:wlocale.obj
 0002:000b1710       ?thousands_sep@?$numpunct@_W@std@@QEBA_WXZ 000000014018c710 f i libcpmtd:wlocale.obj
 0002:000b1750       ?to_char_type@?$_WChar_traits@G@std@@SAGG@Z 000000014018c750 f i libcpmtd:wlocale.obj
 0002:000b1760       ?to_char_type@?$_WChar_traits@_W@std@@SA_WG@Z 000000014018c760 f i libcpmtd:wlocale.obj
 0002:000b1770       ?to_int_type@?$_WChar_traits@G@std@@SAGG@Z 000000014018c770 f i libcpmtd:wlocale.obj
 0002:000b1780       ?to_int_type@?$_WChar_traits@_W@std@@SAG_W@Z 000000014018c780 f i libcpmtd:wlocale.obj
 0002:000b1790       ?tolower@?$ctype@G@std@@QEBAGG@Z 000000014018c790 f i libcpmtd:wlocale.obj
 0002:000b17f0       ?tolower@?$ctype@_W@std@@QEBA_W_W@Z 000000014018c7f0 f i libcpmtd:wlocale.obj
 0002:000b1850       ?truename@?$numpunct@G@std@@QEBA?AV?$basic_string@GU?$char_traits@G@std@@V?$allocator@G@2@@2@XZ 000000014018c850 f i libcpmtd:wlocale.obj
 0002:000b18d0       ?truename@?$numpunct@_W@std@@QEBA?AV?$basic_string@_WU?$char_traits@_W@std@@V?$allocator@_W@2@@2@XZ 000000014018c8d0 f i libcpmtd:wlocale.obj
 0002:000b1950       ?widen@?$ctype@G@std@@QEBAGD@Z 000000014018c950 f i libcpmtd:wlocale.obj
 0002:000b19b0       ?widen@?$ctype@G@std@@QEBAPEBDPEBD0PEAG@Z 000000014018c9b0 f i libcpmtd:wlocale.obj
 0002:000b1a20       ?widen@?$ctype@_W@std@@QEBAPEBDPEBD0PEA_W@Z 000000014018ca20 f i libcpmtd:wlocale.obj
 0002:000b1a90       ?widen@?$ctype@_W@std@@QEBA_WD@Z 000000014018ca90 f i libcpmtd:wlocale.obj
 0002:000b1af0       wmemcpy                    000000014018caf0 f i libcpmtd:wlocale.obj
 0002:000b1b30       ??$_Copy_unchecked@PEADPEADV?$ostreambuf_iterator@DU?$char_traits@D@std@@@std@@@std@@YA?AV?$ostreambuf_iterator@DU?$char_traits@D@std@@@0@PEAD0V10@@Z 000000014018cb30 f i libcpmtd:xlocale.obj
 0002:000b1be0       ??$_Find_elem@D$0M@@std@@YA_KAEAY0M@$$CBDD@Z 000000014018cbe0 f i libcpmtd:xlocale.obj
 0002:000b1c20       ??$_Get_unwrapped@AEAPEAD@std@@YA?A_TAEAPEAD@Z 000000014018cc20 f i libcpmtd:xlocale.obj
 0002:000b1c40       ??$_Get_unwrapped_n@AEAV?$ostreambuf_iterator@DU?$char_traits@D@std@@@std@@_J@std@@YA?A_TAEAV?$ostreambuf_iterator@DU?$char_traits@D@std@@@0@_J@Z 000000014018cc40 f i libcpmtd:xlocale.obj
 0002:000b1c60       ??$_Getint_v2@V?$istreambuf_iterator@DU?$char_traits@D@std@@@std@@D@std@@YAHAEAV?$istreambuf_iterator@DU?$char_traits@D@std@@@0@0HHAEAH1AEBV?$ctype@D@0@@Z 000000014018cc60 f i libcpmtd:xlocale.obj
 0002:000b2180       ??$_Getvals@D@?$_Mpunct@D@std@@IEAAXDPEBUlconv@@@Z 000000014018d180 f i libcpmtd:xlocale.obj
 0002:000b2390       ??$_Getvals@D@?$time_get@DV?$istreambuf_iterator@DU?$char_traits@D@std@@@std@@@std@@IEAAXDAEBV_Locinfo@1@@Z 000000014018d390 f i libcpmtd:xlocale.obj
 0002:000b2550       ??$_Hash_array_representation@D@std@@YA_KQEBD_K@Z 000000014018d550 f i libcpmtd:xlocale.obj
 0002:000b2590       ??$_Idl_distance@PEADPEAD@std@@YA?A_PAEBQEAD0@Z 000000014018d590 f i libcpmtd:xlocale.obj
 0002:000b25c0       ??$_LStrcoll@D@std@@YAHPEBD000PEBU_Collvec@@@Z 000000014018d5c0 f i libcpmtd:xlocale.obj
 0002:000b2610       ??$_LStrxfrm@D@std@@YA_KPEAD0PEBD1PEBU_Collvec@@@Z 000000014018d610 f i libcpmtd:xlocale.obj
 0002:000b2660       ??$_Refancy@PEAD$0A@@std@@YAPEADPEAD@Z 000000014018d660 f i libcpmtd:xlocale.obj
 0002:000b2670       ??$_Seek_wrapped@V?$ostreambuf_iterator@DU?$char_traits@D@std@@@std@@V12@@std@@YAXAEAV?$ostreambuf_iterator@DU?$char_traits@D@std@@@0@$$QEAV10@@Z 000000014018d670 f i libcpmtd:xlocale.obj
 0002:000b26a0       ??$_Unfancy@$$CBD@std@@YAPEBDPEBD@Z 000000014018d6a0 f i libcpmtd:xlocale.obj
 0002:000b26b0       ??$addressof@$$CBV?$moneypunct@D$00@std@@@std@@YAPEBV?$moneypunct@D$00@0@AEBV10@@Z 000000014018d6b0 f i libcpmtd:xlocale.obj
 0002:000b26c0       ??$addressof@$$CBV?$moneypunct@D$0A@@std@@@std@@YAPEBV?$moneypunct@D$0A@@0@AEBV10@@Z 000000014018d6c0 f i libcpmtd:xlocale.obj
 0002:000b26d0       ??$copy@PEADV?$ostreambuf_iterator@DU?$char_traits@D@std@@@std@@@std@@YA?AV?$ostreambuf_iterator@DU?$char_traits@D@std@@@0@PEAD0V10@@Z 000000014018d6d0 f i libcpmtd:xlocale.obj
 0002:000b2830       ??$use_facet@V?$collate@D@std@@@std@@YAAEBV?$collate@D@0@AEBVlocale@0@@Z 000000014018d830 f i libcpmtd:xlocale.obj
 0002:000b2990       ??$use_facet@V?$messages@D@std@@@std@@YAAEBV?$messages@D@0@AEBVlocale@0@@Z 000000014018d990 f i libcpmtd:xlocale.obj
 0002:000b2af0       ??$use_facet@V?$money_get@DV?$istreambuf_iterator@DU?$char_traits@D@std@@@std@@@std@@@std@@YAAEBV?$money_get@DV?$istreambuf_iterator@DU?$char_traits@D@std@@@std@@@0@AEBVlocale@0@@Z 000000014018daf0 f i libcpmtd:xlocale.obj
 0002:000b2c50       ??$use_facet@V?$money_put@DV?$ostreambuf_iterator@DU?$char_traits@D@std@@@std@@@std@@@std@@YAAEBV?$money_put@DV?$ostreambuf_iterator@DU?$char_traits@D@std@@@std@@@0@AEBVlocale@0@@Z 000000014018dc50 f i libcpmtd:xlocale.obj
 0002:000b2db0       ??$use_facet@V?$moneypunct@D$00@std@@@std@@YAAEBV?$moneypunct@D$00@0@AEBVlocale@0@@Z 000000014018ddb0 f i libcpmtd:xlocale.obj
 0002:000b2f10       ??$use_facet@V?$moneypunct@D$0A@@std@@@std@@YAAEBV?$moneypunct@D$0A@@0@AEBVlocale@0@@Z 000000014018df10 f i libcpmtd:xlocale.obj
 0002:000b3070       ??$use_facet@V?$time_get@DV?$istreambuf_iterator@DU?$char_traits@D@std@@@std@@@std@@@std@@YAAEBV?$time_get@DV?$istreambuf_iterator@DU?$char_traits@D@std@@@std@@@0@AEBVlocale@0@@Z 000000014018e070 f i libcpmtd:xlocale.obj
 0002:000b31d0       ??$use_facet@V?$time_put@DV?$ostreambuf_iterator@DU?$char_traits@D@std@@@std@@@std@@@std@@YAAEBV?$time_put@DV?$ostreambuf_iterator@DU?$char_traits@D@std@@@std@@@0@AEBVlocale@0@@Z 000000014018e1d0 f i libcpmtd:xlocale.obj
 0002:000b3330       ??0?$_Mpunct@D@std@@QEAA@AEBV_Locinfo@1@_K_N2@Z 000000014018e330 f i libcpmtd:xlocale.obj
 0002:000b33b0       ??0?$_String_const_iterator@V?$_String_val@U?$_Simple_types@D@std@@@std@@@std@@QEAA@$$QEAV01@@Z 000000014018e3b0 f i libcpmtd:xlocale.obj
 0002:000b3400       ??0?$_String_const_iterator@V?$_String_val@U?$_Simple_types@D@std@@@std@@@std@@QEAA@AEBV01@@Z 000000014018e400 f i libcpmtd:xlocale.obj
 0002:000b3450       ??0?$_String_const_iterator@V?$_String_val@U?$_Simple_types@D@std@@@std@@@std@@QEAA@PEBDPEBU_Container_base12@1@@Z 000000014018e450 f i libcpmtd:xlocale.obj
 0002:000b34b0       ??0?$_String_const_iterator@V?$_String_val@U?$_Simple_types@D@std@@@std@@@std@@QEAA@XZ 000000014018e4b0 f i libcpmtd:xlocale.obj
 0002:000b34f0       ??0?$_String_iterator@V?$_String_val@U?$_Simple_types@D@std@@@std@@@std@@QEAA@AEBV01@@Z 000000014018e4f0 f i libcpmtd:xlocale.obj
 0002:000b3530       ??0?$_String_iterator@V?$_String_val@U?$_Simple_types@D@std@@@std@@@std@@QEAA@PEBDPEBU_Container_base12@1@@Z 000000014018e530 f i libcpmtd:xlocale.obj
 0002:000b3570       ??0?$collate@D@std@@QEAA@AEBV_Locinfo@1@_K@Z 000000014018e570 f i libcpmtd:xlocale.obj
 0002:000b35d0       ??0?$messages@D@std@@QEAA@AEBV_Locinfo@1@_K@Z 000000014018e5d0 f i libcpmtd:xlocale.obj
 0002:000b3630       ??0?$money_get@DV?$istreambuf_iterator@DU?$char_traits@D@std@@@std@@@std@@QEAA@AEBV_Locinfo@1@_K@Z 000000014018e630 f i libcpmtd:xlocale.obj
 0002:000b3690       ??0?$money_put@DV?$ostreambuf_iterator@DU?$char_traits@D@std@@@std@@@std@@QEAA@AEBV_Locinfo@1@_K@Z 000000014018e690 f i libcpmtd:xlocale.obj
 0002:000b36f0       ??0?$moneypunct@D$00@std@@QEAA@AEBV_Locinfo@1@_K_N@Z 000000014018e6f0 f i libcpmtd:xlocale.obj
 0002:000b3760       ??0?$moneypunct@D$0A@@std@@QEAA@AEBV_Locinfo@1@_K_N@Z 000000014018e760 f i libcpmtd:xlocale.obj
 0002:000b37d0       ??0?$time_get@DV?$istreambuf_iterator@DU?$char_traits@D@std@@@std@@@std@@QEAA@AEBV_Locinfo@1@_K@Z 000000014018e7d0 f i libcpmtd:xlocale.obj
 0002:000b3830       ??0?$time_put@DV?$ostreambuf_iterator@DU?$char_traits@D@std@@@std@@@std@@QEAA@AEBV_Locinfo@1@_K@Z 000000014018e830 f i libcpmtd:xlocale.obj
 0002:000b38b0       ??1?$_Mpunct@D@std@@MEAA@XZ 000000014018e8b0 f i libcpmtd:xlocale.obj
 0002:000b38f0       ??1?$_String_const_iterator@V?$_String_val@U?$_Simple_types@D@std@@@std@@@std@@QEAA@XZ 000000014018e8f0 f i libcpmtd:xlocale.obj
 0002:000b3910       ??1?$_String_iterator@V?$_String_val@U?$_Simple_types@D@std@@@std@@@std@@QEAA@XZ 000000014018e910 f i libcpmtd:xlocale.obj
 0002:000b3930       ??1?$_Tidy_guard@V?$_Mpunct@D@std@@@std@@QEAA@XZ 000000014018e930 f i libcpmtd:xlocale.obj
 0002:000b3960       ??1?$_Tidy_guard@V?$time_get@DV?$istreambuf_iterator@DU?$char_traits@D@std@@@std@@@std@@@std@@QEAA@XZ 000000014018e960 f i libcpmtd:xlocale.obj
 0002:000b3990       ??1?$collate@D@std@@MEAA@XZ 000000014018e990 f i libcpmtd:xlocale.obj
 0002:000b39e0       ??1?$messages@D@std@@MEAA@XZ 000000014018e9e0 f i libcpmtd:xlocale.obj
 0002:000b3a20       ??1?$money_get@DV?$istreambuf_iterator@DU?$char_traits@D@std@@@std@@@std@@MEAA@XZ 000000014018ea20 f i libcpmtd:xlocale.obj
 0002:000b3a60       ??1?$money_put@DV?$ostreambuf_iterator@DU?$char_traits@D@std@@@std@@@std@@MEAA@XZ 000000014018ea60 f i libcpmtd:xlocale.obj
 0002:000b3aa0       ??1?$moneypunct@D$00@std@@MEAA@XZ 000000014018eaa0 f i libcpmtd:xlocale.obj
 0002:000b3ae0       ??1?$moneypunct@D$0A@@std@@MEAA@XZ 000000014018eae0 f i libcpmtd:xlocale.obj
 0002:000b3b20       ??1?$time_get@DV?$istreambuf_iterator@DU?$char_traits@D@std@@@std@@@std@@MEAA@XZ 000000014018eb20 f i libcpmtd:xlocale.obj
 0002:000b3b60       ??1?$time_put@DV?$ostreambuf_iterator@DU?$char_traits@D@std@@@std@@@std@@MEAA@XZ 000000014018eb60 f i libcpmtd:xlocale.obj
 0002:000b3bb0       ??4?$_String_const_iterator@V?$_String_val@U?$_Simple_types@D@std@@@std@@@std@@QEAAAEAV01@$$QEAV01@@Z 000000014018ebb0 f i libcpmtd:xlocale.obj
 0002:000b3c00       ??8?$_String_const_iterator@V?$_String_val@U?$_Simple_types@D@std@@@std@@@std@@QEBA_NAEBV01@@Z 000000014018ec00 f i libcpmtd:xlocale.obj
 0002:000b3c60       ??D?$_String_const_iterator@V?$_String_val@U?$_Simple_types@D@std@@@std@@@std@@QEBAAEBDXZ 000000014018ec60 f i libcpmtd:xlocale.obj
 0002:000b3ec0       ??D?$_String_iterator@V?$_String_val@U?$_Simple_types@D@std@@@std@@@std@@QEBAAEADXZ 000000014018eec0 f i libcpmtd:xlocale.obj
 0002:000b3ee0       ??E?$_String_const_iterator@V?$_String_val@U?$_Simple_types@D@std@@@std@@@std@@QEAAAEAV01@XZ 000000014018eee0 f i libcpmtd:xlocale.obj
 0002:000b4130       ??E?$_String_iterator@V?$_String_val@U?$_Simple_types@D@std@@@std@@@std@@QEAAAEAV01@XZ 000000014018f130 f i libcpmtd:xlocale.obj
 0002:000b4160       ??E?$ostreambuf_iterator@DU?$char_traits@D@std@@@std@@QEAAAEAV01@H@Z 000000014018f160 f i libcpmtd:xlocale.obj
 0002:000b4180       ??G?$_String_iterator@V?$_String_val@U?$_Simple_types@D@std@@@std@@@std@@QEBA?AV01@_J@Z 000000014018f180 f i libcpmtd:xlocale.obj
 0002:000b41d0       ??H?$_String_iterator@V?$_String_val@U?$_Simple_types@D@std@@@std@@@std@@QEBA?AV01@_J@Z 000000014018f1d0 f i libcpmtd:xlocale.obj
 0002:000b4220       ??Y?$_String_const_iterator@V?$_String_val@U?$_Simple_types@D@std@@@std@@@std@@QEAAAEAV01@_J@Z 000000014018f220 f i libcpmtd:xlocale.obj
 0002:000b4270       ??Y?$_String_iterator@V?$_String_val@U?$_Simple_types@D@std@@@std@@@std@@QEAAAEAV01@_J@Z 000000014018f270 f i libcpmtd:xlocale.obj
 0002:000b42a0       ??Z?$_String_const_iterator@V?$_String_val@U?$_Simple_types@D@std@@@std@@@std@@QEAAAEAV01@_J@Z 000000014018f2a0 f i libcpmtd:xlocale.obj
 0002:000b42e0       ??Z?$_String_iterator@V?$_String_val@U?$_Simple_types@D@std@@@std@@@std@@QEAAAEAV01@_J@Z 000000014018f2e0 f i libcpmtd:xlocale.obj
 0002:000b4310       ??_E?$_Mpunct@D@std@@MEAAPEAXI@Z 000000014018f310 f i libcpmtd:xlocale.obj
 0002:000b4310       ??_G?$_Mpunct@D@std@@MEAAPEAXI@Z 000000014018f310 f i libcpmtd:xlocale.obj
 0002:000b4380       ??_E?$collate@D@std@@MEAAPEAXI@Z 000000014018f380 f i libcpmtd:xlocale.obj
 0002:000b4380       ??_G?$collate@D@std@@MEAAPEAXI@Z 000000014018f380 f i libcpmtd:xlocale.obj
 0002:000b43f0       ??_E?$messages@D@std@@MEAAPEAXI@Z 000000014018f3f0 f i libcpmtd:xlocale.obj
 0002:000b43f0       ??_G?$messages@D@std@@MEAAPEAXI@Z 000000014018f3f0 f i libcpmtd:xlocale.obj
 0002:000b4460       ??_E?$money_get@DV?$istreambuf_iterator@DU?$char_traits@D@std@@@std@@@std@@MEAAPEAXI@Z 000000014018f460 f i libcpmtd:xlocale.obj
 0002:000b4460       ??_G?$money_get@DV?$istreambuf_iterator@DU?$char_traits@D@std@@@std@@@std@@MEAAPEAXI@Z 000000014018f460 f i libcpmtd:xlocale.obj
 0002:000b44d0       ??_E?$money_put@DV?$ostreambuf_iterator@DU?$char_traits@D@std@@@std@@@std@@MEAAPEAXI@Z 000000014018f4d0 f i libcpmtd:xlocale.obj
 0002:000b44d0       ??_G?$money_put@DV?$ostreambuf_iterator@DU?$char_traits@D@std@@@std@@@std@@MEAAPEAXI@Z 000000014018f4d0 f i libcpmtd:xlocale.obj
 0002:000b4540       ??_E?$moneypunct@D$00@std@@MEAAPEAXI@Z 000000014018f540 f i libcpmtd:xlocale.obj
 0002:000b4540       ??_G?$moneypunct@D$00@std@@MEAAPEAXI@Z 000000014018f540 f i libcpmtd:xlocale.obj
 0002:000b45b0       ??_E?$moneypunct@D$0A@@std@@MEAAPEAXI@Z 000000014018f5b0 f i libcpmtd:xlocale.obj
 0002:000b45b0       ??_G?$moneypunct@D$0A@@std@@MEAAPEAXI@Z 000000014018f5b0 f i libcpmtd:xlocale.obj
 0002:000b4620       ??_E?$time_get@DV?$istreambuf_iterator@DU?$char_traits@D@std@@@std@@@std@@MEAAPEAXI@Z 000000014018f620 f i libcpmtd:xlocale.obj
 0002:000b4620       ??_G?$time_get@DV?$istreambuf_iterator@DU?$char_traits@D@std@@@std@@@std@@MEAAPEAXI@Z 000000014018f620 f i libcpmtd:xlocale.obj
 0002:000b4690       ??_E?$time_put@DV?$ostreambuf_iterator@DU?$char_traits@D@std@@@std@@@std@@MEAAPEAXI@Z 000000014018f690 f i libcpmtd:xlocale.obj
 0002:000b4690       ??_G?$time_put@DV?$ostreambuf_iterator@DU?$char_traits@D@std@@@std@@@std@@MEAAPEAXI@Z 000000014018f690 f i libcpmtd:xlocale.obj
 0002:000b4700       ?_Compat@?$_String_const_iterator@V?$_String_val@U?$_Simple_types@D@std@@@std@@@std@@QEBAXAEBV12@@Z 000000014018f700 f i libcpmtd:xlocale.obj
 0002:000b47e0       ?_Getcat@?$collate@D@std@@SA_KPEAPEBVfacet@locale@2@PEBV42@@Z 000000014018f7e0 f i libcpmtd:xlocale.obj
 0002:000b49a0       ?_Getcat@?$messages@D@std@@SA_KPEAPEBVfacet@locale@2@PEBV42@@Z 000000014018f9a0 f i libcpmtd:xlocale.obj
 0002:000b4ad0       ?_Getcat@?$money_get@DV?$istreambuf_iterator@DU?$char_traits@D@std@@@std@@@std@@SA_KPEAPEBVfacet@locale@2@PEBV42@@Z 000000014018fad0 f i libcpmtd:xlocale.obj
 0002:000b4c00       ?_Getcat@?$money_put@DV?$ostreambuf_iterator@DU?$char_traits@D@std@@@std@@@std@@SA_KPEAPEBVfacet@locale@2@PEBV42@@Z 000000014018fc00 f i libcpmtd:xlocale.obj
 0002:000b4d30       ?_Getcat@?$moneypunct@D$00@std@@SA_KPEAPEBVfacet@locale@2@PEBV42@@Z 000000014018fd30 f i libcpmtd:xlocale.obj
 0002:000b4e70       ?_Getcat@?$moneypunct@D$0A@@std@@SA_KPEAPEBVfacet@locale@2@PEBV42@@Z 000000014018fe70 f i libcpmtd:xlocale.obj
 0002:000b4fb0       ?_Getcat@?$time_get@DV?$istreambuf_iterator@DU?$char_traits@D@std@@@std@@@std@@SA_KPEAPEBVfacet@locale@2@PEBV42@@Z 000000014018ffb0 f i libcpmtd:xlocale.obj
 0002:000b50e0       ?_Getcat@?$time_put@DV?$ostreambuf_iterator@DU?$char_traits@D@std@@@std@@@std@@SA_KPEAPEBVfacet@locale@2@PEBV42@@Z 00000001401900e0 f i libcpmtd:xlocale.obj
 0002:000b5210       ?_Getfmt@?$time_get@DV?$istreambuf_iterator@DU?$char_traits@D@std@@@std@@@std@@IEBA?AV?$istreambuf_iterator@DU?$char_traits@D@std@@@2@V32@0AEAVios_base@2@AEAHPEAUtm@@PEBD@Z 0000000140190210 f i libcpmtd:xlocale.obj
 0002:000b55a0       ?_Getint@?$time_get@DV?$istreambuf_iterator@DU?$char_traits@D@std@@@std@@@std@@AEBAHAEAV?$istreambuf_iterator@DU?$char_traits@D@std@@@2@0HHAEAHAEBV?$ctype@D@2@@Z 00000001401905a0 f i libcpmtd:xlocale.obj
 0002:000b5620       ?_Getmfld@?$money_get@DV?$istreambuf_iterator@DU?$char_traits@D@std@@@std@@@std@@AEBA?AV?$basic_string@DU?$char_traits@D@std@@V?$allocator@D@2@@2@AEAV?$istreambuf_iterator@DU?$char_traits@D@std@@@2@0_NAEAVios_base@2@AEAY0M@D@Z 0000000140190620 f i libcpmtd:xlocale.obj
 0002:000b6c60       ?_Gettnames@_Locinfo@std@@QEBA?AV_Timevec@2@XZ 0000000140191c60 f i libcpmtd:xlocale.obj
 0002:000b6cb0       ?_Init@?$_Mpunct@D@std@@IEAAXAEBV_Locinfo@2@_N@Z 0000000140191cb0 f i libcpmtd:xlocale.obj
 0002:000b6fa0       ?_Init@?$collate@D@std@@IEAAXAEBV_Locinfo@2@@Z 0000000140191fa0 f i libcpmtd:xlocale.obj
 0002:000b6ff0       ?_Init@?$messages@D@std@@IEAAXAEBV_Locinfo@2@@Z 0000000140191ff0 f i libcpmtd:xlocale.obj
 0002:000b7000       ?_Init@?$money_get@DV?$istreambuf_iterator@DU?$char_traits@D@std@@@std@@@std@@IEAAXAEBV_Locinfo@2@@Z 0000000140192000 f i libcpmtd:xlocale.obj
 0002:000b7010       ?_Init@?$money_put@DV?$ostreambuf_iterator@DU?$char_traits@D@std@@@std@@@std@@IEAAXAEBV_Locinfo@2@@Z 0000000140192010 f i libcpmtd:xlocale.obj
 0002:000b7020       ?_Init@?$time_get@DV?$istreambuf_iterator@DU?$char_traits@D@std@@@std@@@std@@IEAAXAEBV_Locinfo@2@@Z 0000000140192020 f i libcpmtd:xlocale.obj
 0002:000b70c0       ?_Init@?$time_put@DV?$ostreambuf_iterator@DU?$char_traits@D@std@@@std@@@std@@IEAAXAEBV_Locinfo@2@@Z 00000001401920c0 f i libcpmtd:xlocale.obj
 0002:000b7130       ?_Makexloc@_Locimp@locale@std@@CAXAEBV_Locinfo@3@HPEAV123@PEBV23@@Z 0000000140192130 f   libcpmtd:xlocale.obj
 0002:000b7c60       ?_Makpat@?$_Mpunct@D@std@@AEAAXAEAUpattern@money_base@2@III@Z 0000000140192c60 f i libcpmtd:xlocale.obj
 0002:000b7d20       ?_Put@?$money_put@DV?$ostreambuf_iterator@DU?$char_traits@D@std@@@std@@@std@@CA?AV?$ostreambuf_iterator@DU?$char_traits@D@std@@@2@V32@V?$_String_const_iterator@V?$_String_val@U?$_Simple_types@D@std@@@std@@@2@_K@Z 0000000140192d20 f i libcpmtd:xlocale.obj
 0002:000b7de0       ?_Putmfld@?$money_put@DV?$ostreambuf_iterator@DU?$char_traits@D@std@@@std@@@std@@AEBA?AV?$ostreambuf_iterator@DU?$char_traits@D@std@@@2@V32@_NAEAVios_base@2@D1V?$basic_string@DU?$char_traits@D@std@@V?$allocator@D@2@@2@D@Z 0000000140192de0 f i libcpmtd:xlocale.obj
 0002:000b94d0       ?_Rep@?$money_put@DV?$ostreambuf_iterator@DU?$char_traits@D@std@@@std@@@std@@CA?AV?$ostreambuf_iterator@DU?$char_traits@D@std@@@2@V32@D_K@Z 00000001401944d0 f i libcpmtd:xlocale.obj
 0002:000b9560       ?_Tidy@?$_Mpunct@D@std@@AEAAXXZ 0000000140194560 f i libcpmtd:xlocale.obj
 0002:000b95c0       ?_Tidy@?$time_get@DV?$istreambuf_iterator@DU?$char_traits@D@std@@@std@@@std@@AEAAXXZ 00000001401945c0 f i libcpmtd:xlocale.obj
 0002:000b9610       ?_Verify_offset@?$_String_const_iterator@V?$_String_val@U?$_Simple_types@D@std@@@std@@@std@@QEBAX_J@Z 0000000140194610 f i libcpmtd:xlocale.obj
 0002:000b9950       ?begin@?$basic_string@DU?$char_traits@D@std@@V?$allocator@D@2@@std@@QEAA?AV?$_String_iterator@V?$_String_val@U?$_Simple_types@D@std@@@std@@@2@XZ 0000000140194950 f i libcpmtd:xlocale.obj
 0002:000b99c0       ?curr_symbol@?$_Mpunct@D@std@@QEBA?AV?$basic_string@DU?$char_traits@D@std@@V?$allocator@D@2@@2@XZ 00000001401949c0 f i libcpmtd:xlocale.obj
 0002:000b9a40       ?date_order@?$time_get@DV?$istreambuf_iterator@DU?$char_traits@D@std@@@std@@@std@@QEBA?AW4dateorder@time_base@2@XZ 0000000140194a40 f i libcpmtd:xlocale.obj
 0002:000b9a80       ?decimal_point@?$_Mpunct@D@std@@QEBADXZ 0000000140194a80 f i libcpmtd:xlocale.obj
 0002:000b9ac0       ?do_close@?$messages@D@std@@MEBAXH@Z 0000000140194ac0 f i libcpmtd:xlocale.obj
 0002:000b9ad0       ?do_compare@?$collate@D@std@@MEBAHPEBD000@Z 0000000140194ad0 f i libcpmtd:xlocale.obj
 0002:000b9ba0       ?do_curr_symbol@?$_Mpunct@D@std@@MEBA?AV?$basic_string@DU?$char_traits@D@std@@V?$allocator@D@2@@2@XZ 0000000140194ba0 f i libcpmtd:xlocale.obj
 0002:000b9bf0       ?do_date_order@?$time_get@DV?$istreambuf_iterator@DU?$char_traits@D@std@@@std@@@std@@MEBA?AW4dateorder@time_base@2@XZ 0000000140194bf0 f i libcpmtd:xlocale.obj
 0002:000b9c10       ?do_decimal_point@?$_Mpunct@D@std@@MEBADXZ 0000000140194c10 f i libcpmtd:xlocale.obj
 0002:000b9c30       ?do_frac_digits@?$_Mpunct@D@std@@MEBAHXZ 0000000140194c30 f i libcpmtd:xlocale.obj
 0002:000b9c50       ?do_get@?$messages@D@std@@MEBA?AV?$basic_string@DU?$char_traits@D@std@@V?$allocator@D@2@@2@HHHAEBV32@@Z 0000000140194c50 f i libcpmtd:xlocale.obj
 0002:000b9cb0       ?do_get@?$money_get@DV?$istreambuf_iterator@DU?$char_traits@D@std@@@std@@@std@@MEBA?AV?$istreambuf_iterator@DU?$char_traits@D@std@@@2@V32@0_NAEAVios_base@2@AEAHAEAO@Z 0000000140194cb0 f i libcpmtd:xlocale.obj
 0002:000b9ea0       ?do_get@?$money_get@DV?$istreambuf_iterator@DU?$char_traits@D@std@@@std@@@std@@MEBA?AV?$istreambuf_iterator@DU?$char_traits@D@std@@@2@V32@0_NAEAVios_base@2@AEAHAEAV?$basic_string@DU?$char_traits@D@std@@V?$allocator@D@2@@2@@Z 0000000140194ea0 f i libcpmtd:xlocale.obj
 0002:000ba110       ?do_get@?$time_get@DV?$istreambuf_iterator@DU?$char_traits@D@std@@@std@@@std@@MEBA?AV?$istreambuf_iterator@DU?$char_traits@D@std@@@2@V32@0AEAVios_base@2@AEAHPEAUtm@@DD@Z 0000000140195110 f i libcpmtd:xlocale.obj
 0002:000bb380       ?do_get_date@?$time_get@DV?$istreambuf_iterator@DU?$char_traits@D@std@@@std@@@std@@MEBA?AV?$istreambuf_iterator@DU?$char_traits@D@std@@@2@V32@0AEAVios_base@2@AEAHPEAUtm@@@Z 0000000140196380 f i libcpmtd:xlocale.obj
 0002:000bc080       ?do_get_monthname@?$time_get@DV?$istreambuf_iterator@DU?$char_traits@D@std@@@std@@@std@@MEBA?AV?$istreambuf_iterator@DU?$char_traits@D@std@@@2@V32@0AEAVios_base@2@AEAHPEAUtm@@@Z 0000000140197080 f i libcpmtd:xlocale.obj
 0002:000bc130       ?do_get_time@?$time_get@DV?$istreambuf_iterator@DU?$char_traits@D@std@@@std@@@std@@MEBA?AV?$istreambuf_iterator@DU?$char_traits@D@std@@@2@V32@0AEAVios_base@2@AEAHPEAUtm@@@Z 0000000140197130 f i libcpmtd:xlocale.obj
 0002:000bc480       ?do_get_weekday@?$time_get@DV?$istreambuf_iterator@DU?$char_traits@D@std@@@std@@@std@@MEBA?AV?$istreambuf_iterator@DU?$char_traits@D@std@@@2@V32@0AEAVios_base@2@AEAHPEAUtm@@@Z 0000000140197480 f i libcpmtd:xlocale.obj
 0002:000bc530       ?do_get_year@?$time_get@DV?$istreambuf_iterator@DU?$char_traits@D@std@@@std@@@std@@MEBA?AV?$istreambuf_iterator@DU?$char_traits@D@std@@@2@V32@0AEAVios_base@2@AEAHPEAUtm@@@Z 0000000140197530 f i libcpmtd:xlocale.obj
 0002:000bc6c0       ?do_grouping@?$_Mpunct@D@std@@MEBA?AV?$basic_string@DU?$char_traits@D@std@@V?$allocator@D@2@@2@XZ 00000001401976c0 f i libcpmtd:xlocale.obj
 0002:000bc710       ?do_hash@?$collate@D@std@@MEBAJPEBD0@Z 0000000140197710 f i libcpmtd:xlocale.obj
 0002:000bc770       ?do_neg_format@?$_Mpunct@D@std@@MEBA?AUpattern@money_base@2@XZ 0000000140197770 f i libcpmtd:xlocale.obj
 0002:000bc7a0       ?do_negative_sign@?$_Mpunct@D@std@@MEBA?AV?$basic_string@DU?$char_traits@D@std@@V?$allocator@D@2@@2@XZ 00000001401977a0 f i libcpmtd:xlocale.obj
 0002:000bc7f0       ?do_open@?$messages@D@std@@MEBAHAEBV?$basic_string@DU?$char_traits@D@std@@V?$allocator@D@2@@2@AEBVlocale@2@@Z 00000001401977f0 f i libcpmtd:xlocale.obj
 0002:000bc810       ?do_pos_format@?$_Mpunct@D@std@@MEBA?AUpattern@money_base@2@XZ 0000000140197810 f i libcpmtd:xlocale.obj
 0002:000bc840       ?do_positive_sign@?$_Mpunct@D@std@@MEBA?AV?$basic_string@DU?$char_traits@D@std@@V?$allocator@D@2@@2@XZ 0000000140197840 f i libcpmtd:xlocale.obj
 0002:000bc890       ?do_put@?$money_put@DV?$ostreambuf_iterator@DU?$char_traits@D@std@@@std@@@std@@MEBA?AV?$ostreambuf_iterator@DU?$char_traits@D@std@@@2@V32@_NAEAVios_base@2@DAEBV?$basic_string@DU?$char_traits@D@std@@V?$allocator@D@2@@2@@Z 0000000140197890 f i libcpmtd:xlocale.obj
 0002:000bcc90       ?do_put@?$money_put@DV?$ostreambuf_iterator@DU?$char_traits@D@std@@@std@@@std@@MEBA?AV?$ostreambuf_iterator@DU?$char_traits@D@std@@@2@V32@_NAEAVios_base@2@DO@Z 0000000140197c90 f i libcpmtd:xlocale.obj
 0002:000bd000       ?do_put@?$time_put@DV?$ostreambuf_iterator@DU?$char_traits@D@std@@@std@@@std@@MEBA?AV?$ostreambuf_iterator@DU?$char_traits@D@std@@@2@V32@AEAVios_base@2@DPEBUtm@@DD@Z 0000000140198000 f i libcpmtd:xlocale.obj
 0002:000bd340       ?do_thousands_sep@?$_Mpunct@D@std@@MEBADXZ 0000000140198340 f i libcpmtd:xlocale.obj
 0002:000bd360       ?do_transform@?$collate@D@std@@MEBA?AV?$basic_string@DU?$char_traits@D@std@@V?$allocator@D@2@@2@PEBD0@Z 0000000140198360 f i libcpmtd:xlocale.obj
 0002:000bd510       ?end@?$basic_string@DU?$char_traits@D@std@@V?$allocator@D@2@@std@@QEAA?AV?$_String_iterator@V?$_String_val@U?$_Simple_types@D@std@@@std@@@2@XZ 0000000140198510 f i libcpmtd:xlocale.obj
 0002:000bd590       ?frac_digits@?$_Mpunct@D@std@@QEBAHXZ 0000000140198590 f i libcpmtd:xlocale.obj
 0002:000bd5d0       ?get_monthname@?$time_get@DV?$istreambuf_iterator@DU?$char_traits@D@std@@@std@@@std@@QEBA?AV?$istreambuf_iterator@DU?$char_traits@D@std@@@2@V32@0AEAVios_base@2@AEAHPEAUtm@@@Z 00000001401985d0 f i libcpmtd:xlocale.obj
 0002:000bd6d0       ?get_weekday@?$time_get@DV?$istreambuf_iterator@DU?$char_traits@D@std@@@std@@@std@@QEBA?AV?$istreambuf_iterator@DU?$char_traits@D@std@@@2@V32@0AEAVios_base@2@AEAHPEAUtm@@@Z 00000001401986d0 f i libcpmtd:xlocale.obj
 0002:000bd7d0       ?get_year@?$time_get@DV?$istreambuf_iterator@DU?$char_traits@D@std@@@std@@@std@@QEBA?AV?$istreambuf_iterator@DU?$char_traits@D@std@@@2@V32@0AEAVios_base@2@AEAHPEAUtm@@@Z 00000001401987d0 f i libcpmtd:xlocale.obj
 0002:000bd8d0       ?grouping@?$_Mpunct@D@std@@QEBA?AV?$basic_string@DU?$char_traits@D@std@@V?$allocator@D@2@@2@XZ 00000001401988d0 f i libcpmtd:xlocale.obj
 0002:000bd950       ?is@?$ctype@D@std@@QEBA_NFD@Z 0000000140198950 f i libcpmtd:xlocale.obj
 0002:000bd9b0       ?narrow@?$ctype@D@std@@QEBADDD@Z 00000001401989b0 f i libcpmtd:xlocale.obj
 0002:000bda10       ?neg_format@?$_Mpunct@D@std@@QEBA?AUpattern@money_base@2@XZ 0000000140198a10 f i libcpmtd:xlocale.obj
 0002:000bda70       ?negative_sign@?$_Mpunct@D@std@@QEBA?AV?$basic_string@DU?$char_traits@D@std@@V?$allocator@D@2@@2@XZ 0000000140198a70 f i libcpmtd:xlocale.obj
 0002:000bdaf0       ?pos_format@?$_Mpunct@D@std@@QEBA?AUpattern@money_base@2@XZ 0000000140198af0 f i libcpmtd:xlocale.obj
 0002:000bdb50       ?positive_sign@?$_Mpunct@D@std@@QEBA?AV?$basic_string@DU?$char_traits@D@std@@V?$allocator@D@2@@2@XZ 0000000140198b50 f i libcpmtd:xlocale.obj
 0002:000bdbd0       ?thousands_sep@?$_Mpunct@D@std@@QEBADXZ 0000000140198bd0 f i libcpmtd:xlocale.obj
 0002:000bdc10       _Stolx                     0000000140198c10 f   libcpmtd:xstol.obj
 0002:000bddf0       _Stoul                     0000000140198df0 f   libcpmtd:xstoul.obj
 0002:000bde30       _Stoulx                    0000000140198e30 f   libcpmtd:xstoul.obj
 0002:000be2b0       _Stoll                     00000001401992b0 f   libcpmtd:xstoll.obj
 0002:000be2f0       _Stollx                    00000001401992f0 f   libcpmtd:xstoll.obj
 0002:000be500       _Stoull                    0000000140199500 f   libcpmtd:xstoull.obj
 0002:000be540       _Stoullx                   0000000140199540 f   libcpmtd:xstoull.obj
 0002:000be9f0       _Getcoll                   00000001401999f0 f   libcpmtd:xstrcoll.obj
 0002:000bea80       _Strcoll                   0000000140199a80 f   libcpmtd:xstrcoll.obj
 0002:000bec90       _Getdateorder              0000000140199c90 f   libcpmtd:xdateord.obj
 0002:000bedd0       _Mbrtowc                   0000000140199dd0 f   libcpmtd:xmbtowc.obj
 0002:000bf280       _Wcscoll                   000000014019a280 f   libcpmtd:xwcscoll.obj
 0002:000bf460       ??$?RE@__crt_internal_free_policy@@QEBAXQEBE@Z 000000014019a460 f i libcpmtd:xwcsxfrm.obj
 0002:000bf490       ??0?$__crt_unique_heap_ptr@EU__crt_internal_free_policy@@@@QEAA@QEAE@Z 000000014019a490 f i libcpmtd:xwcsxfrm.obj
 0002:000bf4c0       ??1?$__crt_unique_heap_ptr@EU__crt_internal_free_policy@@@@QEAA@XZ 000000014019a4c0 f i libcpmtd:xwcsxfrm.obj
 0002:000bf4e0       ??B?$__crt_unique_heap_ptr@EU__crt_internal_free_policy@@@@QEBA_NXZ 000000014019a4e0 f i libcpmtd:xwcsxfrm.obj
 0002:000bf500       ?get@?$__crt_unique_heap_ptr@EU__crt_internal_free_policy@@@@QEBAPEAEXZ 000000014019a500 f i libcpmtd:xwcsxfrm.obj
 0002:000bf520       ?is_valid@?$__crt_unique_heap_ptr@EU__crt_internal_free_policy@@@@QEBA_NXZ 000000014019a520 f i libcpmtd:xwcsxfrm.obj
 0002:000bf560       ?release@?$__crt_unique_heap_ptr@EU__crt_internal_free_policy@@@@QEAAXXZ 000000014019a560 f i libcpmtd:xwcsxfrm.obj
 0002:000bf5a0       _Wcsxfrm                   000000014019a5a0 f   libcpmtd:xwcsxfrm.obj
 0002:000bf810       _Getwctype                 000000014019a810 f   libcpmtd:xgetwctype.obj
 0002:000bf870       _Getwctypes                000000014019a870 f   libcpmtd:xgetwctype.obj
 0002:000bf8d0       _Towlower                  000000014019a8d0 f   libcpmtd:xtowlower.obj
 0002:000bf9a0       _Towupper                  000000014019a9a0 f   libcpmtd:xtowupper.obj
 0002:000bfa70       _Strxfrm                   000000014019aa70 f   libcpmtd:xstrxfrm.obj
 0002:000bfc70       __crtCompareStringA        000000014019ac70 f   libcpmtd:StlCompareStringA.obj
 0002:000c04e0       __crtCompareStringW        000000014019b4e0 f   libcpmtd:StlCompareStringW.obj
 0002:000c0660       __crtLCMapStringW          000000014019b660 f   libcpmtd:StlLCMapStringW.obj
 0002:000c0750       ??2@YAPEAX_K@Z             000000014019b750 f   LIBCMTD:new_scalar.obj
 0002:000c07c0       ??3@YAXPEAX@Z              000000014019b7c0 f   LIBCMTD:delete_scalar.obj
 0002:000c07f0       ??3@YAXPEAX_K@Z            000000014019b7f0 f   LIBCMTD:delete_scalar_size.obj
 0002:000c0820       ??_V@YAXPEAX@Z             000000014019b820 f   LIBCMTD:delete_array.obj
 0002:000c0840       _RTC_AllocaHelper          000000014019b840 f   LIBCMTD:stack.obj
 0002:000c0890       _RTC_CheckStackVars        000000014019b890 f   LIBCMTD:stack.obj
 0002:000c0940       _RTC_CheckStackVars2       000000014019b940 f   LIBCMTD:stack.obj
 0002:000c0a90       _CRT_RTC_INIT              000000014019ba90 f   LIBCMTD:init.obj
 0002:000c0aa0       _CRT_RTC_INITW             000000014019baa0 f   LIBCMTD:init.obj
 0002:000c0ab0       _RTC_InitBase              000000014019bab0 f   LIBCMTD:init.obj
 0002:000c0b00       _RTC_Shutdown              000000014019bb00 f   LIBCMTD:init.obj
 0002:000c0b30       __CheckForDebuggerJustMyCode 000000014019bb30 f   LIBCMTD:debugger_jmc.obj
 0002:000c0b80       __GSHandlerCheck           000000014019bb80 f   LIBCMTD:gshandler.obj
 0002:000c0bd0       __GSHandlerCheckCommon     000000014019bbd0 f   LIBCMTD:gshandler.obj
 0002:000c0d10       __GSHandlerCheck_EH4       000000014019bd10 f   LIBCMTD:gshandlereh4.obj
 0002:000c0df0       __security_check_cookie    000000014019bdf0 f   LIBCMTD:amdsecgs.obj
 0002:000c0e20       ??1type_info@@UEAA@XZ      000000014019be20 f   LIBCMTD:std_type_info_static.obj
 0002:000c0e40       ??_Etype_info@@UEAAPEAXI@Z 000000014019be40 f i LIBCMTD:std_type_info_static.obj
 0002:000c0e40       ??_Gtype_info@@UEAAPEAXI@Z 000000014019be40 f i LIBCMTD:std_type_info_static.obj
 0002:000c1200       ?configure_argv@__scrt_wide_argv_policy@@SAHXZ 000000014019c200 f i LIBCMTD:exe_wmain.obj
 0002:000c1220       ?initialize_environment@__scrt_wide_environment_policy@@SAHXZ 000000014019c220 f i LIBCMTD:exe_wmain.obj
 0002:000c1290       ?set_app_type@__scrt_main_policy@@SAXXZ 000000014019c290 f i LIBCMTD:exe_wmain.obj
 0002:000c12b0       ?set_commode@__scrt_file_policy@@SAXXZ 000000014019c2b0 f i LIBCMTD:exe_wmain.obj
 0002:000c12e0       ?set_fmode@__scrt_file_policy@@SAXXZ 000000014019c2e0 f i LIBCMTD:exe_wmain.obj
 0002:000c1300       wmainCRTStartup            000000014019c300 f   LIBCMTD:exe_wmain.obj
 0002:000c1320       ?configure_argv@__scrt_narrow_argv_policy@@SAHXZ 000000014019c320 f i LIBCMTD:utility.obj
 0002:000c1440       ?initialize_environment@__scrt_narrow_environment_policy@@SAHXZ 000000014019c440 f i LIBCMTD:utility.obj
 0002:000c1510       NtCurrentTeb               000000014019c510 f i LIBCMTD:utility.obj
 0002:000c1520       __scrt_acquire_startup_lock 000000014019c520 f   LIBCMTD:utility.obj
 0002:000c15a0       __scrt_dllmain_after_initialize_c 000000014019c5a0 f   LIBCMTD:utility.obj
 0002:000c15e0       __scrt_dllmain_before_initialize_c 000000014019c5e0 f   LIBCMTD:utility.obj
 0002:000c1610       __scrt_dllmain_crt_thread_attach 000000014019c610 f   LIBCMTD:utility.obj
 0002:000c1650       __scrt_dllmain_crt_thread_detach 000000014019c650 f   LIBCMTD:utility.obj
 0002:000c1670       __scrt_dllmain_exception_filter 000000014019c670 f   LIBCMTD:utility.obj
 0002:000c16f0       __scrt_dllmain_uninitialize_c 000000014019c6f0 f   LIBCMTD:utility.obj
 0002:000c1730       __scrt_dllmain_uninitialize_critical 000000014019c730 f   LIBCMTD:utility.obj
 0002:000c1750       __scrt_initialize_crt      000000014019c750 f   LIBCMTD:utility.obj
 0002:000c17b0       __scrt_initialize_onexit_tables 000000014019c7b0 f   LIBCMTD:utility.obj
 0002:000c1900       __scrt_is_nonwritable_in_current_image 000000014019c900 f   LIBCMTD:utility.obj
 0002:000c19b0       __scrt_release_startup_lock 000000014019c9b0 f   LIBCMTD:utility.obj
 0002:000c19f0       __scrt_uninitialize_crt    000000014019c9f0 f   LIBCMTD:utility.obj
 0002:000c1a40       _onexit                    000000014019ca40 f   LIBCMTD:utility.obj
 0002:000c1ae0       at_quick_exit              000000014019cae0 f   LIBCMTD:utility.obj
 0002:000c1b40       atexit                     000000014019cb40 f   LIBCMTD:utility.obj
 0002:000c1b80       _guard_check_icall_nop     000000014019cb80 f i LIBCMTD:guard_support.obj
 0002:000c1b90       ReadNoFence64              000000014019cb90 f i LIBCMTD:guard_support.obj
 0002:000c1bc0       ReadPointerNoFence         000000014019cbc0 f i LIBCMTD:guard_support.obj
 0002:000c1be0       __castguard_check_failure_debugbreak 000000014019cbe0 f i LIBCMTD:guard_support.obj
 0002:000c1c10       __castguard_check_failure_fastfail 000000014019cc10 f i LIBCMTD:guard_support.obj
 0002:000c1c40       __castguard_check_failure_nop 000000014019cc40 f i LIBCMTD:guard_support.obj
 0002:000c1c50       __castguard_check_failure_os_handled 000000014019cc50 f i LIBCMTD:guard_support.obj
 0002:000c1cc0       __castguard_check_failure_user_handled 000000014019ccc0 f i LIBCMTD:guard_support.obj
 0002:000c1de0       __castguard_set_user_handler 000000014019cde0 f i LIBCMTD:guard_support.obj
 0002:000c1e10       __castguard_slow_path_check_debugbreak 000000014019ce10 f i LIBCMTD:guard_support.obj
 0002:000c1e60       __castguard_slow_path_check_fastfail 000000014019ce60 f i LIBCMTD:guard_support.obj
 0002:000c1ec0       __castguard_slow_path_check_nop 000000014019cec0 f i LIBCMTD:guard_support.obj
 0002:000c1ee0       __castguard_slow_path_check_os_handled 000000014019cee0 f i LIBCMTD:guard_support.obj
 0002:000c1f40       __castguard_slow_path_check_user_handled 000000014019cf40 f i LIBCMTD:guard_support.obj
 0002:000c2030       _guard_icall_checks_enforced 000000014019d030 f i LIBCMTD:guard_support.obj
 0002:000c2080       _guard_rf_checks_enforced  000000014019d080 f i LIBCMTD:guard_support.obj
 0002:000c2090       __raise_securityfailure    000000014019d090 f   LIBCMTD:gs_report.obj
 0002:000c20e0       __report_gsfailure         000000014019d0e0 f   LIBCMTD:gs_report.obj
 0002:000c21f0       __report_rangecheckfailure 000000014019d1f0 f   LIBCMTD:gs_report.obj
 0002:000c2210       __report_securityfailure   000000014019d210 f   LIBCMTD:gs_report.obj
 0002:000c22e0       __report_securityfailureEx 000000014019d2e0 f   LIBCMTD:gs_report.obj
 0002:000c25e0       __isa_available_init       000000014019d5e0 f   LIBCMTD:cpu_disp.obj
 0002:000c2c10       ?__scrt_throw_std_bad_alloc@@YAXXZ 000000014019dc10 f   LIBCMTD:throw_bad_alloc.obj
 0002:000c2c40       ?__scrt_throw_std_bad_array_new_length@@YAXXZ 000000014019dc40 f   LIBCMTD:throw_bad_alloc.obj
 0002:000c2d20       ?_RTC_AllocaFailure@@YAXPEAXPEAU_RTC_ALLOCA_NODE@@H@Z 000000014019dd20 f   LIBCMTD:error.obj
 0002:000c2ed0       ?_RTC_Failure@@YAXPEAXH@Z  000000014019ded0 f   LIBCMTD:error.obj
 0002:000c2f40       ?_RTC_StackFailure@@YAXPEAXPEBD@Z 000000014019df40 f   LIBCMTD:error.obj
 0002:000c34a0       _RTC_UninitUse             000000014019e4a0 f   LIBCMTD:error.obj
 0002:000c35a0       ?_RTC_GetErrorFunc@@YAP6AHHPEBDH00ZZPEBX@Z 000000014019e5a0 f   LIBCMTD:userapi.obj
 0002:000c35b0       ?_RTC_GetErrorFuncW@@YAP6AHHPEB_WH00ZZPEBX@Z 000000014019e5b0 f   LIBCMTD:userapi.obj
 0002:000c35c0       _RTC_GetErrDesc            000000014019e5c0 f   LIBCMTD:userapi.obj
 0002:000c35e0       _RTC_NumErrors             000000014019e5e0 f   LIBCMTD:userapi.obj
 0002:000c35f0       _RTC_SetErrorFunc          000000014019e5f0 f   LIBCMTD:userapi.obj
 0002:000c3610       _RTC_SetErrorFuncW         000000014019e610 f   LIBCMTD:userapi.obj
 0002:000c3630       _RTC_SetErrorType          000000014019e630 f   LIBCMTD:userapi.obj
 0002:000c3750       __security_init_cookie     000000014019e750 f   LIBCMTD:gs_support.obj
 0002:000c37f0       _matherr                   000000014019e7f0 f   LIBCMTD:matherr.obj
 0002:000c3800       _get_startup_argv_mode     000000014019e800 f   LIBCMTD:argv_mode.obj
 0002:000c3810       _get_startup_commit_mode   000000014019e810 f   LIBCMTD:commit_mode.obj
 0002:000c3820       _get_startup_file_mode     000000014019e820 f   LIBCMTD:file_mode.obj
 0002:000c3830       _get_startup_new_mode      000000014019e830 f   LIBCMTD:new_mode.obj
 0002:000c3840       _get_startup_thread_locale_mode 000000014019e840 f   LIBCMTD:thread_locale.obj
 0002:000c3850       ?__scrt_initialize_type_info@@YAXXZ 000000014019e850 f   LIBCMTD:tncleanup.obj
 0002:000c3870       ?__scrt_uninitialize_type_info@@YAXXZ 000000014019e870 f   LIBCMTD:tncleanup.obj
 0002:000c3890       _should_initialize_environment 000000014019e890 f   LIBCMTD:env_mode.obj
 0002:000c38a0       _initialize_invalid_parameter_handler 000000014019e8a0 f   LIBCMTD:invalid_parameter_handler.obj
 0002:000c38b0       _initialize_denormal_control 000000014019e8b0 f   LIBCMTD:denormal_control.obj
 0002:000c38c0       __local_stdio_scanf_options 000000014019e8c0 f i LIBCMTD:default_local_stdio_options.obj
 0002:000c38d0       __scrt_initialize_default_local_stdio_options 000000014019e8d0 f   LIBCMTD:default_local_stdio_options.obj
 0002:000c3930       __scrt_is_user_matherr_present 000000014019e930 f   LIBCMTD:matherr_detection.obj
 0002:000c3960       __scrt_get_dyn_tls_init_callback 000000014019e960 f   LIBCMTD:dyn_tls_init.obj
 0002:000c3970       __scrt_get_dyn_tls_dtor_callback 000000014019e970 f   LIBCMTD:dyn_tls_dtor.obj
 0002:000c3980       __crt_debugger_hook        000000014019e980 f   LIBCMTD:utility_desktop.obj
 0002:000c39a0       __scrt_fastfail            000000014019e9a0 f   LIBCMTD:utility_desktop.obj
 0002:000c3ba0       __scrt_get_show_window_mode 000000014019eba0 f   LIBCMTD:utility_desktop.obj
 0002:000c3c10       __scrt_initialize_mta      000000014019ec10 f   LIBCMTD:utility_desktop.obj
 0002:000c3c30       __scrt_initialize_winrt    000000014019ec30 f   LIBCMTD:utility_desktop.obj
 0002:000c3c40       __scrt_is_managed_app      000000014019ec40 f   LIBCMTD:utility_desktop.obj
 0002:000c3d10       __scrt_set_unhandled_exception_filter 000000014019ed10 f   LIBCMTD:utility_desktop.obj
 0002:000c3d30       __scrt_exe_initialize_mta  000000014019ed30 f   LIBCMTD:utility_desktop.obj
 0002:000c3d30       __scrt_stub_for_initialize_mta 000000014019ed30 f   LIBCMTD:utility_desktop.obj
 0002:000c3d40       __scrt_unhandled_exception_filter 000000014019ed40 f   LIBCMTD:utility_desktop.obj
 0002:000c3e10       _RTC_Initialize            000000014019ee10 f   LIBCMTD:initsect.obj
 0002:000c3e70       _RTC_Terminate             000000014019ee70 f   LIBCMTD:initsect.obj
 0002:000c3ed0       __scrt_is_ucrt_dll_in_use  000000014019eed0 f   LIBCMTD:ucrt_detection.obj
 0002:000c4570       ?_RTC_GetSrcLine@@YAHPEAEPEA_WKPEAH1K@Z 000000014019f570 f   LIBCMTD:pdblkup.obj
 0002:000c4a30       ??$__crt_interlocked_exchange_pointer@$$A6AXXZP6AXXZ@@YAP6AXXZPEDS6AXXZQ6AXXZ@Z 000000014019fa30 f i libvcruntimed:purevirt.obj
 0002:000c4a50       ??$__crt_interlocked_read_pointer@$$A6AXXZ@@YAP6AXXZPEDS6AXXZ@Z 000000014019fa50 f i libvcruntimed:purevirt.obj
 0002:000c4a70       ?__crt_interlocked_read_64@@YA_JPED_J@Z 000000014019fa70 f i libvcruntimed:purevirt.obj
 0002:000c4aa0       _get_purecall_handler      000000014019faa0 f   libvcruntimed:purevirt.obj
 0002:000c4ac0       _purecall                  000000014019fac0 f   libvcruntimed:purevirt.obj
 0002:000c4b10       _set_purecall_handler      000000014019fb10 f   libvcruntimed:purevirt.obj
 0002:000c4b40       ??$?RD@__crt_public_free_policy@@QEBAXQEBD@Z 000000014019fb40 f i libvcruntimed:std_exception.obj
 0002:000c4b70       ??0?$__crt_unique_heap_ptr@DU__crt_public_free_policy@@@@QEAA@QEAD@Z 000000014019fb70 f i libvcruntimed:std_exception.obj
 0002:000c4ba0       ??1?$__crt_unique_heap_ptr@DU__crt_public_free_policy@@@@QEAA@XZ 000000014019fba0 f i libvcruntimed:std_exception.obj
 0002:000c4bc0       ??B?$__crt_unique_heap_ptr@DU__crt_public_free_policy@@@@QEBA_NXZ 000000014019fbc0 f i libvcruntimed:std_exception.obj
 0002:000c4be0       ?detach@?$__crt_unique_heap_ptr@DU__crt_public_free_policy@@@@QEAAPEADXZ 000000014019fbe0 f i libvcruntimed:std_exception.obj
 0002:000c4c20       ?get@?$__crt_unique_heap_ptr@DU__crt_public_free_policy@@@@QEBAPEADXZ 000000014019fc20 f i libvcruntimed:std_exception.obj
 0002:000c4c40       ?is_valid@?$__crt_unique_heap_ptr@DU__crt_public_free_policy@@@@QEBA_NXZ 000000014019fc40 f i libvcruntimed:std_exception.obj
 0002:000c4c80       ?release@?$__crt_unique_heap_ptr@DU__crt_public_free_policy@@@@QEAAXXZ 000000014019fc80 f i libvcruntimed:std_exception.obj
 0002:000c4cc0       __std_exception_copy       000000014019fcc0 f   libvcruntimed:std_exception.obj
 0002:000c4e50       __std_exception_destroy    000000014019fe50 f   libvcruntimed:std_exception.obj
 0002:000c4ea0       _CxxThrowException         000000014019fea0 f   libvcruntimed:throw.obj
 0002:000c5030       ??$?0AEAViterator@TryBlockMap4@FH4@@AEAV012@$0A@@?$pair@Viterator@TryBlockMap4@FH4@@V123@@std@@QEAA@AEAViterator@TryBlockMap4@FH4@@0@Z 00000001401a0030 f i libvcruntimed:risctrnsctrl.obj
 0002:000c5080       ??$?0AEAViterator@TryBlockMap@__FrameHandler3@@AEAV012@$0A@@?$pair@Viterator@TryBlockMap@__FrameHandler3@@V123@@std@@QEAA@AEAViterator@TryBlockMap@__FrameHandler3@@0@Z 00000001401a0080 f i libvcruntimed:risctrnsctrl.obj
 0002:000c52e0       ??$_CallSETranslator@V__FrameHandler3@@@@YAHPEAUEHExceptionRecord@@PEA_KPEAU_CONTEXT@@PEAU_xDISPATCHER_CONTEXT@@PEBU_s_FuncInfo@@K1H@Z 00000001401a02e0 f i libvcruntimed:risctrnsctrl.obj
 0002:000c53a0       ??$_CallSETranslator@V__FrameHandler4@@@@YAHPEAUEHExceptionRecord@@PEA_KPEAU_CONTEXT@@PEAU_xDISPATCHER_CONTEXT@@PEAUFuncInfo4@FH4@@K1H@Z 00000001401a03a0 f i libvcruntimed:risctrnsctrl.obj
 0002:000c5460       ??0FuncInfo4@FH4@@QEAA@XZ  00000001401a0460 f i libvcruntimed:risctrnsctrl.obj
 0002:000c54e0       ??0FuncInfoHeader@FH4@@QEAA@XZ 00000001401a04e0 f i libvcruntimed:risctrnsctrl.obj
 0002:000c5500       ??0iterator@TryBlockMap4@FH4@@QEAA@AEAV12@I@Z 00000001401a0500 f i libvcruntimed:risctrnsctrl.obj
 0002:000c5540       ??0iterator@TryBlockMap@__FrameHandler3@@QEAA@AEAV12@I@Z 00000001401a0540 f i libvcruntimed:risctrnsctrl.obj
 0002:000c5580       ??4iterator@TryBlockMap4@FH4@@QEAAAEAV012@AEBV012@@Z 00000001401a0580 f i libvcruntimed:risctrnsctrl.obj
 0002:000c55b0       ??9iterator@TryBlockMap4@FH4@@QEBA_NAEBV012@@Z 00000001401a05b0 f i libvcruntimed:risctrnsctrl.obj
 0002:000c5600       ??Diterator@TryBlockMap4@FH4@@QEAA?AUTryBlockMapEntry4@2@XZ 00000001401a0600 f i libvcruntimed:risctrnsctrl.obj
 0002:000c5640       ??Eiterator@TryBlockMap4@FH4@@QEAAAEAV012@XZ 00000001401a0640 f i libvcruntimed:risctrnsctrl.obj
 0002:000c5680       ?CatchTryBlock@__FrameHandler3@@SAPEBU_s_TryBlockMapEntry@@PEBU_s_FuncInfo@@H@Z 00000001401a0680 f   libvcruntimed:risctrnsctrl.obj
 0002:000c5730       ?DecompFuncInfo@FH4@@YA_JPEAEAEAUFuncInfo4@1@_KH@Z 00000001401a0730 f i libvcruntimed:risctrnsctrl.obj
 0002:000c5780       ?DecompFuncInfo@FH4@@YA_JPEAEAEAUFuncInfo4@1@_KH_N@Z 00000001401a0780 f i libvcruntimed:risctrnsctrl.obj
 0002:000c59e0       ?DecompTryBlock@TryBlockMap4@FH4@@AEAAXXZ 00000001401a09e0 f i libvcruntimed:risctrnsctrl.obj
 0002:000c5a70       ?ExecutionInCatch@__FrameHandler3@@SA_NPEAU_xDISPATCHER_CONTEXT@@PEBU_s_FuncInfo@@@Z 00000001401a0a70 f   libvcruntimed:risctrnsctrl.obj
 0002:000c5ae0       ?ExecutionInCatch@__FrameHandler4@@SA_NPEAU_xDISPATCHER_CONTEXT@@PEAUFuncInfo4@FH4@@@Z 00000001401a0ae0 f   libvcruntimed:risctrnsctrl.obj
 0002:000c5b00       ?FrameUnwindToEmptyState@__FrameHandler3@@SAXPEA_KPEAU_xDISPATCHER_CONTEXT@@PEBU_s_FuncInfo@@@Z 00000001401a0b00 f   libvcruntimed:risctrnsctrl.obj
 0002:000c5bc0       ?FrameUnwindToEmptyState@__FrameHandler4@@SAXPEA_KPEAU_xDISPATCHER_CONTEXT@@PEAUFuncInfo4@FH4@@@Z 00000001401a0bc0 f   libvcruntimed:risctrnsctrl.obj
 0002:000c5c30       ?GetEstablisherFrame@__FrameHandler3@@SAPEA_KPEA_KPEAU_xDISPATCHER_CONTEXT@@PEBU_s_FuncInfo@@0@Z 00000001401a0c30 f   libvcruntimed:risctrnsctrl.obj
 0002:000c5e00       ?GetEstablisherFrame@__FrameHandler4@@SAPEA_KPEA_KPEAU_xDISPATCHER_CONTEXT@@PEAUFuncInfo4@FH4@@0@Z 00000001401a0e00 f   libvcruntimed:risctrnsctrl.obj
 0002:000c5e80       ?GetRangeOfTrysToCheck@__FrameHandler3@@SA?AU?$pair@Viterator@TryBlockMap@__FrameHandler3@@V123@@std@@AEAVTryBlockMap@1@HPEAU_xDISPATCHER_CONTEXT@@PEBU_s_FuncInfo@@H@Z 00000001401a0e80 f   libvcruntimed:risctrnsctrl.obj
 0002:000c6150       ?GetRangeOfTrysToCheck@__FrameHandler4@@SA?AU?$pair@Viterator@TryBlockMap4@FH4@@V123@@std@@AEAVTryBlockMap4@FH4@@HPEAU_xDISPATCHER_CONTEXT@@PEAUFuncInfo4@5@H@Z 00000001401a1150 f   libvcruntimed:risctrnsctrl.obj
 0002:000c6380       ?ReadInt@FH4@@YAHPEAPEAE@Z 00000001401a1380 f i libvcruntimed:risctrnsctrl.obj
 0002:000c63c0       ?ReadUnsigned@FH4@@YAIPEAPEAE@Z 00000001401a13c0 f i libvcruntimed:risctrnsctrl.obj
 0002:000c6470       ?UnwindNestedFrames@__FrameHandler3@@SAXPEA_KPEAUEHExceptionRecord@@PEAU_CONTEXT@@0PEAXPEBU_s_FuncInfo@@HHPEBU_s_HandlerType@@PEAU_xDISPATCHER_CONTEXT@@E@Z 00000001401a1470 f   libvcruntimed:risctrnsctrl.obj
 0002:000c6640       ?UnwindNestedFrames@__FrameHandler4@@SAXPEA_KPEAUEHExceptionRecord@@PEAU_CONTEXT@@0PEAXPEAUFuncInfo4@FH4@@HHPEAUHandlerType4@5@PEAU_xDISPATCHER_CONTEXT@@E@Z 00000001401a1640 f   libvcruntimed:risctrnsctrl.obj
 0002:000c6880       ?begin@TryBlockMap4@FH4@@QEAA?AViterator@12@XZ 00000001401a1880 f i libvcruntimed:risctrnsctrl.obj
 0002:000c68c0       ?end@TryBlockMap4@FH4@@QEAA?AViterator@12@XZ 00000001401a18c0 f i libvcruntimed:risctrnsctrl.obj
 0002:000c6900       ?imageRelToByteBuffer@FH4@@YAPEAE_KH@Z 00000001401a1900 f i libvcruntimed:risctrnsctrl.obj
 0002:000c6920       ?incrementToSentinel@iterator@TryBlockMap4@FH4@@QEAAXXZ 00000001401a1920 f i libvcruntimed:risctrnsctrl.obj
 0002:000c6940       ?setBuffer@TryBlockMap4@FH4@@QEAAXViterator@12@@Z 00000001401a1940 f i libvcruntimed:risctrnsctrl.obj
 0002:000c69d0       _CreateFrameInfo           00000001401a19d0 f   libvcruntimed:risctrnsctrl.obj
 0002:000c6a60       _FindAndUnlinkFrame        00000001401a1a60 f   libvcruntimed:risctrnsctrl.obj
 0002:000c6b00       _GetImageBase              00000001401a1b00 f   libvcruntimed:risctrnsctrl.obj
 0002:000c6b20       _GetThrowImageBase         00000001401a1b20 f   libvcruntimed:risctrnsctrl.obj
 0002:000c6b40       _SetImageBase              00000001401a1b40 f   libvcruntimed:risctrnsctrl.obj
 0002:000c6b70       _SetThrowImageBase         00000001401a1b70 f   libvcruntimed:risctrnsctrl.obj
 0002:000c6ba0       __CxxFrameHandler          00000001401a1ba0 f   libvcruntimed:risctrnsctrl.obj
 0002:000c6bf0       __CxxFrameHandler2         00000001401a1bf0 f   libvcruntimed:risctrnsctrl.obj
 0002:000c6c40       __CxxFrameHandler3         00000001401a1c40 f   libvcruntimed:risctrnsctrl.obj
 0002:000c6d50       __CxxFrameHandler4         00000001401a1d50 f   libvcruntimed:risctrnsctrl.obj
 0002:000c6ea0       __C_specific_handler       00000001401a1ea0 f   libvcruntimed:riscchandler.obj
 0002:000c7430       __vcrt_initialize          00000001401a2430 f   libvcruntimed:initialization.obj
 0002:000c7480       __vcrt_thread_attach       00000001401a2480 f   libvcruntimed:initialization.obj
 0002:000c74a0       __vcrt_thread_detach       00000001401a24a0 f   libvcruntimed:initialization.obj
 0002:000c74c0       __vcrt_uninitialize        00000001401a24c0 f   libvcruntimed:initialization.obj
 0002:000c74e0       __vcrt_uninitialize_critical 00000001401a24e0 f   libvcruntimed:initialization.obj
 0002:000c7510       __C_specific_handler_noexcept 00000001401a2510 f   libvcruntimed:chandler_noexcept.obj
 0002:000c7620       ??$?RD@__crt_internal_free_policy@@QEBAXQEBD@Z 00000001401a2620 f i libvcruntimed:std_type_info.obj
 0002:000c7650       ??$?RX@__crt_internal_free_policy@@QEBAXQEBX@Z 00000001401a2650 f i libvcruntimed:std_type_info.obj
 0002:000c7680       ??$__crt_interlocked_compare_exchange_pointer@$$CBDPEAD$$T@@YAPEBDPEDSEBDQEAD$$T@Z 00000001401a2680 f i libvcruntimed:std_type_info.obj
 0002:000c76d0       ??$__crt_interlocked_read_pointer@$$CBD@@YAPEBDPEDSEBD@Z 00000001401a26d0 f i libvcruntimed:std_type_info.obj
 0002:000c76f0       ??0?$__crt_unique_heap_ptr@DU__crt_internal_free_policy@@@@QEAA@QEAD@Z 00000001401a26f0 f i libvcruntimed:std_type_info.obj
 0002:000c7720       ??0?$__crt_unique_heap_ptr@XU__crt_internal_free_policy@@@@QEAA@QEAX@Z 00000001401a2720 f i libvcruntimed:std_type_info.obj
 0002:000c7750       ??1?$__crt_unique_heap_ptr@DU__crt_internal_free_policy@@@@QEAA@XZ 00000001401a2750 f i libvcruntimed:std_type_info.obj
 0002:000c7770       ??1?$__crt_unique_heap_ptr@XU__crt_internal_free_policy@@@@QEAA@XZ 00000001401a2770 f i libvcruntimed:std_type_info.obj
 0002:000c7790       ??B?$__crt_unique_heap_ptr@DU__crt_internal_free_policy@@@@QEBA_NXZ 00000001401a2790 f i libvcruntimed:std_type_info.obj
 0002:000c77b0       ??B?$__crt_unique_heap_ptr@XU__crt_internal_free_policy@@@@QEBA_NXZ 00000001401a27b0 f i libvcruntimed:std_type_info.obj
 0002:000c7840       ?detach@?$__crt_unique_heap_ptr@XU__crt_internal_free_policy@@@@QEAAPEAXXZ 00000001401a2840 f i libvcruntimed:std_type_info.obj
 0002:000c7880       ?get@?$__crt_unique_heap_ptr@DU__crt_internal_free_policy@@@@QEBAPEADXZ 00000001401a2880 f i libvcruntimed:std_type_info.obj
 0002:000c78a0       ?get@?$__crt_unique_heap_ptr@XU__crt_internal_free_policy@@@@QEBAPEAXXZ 00000001401a28a0 f i libvcruntimed:std_type_info.obj
 0002:000c78c0       ?is_valid@?$__crt_unique_heap_ptr@DU__crt_internal_free_policy@@@@QEBA_NXZ 00000001401a28c0 f i libvcruntimed:std_type_info.obj
 0002:000c7900       ?is_valid@?$__crt_unique_heap_ptr@XU__crt_internal_free_policy@@@@QEBA_NXZ 00000001401a2900 f i libvcruntimed:std_type_info.obj
 0002:000c7940       ?release@?$__crt_unique_heap_ptr@DU__crt_internal_free_policy@@@@QEAAXXZ 00000001401a2940 f i libvcruntimed:std_type_info.obj
 0002:000c7980       ?release@?$__crt_unique_heap_ptr@XU__crt_internal_free_policy@@@@QEAAXXZ 00000001401a2980 f i libvcruntimed:std_type_info.obj
 0002:000c79c0       __std_type_info_compare    00000001401a29c0 f   libvcruntimed:std_type_info.obj
 0002:000c7a10       __std_type_info_destroy_list 00000001401a2a10 f   libvcruntimed:std_type_info.obj
 0002:000c7a80       __std_type_info_hash       00000001401a2a80 f   libvcruntimed:std_type_info.obj
 0002:000c7b60       __std_type_info_name       00000001401a2b60 f   libvcruntimed:std_type_info.obj
 0002:000c7e90       __DestructExceptionObject  00000001401a2e90 f   libvcruntimed:ehhelpers.obj
 0002:000c7fd0       ?_CallMemberFunction0@@YAXQEAX0@Z 00000001401a2fd0 f i libvcruntimed:ehhelpers.obj
 0002:000c80e0       ?raw_name@type_info@@QEBAPEBDXZ 00000001401a30e0 f i libvcruntimed:ehhelpers.obj
 0002:000c8100       _IsExceptionObjectToBeDestroyed 00000001401a3100 f   libvcruntimed:ehhelpers.obj
 0002:000c8170       _SetWinRTOutOfMemoryExceptionCallback 00000001401a3170 f   libvcruntimed:ehhelpers.obj
 0002:000c8190       __AdjustPointer            00000001401a3190 f   libvcruntimed:ehhelpers.obj
 0002:000c8230       __FrameUnwindFilter        00000001401a3230 f   libvcruntimed:ehhelpers.obj
 0002:000c8300       __GetPlatformExceptionInfo 00000001401a3300 f   libvcruntimed:ehhelpers.obj
 0002:000c83e0       __current_exception        00000001401a33e0 f   libvcruntimed:ehhelpers.obj
 0002:000c8400       __current_exception_context 00000001401a3400 f   libvcruntimed:ehhelpers.obj
 0002:000c8420       __processing_throw         00000001401a3420 f   libvcruntimed:ehhelpers.obj
 0002:000c8440       __std_terminate            00000001401a3440 f   libvcruntimed:ehhelpers.obj
 0002:000c8460       _is_exception_typeof       00000001401a3460 f   libvcruntimed:ehhelpers.obj
 0002:000c8600       __vcrt_GetModuleFileNameW  00000001401a3600 f   libvcruntimed:winapi_thunks.obj
 0002:000c8640       __vcrt_GetModuleHandleW    00000001401a3640 f   libvcruntimed:winapi_thunks.obj
 0002:000c8660       __vcrt_LoadLibraryExW      00000001401a3660 f   libvcruntimed:winapi_thunks.obj
 0002:000c86a0       ??$?RU__vcrt_ptd@@@__crt_internal_free_policy@@QEBAXQEBU__vcrt_ptd@@@Z 00000001401a36a0 f i libvcruntimed:per_thread_data.obj
 0002:000c86d0       ??0?$__crt_unique_heap_ptr@U__vcrt_ptd@@U__crt_internal_free_policy@@@@QEAA@QEAU__vcrt_ptd@@@Z 00000001401a36d0 f i libvcruntimed:per_thread_data.obj
 0002:000c8730       ??1?$__crt_unique_heap_ptr@U__vcrt_ptd@@U__crt_internal_free_policy@@@@QEAA@XZ 00000001401a3730 f i libvcruntimed:per_thread_data.obj
 0002:000c8780       ??B?$__crt_unique_heap_ptr@U__vcrt_ptd@@U__crt_internal_free_policy@@@@QEBA_NXZ 00000001401a3780 f i libvcruntimed:per_thread_data.obj
 0002:000c87a0       ?detach@?$__crt_unique_heap_ptr@U__vcrt_ptd@@U__crt_internal_free_policy@@@@QEAAPEAU__vcrt_ptd@@XZ 00000001401a37a0 f i libvcruntimed:per_thread_data.obj
 0002:000c87e0       ?get@?$__crt_unique_heap_ptr@U__vcrt_ptd@@U__crt_internal_free_policy@@@@QEBAPEAU__vcrt_ptd@@XZ 00000001401a37e0 f i libvcruntimed:per_thread_data.obj
 0002:000c8800       ?is_valid@?$__crt_unique_heap_ptr@U__vcrt_ptd@@U__crt_internal_free_policy@@@@QEBA_NXZ 00000001401a3800 f i libvcruntimed:per_thread_data.obj
 0002:000c8840       ?release@?$__crt_unique_heap_ptr@U__vcrt_ptd@@U__crt_internal_free_policy@@@@QEAAXXZ 00000001401a3840 f i libvcruntimed:per_thread_data.obj
 0002:000c88d0       __vcrt_freefls             00000001401a38d0 f   libvcruntimed:per_thread_data.obj
 0002:000c8920       __vcrt_freeptd_for_this_thread 00000001401a3920 f   libvcruntimed:per_thread_data.obj
 0002:000c8970       __vcrt_getptd              00000001401a3970 f   libvcruntimed:per_thread_data.obj
 0002:000c89a0       __vcrt_getptd_noexit       00000001401a39a0 f   libvcruntimed:per_thread_data.obj
 0002:000c8bb0       __vcrt_getptd_noinit       00000001401a3bb0 f   libvcruntimed:per_thread_data.obj
 0002:000c8c30       __vcrt_initialize_ptd      00000001401a3c30 f   libvcruntimed:per_thread_data.obj
 0002:000c8c90       __vcrt_uninitialize_ptd    00000001401a3c90 f   libvcruntimed:per_thread_data.obj
 0002:000c8cd0       ?GetCurrentState@__FrameHandler3@@SAHPEA_KPEAU_xDISPATCHER_CONTEXT@@PEBU_s_FuncInfo@@@Z 00000001401a3cd0 f   libvcruntimed:ehstate.obj
 0002:000c8d40       ?GetUnwindTryBlock@__FrameHandler3@@SAHPEA_KPEAU_xDISPATCHER_CONTEXT@@PEBU_s_FuncInfo@@@Z 00000001401a3d40 f   libvcruntimed:ehstate.obj
 0002:000c8da0       ?SetState@__FrameHandler3@@SAXPEA_KPEBU_s_FuncInfo@@H@Z 00000001401a3da0 f   libvcruntimed:ehstate.obj
 0002:000c8de0       ?SetUnwindTryBlock@__FrameHandler3@@SAXPEA_KPEAU_xDISPATCHER_CONTEXT@@PEBU_s_FuncInfo@@H@Z 00000001401a3de0 f   libvcruntimed:ehstate.obj
 0002:000c8e70       ?StateFromControlPc@__FrameHandler3@@SAHPEBU_s_FuncInfo@@PEAU_xDISPATCHER_CONTEXT@@@Z 00000001401a3e70 f   libvcruntimed:ehstate.obj
 0002:000c8ec0       ?StateFromControlPc@__FrameHandler4@@SAHPEAUFuncInfo4@FH4@@PEAU_xDISPATCHER_CONTEXT@@@Z 00000001401a3ec0 f   libvcruntimed:ehstate.obj
 0002:000c8f10       ?StateFromIp@__FrameHandler3@@SAHPEBU_s_FuncInfo@@PEAU_xDISPATCHER_CONTEXT@@_K@Z 00000001401a3f10 f   libvcruntimed:ehstate.obj
 0002:000c9040       ?StateFromIp@__FrameHandler4@@SAHPEAUFuncInfo4@FH4@@PEAU_xDISPATCHER_CONTEXT@@_K@Z 00000001401a4040 f   libvcruntimed:ehstate.obj
 0002:000c9160       ?__FuncRelToRealOffset@@YA_KPEAU_xDISPATCHER_CONTEXT@@I@Z 00000001401a4160 f i libvcruntimed:ehstate.obj
 0002:000c91a0       ?__RVAtoRealOffset@@YA_KPEAU_xDISPATCHER_CONTEXT@@H@Z 00000001401a41a0 f i libvcruntimed:ehstate.obj
 0002:000cbcf0       ??$TypeMatchHelper@V__FrameHandler3@@@@YAHPEBU_s_HandlerType@@PEBU_s_CatchableType@@PEBU_s_ThrowInfo@@@Z 00000001401a6cf0 f i libvcruntimed:frame.obj
 0002:000cbf70       ??$TypeMatchHelper@V__FrameHandler4@@@@YAHPEAUHandlerType4@FH4@@PEBU_s_CatchableType@@PEBU_s_ThrowInfo@@@Z 00000001401a6f70 f i libvcruntimed:frame.obj
 0002:000cc200       ??$__InternalCxxFrameHandler@V__FrameHandler3@@@@YA?AW4_EXCEPTION_DISPOSITION@@PEAUEHExceptionRecord@@PEA_KPEAU_CONTEXT@@PEAU_xDISPATCHER_CONTEXT@@PEBU_s_FuncInfo@@H1E@Z 00000001401a7200 f i libvcruntimed:frame.obj
 0002:000cc7a0       ??$__InternalCxxFrameHandler@V__FrameHandler4@@@@YA?AW4_EXCEPTION_DISPOSITION@@PEAUEHExceptionRecord@@PEA_KPEAU_CONTEXT@@PEAU_xDISPATCHER_CONTEXT@@PEAUFuncInfo4@FH4@@H1E@Z 00000001401a77a0 f i libvcruntimed:frame.obj
 0002:000ccd60       ??$__InternalCxxFrameHandlerWrapper@V__FrameHandler3@@@@YA?AW4_EXCEPTION_DISPOSITION@@PEAUEHExceptionRecord@@PEA_KPEAU_CONTEXT@@PEAU_xDISPATCHER_CONTEXT@@PEBU_s_FuncInfo@@H1E@Z 00000001401a7d60 f i libvcruntimed:frame.obj
 0002:000ccde0       ??$__InternalCxxFrameHandlerWrapper@V__FrameHandler4@@@@YA?AW4_EXCEPTION_DISPOSITION@@PEAUEHExceptionRecord@@PEA_KPEAU_CONTEXT@@PEAU_xDISPATCHER_CONTEXT@@PEAUFuncInfo4@FH4@@H1E@Z 00000001401a7de0 f i libvcruntimed:frame.obj
 0002:000cce90       ??0HandlerMap4@FH4@@QEAA@PEBUTryBlockMapEntry4@1@_KH@Z 00000001401a7e90 f i libvcruntimed:frame.obj
 0002:000ccfa0       ??0HandlerMap@__FrameHandler3@@QEAA@PEBU_s_TryBlockMapEntry@@_KI@Z 00000001401a7fa0 f i libvcruntimed:frame.obj
 0002:000cd000       ??0HandlerType4@FH4@@QEAA@XZ 00000001401a8000 f i libvcruntimed:frame.obj
 0002:000cd030       ??0TryBlockMap4@FH4@@QEAA@PEBUFuncInfo4@1@_K@Z 00000001401a8030 f i libvcruntimed:frame.obj
 0002:000cd120       ??0TryBlockMap@__FrameHandler3@@QEAA@PEBU_s_FuncInfo@@_K@Z 00000001401a8120 f i libvcruntimed:frame.obj
 0002:000cd160       ??0UWMap4@FH4@@QEAA@PEBUFuncInfo4@1@_K@Z 00000001401a8160 f i libvcruntimed:frame.obj
 0002:000cd220       ??0bad_exception@std@@QEAA@AEBV01@@Z 00000001401a8220 f i libvcruntimed:frame.obj
 0002:000cd270       ??0bad_exception@std@@QEAA@XZ 00000001401a8270 f i libvcruntimed:frame.obj
 0002:000cd2c0       ??0iterator@HandlerMap4@FH4@@QEAA@AEAV12@I@Z 00000001401a82c0 f i libvcruntimed:frame.obj
 0002:000cd300       ??0iterator@HandlerMap@__FrameHandler3@@QEAA@AEAV12@I@Z 00000001401a8300 f i libvcruntimed:frame.obj
 0002:000cd340       ??0iterator@UWMap4@FH4@@QEAA@AEAV12@PEAE@Z 00000001401a8340 f i libvcruntimed:frame.obj
 0002:000cd380       ??1bad_exception@std@@UEAA@XZ 00000001401a8380 f i libvcruntimed:frame.obj
 0002:000cd3a0       ??4iterator@UWMap4@FH4@@QEAAAEAV012@AEBV012@@Z 00000001401a83a0 f i libvcruntimed:frame.obj
 0002:000cd400       ??8iterator@HandlerMap4@FH4@@QEBA_NAEBV012@@Z 00000001401a8400 f i libvcruntimed:frame.obj
 0002:000cd450       ??8iterator@HandlerMap@__FrameHandler3@@QEBA_NAEBV012@@Z 00000001401a8450 f i libvcruntimed:frame.obj
 0002:000cd4a0       ??8type_info@@QEBA_NAEBV0@@Z 00000001401a84a0 f i libvcruntimed:frame.obj
 0002:000cd540       ??9iterator@HandlerMap4@FH4@@QEBA_NAEBV012@@Z 00000001401a8540 f i libvcruntimed:frame.obj
 0002:000cd590       ??9iterator@HandlerMap@__FrameHandler3@@QEBA_NAEBV012@@Z 00000001401a8590 f i libvcruntimed:frame.obj
 0002:000cd5e0       ??Diterator@HandlerMap4@FH4@@QEAA?AUHandlerType4@2@XZ 00000001401a85e0 f i libvcruntimed:frame.obj
 0002:000cd620       ??Diterator@HandlerMap@__FrameHandler3@@QEAA?BU_s_HandlerType@@XZ 00000001401a8620 f i libvcruntimed:frame.obj
 0002:000cd670       ??Diterator@TryBlockMap@__FrameHandler3@@QEAA?BU_s_TryBlockMapEntry@@XZ 00000001401a8670 f i libvcruntimed:frame.obj
 0002:000cd6e0       ??Diterator@UWMap4@FH4@@QEAA?AUUnwindMapEntry4@2@XZ 00000001401a86e0 f i libvcruntimed:frame.obj
 0002:000cd770       ??Eiterator@HandlerMap4@FH4@@QEAAAEAV012@XZ 00000001401a8770 f i libvcruntimed:frame.obj
 0002:000cd7b0       ??Eiterator@HandlerMap@__FrameHandler3@@QEAAAEAV012@XZ 00000001401a87b0 f i libvcruntimed:frame.obj
 0002:000cd7e0       ??Eiterator@TryBlockMap@__FrameHandler3@@QEAAAEAV012@XZ 00000001401a87e0 f i libvcruntimed:frame.obj
 0002:000cd810       ??Eiterator@UWMap4@FH4@@QEAAAEAV012@XZ 00000001401a8810 f i libvcruntimed:frame.obj
 0002:000cd860       ??Giterator@UWMap4@FH4@@QEBA_JAEBV012@@Z 00000001401a8860 f i libvcruntimed:frame.obj
 0002:000cd890       ??Miterator@TryBlockMap4@FH4@@QEBA_NAEBV012@@Z 00000001401a8890 f i libvcruntimed:frame.obj
 0002:000cd8e0       ??Miterator@TryBlockMap@__FrameHandler3@@QEBA_NAEBV012@@Z 00000001401a88e0 f i libvcruntimed:frame.obj
 0002:000cd930       ??Oiterator@UWMap4@FH4@@QEBA_NAEBV012@@Z 00000001401a8930 f i libvcruntimed:frame.obj
 0002:000cd980       ??Piterator@UWMap4@FH4@@QEBA_NAEBV012@@Z 00000001401a8980 f i libvcruntimed:frame.obj
 0002:000cd9d0       ??_Ebad_exception@std@@UEAAPEAXI@Z 00000001401a89d0 f i libvcruntimed:frame.obj
 0002:000cd9d0       ??_Gbad_exception@std@@UEAAPEAXI@Z 00000001401a89d0 f i libvcruntimed:frame.obj
 0002:000cda20       ?BuildCatchObject@__FrameHandler3@@SAXPEAUEHExceptionRecord@@PEAXPEBU_s_HandlerType@@PEBU_s_CatchableType@@@Z 00000001401a8a20 f   libvcruntimed:frame.obj
 0002:000cda70       ?BuildCatchObject@__FrameHandler4@@SAXPEAUEHExceptionRecord@@PEAXPEAUHandlerType4@FH4@@PEBU_s_CatchableType@@@Z 00000001401a8a70 f   libvcruntimed:frame.obj
 0002:000cdac0       ?BuildCatchObjectHelper@__FrameHandler3@@SAHPEAUEHExceptionRecord@@PEAXPEBU_s_HandlerType@@PEBU_s_CatchableType@@@Z 00000001401a8ac0 f   libvcruntimed:frame.obj
 0002:000cdb10       ?BuildCatchObjectHelper@__FrameHandler4@@SAHPEAUEHExceptionRecord@@PEAXPEAUHandlerType4@FH4@@PEBU_s_CatchableType@@@Z 00000001401a8b10 f   libvcruntimed:frame.obj
 0002:000cdb60       ?CxxCallCatchBlock@__FrameHandler3@@SAPEAXPEAU_EXCEPTION_RECORD@@@Z 00000001401a8b60 f   libvcruntimed:frame.obj
 0002:000cde50       ?CxxCallCatchBlock@__FrameHandler4@@SAPEAXPEAU_EXCEPTION_RECORD@@@Z 00000001401a8e50 f   libvcruntimed:frame.obj
 0002:000ce250       ?DecompHandler@HandlerMap4@FH4@@AEAAXXZ 00000001401a9250 f i libvcruntimed:frame.obj
 0002:000ce700       ?FrameUnwindToState@__FrameHandler3@@SAXPEA_KPEAU_xDISPATCHER_CONTEXT@@PEBU_s_FuncInfo@@H@Z 00000001401a9700 f   libvcruntimed:frame.obj
 0002:000ce9e0       ?FrameUnwindToState@__FrameHandler4@@SAXPEA_KPEAU_xDISPATCHER_CONTEXT@@PEAUFuncInfo4@FH4@@H@Z 00000001401a99e0 f   libvcruntimed:frame.obj
 0002:000cedc0       ?GetHandlerSearchState@__FrameHandler3@@SAHPEA_KPEAU_xDISPATCHER_CONTEXT@@PEBU_s_FuncInfo@@@Z 00000001401a9dc0 f i libvcruntimed:frame.obj
 0002:000ceea0       ?GetHandlerSearchState@__FrameHandler4@@SAHPEA_KPEAU_xDISPATCHER_CONTEXT@@PEAUFuncInfo4@FH4@@@Z 00000001401a9ea0 f i libvcruntimed:frame.obj
 0002:000cef50       ?GetMaxState@__FrameHandler3@@SAHPEAU_xDISPATCHER_CONTEXT@@PEBU_s_FuncInfo@@@Z 00000001401a9f50 f i libvcruntimed:frame.obj
 0002:000cef70       ?GetMaxState@__FrameHandler4@@SAHPEAU_xDISPATCHER_CONTEXT@@PEAUFuncInfo4@FH4@@@Z 00000001401a9f70 f i libvcruntimed:frame.obj
 0002:000cf220       ?ReadEntry@UWMap4@FH4@@AEAAXPEAPEAE@Z 00000001401aa220 f i libvcruntimed:frame.obj
 0002:000cf2f0       ?TypeMatch@__FrameHandler3@@SAHPEBU_s_HandlerType@@PEBU_s_CatchableType@@PEBU_s_ThrowInfo@@@Z 00000001401aa2f0 f   libvcruntimed:frame.obj
 0002:000cf330       ?TypeMatch@__FrameHandler4@@SAHPEAUHandlerType4@FH4@@PEBU_s_CatchableType@@PEBU_s_ThrowInfo@@@Z 00000001401aa330 f   libvcruntimed:frame.obj
 0002:000cf370       ?WalkBack@UWMap4@FH4@@AEAAXPEAPEAE@Z 00000001401aa370 f i libvcruntimed:frame.obj
 0002:000cf3d0       ?WalkBack@iterator@UWMap4@FH4@@QEAAXXZ 00000001401aa3d0 f i libvcruntimed:frame.obj
 0002:000cf410       ?WalkForward@UWMap4@FH4@@AEAAXPEAPEAE@Z 00000001401aa410 f i libvcruntimed:frame.obj
 0002:000cf440       ?_CallMemberFunction1@@YAXQEAX00@Z 00000001401aa440 f i libvcruntimed:frame.obj
 0002:000cf490       ?_CallMemberFunction2@@YAXQEAX00H@Z 00000001401aa490 f i libvcruntimed:frame.obj
 0002:000cf540       ?begin@HandlerMap4@FH4@@QEAA?AViterator@12@XZ 00000001401aa540 f i libvcruntimed:frame.obj
 0002:000cf580       ?begin@HandlerMap@__FrameHandler3@@QEAA?AViterator@12@XZ 00000001401aa580 f i libvcruntimed:frame.obj
 0002:000cf5c0       ?begin@UWMap4@FH4@@QEAA?AViterator@12@XZ 00000001401aa5c0 f i libvcruntimed:frame.obj
 0002:000cf600       ?end@HandlerMap4@FH4@@QEAA?AViterator@12@XZ 00000001401aa600 f i libvcruntimed:frame.obj
 0002:000cf640       ?end@HandlerMap@__FrameHandler3@@QEAA?AViterator@12@XZ 00000001401aa640 f i libvcruntimed:frame.obj
 0002:000cf680       ?getESTypes@__FrameHandler3@@SAPEBU_s_ESTypeList@@PEBU_s_FuncInfo@@@Z 00000001401aa680 f i libvcruntimed:frame.obj
 0002:000cf6d0       ?getESTypes@__FrameHandler4@@SAPEBU_s_ESTypeList@@PEAUFuncInfo4@FH4@@@Z 00000001401aa6d0 f i libvcruntimed:frame.obj
 0002:000cf6e0       ?getLastEntry@HandlerMap4@FH4@@QEAAPEAUHandlerType4@2@XZ 00000001401aa6e0 f i libvcruntimed:frame.obj
 0002:000cf730       ?getLastEntry@HandlerMap@__FrameHandler3@@QEAAPEBU_s_HandlerType@@XZ 00000001401aa730 f i libvcruntimed:frame.obj
 0002:000cf760       ?getMagicNum@__FrameHandler3@@SAIPEBU_s_FuncInfo@@@Z 00000001401aa760 f i libvcruntimed:frame.obj
 0002:000cf780       ?getMagicNum@__FrameHandler4@@SAIPEAUFuncInfo4@FH4@@@Z 00000001401aa780 f i libvcruntimed:frame.obj
 0002:000cf790       ?getNumTryBlocks@TryBlockMap4@FH4@@QEAAIXZ 00000001401aa790 f i libvcruntimed:frame.obj
 0002:000cf7a0       ?getNumTryBlocks@TryBlockMap@__FrameHandler3@@QEAAIXZ 00000001401aa7a0 f i libvcruntimed:frame.obj
 0002:000cf7c0       ?getStartStop@UWMap4@FH4@@QEAAXHHAEAViterator@12@0@Z 00000001401aa7c0 f i libvcruntimed:frame.obj
 0002:000cf930       ?getStateFromIterators@UWMap4@FH4@@SAHAEBViterator@12@H0H0@Z 00000001401aa930 f i libvcruntimed:frame.obj
 0002:000cfac0       ?isEHs@__FrameHandler3@@SA_NPEBU_s_FuncInfo@@@Z 00000001401aaac0 f i libvcruntimed:frame.obj
 0002:000cfb00       ?isEHs@__FrameHandler4@@SA_NPEAUFuncInfo4@FH4@@@Z 00000001401aab00 f i libvcruntimed:frame.obj
 0002:000cfb20       ?isNoExcept@__FrameHandler3@@SA_NPEBU_s_FuncInfo@@@Z 00000001401aab20 f i libvcruntimed:frame.obj
 0002:000cfb60       ?isNoExcept@__FrameHandler4@@SA_NPEAUFuncInfo4@FH4@@@Z 00000001401aab60 f i libvcruntimed:frame.obj
 0002:000cfb80       ?reset@HandlerType4@FH4@@QEAAXXZ 00000001401aab80 f i libvcruntimed:frame.obj
 0002:000cfc00       ?resetBuffer@HandlerMap4@FH4@@QEAAXXZ 00000001401aac00 f i libvcruntimed:frame.obj
 0002:000cfc30       ?setBuffer@HandlerMap4@FH4@@QEAAXI@Z 00000001401aac30 f i libvcruntimed:frame.obj
 0002:000cfca0       __BuildCatchObject         00000001401aaca0 f   libvcruntimed:frame.obj
 0002:000cfcf0       __BuildCatchObjectHelper   00000001401aacf0 f   libvcruntimed:frame.obj
 0002:000cfd40       __TypeMatch                00000001401aad40 f   libvcruntimed:frame.obj
 0002:000cfd80       __vcrt_EncodePointer       00000001401aad80 f i libvcruntimed:frame.obj
 0002:000cfde0       _NLG_Notify                00000001401aade0 f   libvcruntimed:notify.obj
 0002:000cfe10       __NLG_Dispatch2            00000001401aae10 f   libvcruntimed:notify.obj
 0002:000cfe20       __NLG_Return2              00000001401aae20 f   libvcruntimed:notify.obj
 0002:000cfe50       __except_validate_context_record 00000001401aae50 f   libvcruntimed:jbcxrval.obj
 0002:000cfec0       __except_validate_jump_buffer 00000001401aaec0 f   libvcruntimed:jbcxrval.obj
 0002:000cfef0       __except_validate_jump_buffer_common 00000001401aaef0 f i libvcruntimed:jbcxrval.obj
 0002:000cff90       __vcrt_initialize_locks    00000001401aaf90 f   libvcruntimed:locks.obj
 0002:000d0020       __vcrt_lock                00000001401ab020 f   libvcruntimed:locks.obj
 0002:000d0060       __vcrt_uninitialize_locks  00000001401ab060 f   libvcruntimed:locks.obj
 0002:000d00d0       __vcrt_unlock              00000001401ab0d0 f   libvcruntimed:locks.obj
 0002:000d0110       ??$?0$00@DName@@QEAA@PEBDU?$StringLifeSelector@$00@@@Z 00000001401ab110 f i libvcruntimed:undname.obj
 0002:000d0190       ??$?0$00@pcharNode@@QEAA@PEBDHU?$StringLifeSelector@$00@@@Z 00000001401ab190 f i libvcruntimed:undname.obj
 0002:000d0200       ??$?0$01@DName@@QEAA@PEBDU?$StringLifeSelector@$01@@@Z 00000001401ab200 f i libvcruntimed:undname.obj
 0002:000d0280       ??$?0$01@pcharNode@@QEAA@PEBDHU?$StringLifeSelector@$01@@@Z 00000001401ab280 f i libvcruntimed:undname.obj
 0002:000d0350       ??$?0$0A@@DName@@QEAA@PEBDU?$StringLifeSelector@$0A@@@@Z 00000001401ab350 f i libvcruntimed:undname.obj
 0002:000d03d0       ??$?0$0A@@pcharNode@@QEAA@PEBDHU?$StringLifeSelector@$0A@@@@Z 00000001401ab3d0 f i libvcruntimed:undname.obj
 0002:000d04a0       ??$?0_K$0A@@?$optional@_K@std@@QEAA@$$QEA_K@Z 00000001401ab4a0 f i libvcruntimed:undname.obj
 0002:000d04e0       ??$?0_K@?$_Optional_construct_base@_K@std@@QEAA@Uin_place_t@1@$$QEA_K@Z 00000001401ab4e0 f i libvcruntimed:undname.obj
 0002:000d0520       ??$?0_K@?$_Optional_destruct_base@_K$00@std@@QEAA@Uin_place_t@1@$$QEA_K@Z 00000001401ab520 f i libvcruntimed:undname.obj
 0002:000d0560       ??$append@VDNameNode@@@DName@@AEAAXPEBVDNameNode@@@Z 00000001401ab560 f i libvcruntimed:undname.obj
 0002:000d0640       ??$append@VDNameStatusNode@@@DName@@AEAAXPEBVDNameStatusNode@@@Z 00000001401ab640 f i libvcruntimed:undname.obj
 0002:000d0720       ??$append@VcharNode@@@DName@@AEAAXPEBVcharNode@@@Z 00000001401ab720 f i libvcruntimed:undname.obj
 0002:000d0800       ??$append@VpDNameNode@@@DName@@AEAAXPEBVpDNameNode@@@Z 00000001401ab800 f i libvcruntimed:undname.obj
 0002:000d08e0       ??$append@VpcharNode@@@DName@@AEAAXPEBVpcharNode@@@Z 00000001401ab8e0 f i libvcruntimed:undname.obj
 0002:000d09c0       ??$doPchar@$00@DName@@AEAAXPEBDH@Z 00000001401ab9c0 f i libvcruntimed:undname.obj
 0002:000d0b80       ??$doPchar@$01@DName@@AEAAXPEBDH@Z 00000001401abb80 f i libvcruntimed:undname.obj
 0002:000d0d40       ??$doPchar@$0A@@DName@@AEAAXPEBDH@Z 00000001401abd40 f i libvcruntimed:undname.obj
 0002:000d10e0       ??0?$_Optional_construct_base@_K@std@@QEAA@XZ 00000001401ac0e0 f i libvcruntimed:undname.obj
 0002:000d1110       ??0?$_Optional_destruct_base@_K$00@std@@QEAA@XZ 00000001401ac110 f i libvcruntimed:undname.obj
 0002:000d1150       ??0?$optional@_K@std@@QEAA@XZ 00000001401ac150 f i libvcruntimed:undname.obj
 0002:000d1180       ??0Block@_HeapManager@@QEAA@XZ 00000001401ac180 f i libvcruntimed:undname.obj
 0002:000d11a0       ??0DName@@QEAA@AEAPEBDD@Z  00000001401ac1a0 f   libvcruntimed:undname.obj
 0002:000d13e0       ??0DName@@QEAA@AEBUStringLiteral@@@Z 00000001401ac3e0 f   libvcruntimed:undname.obj
 0002:000d1450       ??0DName@@QEAA@AEBV0@@Z    00000001401ac450 f i libvcruntimed:undname.obj
 0002:000d1490       ??0DName@@QEAA@D@Z         00000001401ac490 f   libvcruntimed:undname.obj
 0002:000d14e0       ??0DName@@QEAA@PEAV0@@Z    00000001401ac4e0 f   libvcruntimed:undname.obj
 0002:000d1600       ??0DName@@QEAA@W4DNameStatus@@@Z 00000001401ac600 f   libvcruntimed:undname.obj
 0002:000d16e0       ??0DName@@QEAA@XZ          00000001401ac6e0 f i libvcruntimed:undname.obj
 0002:000d1710       ??0DName@@QEAA@_J@Z        00000001401ac710 f   libvcruntimed:undname.obj
 0002:000d1860       ??0DName@@QEAA@_K@Z        00000001401ac860 f   libvcruntimed:undname.obj
 0002:000d1970       ??0DNameNode@@IEAA@XZ      00000001401ac970 f i libvcruntimed:undname.obj
 0002:000d1990       ??0Replicator@@QEAA@XZ     00000001401ac990 f i libvcruntimed:undname.obj
 0002:000d19f0       ??0UnDecorator@@QEAA@PEBDP6APEADJ@ZK@Z 00000001401ac9f0 f i libvcruntimed:undname.obj
 0002:000d1ac0       ??0_Nontrivial_dummy_type@std@@QEAA@XZ 00000001401acac0 f i libvcruntimed:undname.obj
 0002:000d1ad0       ??0charNode@@QEAA@D@Z      00000001401acad0 f i libvcruntimed:undname.obj
 0002:000d1b20       ??0pDNameNode@@QEAA@PEAVDName@@@Z 00000001401acb20 f   libvcruntimed:undname.obj
 0002:000d1bc0       ??0pairNode@@QEAA@PEBVDNameNode@@0@Z 00000001401acbc0 f i libvcruntimed:undname.obj
 0002:000d1c60       ??2@YAPEAX_KAEAV_HeapManager@@H@Z 00000001401acc60 f   libvcruntimed:undname.obj
 0002:000d1ce0       ??4DName@@QEAAAEAV0@AEBUStringLiteral@@@Z 00000001401acce0 f   libvcruntimed:undname.obj
 0002:000d1d40       ??4DName@@QEAAAEAV0@AEBV0@@Z 00000001401acd40 f   libvcruntimed:undname.obj
 0002:000d1d80       ??4DName@@QEAAAEAV0@D@Z    00000001401acd80 f i libvcruntimed:undname.obj
 0002:000d1dd0       ??4DName@@QEAAAEAV0@PEAV0@@Z 00000001401acdd0 f   libvcruntimed:undname.obj
 0002:000d1ed0       ??4DName@@QEAAAEAV0@W4DNameStatus@@@Z 00000001401aced0 f   libvcruntimed:undname.obj
 0002:000d1f90       ??AReplicator@@QEBA?AVDName@@H@Z 00000001401acf90 f   libvcruntimed:undname.obj
 0002:000d2040       ??B?$optional@_K@std@@QEBA_NXZ 00000001401ad040 f i libvcruntimed:undname.obj
 0002:000d2060       ??D?$_Optional_construct_base@_K@std@@QEGAAAEA_KXZ 00000001401ad060 f i libvcruntimed:undname.obj
 0002:000d2120       ??H@YA?AVDName@@AEBUStringLiteral@@AEBV0@@Z 00000001401ad120 f i libvcruntimed:undname.obj
 0002:000d2180       ??H@YA?AVDName@@DAEBV0@@Z  00000001401ad180 f i libvcruntimed:undname.obj
 0002:000d21e0       ??H@YA?AVDName@@W4DNameStatus@@AEBV0@@Z 00000001401ad1e0 f i libvcruntimed:undname.obj
 0002:000d2240       ??HDName@@QEBA?AV0@AEBUStringLiteral@@@Z 00000001401ad240 f   libvcruntimed:undname.obj
 0002:000d2290       ??HDName@@QEBA?AV0@AEBV0@@Z 00000001401ad290 f   libvcruntimed:undname.obj
 0002:000d22e0       ??HDName@@QEBA?AV0@D@Z     00000001401ad2e0 f   libvcruntimed:undname.obj
 0002:000d2330       ??HDName@@QEBA?AV0@PEAV0@@Z 00000001401ad330 f   libvcruntimed:undname.obj
 0002:000d2380       ??HDName@@QEBA?AV0@W4DNameStatus@@@Z 00000001401ad380 f   libvcruntimed:undname.obj
 0002:000d23d0       ??HStringLiteral@@QEBA?AU0@H@Z 00000001401ad3d0 f i libvcruntimed:undname.obj
 0002:000d2420       ??YDName@@QEAAAEAV0@AEBUStringLiteral@@@Z 00000001401ad420 f   libvcruntimed:undname.obj
 0002:000d2530       ??YDName@@QEAAAEAV0@AEBV0@@Z 00000001401ad530 f   libvcruntimed:undname.obj
 0002:000d2620       ??YDName@@QEAAAEAV0@D@Z    00000001401ad620 f   libvcruntimed:undname.obj
 0002:000d26f0       ??YDName@@QEAAAEAV0@PEAV0@@Z 00000001401ad6f0 f   libvcruntimed:undname.obj
 0002:000d2810       ??YDName@@QEAAAEAV0@W4DNameStatus@@@Z 00000001401ad810 f   libvcruntimed:undname.obj
 0002:000d28a0       ??YReplicator@@QEAAAEAV0@AEBVDName@@@Z 00000001401ad8a0 f   libvcruntimed:undname.obj
 0002:000d2990       ??_5DName@@QEAAAEAV0@AEBV0@@Z 00000001401ad990 f   libvcruntimed:undname.obj
 0002:000d2a20       ??__K_l@@YA?AUStringLiteral@@PEBD_K@Z 00000001401ada20 f i libvcruntimed:undname.obj
 0002:000d2a60       ?Constructor@_HeapManager@@QEAAXP6APEAX_K@ZP6AXPEAX@Z@Z 00000001401ada60 f i libvcruntimed:undname.obj
 0002:000d2ad0       ?Destructor@_HeapManager@@QEAAXXZ 00000001401adad0 f i libvcruntimed:undname.obj
 0002:000d2b90       ?UScore@UnDecorator@@SA?AUStringLiteral@@W4Tokens@@@Z 00000001401adb90 f   libvcruntimed:undname.obj
 0002:000d2c40       ?composeDeclaration@UnDecorator@@CA?AVDName@@AEBV2@@Z 00000001401adc40 f i libvcruntimed:undname.obj
 0002:000d5b00       ?doAccessSpecifiers@UnDecorator@@SAHXZ 00000001401b0b00 f i libvcruntimed:undname.obj
 0002:000d5b40       ?doAllocationLanguage@UnDecorator@@SAHXZ 00000001401b0b40 f i libvcruntimed:undname.obj
 0002:000d5b80       ?doAllocationModel@UnDecorator@@SAHXZ 00000001401b0b80 f i libvcruntimed:undname.obj
 0002:000d5bc0       ?doEcsu@UnDecorator@@SAHXZ 00000001401b0bc0 f i libvcruntimed:undname.obj
 0002:000d5c00       ?doEllipsis@UnDecorator@@SAHXZ 00000001401b0c00 f i libvcruntimed:undname.obj
 0002:000d5c40       ?doFunctionReturns@UnDecorator@@SAHXZ 00000001401b0c40 f i libvcruntimed:undname.obj
 0002:000d5c80       ?doMSKeywords@UnDecorator@@SAHXZ 00000001401b0c80 f i libvcruntimed:undname.obj
 0002:000d5cc0       ?doMemberTypes@UnDecorator@@SAHXZ 00000001401b0cc0 f i libvcruntimed:undname.obj
 0002:000d5d00       ?doNameOnly@UnDecorator@@SAHXZ 00000001401b0d00 f i libvcruntimed:undname.obj
 0002:000d5d10       ?doNoIdentCharCheck@UnDecorator@@SAHXZ 00000001401b0d10 f i libvcruntimed:undname.obj
 0002:000d5d20       ?doPchar@DName@@AEAAXD@Z   00000001401b0d20 f   libvcruntimed:undname.obj
 0002:000d5dd0       ?doPtr64@UnDecorator@@SAHXZ 00000001401b0dd0 f i libvcruntimed:undname.obj
 0002:000d5e10       ?doRestrictionSpec@UnDecorator@@SAHXZ 00000001401b0e10 f i libvcruntimed:undname.obj
 0002:000d5e50       ?doThisTypes@UnDecorator@@SAHXZ 00000001401b0e50 f i libvcruntimed:undname.obj
 0002:000d5e90       ?doThrowTypes@UnDecorator@@SAHXZ 00000001401b0e90 f i libvcruntimed:undname.obj
 0002:000d5ed0       ?doTypeOnly@UnDecorator@@SAHXZ 00000001401b0ed0 f i libvcruntimed:undname.obj
 0002:000d5ee0       ?doUnderScore@UnDecorator@@SAHXZ 00000001401b0ee0 f i libvcruntimed:undname.obj
 0002:000d5f20       ?getAddressOf@UnDecorator@@CA?AVDName@@XZ 00000001401b0f20 f   libvcruntimed:undname.obj
 0002:000d5fe0       ?getArgumentList@UnDecorator@@CA?AVDName@@XZ 00000001401b0fe0 f   libvcruntimed:undname.obj
 0002:000d61d0       ?getArgumentTypes@UnDecorator@@CA?AVDName@@XZ 00000001401b11d0 f   libvcruntimed:undname.obj
 0002:000d6530       ?getArrayAccess@UnDecorator@@CA?AVDName@@XZ 00000001401b1530 f   libvcruntimed:undname.obj
 0002:000d6610       ?getArrayObject@UnDecorator@@CA?AVDName@@XZ 00000001401b1610 f   libvcruntimed:undname.obj
 0002:000d6790       ?getArrayType@UnDecorator@@CA?AVDName@@AEBV2@@Z 00000001401b1790 f i libvcruntimed:undname.obj
 0002:000d6c40       ?getBasedType@UnDecorator@@CA?AVDName@@XZ 00000001401b1c40 f   libvcruntimed:undname.obj
 0002:000d6df0       ?getBasicDataType@UnDecorator@@CA?AVDName@@AEBV2@@Z 00000001401b1df0 f   libvcruntimed:undname.obj
 0002:000d7f80       ?getCHPEName@UnDecorator@@QEAAPEADPEADH@Z 00000001401b2f80 f i libvcruntimed:undname.obj
 0002:000d81c0       ?getCallIndex@UnDecorator@@CA?AVDName@@XZ 00000001401b31c0 f i libvcruntimed:undname.obj
 0002:000d81f0       ?getCallingConvention@UnDecorator@@CA?AVDName@@XZ 00000001401b31f0 f   libvcruntimed:undname.obj
 0002:000d86b0       ?getDataIndirectType@UnDecorator@@CA?AVDName@@AEBV2@W4IndirectionKind@@0H@Z 00000001401b36b0 f   libvcruntimed:undname.obj
 0002:000d96a0       ?getDataIndirectType@UnDecorator@@CA?AVDName@@XZ 00000001401b46a0 f i libvcruntimed:undname.obj
 0002:000d9710       ?getDataType@UnDecorator@@CA?AVDName@@PEAV2@@Z 00000001401b4710 f   libvcruntimed:undname.obj
 0002:000d9920       ?getDecoratedName@UnDecorator@@CA?AVDName@@XZ 00000001401b4920 f   libvcruntimed:undname.obj
 0002:000d9f30       ?getDimension@UnDecorator@@CA?AVDName@@_N@Z 00000001401b4f30 f   libvcruntimed:undname.obj
 0002:000da2a0       ?getDispatchTarget@UnDecorator@@CA?AVDName@@XZ 00000001401b52a0 f   libvcruntimed:undname.obj
 0002:000da370       ?getDisplacement@UnDecorator@@CA?AVDName@@XZ 00000001401b5370 f i libvcruntimed:undname.obj
 0002:000da3a0       ?getECSUDataType@UnDecorator@@CA?AVDName@@XZ 00000001401b53a0 f   libvcruntimed:undname.obj
 0002:000da8d0       ?getECSUName@UnDecorator@@CA?AVDName@@XZ 00000001401b58d0 f i libvcruntimed:undname.obj
 0002:000da900       ?getEnumType@UnDecorator@@CA?AVDName@@XZ 00000001401b5900 f i libvcruntimed:undname.obj
 0002:000dac10       ?getExtendedDataIndirectType@UnDecorator@@CA?AVDName@@AEAW4IndirectionKind@@AEA_NH@Z 00000001401b5c10 f   libvcruntimed:undname.obj
 0002:000db040       ?getExternalDataType@UnDecorator@@CA?AVDName@@AEBV2@@Z 00000001401b6040 f i libvcruntimed:undname.obj
 0002:000db140       ?getFloatingPoint@UnDecorator@@CA?AVDName@@H@Z 00000001401b6140 f   libvcruntimed:undname.obj
 0002:000db320       ?getFunctionIndirectType@UnDecorator@@CA?AVDName@@AEBV2@@Z 00000001401b6320 f   libvcruntimed:undname.obj
 0002:000dbaa0       ?getGuardNumber@UnDecorator@@CA?AVDName@@XZ 00000001401b6aa0 f i libvcruntimed:undname.obj
 0002:000dbad0       ?getLastChar@DName@@QEBADXZ 00000001401b6ad0 f i libvcruntimed:undname.obj
 0002:000dbb30       ?getLastChar@DNameStatusNode@@UEBADXZ 00000001401b6b30 f i libvcruntimed:undname.obj
 0002:000dbb80       ?getLastChar@charNode@@UEBADXZ 00000001401b6b80 f i libvcruntimed:undname.obj
 0002:000dbba0       ?getLastChar@pDNameNode@@UEBADXZ 00000001401b6ba0 f i libvcruntimed:undname.obj
 0002:000dbbf0       ?getLastChar@pairNode@@UEBADXZ 00000001401b6bf0 f i libvcruntimed:undname.obj
 0002:000dbc90       ?getLastChar@pcharNode@@UEBADXZ 00000001401b6c90 f i libvcruntimed:undname.obj
 0002:000dbce0       ?getLexicalFrame@UnDecorator@@CA?AVDName@@XZ 00000001401b6ce0 f i libvcruntimed:undname.obj
 0002:000dbd40       ?getMemberAccess@UnDecorator@@CA?AVDName@@XZ 00000001401b6d40 f   libvcruntimed:undname.obj
 0002:000dbe10       ?getMemoryWithBuffer@_HeapManager@@QEAAPEAX_K@Z 00000001401b6e10 f   libvcruntimed:undname.obj
 0002:000dbfb0       ?getMemoryWithoutBuffer@_HeapManager@@QEAAPEAX_K@Z 00000001401b6fb0 f   libvcruntimed:undname.obj
 0002:000dc010       ?getNoexcept@UnDecorator@@CA?AVDName@@XZ 00000001401b7010 f   libvcruntimed:undname.obj
 0002:000dc0c0       ?getNumberOfDimensions@UnDecorator@@CAHXZ 00000001401b70c0 f   libvcruntimed:undname.obj
 0002:000dc1c0       ?getOperatorName@UnDecorator@@CA?AVDName@@_NPEA_N@Z 00000001401b71c0 f i libvcruntimed:undname.obj
 0002:000dd460       ?getPointerToMember@UnDecorator@@CA?AVDName@@XZ 00000001401b8460 f   libvcruntimed:undname.obj
 0002:000dd5e0       ?getPointerType@UnDecorator@@CA?AVDName@@AEBV2@0@Z 00000001401b85e0 f i libvcruntimed:undname.obj
 0002:000dd630       ?getPointerTypeArray@UnDecorator@@CA?AVDName@@AEBV2@0@Z 00000001401b8630 f i libvcruntimed:undname.obj
 0002:000dd680       ?getPrimaryDataType@UnDecorator@@CA?AVDName@@AEBV2@@Z 00000001401b8680 f   libvcruntimed:undname.obj
 0002:000dddb0       ?getPtrRefDataType@UnDecorator@@CA?AVDName@@AEBV2@H@Z 00000001401b8db0 f   libvcruntimed:undname.obj
 0002:000de270       ?getPtrRefType@UnDecorator@@CA?AVDName@@AEBV2@0W4IndirectionKind@@@Z 00000001401b9270 f   libvcruntimed:undname.obj
 0002:000de540       ?getReferenceType@UnDecorator@@CA?AVDName@@AEBV2@0W4IndirectionKind@@@Z 00000001401b9540 f i libvcruntimed:undname.obj
 0002:000de590       ?getRestrictionSpec@UnDecorator@@CA?AVDName@@XZ 00000001401b9590 f   libvcruntimed:undname.obj
 0002:000de880       ?getReturnType@UnDecorator@@CA?AVDName@@PEAV2@@Z 00000001401b9880 f   libvcruntimed:undname.obj
 0002:000de8f0       ?getScope@UnDecorator@@CA?AVDName@@XZ 00000001401b98f0 f   libvcruntimed:undname.obj
 0002:000df210       ?getScopedName@UnDecorator@@CA?AVDName@@XZ 00000001401ba210 f   libvcruntimed:undname.obj
 0002:000df490       ?getSignedDimension@UnDecorator@@CA?AVDName@@XZ 00000001401ba490 f   libvcruntimed:undname.obj
 0002:000df530       ?getStorageConvention@UnDecorator@@CA?AVDName@@XZ 00000001401ba530 f i libvcruntimed:undname.obj
 0002:000df560       ?getString@DName@@QEBAPEADPEAD0@Z 00000001401ba560 f i libvcruntimed:undname.obj
 0002:000df5f0       ?getString@DName@@QEBAPEADPEADH@Z 00000001401ba5f0 f i libvcruntimed:undname.obj
 0002:000df6d0       ?getString@DNameStatusNode@@UEBAPEADPEAD0@Z 00000001401ba6d0 f i libvcruntimed:undname.obj
 0002:000df730       ?getString@charNode@@UEBAPEADPEAD0@Z 00000001401ba730 f i libvcruntimed:undname.obj
 0002:000df780       ?getString@pDNameNode@@UEBAPEADPEAD0@Z 00000001401ba780 f i libvcruntimed:undname.obj
 0002:000df800       ?getString@pairNode@@UEBAPEADPEAD0@Z 00000001401ba800 f i libvcruntimed:undname.obj
 0002:000df900       ?getString@pcharNode@@UEBAPEADPEAD0@Z 00000001401ba900 f i libvcruntimed:undname.obj
 0002:000df950       ?getStringEncoding@UnDecorator@@CA?AVDName@@W4PrefixKind@@H@Z 00000001401ba950 f   libvcruntimed:undname.obj
 0002:000dfac0       ?getStringHelper@@YAPEADPEADPEBD1H@Z 00000001401baac0 f i libvcruntimed:undname.obj
 0002:000dfb40       ?getStringObject@UnDecorator@@CA?AVDName@@XZ 00000001401bab40 f   libvcruntimed:undname.obj
 0002:000dfc20       ?getSymbolName@UnDecorator@@CA?AVDName@@XZ 00000001401bac20 f i libvcruntimed:undname.obj
 0002:000dfcd0       ?getTemplateArgumentList@UnDecorator@@CA?AVDName@@XZ 00000001401bacd0 f   libvcruntimed:undname.obj
 0002:000e00a0       ?getTemplateName@UnDecorator@@CA?AVDName@@_N@Z 00000001401bb0a0 f   libvcruntimed:undname.obj
 0002:000e0340       ?getTemplateNonTypeArgument@UnDecorator@@CA?AVDName@@XZ 00000001401bb340 f   libvcruntimed:undname.obj
 0002:000e0de0       ?getTemplateTypeArgument@UnDecorator@@CA?AVDName@@XZ 00000001401bbde0 f   libvcruntimed:undname.obj
 0002:000e1100       ?getThisType@UnDecorator@@CA?AVDName@@XZ 00000001401bc100 f i libvcruntimed:undname.obj
 0002:000e1170       ?getThrowTypes@UnDecorator@@CA?AVDName@@XZ 00000001401bc170 f   libvcruntimed:undname.obj
 0002:000e11b0       ?getTypeEncoding@UnDecorator@@CAHXZ 00000001401bc1b0 f i libvcruntimed:undname.obj
 0002:000e2070       ?getUndecoratedName@UnDecorator@@QEAAPEADPEADH@Z 00000001401bd070 f i libvcruntimed:undname.obj
 0002:000e22e0       ?getUnionObject@UnDecorator@@CA?AVDName@@XZ 00000001401bd2e0 f   libvcruntimed:undname.obj
 0002:000e2430       ?getVCallThunkType@UnDecorator@@CA?AVDName@@XZ 00000001401bd430 f i libvcruntimed:undname.obj
 0002:000e2500       ?getValue@UnDecorator@@CA?AV?$optional@_K@std@@XZ 00000001401bd500 f   libvcruntimed:undname.obj
 0002:000e2600       ?getValueObject@UnDecorator@@CA?AVDName@@XZ 00000001401bd600 f   libvcruntimed:undname.obj
 0002:000e28e0       ?getVbTableType@UnDecorator@@CA?AVDName@@AEBV2@@Z 00000001401bd8e0 f i libvcruntimed:undname.obj
 0002:000e2910       ?getVdispMapType@UnDecorator@@CA?AVDName@@AEBV2@@Z 00000001401bd910 f i libvcruntimed:undname.obj
 0002:000e29e0       ?getVfTableType@UnDecorator@@CA?AVDName@@AEBV2@@Z 00000001401bd9e0 f i libvcruntimed:undname.obj
 0002:000e2d40       ?getZName@UnDecorator@@CA?AVDName@@_N0@Z 00000001401bdd40 f   libvcruntimed:undname.obj
 0002:000e3290       ?get_current_character_and_increment_buffer@UnDecorator@@CADXZ 00000001401be290 f i libvcruntimed:undname.obj
 0002:000e32d0       ?haveTemplateParameters@UnDecorator@@SAHXZ 00000001401be2d0 f i libvcruntimed:undname.obj
 0002:000e32e0       ?increment_buffer@UnDecorator@@CA_N_K@Z 00000001401be2e0 f i libvcruntimed:undname.obj
 0002:000e3350       ?increment_buffer_no_check@UnDecorator@@CAXXZ 00000001401be350 f i libvcruntimed:undname.obj
 0002:000e3370       ?increment_buffer_no_check@UnDecorator@@CAX_K@Z 00000001401be370 f i libvcruntimed:undname.obj
 0002:000e33d0       ?isArray@DName@@QEBAHXZ    00000001401be3d0 f i libvcruntimed:undname.obj
 0002:000e33f0       ?isComArray@DName@@QEBAHXZ 00000001401be3f0 f i libvcruntimed:undname.obj
 0002:000e3410       ?isEmpty@DName@@QEBAHXZ    00000001401be410 f i libvcruntimed:undname.obj
 0002:000e3450       ?isFull@Replicator@@QEBAHXZ 00000001401be450 f i libvcruntimed:undname.obj
 0002:000e3490       ?isNoTE@DName@@QEBAHXZ     00000001401be490 f i libvcruntimed:undname.obj
 0002:000e34b0       ?isPinPtr@DName@@QEBAHXZ   00000001401be4b0 f i libvcruntimed:undname.obj
 0002:000e34d0       ?isPtrRef@DName@@QEBAHXZ   00000001401be4d0 f i libvcruntimed:undname.obj
 0002:000e34f0       ?isUDC@DName@@QEBAHXZ      00000001401be4f0 f i libvcruntimed:undname.obj
 0002:000e3550       ?isUDTThunk@DName@@QEBAHXZ 00000001401be550 f i libvcruntimed:undname.obj
 0002:000e35b0       ?isVCallThunk@DName@@QEBAHXZ 00000001401be5b0 f i libvcruntimed:undname.obj
 0002:000e35d0       ?isValid@DName@@QEBAHXZ    00000001401be5d0 f i libvcruntimed:undname.obj
 0002:000e3620       ?length@DName@@QEBAHXZ     00000001401be620 f i libvcruntimed:undname.obj
 0002:000e3680       ?length@DNameStatusNode@@UEBAHXZ 00000001401be680 f i libvcruntimed:undname.obj
 0002:000e36a0       ?length@charNode@@UEBAHXZ  00000001401be6a0 f i libvcruntimed:undname.obj
 0002:000e36b0       ?length@pDNameNode@@UEBAHXZ 00000001401be6b0 f i libvcruntimed:undname.obj
 0002:000e3700       ?length@pairNode@@UEBAHXZ  00000001401be700 f i libvcruntimed:undname.obj
 0002:000e37b0       ?length@pcharNode@@UEBAHXZ 00000001401be7b0 f i libvcruntimed:undname.obj
 0002:000e37d0       ?make@DNameStatusNode@@SAPEBV1@W4DNameStatus@@@Z 00000001401be7d0 f i libvcruntimed:undname.obj
 0002:000e3830       ?parseDecoratedName@UnDecorator@@CA?AVDName@@XZ 00000001401be830 f   libvcruntimed:undname.obj
 0002:000e3ab0       ?raw_length@DNameStatusNode@@UEBAHXZ 00000001401beab0 f i libvcruntimed:undname.obj
 0002:000e3ad0       ?raw_length@charNode@@UEBAHXZ 00000001401bead0 f i libvcruntimed:undname.obj
 0002:000e3af0       ?raw_length@pDNameNode@@UEBAHXZ 00000001401beaf0 f i libvcruntimed:undname.obj
 0002:000e3b00       ?raw_length@pairNode@@UEBAHXZ 00000001401beb00 f i libvcruntimed:undname.obj
 0002:000e3b20       ?raw_length@pcharNode@@UEBAHXZ 00000001401beb20 f i libvcruntimed:undname.obj
 0002:000e3b40       ?setIsArray@DName@@QEAAXXZ 00000001401beb40 f i libvcruntimed:undname.obj
 0002:000e3b60       ?setIsComArray@DName@@QEAAXXZ 00000001401beb60 f i libvcruntimed:undname.obj
 0002:000e3b80       ?setIsNoTE@DName@@QEAAXXZ  00000001401beb80 f i libvcruntimed:undname.obj
 0002:000e3ba0       ?setIsPinPtr@DName@@QEAAXXZ 00000001401beba0 f i libvcruntimed:undname.obj
 0002:000e3bc0       ?setIsUDC@DName@@QEAAXXZ   00000001401bebc0 f i libvcruntimed:undname.obj
 0002:000e3c00       ?setIsVCallThunk@DName@@QEAAXXZ 00000001401bec00 f i libvcruntimed:undname.obj
 0002:000e3c20       ?setPtrRef@DName@@QEAAAEAV1@XZ 00000001401bec20 f i libvcruntimed:undname.obj
 0002:000e3c50       ?status@DName@@QEBA?AW4DNameStatus@@XZ 00000001401bec50 f i libvcruntimed:undname.obj
 0002:000e3dc0       __unDName                  00000001401bedc0 f   libvcruntimed:undname.obj
 0002:000e3e30       __unDNameEx                00000001401bee30 f   libvcruntimed:undname.obj
 0002:000e3f20       snprintf                   00000001401bef20 f i libvcruntimed:undname.obj
 0002:000e3f90       unDNameGenerateCHPE        00000001401bef90 f   libvcruntimed:undname.obj
 0002:000e4060       vsnprintf                  00000001401bf060 f i libvcruntimed:undname.obj
 0002:000e4100       ??$__crt_interlocked_exchange_pointer@UHINSTANCE__@@PEAU1@@@YAPEAUHINSTANCE__@@PEDSEAU0@QEAU0@@Z 00000001401bf100 f i libvcruntimed:winapi_downlevel.obj
 0002:000e4120       ??$__crt_interlocked_exchange_pointer@UHINSTANCE__@@PEAX@@YAPEAUHINSTANCE__@@PEDSEAU0@QEAX@Z 00000001401bf120 f i libvcruntimed:winapi_downlevel.obj
 0002:000e4140       ??$__crt_interlocked_exchange_pointer@XPEAX@@YAPEAXPEDSEAXQEAX@Z 00000001401bf140 f i libvcruntimed:winapi_downlevel.obj
 0002:000e4160       ??$__crt_interlocked_read_pointer@UHINSTANCE__@@@@YAPEAUHINSTANCE__@@PEDSEAU0@@Z 00000001401bf160 f i libvcruntimed:winapi_downlevel.obj
 0002:000e4180       ??$__crt_interlocked_read_pointer@X@@YAPEAXPEDSEAX@Z 00000001401bf180 f i libvcruntimed:winapi_downlevel.obj
 0002:000e47e0       __vcrt_FlsAlloc            00000001401bf7e0 f   libvcruntimed:winapi_downlevel.obj
 0002:000e4840       __vcrt_FlsFree             00000001401bf840 f   libvcruntimed:winapi_downlevel.obj
 0002:000e48b0       __vcrt_FlsGetValue         00000001401bf8b0 f   libvcruntimed:winapi_downlevel.obj
 0002:000e4920       __vcrt_FlsSetValue         00000001401bf920 f   libvcruntimed:winapi_downlevel.obj
 0002:000e49a0       __vcrt_InitializeCriticalSectionEx 00000001401bf9a0 f   libvcruntimed:winapi_downlevel.obj
 0002:000e4a70       _CallSettingFrame          00000001401bfa70 f   libvcruntimed:handlers.obj
 0002:000e4ac0       _CallSettingFrame_LookupContinuationIndex 00000001401bfac0 f   libvcruntimed:handlers.obj
 0002:000e4b00       _CallSettingFrame_NotifyContinuationAddr 00000001401bfb00 f   libvcruntimed:handlers.obj
 0002:000e4b30       _CallSettingFrameEncoded   00000001401bfb30 f   libvcruntimed:handlers.obj
 0002:000e4b90       ??$__crt_fast_decode_pointer@P6AXPEB_W00I_K@Z@@YAP6AXPEB_W00I_K@ZQ6AX000I1@Z@Z 00000001401bfb90 f i libucrtd:invalid_parameter.obj
 0002:000e4be0       ??$__crt_fast_encode_pointer@P6AXPEB_W00I_K@Z@@YAP6AXPEB_W00I_K@ZQ6AX000I1@Z@Z 00000001401bfbe0 f i libucrtd:invalid_parameter.obj
 0002:000e4c30       ??$initialize_from_array@$$BY00Q6AXPEB_W00I_K@Z@?$dual_state_global@P6AXPEB_W00I_K@Z@__crt_state_management@@QEAAXAEAY00Q6AXPEB_W00I_K@Z@Z 00000001401bfc30 f i libucrtd:invalid_parameter.obj
 0002:000e4cb0       ??0?$cached@H@__crt_cached_ptd_host@@QEAA@XZ 00000001401bfcb0 f i libucrtd:invalid_parameter.obj
 0002:000e4cd0       ??0?$cached@K@__crt_cached_ptd_host@@QEAA@XZ 00000001401bfcd0 f i libucrtd:invalid_parameter.obj
 0002:000e4cf0       ??0__crt_cached_ptd_host@@QEAA@QEAU__crt_locale_pointers@@@Z 00000001401bfcf0 f i libucrtd:invalid_parameter.obj
 0002:000e4dd0       ??0__crt_scoped_get_last_error_reset@@QEAA@XZ 00000001401bfdd0 f i libucrtd:invalid_parameter.obj
 0002:000e4e00       ??1__crt_cached_ptd_host@@QEAA@XZ 00000001401bfe00 f i libucrtd:invalid_parameter.obj
 0002:000e4ed0       ??1__crt_scoped_get_last_error_reset@@QEAA@XZ 00000001401bfed0 f i libucrtd:invalid_parameter.obj
 0002:000e4f00       ?__crt_rotate_pointer_value@@YA_K_KH@Z 00000001401bff00 f i libucrtd:invalid_parameter.obj
 0002:000e4fe0       ?check_synchronize_global_state_index@__crt_cached_ptd_host@@AEAA_KAEBV__crt_scoped_get_last_error_reset@@@Z 00000001401bffe0 f i libucrtd:invalid_parameter.obj
 0002:000e5030       ?check_synchronize_global_state_index@__crt_cached_ptd_host@@AEAA_KXZ 00000001401c0030 f i libucrtd:invalid_parameter.obj
 0002:000e50a0       ?check_synchronize_per_thread_data@__crt_cached_ptd_host@@AEAAPEAU__acrt_ptd@@XZ 00000001401c00a0 f i libucrtd:invalid_parameter.obj
 0002:000e50f0       ?dangerous_get_state_array@?$dual_state_global@P6AXPEB_W00I_K@Z@__crt_state_management@@QEAAPEAP6AXPEB_W00I_K@ZXZ 00000001401c00f0 f i libucrtd:invalid_parameter.obj
 0002:000e5100       ?force_synchronize_global_state_index@__crt_cached_ptd_host@@AEAA_KAEBV__crt_scoped_get_last_error_reset@@@Z 00000001401c0100 f i libucrtd:invalid_parameter.obj
 0002:000e5150       ?force_synchronize_per_thread_data@__crt_cached_ptd_host@@AEAAPEAU__acrt_ptd@@XZ 00000001401c0150 f i libucrtd:invalid_parameter.obj
 0002:000e51d0       ?get_current_global_state_index@__crt_cached_ptd_host@@QEAA_KXZ 00000001401c01d0 f i libucrtd:invalid_parameter.obj
 0002:000e51f0       ?get_current_state_index@__crt_state_management@@YA_KAEBV__crt_scoped_get_last_error_reset@@@Z 00000001401c01f0 f i libucrtd:invalid_parameter.obj
 0002:000e5200       ?get_current_state_index@__crt_state_management@@YA_KXZ 00000001401c0200 f i libucrtd:invalid_parameter.obj
 0002:000e5210       ?get_raw_ptd@__crt_cached_ptd_host@@QEAAPEAU__acrt_ptd@@XZ 00000001401c0210 f i libucrtd:invalid_parameter.obj
 0002:000e5230       ?get_raw_ptd_noexit@__crt_cached_ptd_host@@QEAAPEAU__acrt_ptd@@XZ 00000001401c0230 f i libucrtd:invalid_parameter.obj
 0002:000e5250       ?try_synchronize_per_thread_data@__crt_cached_ptd_host@@AEAAPEAU__acrt_ptd@@XZ 00000001401c0250 f i libucrtd:invalid_parameter.obj
 0002:000e5290       ?unsafe_value@?$cached@H@__crt_cached_ptd_host@@QEAAHXZ 00000001401c0290 f i libucrtd:invalid_parameter.obj
 0002:000e52a0       ?unsafe_value@?$cached@K@__crt_cached_ptd_host@@QEAAKXZ 00000001401c02a0 f i libucrtd:invalid_parameter.obj
 0002:000e52b0       ?valid@?$cached@H@__crt_cached_ptd_host@@QEBA_NXZ 00000001401c02b0 f i libucrtd:invalid_parameter.obj
 0002:000e52d0       ?valid@?$cached@K@__crt_cached_ptd_host@@QEBA_NXZ 00000001401c02d0 f i libucrtd:invalid_parameter.obj
 0002:000e52f0       ?value@?$dual_state_global@P6AXPEB_W00I_K@Z@__crt_state_management@@QEAAAEAP6AXPEB_W00I_K@ZAEAV__crt_cached_ptd_host@@@Z 00000001401c02f0 f i libucrtd:invalid_parameter.obj
 0002:000e5320       ?value@?$dual_state_global@P6AXPEB_W00I_K@Z@__crt_state_management@@QEAAAEAP6AXPEB_W00I_K@ZXZ 00000001401c0320 f i libucrtd:invalid_parameter.obj
 0002:000e5350       __acrt_call_reportfault    00000001401c0350 f   libucrtd:invalid_parameter.obj
 0002:000e54d0       __acrt_enable_global_locale_sync 00000001401c04d0 f i libucrtd:invalid_parameter.obj
 0002:000e5510       __acrt_initialize_invalid_parameter_handler 00000001401c0510 f   libucrtd:invalid_parameter.obj
 0002:000e5550       __acrt_locale_changed      00000001401c0550 f i libucrtd:invalid_parameter.obj
 0002:000e5580       _get_invalid_parameter_handler 00000001401c0580 f   libucrtd:invalid_parameter.obj
 0002:000e55b0       _get_thread_local_invalid_parameter_handler 00000001401c05b0 f   libucrtd:invalid_parameter.obj
 0002:000e55f0       _invalid_parameter         00000001401c05f0 f   libucrtd:invalid_parameter.obj
 0002:000e5680       _invalid_parameter_internal 00000001401c0680 f   libucrtd:invalid_parameter.obj
 0002:000e5820       _invalid_parameter_noinfo  00000001401c0820 f   libucrtd:invalid_parameter.obj
 0002:000e5850       _invalid_parameter_noinfo_noreturn 00000001401c0850 f   libucrtd:invalid_parameter.obj
 0002:000e58a0       _invoke_watson             00000001401c08a0 f   libucrtd:invalid_parameter.obj
 0002:000e5920       _set_invalid_parameter_handler 00000001401c0920 f   libucrtd:invalid_parameter.obj
 0002:000e5990       _set_thread_local_invalid_parameter_handler 00000001401c0990 f   libucrtd:invalid_parameter.obj
 0002:000e59e0       free                       00000001401c09e0 f   libucrtd:free.obj
 0002:000e5a20       ??$?RPEAU__crt_stdio_stream_data@@@__crt_internal_free_policy@@QEBAXQEBQEAU__crt_stdio_stream_data@@@Z 00000001401c0a20 f i libucrtd:_file.obj
 0002:000e5a50       ??0?$__crt_unique_heap_ptr@PEAU__crt_stdio_stream_data@@U__crt_internal_free_policy@@@@QEAA@QEAPEAU__crt_stdio_stream_data@@@Z 00000001401c0a50 f i libucrtd:_file.obj
 0002:000e5a80       ??0__crt_stdio_stream@@QEAA@QEAU_iobuf@@@Z 00000001401c0a80 f i libucrtd:_file.obj
 0002:000e5ab0       ??1?$__crt_unique_heap_ptr@PEAU__crt_stdio_stream_data@@U__crt_internal_free_policy@@@@QEAA@XZ 00000001401c0ab0 f i libucrtd:_file.obj
 0002:000e5ad0       ??C__crt_stdio_stream@@QEBAPEAU__crt_stdio_stream_data@@XZ 00000001401c0ad0 f i libucrtd:_file.obj
 0002:000e5af0       ?detach@?$__crt_unique_heap_ptr@PEAU__crt_stdio_stream_data@@U__crt_internal_free_policy@@@@QEAAPEAPEAU__crt_stdio_stream_data@@XZ 00000001401c0af0 f i libucrtd:_file.obj
 0002:000e5b30       ?release@?$__crt_unique_heap_ptr@PEAU__crt_stdio_stream_data@@U__crt_internal_free_policy@@@@QEAAXXZ 00000001401c0b30 f i libucrtd:_file.obj
 0002:000e5b70       __acrt_initialize_stdio    00000001401c0b70 f   libucrtd:_file.obj
 0002:000e5dd0       __acrt_iob_func            00000001401c0dd0 f   libucrtd:_file.obj
 0002:000e5df0       __acrt_uninitialize_stdio  00000001401c0df0 f   libucrtd:_file.obj
 0002:000e5ea0       _get_stream_buffer_pointers 00000001401c0ea0 f   libucrtd:_file.obj
 0002:000e6020       _lock_file                 00000001401c1020 f   libucrtd:_file.obj
 0002:000e6060       _unlock_file               00000001401c1060 f   libucrtd:_file.obj
 0002:000e60a0       ??$__crt_interlocked_read@J@@YAJPEDJ@Z 00000001401c10a0 f i libucrtd:fclose.obj
 0002:000e60c0       ?__crt_interlocked_read_32@@YAHPEDH@Z 00000001401c10c0 f i libucrtd:fclose.obj
 0002:000e64d0       ?get_errno@__crt_cached_ptd_host@@QEAA@XZ 00000001401c14d0 f i libucrtd:fclose.obj
 0002:000e64f0       ?get_flags@__crt_stdio_stream@@QEBAJXZ 00000001401c14f0 f i libucrtd:fclose.obj
 0002:000e6520       ?is_in_use@__crt_stdio_stream@@QEBA_NXZ 00000001401c1520 f i libucrtd:fclose.obj
 0002:000e6570       ?is_string_backed@__crt_stdio_stream@@QEBA_NXZ 00000001401c1570 f i libucrtd:fclose.obj
 0002:000e65c0       ?public_stream@__crt_stdio_stream@@QEBAPEAU_iobuf@@XZ 00000001401c15c0 f i libucrtd:fclose.obj
 0002:000e65e0       ?set@?$cached@H@__crt_cached_ptd_host@@QEAAHH@Z 00000001401c15e0 f i libucrtd:fclose.obj
 0002:000e6610       ?valid@__crt_stdio_stream@@QEBA_NXZ 00000001401c1610 f i libucrtd:fclose.obj
 0002:000e6650       _fclose_nolock             00000001401c1650 f   libucrtd:fclose.obj
 0002:000e66a0       fclose                     00000001401c16a0 f   libucrtd:fclose.obj
 0002:000e6b90       ??0__crt_stdio_stream@@QEAA@QEAU__crt_stdio_stream_data@@@Z 00000001401c1b90 f i libucrtd:fflush.obj
 0002:000e6f00       ?__acrt_stdio_reset_buffer@@YAXV__crt_stdio_stream@@@Z 00000001401c1f00 f i libucrtd:fflush.obj
 0002:000e7140       ?has_all_of@__crt_stdio_stream@@QEBA_NJ@Z 00000001401c2140 f i libucrtd:fflush.obj
 0002:000e7260       ?set_flags@__crt_stdio_stream@@QEBA_NJ@Z 00000001401c2260 f i libucrtd:fflush.obj
 0002:000e72e0       ?unset_flags@__crt_stdio_stream@@QEBA_NJ@Z 00000001401c22e0 f i libucrtd:fflush.obj
 0002:000e7350       __acrt_stdio_flush_nolock  00000001401c2350 f   libucrtd:fflush.obj
 0002:000e74b0       _fflush_nolock             00000001401c24b0 f   libucrtd:fflush.obj
 0002:000e7500       _flushall                  00000001401c2500 f   libucrtd:fflush.obj
 0002:000e7520       fflush                     00000001401c2520 f   libucrtd:fflush.obj
 0002:000e75d0       _fgetc_nolock              00000001401c25d0 f   libucrtd:fgetc.obj
 0002:000e7780       _fgetchar                  00000001401c2780 f   libucrtd:fgetc.obj
 0002:000e77a0       _getc_nolock               00000001401c27a0 f   libucrtd:fgetc.obj
 0002:000e77c0       fgetc                      00000001401c27c0 f   libucrtd:fgetc.obj
 0002:000e7b30       getc                       00000001401c2b30 f   libucrtd:fgetc.obj
 0002:000e7b50       getchar                    00000001401c2b50 f   libucrtd:fgetc.obj
 0002:000e7b70       fgetpos                    00000001401c2b70 f   libucrtd:fgetpos.obj
 0002:000e8120       _fputc_nolock              00000001401c3120 f   libucrtd:fputc.obj
 0002:000e8180       _fputc_nolock_internal     00000001401c3180 f   libucrtd:fputc.obj
 0002:000e8270       _fputchar                  00000001401c3270 f   libucrtd:fputc.obj
 0002:000e82a0       _putc_nolock               00000001401c32a0 f   libucrtd:fputc.obj
 0002:000e82d0       fputc                      00000001401c32d0 f   libucrtd:fputc.obj
 0002:000e8330       putc                       00000001401c3330 f   libucrtd:fputc.obj
 0002:000e8360       putchar                    00000001401c3360 f   libucrtd:fputc.obj
 0002:000e8380       ?has_any_buffer@__crt_stdio_stream@@QEBA_NXZ 00000001401c3380 f i libucrtd:fread.obj
 0002:000e83b0       ?has_any_of@__crt_stdio_stream@@QEBA_NJ@Z 00000001401c33b0 f i libucrtd:fread.obj
 0002:000e8400       _fread_nolock              00000001401c3400 f   libucrtd:fread.obj
 0002:000e8460       _fread_nolock_s            00000001401c3460 f   libucrtd:fread.obj
 0002:000e9080       fread                      00000001401c4080 f   libucrtd:fread.obj
 0002:000e90e0       fread_s                    00000001401c40e0 f   libucrtd:fread.obj
 0002:000e9410       fsetpos                    00000001401c4410 f   libucrtd:fsetpos.obj
 0002:000e95f0       ?LongLongSub@@YAJ_J0PEA_J@Z 00000001401c45f0 f i libucrtd:fseek.obj
 0002:000e9ea0       ?lowio_handle@__crt_stdio_stream@@QEBAHXZ 00000001401c4ea0 f i libucrtd:fseek.obj
 0002:000e9ed0       _fseek_nolock              00000001401c4ed0 f   libucrtd:fseek.obj
 0002:000e9f70       _fseeki64                  00000001401c4f70 f   libucrtd:fseek.obj
 0002:000e9ff0       _fseeki64_nolock           00000001401c4ff0 f   libucrtd:fseek.obj
 0002:000ea070       fseek                      00000001401c5070 f   libucrtd:fseek.obj
 0002:000ea2e0       ??0__acrt_stdio_temporary_buffering_guard@@QEAA@QEAU_iobuf@@AEAV__crt_cached_ptd_host@@@Z 00000001401c52e0 f i libucrtd:fwrite.obj
 0002:000ea340       ??1__acrt_stdio_temporary_buffering_guard@@QEAA@XZ 00000001401c5340 f i libucrtd:fwrite.obj
 0002:000ea490       ?has_big_buffer@__crt_stdio_stream@@QEBA_NXZ 00000001401c5490 f i libucrtd:fwrite.obj
 0002:000ea4c0       _fwrite_internal           00000001401c54c0 f   libucrtd:fwrite.obj
 0002:000ea680       _fwrite_nolock             00000001401c5680 f   libucrtd:fwrite.obj
 0002:000ea710       _fwrite_nolock_internal    00000001401c5710 f   libucrtd:fwrite.obj
 0002:000eb140       fwrite                     00000001401c6140 f   libucrtd:fwrite.obj
 0002:000eba50       ?detach@?$__crt_unique_heap_ptr@DU__crt_internal_free_policy@@@@QEAAPEADXZ 00000001401c6a50 f i libucrtd:setvbuf.obj
 0002:000ebb30       setvbuf                    00000001401c6b30 f   libucrtd:setvbuf.obj
 0002:000ebbc0       _ungetc_nolock             00000001401c6bc0 f   libucrtd:ungetc.obj
 0002:000ec040       ungetc                     00000001401c7040 f   libucrtd:ungetc.obj
 0002:000ec170       ??0_LocaleUpdate@@QEAA@QEAU__crt_locale_pointers@@@Z 00000001401c7170 f i libucrtd:debug_heap.obj
 0002:000ec2d0       ??1_LocaleUpdate@@QEAA@XZ  00000001401c72d0 f i libucrtd:debug_heap.obj
 0002:000ec310       ?GetLocaleT@_LocaleUpdate@@QEAAPEAU__crt_locale_pointers@@XZ 00000001401c7310 f i libucrtd:debug_heap.obj
 0002:000eefb0       _CrtCheckMemory            00000001401c9fb0 f   libucrtd:debug_heap.obj
 0002:000ef1b0       _CrtDoForAllClientObjects  00000001401ca1b0 f   libucrtd:debug_heap.obj
 0002:000ef350       _CrtDumpMemoryLeaks        00000001401ca350 f   libucrtd:debug_heap.obj
 0002:000ef440       _CrtGetAllocHook           00000001401ca440 f   libucrtd:debug_heap.obj
 0002:000ef450       _CrtGetDumpClient          00000001401ca450 f   libucrtd:debug_heap.obj
 0002:000ef460       _CrtIsMemoryBlock          00000001401ca460 f   libucrtd:debug_heap.obj
 0002:000ef5f0       _CrtIsValidHeapPointer     00000001401ca5f0 f   libucrtd:debug_heap.obj
 0002:000ef650       _CrtIsValidPointer         00000001401ca650 f   libucrtd:debug_heap.obj
 0002:000ef690       _CrtMemCheckpoint          00000001401ca690 f   libucrtd:debug_heap.obj
 0002:000ef9b0       _CrtMemDifference          00000001401ca9b0 f   libucrtd:debug_heap.obj
 0002:000efde0       _CrtMemDumpAllObjectsSince 00000001401cade0 f   libucrtd:debug_heap.obj
 0002:000efe50       _CrtMemDumpStatistics      00000001401cae50 f   libucrtd:debug_heap.obj
 0002:000f0050       _CrtReportBlockType        00000001401cb050 f   libucrtd:debug_heap.obj
 0002:000f0090       _CrtSetAllocHook           00000001401cb090 f   libucrtd:debug_heap.obj
 0002:000f00d0       _CrtSetBreakAlloc          00000001401cb0d0 f   libucrtd:debug_heap.obj
 0002:000f0100       _CrtSetDbgBlockType        00000001401cb100 f   libucrtd:debug_heap.obj
 0002:000f01c0       _CrtSetDbgFlag             00000001401cb1c0 f   libucrtd:debug_heap.obj
 0002:000f0370       _CrtSetDumpClient          00000001401cb370 f   libucrtd:debug_heap.obj
 0002:000f03b0       __acrt_disable_global_locale_sync 00000001401cb3b0 f i libucrtd:debug_heap.obj
 0002:000f03e0       __acrt_get_locale_data_prefix 00000001401cb3e0 f i libucrtd:debug_heap.obj
 0002:000f0410       __p__crtBreakAlloc         00000001401cb410 f   libucrtd:debug_heap.obj
 0002:000f0420       __p__crtDbgFlag            00000001401cb420 f   libucrtd:debug_heap.obj
 0002:000f0430       _aligned_free_dbg          00000001401cb430 f   libucrtd:debug_heap.obj
 0002:000f0550       _aligned_malloc_dbg        00000001401cb550 f   libucrtd:debug_heap.obj
 0002:000f05a0       _aligned_msize_dbg         00000001401cb5a0 f   libucrtd:debug_heap.obj
 0002:000f07e0       _aligned_offset_malloc_dbg 00000001401cb7e0 f   libucrtd:debug_heap.obj
 0002:000f0b80       _aligned_offset_realloc_dbg 00000001401cbb80 f   libucrtd:debug_heap.obj
 0002:000f1160       _aligned_offset_recalloc_dbg 00000001401cc160 f   libucrtd:debug_heap.obj
 0002:000f12c0       _aligned_realloc_dbg       00000001401cc2c0 f   libucrtd:debug_heap.obj
 0002:000f1320       _aligned_recalloc_dbg      00000001401cc320 f   libucrtd:debug_heap.obj
 0002:000f1390       _calloc_dbg                00000001401cc390 f   libucrtd:debug_heap.obj
 0002:000f1450       _chvalidchk_l              00000001401cc450 f i libucrtd:debug_heap.obj
 0002:000f1490       _expand_dbg                00000001401cc490 f   libucrtd:debug_heap.obj
 0002:000f1610       _free_dbg                  00000001401cc610 f   libucrtd:debug_heap.obj
 0002:000f1690       _invoke_watson_if_oneof    00000001401cc690 f i libucrtd:debug_heap.obj
 0002:000f1710       _ischartype_l              00000001401cc710 f i libucrtd:debug_heap.obj
 0002:000f17c0       _malloc_dbg                00000001401cc7c0 f   libucrtd:debug_heap.obj
 0002:000f1810       _msize_dbg                 00000001401cc810 f   libucrtd:debug_heap.obj
 0002:000f1a10       _realloc_dbg               00000001401cca10 f   libucrtd:debug_heap.obj
 0002:000f1aa0       _recalloc_dbg              00000001401ccaa0 f   libucrtd:debug_heap.obj
 0002:000f1be0       ??$?RU?$__crt_report_hook_node@D@@@__crt_internal_free_policy@@QEBAXQEBU?$__crt_report_hook_node@D@@@Z 00000001401ccbe0 f i libucrtd:dbgrpt.obj
 0002:000f1c10       ??$?RU?$__crt_report_hook_node@_W@@@__crt_internal_free_policy@@QEBAXQEBU?$__crt_report_hook_node@_W@@@Z 00000001401ccc10 f i libucrtd:dbgrpt.obj
 0002:000f3330       ??$get_module_file_name@AEAPEAUHINSTANCE__@@AEAY0BAF@DK@?$__crt_char_traits@D@@SAKAEAPEAUHINSTANCE__@@AEAY0BAF@D$$QEAK@Z 00000001401ce330 f i libucrtd:dbgrpt.obj
 0002:000f3370       ??$get_module_file_name@AEAPEAUHINSTANCE__@@AEAY0BAF@_WK@?$__crt_char_traits@_W@@SAKAEAPEAUHINSTANCE__@@AEAY0BAF@_W$$QEAK@Z 00000001401ce370 f i libucrtd:dbgrpt.obj
 0002:000f33b0       ??$tcscpy_s@AEAY0BAF@D_KPEBD@?$__crt_char_traits@D@@SAHAEAY0BAF@D$$QEA_K$$QEAPEBD@Z 00000001401ce3b0 f i libucrtd:dbgrpt.obj
 0002:000f33f0       ??$tcscpy_s@AEAY0BAF@_W_KPEB_W@?$__crt_char_traits@_W@@SAHAEAY0BAF@_W$$QEA_K$$QEAPEB_W@Z 00000001401ce3f0 f i libucrtd:dbgrpt.obj
 0002:000f3430       ??$tcslen@AEAY0BAF@D@?$__crt_char_traits@D@@SA_KAEAY0BAF@D@Z 00000001401ce430 f i libucrtd:dbgrpt.obj
 0002:000f3450       ??$tcslen@AEAY0BAF@_W@?$__crt_char_traits@_W@@SA_KAEAY0BAF@_W@Z 00000001401ce450 f i libucrtd:dbgrpt.obj
 0002:000f3470       ??$tcslen@AEBQEBD@?$__crt_char_traits@D@@SA_KAEBQEBD@Z 00000001401ce470 f i libucrtd:dbgrpt.obj
 0002:000f34a0       ??$tcslen@AEBQEB_W@?$__crt_char_traits@_W@@SA_KAEBQEB_W@Z 00000001401ce4a0 f i libucrtd:dbgrpt.obj
 0002:000f3610       ??0?$__crt_unique_heap_ptr@U?$__crt_report_hook_node@D@@U__crt_internal_free_policy@@@@QEAA@QEAU?$__crt_report_hook_node@D@@@Z 00000001401ce610 f i libucrtd:dbgrpt.obj
 0002:000f3640       ??0?$__crt_unique_heap_ptr@U?$__crt_report_hook_node@_W@@U__crt_internal_free_policy@@@@QEAA@QEAU?$__crt_report_hook_node@_W@@@Z 00000001401ce640 f i libucrtd:dbgrpt.obj
 0002:000f3670       ??1?$__crt_unique_heap_ptr@U?$__crt_report_hook_node@D@@U__crt_internal_free_policy@@@@QEAA@XZ 00000001401ce670 f i libucrtd:dbgrpt.obj
 0002:000f3690       ??1?$__crt_unique_heap_ptr@U?$__crt_report_hook_node@_W@@U__crt_internal_free_policy@@@@QEAA@XZ 00000001401ce690 f i libucrtd:dbgrpt.obj
 0002:000f36b0       ??B?$__crt_unique_heap_ptr@U?$__crt_report_hook_node@D@@U__crt_internal_free_policy@@@@QEBA_NXZ 00000001401ce6b0 f i libucrtd:dbgrpt.obj
 0002:000f36d0       ??B?$__crt_unique_heap_ptr@U?$__crt_report_hook_node@_W@@U__crt_internal_free_policy@@@@QEBA_NXZ 00000001401ce6d0 f i libucrtd:dbgrpt.obj
 0002:000f3f70       ?detach@?$__crt_unique_heap_ptr@U?$__crt_report_hook_node@D@@U__crt_internal_free_policy@@@@QEAAPEAU?$__crt_report_hook_node@D@@XZ 00000001401cef70 f i libucrtd:dbgrpt.obj
 0002:000f3fb0       ?detach@?$__crt_unique_heap_ptr@U?$__crt_report_hook_node@_W@@U__crt_internal_free_policy@@@@QEAAPEAU?$__crt_report_hook_node@_W@@XZ 00000001401cefb0 f i libucrtd:dbgrpt.obj
 0002:000f3ff0       ?get@?$__crt_unique_heap_ptr@U?$__crt_report_hook_node@D@@U__crt_internal_free_policy@@@@QEBAPEAU?$__crt_report_hook_node@D@@XZ 00000001401ceff0 f i libucrtd:dbgrpt.obj
 0002:000f4010       ?get@?$__crt_unique_heap_ptr@U?$__crt_report_hook_node@_W@@U__crt_internal_free_policy@@@@QEBAPEAU?$__crt_report_hook_node@_W@@XZ 00000001401cf010 f i libucrtd:dbgrpt.obj
 0002:000f4090       ?is_valid@?$__crt_unique_heap_ptr@U?$__crt_report_hook_node@D@@U__crt_internal_free_policy@@@@QEBA_NXZ 00000001401cf090 f i libucrtd:dbgrpt.obj
 0002:000f40d0       ?is_valid@?$__crt_unique_heap_ptr@U?$__crt_report_hook_node@_W@@U__crt_internal_free_policy@@@@QEBA_NXZ 00000001401cf0d0 f i libucrtd:dbgrpt.obj
 0002:000f4110       ?release@?$__crt_unique_heap_ptr@U?$__crt_report_hook_node@D@@U__crt_internal_free_policy@@@@QEAAXXZ 00000001401cf110 f i libucrtd:dbgrpt.obj
 0002:000f4150       ?release@?$__crt_unique_heap_ptr@U?$__crt_report_hook_node@_W@@U__crt_internal_free_policy@@@@QEAAXXZ 00000001401cf150 f i libucrtd:dbgrpt.obj
 0002:000f4190       _CrtDbgReport              00000001401cf190 f   libucrtd:dbgrpt.obj
 0002:000f4230       _CrtDbgReportW             00000001401cf230 f   libucrtd:dbgrpt.obj
 0002:000f42d0       _CrtSetReportHook2         00000001401cf2d0 f   libucrtd:dbgrpt.obj
 0002:000f4300       _CrtSetReportHookW2        00000001401cf300 f   libucrtd:dbgrpt.obj
 0002:000f4330       __acrt_MessageWindowA      00000001401cf330 f   libucrtd:dbgrpt.obj
 0002:000f4390       __acrt_MessageWindowW      00000001401cf390 f   libucrtd:dbgrpt.obj
 0002:000f43f0       _invoke_watson_if_error    00000001401cf3f0 f i libucrtd:dbgrpt.obj
 0002:000f4450       _snwprintf_s               00000001401cf450 f i libucrtd:dbgrpt.obj
 0002:000f44d0       _vsnwprintf_s_l            00000001401cf4d0 f i libucrtd:dbgrpt.obj
 0002:000f4570       __acrt_initialize_locks    00000001401cf570 f   libucrtd:locks.obj
 0002:000f4600       __acrt_lock                00000001401cf600 f   libucrtd:locks.obj
 0002:000f4640       __acrt_uninitialize_locks  00000001401cf640 f   libucrtd:locks.obj
 0002:000f46c0       __acrt_unlock              00000001401cf6c0 f   libucrtd:locks.obj
 0002:000f4700       _lock_locales              00000001401cf700 f   libucrtd:locks.obj
 0002:000f4720       _unlock_locales            00000001401cf720 f   libucrtd:locks.obj
 0002:000f4e30       __acrt_should_sync_with_global_locale 00000001401cfe30 f i libucrtd:setlocale.obj
 0002:000f50b0       setlocale                  00000001401d00b0 f   libucrtd:setlocale.obj
 0002:000f5100       _wcsdup                    00000001401d0100 f   libucrtd:wcsdup.obj
 0002:000f5130       _wcsdup_dbg                00000001401d0130 f   libucrtd:wcsdup.obj
 0002:000f5210       __pctype_func              00000001401d0210 f   libucrtd:ctype.obj
 0002:000f5260       __pwctype_func             00000001401d0260 f   libucrtd:ctype.obj
 0002:000f5410       __isascii                  00000001401d0410 f   libucrtd:_ctype.obj
 0002:000f5450       __iscsym                   00000001401d0450 f   libucrtd:_ctype.obj
 0002:000f54a0       __iscsymf                  00000001401d04a0 f   libucrtd:_ctype.obj
 0002:000f54f0       __toascii                  00000001401d04f0 f   libucrtd:_ctype.obj
 0002:000f5500       _isalnum_l                 00000001401d0500 f   libucrtd:_ctype.obj
 0002:000f5530       _isalpha_l                 00000001401d0530 f   libucrtd:_ctype.obj
 0002:000f5560       _isblank_l                 00000001401d0560 f   libucrtd:_ctype.obj
 0002:000f5590       _iscntrl_l                 00000001401d0590 f   libucrtd:_ctype.obj
 0002:000f55c0       _iscsym_l                  00000001401d05c0 f   libucrtd:_ctype.obj
 0002:000f5620       _iscsymf_l                 00000001401d0620 f   libucrtd:_ctype.obj
 0002:000f5680       _isdigit_l                 00000001401d0680 f   libucrtd:_ctype.obj
 0002:000f56b0       _isgraph_l                 00000001401d06b0 f   libucrtd:_ctype.obj
 0002:000f56e0       _islower_l                 00000001401d06e0 f   libucrtd:_ctype.obj
 0002:000f5710       _isprint_l                 00000001401d0710 f   libucrtd:_ctype.obj
 0002:000f5740       _ispunct_l                 00000001401d0740 f   libucrtd:_ctype.obj
 0002:000f5770       _isspace_l                 00000001401d0770 f   libucrtd:_ctype.obj
 0002:000f57a0       _isupper_l                 00000001401d07a0 f   libucrtd:_ctype.obj
 0002:000f57d0       _isxdigit_l                00000001401d07d0 f   libucrtd:_ctype.obj
 0002:000f5800       isalnum                    00000001401d0800 f   libucrtd:_ctype.obj
 0002:000f5830       isalpha                    00000001401d0830 f   libucrtd:_ctype.obj
 0002:000f5860       isblank                    00000001401d0860 f   libucrtd:_ctype.obj
 0002:000f58a0       iscntrl                    00000001401d08a0 f   libucrtd:_ctype.obj
 0002:000f58d0       isdigit                    00000001401d08d0 f   libucrtd:_ctype.obj
 0002:000f5900       isgraph                    00000001401d0900 f   libucrtd:_ctype.obj
 0002:000f5930       islower                    00000001401d0930 f   libucrtd:_ctype.obj
 0002:000f5960       isprint                    00000001401d0960 f   libucrtd:_ctype.obj
 0002:000f5990       ispunct                    00000001401d0990 f   libucrtd:_ctype.obj
 0002:000f59c0       isspace                    00000001401d09c0 f   libucrtd:_ctype.obj
 0002:000f59f0       isupper                    00000001401d09f0 f   libucrtd:_ctype.obj
 0002:000f5a20       isxdigit                   00000001401d0a20 f   libucrtd:_ctype.obj
 0002:000f5a50       ??$?RG@__crt_internal_free_policy@@QEBAXQEBG@Z 00000001401d0a50 f i libucrtd:initctype.obj
 0002:000f5a80       ??$?RJ@__crt_internal_free_policy@@QEBAXQEBJ@Z 00000001401d0a80 f i libucrtd:initctype.obj
 0002:000f5ab0       ??0?$__crt_unique_heap_ptr@GU__crt_internal_free_policy@@@@QEAA@QEAG@Z 00000001401d0ab0 f i libucrtd:initctype.obj
 0002:000f5ae0       ??0?$__crt_unique_heap_ptr@JU__crt_internal_free_policy@@@@QEAA@QEAJ@Z 00000001401d0ae0 f i libucrtd:initctype.obj
 0002:000f5b10       ??1?$__crt_unique_heap_ptr@GU__crt_internal_free_policy@@@@QEAA@XZ 00000001401d0b10 f i libucrtd:initctype.obj
 0002:000f5b30       ??1?$__crt_unique_heap_ptr@JU__crt_internal_free_policy@@@@QEAA@XZ 00000001401d0b30 f i libucrtd:initctype.obj
 0002:000f5b50       ?detach@?$__crt_unique_heap_ptr@EU__crt_internal_free_policy@@@@QEAAPEAEXZ 00000001401d0b50 f i libucrtd:initctype.obj
 0002:000f5b90       ?detach@?$__crt_unique_heap_ptr@GU__crt_internal_free_policy@@@@QEAAPEAGXZ 00000001401d0b90 f i libucrtd:initctype.obj
 0002:000f5bd0       ?detach@?$__crt_unique_heap_ptr@JU__crt_internal_free_policy@@@@QEAAPEAJXZ 00000001401d0bd0 f i libucrtd:initctype.obj
 0002:000f5c10       ?release@?$__crt_unique_heap_ptr@GU__crt_internal_free_policy@@@@QEAAXXZ 00000001401d0c10 f i libucrtd:initctype.obj
 0002:000f5c50       ?release@?$__crt_unique_heap_ptr@JU__crt_internal_free_policy@@@@QEAAXXZ 00000001401d0c50 f i libucrtd:initctype.obj
 0002:000f5c90       ___lc_codepage_func        00000001401d0c90 f   libucrtd:initctype.obj
 0002:000f5ce0       ___lc_collate_cp_func      00000001401d0ce0 f   libucrtd:initctype.obj
 0002:000f5d30       ___lc_locale_name_func     00000001401d0d30 f   libucrtd:initctype.obj
 0002:000f5d80       ___mb_cur_max_func         00000001401d0d80 f   libucrtd:initctype.obj
 0002:000f5dd0       ___mb_cur_max_l_func       00000001401d0dd0 f   libucrtd:initctype.obj
 0002:000f5e20       __acrt_locale_initialize_ctype 00000001401d0e20 f   libucrtd:initctype.obj
 0002:000f74a0       ??$open_file@AEBQEBDAEBQEBDAEBHPEAU_iobuf@@@?$__crt_char_traits@D@@SAPEAU_iobuf@@AEBQEBD0AEBH$$QEAPEAU1@@Z 00000001401d24a0 f i libucrtd:fopen.obj
 0002:000f7500       ??$open_file@AEBQEB_WAEBQEB_WAEBHPEAU_iobuf@@@?$__crt_char_traits@_W@@SAPEAU_iobuf@@AEBQEB_W0AEBH$$QEAPEAU1@@Z 00000001401d2500 f i libucrtd:fopen.obj
 0002:000f7560       ?unlock@__crt_stdio_stream@@QEBAXXZ 00000001401d2560 f i libucrtd:fopen.obj
 0002:000f7590       _fsopen                    00000001401d2590 f   libucrtd:fopen.obj
 0002:000f75d0       _wfopen                    00000001401d25d0 f   libucrtd:fopen.obj
 0002:000f7610       _wfopen_s                  00000001401d2610 f   libucrtd:fopen.obj
 0002:000f7650       _wfsopen                   00000001401d2650 f   libucrtd:fopen.obj
 0002:000f7690       fopen                      00000001401d2690 f   libucrtd:fopen.obj
 0002:000f76d0       fopen_s                    00000001401d26d0 f   libucrtd:fopen.obj
 0002:000f7710       _set_abort_behavior        00000001401d2710 f   libucrtd:abort.obj
 0002:000f7760       abort                      00000001401d2760 f   libucrtd:abort.obj
 0002:000f7970       _d_int                     00000001401d2970 f   libucrtd:_test.obj
 0002:000f7d70       _dtest                     00000001401d2d70 f   libucrtd:_test.obj
 0002:000f7f10       _fd_int                    00000001401d2f10 f   libucrtd:_test.obj
 0002:000f81d0       _fdtest                    00000001401d31d0 f   libucrtd:_test.obj
 0002:000f82f0       _fperrraise                00000001401d32f0 f   libucrtd:_test.obj
 0002:000f8330       _ld_int                    00000001401d3330 f   libucrtd:_test.obj
 0002:000f8360       _ldtest                    00000001401d3360 f   libucrtd:_test.obj
 0002:000f8380       _abs64                     00000001401d3380 f   libucrtd:abs.obj
 0002:000f83c0       abs                        00000001401d33c0 f   libucrtd:abs.obj
 0002:000f8400       llabs                      00000001401d3400 f   libucrtd:llabs.obj
 0002:000f8460       fabs                       00000001401d3460 f   libucrtd:fabs.obj
 0002:000f8480       frexp                      00000001401d3480 f   libucrtd:frexp.obj
 0002:000f8720       ?get_doserrno@__crt_cached_ptd_host@@QEAA@XZ 00000001401d3720 f i libucrtd:errno.obj
 0002:000f8740       ?set@?$cached@K@__crt_cached_ptd_host@@QEAAKK@Z 00000001401d3740 f i libucrtd:errno.obj
 0002:000f8770       __acrt_errno_from_os_error 00000001401d3770 f   libucrtd:errno.obj
 0002:000f8820       __acrt_errno_map_os_error  00000001401d3820 f   libucrtd:errno.obj
 0002:000f8860       __acrt_errno_map_os_error_ptd 00000001401d3860 f   libucrtd:errno.obj
 0002:000f88d0       __doserrno                 00000001401d38d0 f   libucrtd:errno.obj
 0002:000f8910       _errno                     00000001401d3910 f   libucrtd:errno.obj
 0002:000f8950       _get_doserrno              00000001401d3950 f   libucrtd:errno.obj
 0002:000f8a40       _get_errno                 00000001401d3a40 f   libucrtd:errno.obj
 0002:000f8b30       _set_doserrno              00000001401d3b30 f   libucrtd:errno.obj
 0002:000f8b70       _set_errno                 00000001401d3b70 f   libucrtd:errno.obj
 0002:000f8bb0       ??$assemble_floating_point_ind@M@__crt_strtox@@YAXAEAM@Z 00000001401d3bb0 f i libucrtd:strtod.obj
 0002:000f8c10       ??$assemble_floating_point_ind@N@__crt_strtox@@YAXAEAN@Z 00000001401d3c10 f i libucrtd:strtod.obj
 0002:000f8cb0       ??$assemble_floating_point_infinity@M@__crt_strtox@@YAX_NAEAM@Z 00000001401d3cb0 f i libucrtd:strtod.obj
 0002:000f8d50       ??$assemble_floating_point_infinity@N@__crt_strtox@@YAX_NAEAN@Z 00000001401d3d50 f i libucrtd:strtod.obj
 0002:000f8e20       ??$assemble_floating_point_qnan@M@__crt_strtox@@YAX_NAEAM@Z 00000001401d3e20 f i libucrtd:strtod.obj
 0002:000f8ec0       ??$assemble_floating_point_qnan@N@__crt_strtox@@YAX_NAEAN@Z 00000001401d3ec0 f i libucrtd:strtod.obj
 0002:000f8f90       ??$assemble_floating_point_snan@M@__crt_strtox@@YAX_NAEAM@Z 00000001401d3f90 f i libucrtd:strtod.obj
 0002:000f9030       ??$assemble_floating_point_snan@N@__crt_strtox@@YAX_NAEAN@Z 00000001401d4030 f i libucrtd:strtod.obj
 0002:000f9100       ??$assemble_floating_point_value_t@M@__crt_strtox@@YA?AW4SLD_STATUS@@_NH_KAEAM@Z 00000001401d4100 f i libucrtd:strtod.obj
 0002:000f91b0       ??$assemble_floating_point_value_t@N@__crt_strtox@@YA?AW4SLD_STATUS@@_NH_KAEAN@Z 00000001401d41b0 f i libucrtd:strtod.obj
 0002:000f92a0       ??$assemble_floating_point_zero@M@__crt_strtox@@YAX_NAEAM@Z 00000001401d42a0 f i libucrtd:strtod.obj
 0002:000f9340       ??$assemble_floating_point_zero@N@__crt_strtox@@YAX_NAEAN@Z 00000001401d4340 f i libucrtd:strtod.obj
 0002:000f9bd0       ??$convert_decimal_string_to_floating_type@M@__crt_strtox@@YA?AW4SLD_STATUS@@AEBUfloating_point_string@0@AEAM@Z 00000001401d4bd0 f i libucrtd:strtod.obj
 0002:000f9c10       ??$convert_decimal_string_to_floating_type@N@__crt_strtox@@YA?AW4SLD_STATUS@@AEBUfloating_point_string@0@AEAN@Z 00000001401d4c10 f i libucrtd:strtod.obj
 0002:000f9c50       ??$convert_hexadecimal_string_to_floating_type@M@__crt_strtox@@YA?AW4SLD_STATUS@@AEBUfloating_point_string@0@AEAM@Z 00000001401d4c50 f i libucrtd:strtod.obj
 0002:000f9c90       ??$convert_hexadecimal_string_to_floating_type@N@__crt_strtox@@YA?AW4SLD_STATUS@@AEBUfloating_point_string@0@AEAN@Z 00000001401d4c90 f i libucrtd:strtod.obj
 0002:000f9cd0       ??$make_c_string_character_source@DPEAPEAD@__crt_strtox@@YA?AV?$c_string_character_source@D@0@QEBDQEAPEAD@Z 00000001401d4cd0 f i libucrtd:strtod.obj
 0002:000f9d10       ??$make_c_string_character_source@_WPEAPEA_W@__crt_strtox@@YA?AV?$c_string_character_source@_W@0@QEB_WQEAPEA_W@Z 00000001401d4d10 f i libucrtd:strtod.obj
 0002:000f9d50       ??$parse_floating_point@V?$c_string_character_source@D@__crt_strtox@@M@__crt_strtox@@YA?AW4SLD_STATUS@@QEAU__crt_locale_pointers@@V?$c_string_character_source@D@0@QEAM@Z 00000001401d4d50 f i libucrtd:strtod.obj
 0002:000f9fe0       ??$parse_floating_point@V?$c_string_character_source@D@__crt_strtox@@N@__crt_strtox@@YA?AW4SLD_STATUS@@QEAU__crt_locale_pointers@@V?$c_string_character_source@D@0@QEAN@Z 00000001401d4fe0 f i libucrtd:strtod.obj
 0002:000fa270       ??$parse_floating_point@V?$c_string_character_source@_W@__crt_strtox@@M@__crt_strtox@@YA?AW4SLD_STATUS@@QEAU__crt_locale_pointers@@V?$c_string_character_source@_W@0@QEAM@Z 00000001401d5270 f i libucrtd:strtod.obj
 0002:000fa500       ??$parse_floating_point@V?$c_string_character_source@_W@__crt_strtox@@N@__crt_strtox@@YA?AW4SLD_STATUS@@QEAU__crt_locale_pointers@@V?$c_string_character_source@_W@0@QEAN@Z 00000001401d5500 f i libucrtd:strtod.obj
 0002:000fa790       ??$parse_floating_point_from_source@V?$c_string_character_source@D@__crt_strtox@@@__crt_strtox@@YA?AW4floating_point_parse_result@0@QEAU__crt_locale_pointers@@AEAV?$c_string_character_source@D@0@AEAUfloating_point_string@0@@Z 00000001401d5790 f i libucrtd:strtod.obj
 0002:000fb080       ??$parse_floating_point_from_source@V?$c_string_character_source@_W@__crt_strtox@@@__crt_strtox@@YA?AW4floating_point_parse_result@0@QEAU__crt_locale_pointers@@AEAV?$c_string_character_source@_W@0@AEAUfloating_point_string@0@@Z 00000001401d6080 f i libucrtd:strtod.obj
 0002:000fb990       ??$parse_floating_point_possible_infinity@DV?$c_string_character_source@D@__crt_strtox@@PEBD@__crt_strtox@@YA?AW4floating_point_parse_result@0@AEADAEAV?$c_string_character_source@D@0@PEBD@Z 00000001401d6990 f i libucrtd:strtod.obj
 0002:000fbb00       ??$parse_floating_point_possible_infinity@_WV?$c_string_character_source@_W@__crt_strtox@@PEB_W@__crt_strtox@@YA?AW4floating_point_parse_result@0@AEA_WAEAV?$c_string_character_source@_W@0@PEB_W@Z 00000001401d6b00 f i libucrtd:strtod.obj
 0002:000fbc70       ??$parse_floating_point_possible_nan@DV?$c_string_character_source@D@__crt_strtox@@PEBD@__crt_strtox@@YA?AW4floating_point_parse_result@0@AEADAEAV?$c_string_character_source@D@0@PEBD@Z 00000001401d6c70 f i libucrtd:strtod.obj
 0002:000fbf00       ??$parse_floating_point_possible_nan@_WV?$c_string_character_source@_W@__crt_strtox@@PEB_W@__crt_strtox@@YA?AW4floating_point_parse_result@0@AEA_WAEAV?$c_string_character_source@_W@0@PEB_W@Z 00000001401d6f00 f i libucrtd:strtod.obj
 0002:000fc190       ??$parse_floating_point_possible_nan_is_ind@DV?$c_string_character_source@D@__crt_strtox@@@__crt_strtox@@YA_NAEADAEAV?$c_string_character_source@D@0@@Z 00000001401d7190 f i libucrtd:strtod.obj
 0002:000fc1e0       ??$parse_floating_point_possible_nan_is_ind@_WV?$c_string_character_source@_W@__crt_strtox@@@__crt_strtox@@YA_NAEA_WAEAV?$c_string_character_source@_W@0@@Z 00000001401d71e0 f i libucrtd:strtod.obj
 0002:000fc230       ??$parse_floating_point_possible_nan_is_snan@DV?$c_string_character_source@D@__crt_strtox@@@__crt_strtox@@YA_NAEADAEAV?$c_string_character_source@D@0@@Z 00000001401d7230 f i libucrtd:strtod.obj
 0002:000fc280       ??$parse_floating_point_possible_nan_is_snan@_WV?$c_string_character_source@_W@__crt_strtox@@@__crt_strtox@@YA_NAEA_WAEAV?$c_string_character_source@_W@0@@Z 00000001401d7280 f i libucrtd:strtod.obj
 0002:000fc2d0       ??$parse_floating_point_write_result@M@__crt_strtox@@YA?AW4SLD_STATUS@@W4floating_point_parse_result@0@AEBUfloating_point_string@0@QEAM@Z 00000001401d72d0 f i libucrtd:strtod.obj
 0002:000fc4f0       ??$parse_floating_point_write_result@N@__crt_strtox@@YA?AW4SLD_STATUS@@W4floating_point_parse_result@0@AEBUfloating_point_string@0@QEAN@Z 00000001401d74f0 f i libucrtd:strtod.obj
 0002:000fc710       ??$parse_next_characters_from_source@DV?$c_string_character_source@D@__crt_strtox@@@__crt_strtox@@YA_NQEBD0_KAEADAEAV?$c_string_character_source@D@0@@Z 00000001401d7710 f i libucrtd:strtod.obj
 0002:000fc7d0       ??$parse_next_characters_from_source@_WV?$c_string_character_source@_W@__crt_strtox@@@__crt_strtox@@YA_NQEB_W0_KAEA_WAEAV?$c_string_character_source@_W@0@@Z 00000001401d77d0 f i libucrtd:strtod.obj
 0002:000fc890       ??0<lambda_74a2d8e426d717992967bf549d0b1d46>@@QEAA@AEAV?$c_string_character_source@_W@__crt_strtox@@AEA_WAEAPEB_W@Z 00000001401d7890 f i libucrtd:strtod.obj
 0002:000fc8f0       ??0<lambda_85175643e3245fab8ee1d5c9ffbed652>@@QEAA@AEAV?$c_string_character_source@D@__crt_strtox@@AEADAEAPEBD@Z 00000001401d78f0 f i libucrtd:strtod.obj
 0002:000fc950       ??0<lambda_a4d13f8896d4166bcf1a62c02ca9256c>@@QEAA@AEAV?$c_string_character_source@D@__crt_strtox@@AEADAEAPEBD@Z 00000001401d7950 f i libucrtd:strtod.obj
 0002:000fc9b0       ??0<lambda_aaca0f6c2c612c0ee38e1ea27fdc2ad6>@@QEAA@AEAV?$c_string_character_source@D@__crt_strtox@@AEADAEAPEBD@Z 00000001401d79b0 f i libucrtd:strtod.obj
 0002:000fca10       ??0<lambda_b2e4b863da30a29f1a9fc7ecc6d00735>@@QEAA@AEAV?$c_string_character_source@_W@__crt_strtox@@AEA_WAEAPEB_W@Z 00000001401d7a10 f i libucrtd:strtod.obj
 0002:000fca70       ??0<lambda_c728f12739a3597330a783bb0930d4cc>@@QEAA@AEAV?$c_string_character_source@_W@__crt_strtox@@AEA_WAEAPEB_W@Z 00000001401d7a70 f i libucrtd:strtod.obj
 0002:000fcad0       ??0?$c_string_character_source@D@__crt_strtox@@QEAA@QEBDQEAPEBD@Z 00000001401d7ad0 f i libucrtd:strtod.obj
 0002:000fcb30       ??0?$c_string_character_source@_W@__crt_strtox@@QEAA@QEB_WQEAPEB_W@Z 00000001401d7b30 f i libucrtd:strtod.obj
 0002:000fcb90       ??0big_integer@__crt_strtox@@QEAA@AEBU01@@Z 00000001401d7b90 f i libucrtd:strtod.obj
 0002:000fcc10       ??0big_integer@__crt_strtox@@QEAA@XZ 00000001401d7c10 f i libucrtd:strtod.obj
 0002:000fcc60       ??0floating_point_value@__crt_strtox@@QEAA@QEAM@Z 00000001401d7c60 f i libucrtd:strtod.obj
 0002:000fccf0       ??0floating_point_value@__crt_strtox@@QEAA@QEAN@Z 00000001401d7cf0 f i libucrtd:strtod.obj
 0002:000fcd80       ??1?$c_string_character_source@D@__crt_strtox@@QEAA@XZ 00000001401d7d80 f i libucrtd:strtod.obj
 0002:000fcdb0       ??1?$c_string_character_source@_W@__crt_strtox@@QEAA@XZ 00000001401d7db0 f i libucrtd:strtod.obj
 0002:000fcde0       ??4big_integer@__crt_strtox@@QEAAAEAU01@AEBU01@@Z 00000001401d7de0 f i libucrtd:strtod.obj
 0002:000fce60       ??M__crt_strtox@@YA_NAEBUbig_integer@0@0@Z 00000001401d7e60 f i libucrtd:strtod.obj
 0002:000fcf30       ??R<lambda_74a2d8e426d717992967bf549d0b1d46>@@QEBA@XZ 00000001401d7f30 f i libucrtd:strtod.obj
 0002:000fcfb0       ??R<lambda_85175643e3245fab8ee1d5c9ffbed652>@@QEBA@XZ 00000001401d7fb0 f i libucrtd:strtod.obj
 0002:000fd030       ??R<lambda_a4d13f8896d4166bcf1a62c02ca9256c>@@QEBA@XZ 00000001401d8030 f i libucrtd:strtod.obj
 0002:000fd0b0       ??R<lambda_aaca0f6c2c612c0ee38e1ea27fdc2ad6>@@QEBA@XZ 00000001401d80b0 f i libucrtd:strtod.obj
 0002:000fd130       ??R<lambda_b2e4b863da30a29f1a9fc7ecc6d00735>@@QEBA@XZ 00000001401d8130 f i libucrtd:strtod.obj
 0002:000fd1b0       ??R<lambda_c728f12739a3597330a783bb0930d4cc>@@QEBA@XZ 00000001401d81b0 f i libucrtd:strtod.obj
 0002:000fd230       ?accumulate_decimal_digits_into_big_integer@__crt_strtox@@YAXQEBE0AEAUbig_integer@1@@Z 00000001401d8230 f i libucrtd:strtod.obj
 0002:000fd330       ?add@__crt_strtox@@YA_NAEAUbig_integer@1@I@Z 00000001401d8330 f i libucrtd:strtod.obj
 0002:000fd4a0       ?add_carry@__crt_strtox@@YAIAEAIII@Z 00000001401d84a0 f i libucrtd:strtod.obj
 0002:000fd500       ?add_multiply_carry@__crt_strtox@@YAIAEAIIII@Z 00000001401d8500 f i libucrtd:strtod.obj
 0002:000fd570       ?as_double@floating_point_value@__crt_strtox@@QEBAAEANXZ 00000001401d8570 f i libucrtd:strtod.obj
 0002:000fd630       ?as_float@floating_point_value@__crt_strtox@@QEBAAEAMXZ 00000001401d8630 f i libucrtd:strtod.obj
 0002:000fd6f0       ?assemble_floating_point_infinity@__crt_strtox@@YAX_NAEBVfloating_point_value@1@@Z 00000001401d86f0 f i libucrtd:strtod.obj
 0002:000fd760       ?assemble_floating_point_value@__crt_strtox@@YA?AW4SLD_STATUS@@_KH_N1AEBVfloating_point_value@1@@Z 00000001401d8760 f i libucrtd:strtod.obj
 0002:000fdab0       ?assemble_floating_point_value_from_big_integer@__crt_strtox@@YA?AW4SLD_STATUS@@AEBUbig_integer@1@I_N1AEBVfloating_point_value@1@@Z 00000001401d8ab0 f i libucrtd:strtod.obj
 0002:000fe010       ?assemble_floating_point_zero@__crt_strtox@@YAX_NAEBVfloating_point_value@1@@Z 00000001401d9010 f i libucrtd:strtod.obj
 0002:000fe080       ?bit_scan_reverse@__crt_strtox@@YAIAEBUbig_integer@1@@Z 00000001401d9080 f i libucrtd:strtod.obj
 0002:000fe0e0       ?bit_scan_reverse@__crt_strtox@@YAII@Z 00000001401d90e0 f i libucrtd:strtod.obj
 0002:000fe120       ?bit_scan_reverse@__crt_strtox@@YAI_K@Z 00000001401d9120 f i libucrtd:strtod.obj
 0002:000fe180       ?convert_decimal_string_to_floating_type_common@__crt_strtox@@YA?AW4SLD_STATUS@@AEBUfloating_point_string@1@AEBVfloating_point_value@1@@Z 00000001401d9180 f i libucrtd:strtod.obj
 0002:000fe940       ?convert_hexadecimal_string_to_floating_type_common@__crt_strtox@@YA?AW4SLD_STATUS@@AEBUfloating_point_string@1@AEBVfloating_point_value@1@@Z 00000001401d9940 f i libucrtd:strtod.obj
 0002:000feae0       ?count_sequential_high_zeroes@__crt_strtox@@YAII@Z 00000001401d9ae0 f i libucrtd:strtod.obj
 0002:000feb30       ?denormal_mantissa_mask@floating_point_value@__crt_strtox@@QEBA_KXZ 00000001401d9b30 f i libucrtd:strtod.obj
 0002:000feb80       ?divide@__crt_strtox@@YA_KAEAUbig_integer@1@AEBU21@@Z 00000001401d9b80 f i libucrtd:strtod.obj
 0002:000ff7c0       ?exponent_bias@floating_point_value@__crt_strtox@@QEBAHXZ 00000001401da7c0 f i libucrtd:strtod.obj
 0002:000ff800       ?get@?$c_string_character_source@D@__crt_strtox@@QEAADXZ 00000001401da800 f i libucrtd:strtod.obj
 0002:000ff840       ?get@?$c_string_character_source@_W@__crt_strtox@@QEAA_WXZ 00000001401da840 f i libucrtd:strtod.obj
 0002:000ff890       ?is_digit_or_nondigit@__crt_strtox@@YA_NH@Z 00000001401da890 f i libucrtd:strtod.obj
 0002:000ff8f0       ?is_double@floating_point_value@__crt_strtox@@QEBA_NXZ 00000001401da8f0 f i libucrtd:strtod.obj
 0002:000ff910       ?is_space@__crt_strtox@@YA_NDQEAU__crt_locale_pointers@@@Z 00000001401da910 f i libucrtd:strtod.obj
 0002:000ff970       ?is_space@__crt_strtox@@YA_N_WPEAU__crt_locale_pointers@@@Z 00000001401da970 f i libucrtd:strtod.obj
 0002:000ff9c0       ?make_big_integer@__crt_strtox@@YA?AUbig_integer@1@_K@Z 00000001401da9c0 f i libucrtd:strtod.obj
 0002:000ffac0       ?mantissa_bits@floating_point_value@__crt_strtox@@QEBAHXZ 00000001401daac0 f i libucrtd:strtod.obj
 0002:000ffb00       ?maximum_binary_exponent@floating_point_value@__crt_strtox@@QEBAHXZ 00000001401dab00 f i libucrtd:strtod.obj
 0002:000ffb40       ?minimum_binary_exponent@floating_point_value@__crt_strtox@@QEBAHXZ 00000001401dab40 f i libucrtd:strtod.obj
 0002:000ffb80       ?multiply@__crt_strtox@@YA_NAEAUbig_integer@1@AEBU21@@Z 00000001401dab80 f i libucrtd:strtod.obj
 0002:000fffd0       ?multiply@__crt_strtox@@YA_NAEAUbig_integer@1@I@Z 00000001401dafd0 f i libucrtd:strtod.obj
 0002:00100140       ?multiply_64_32@__crt_strtox@@YA_K_KI@Z 00000001401db140 f i libucrtd:strtod.obj
 0002:00100160       ?multiply_by_power_of_ten@__crt_strtox@@YA_NAEAUbig_integer@1@I@Z 00000001401db160 f i libucrtd:strtod.obj
 0002:00100380       ?multiply_core@__crt_strtox@@YAIQEAIII@Z 00000001401db380 f i libucrtd:strtod.obj
 0002:00100420       ?normal_mantissa_mask@floating_point_value@__crt_strtox@@QEBA_KXZ 00000001401db420 f i libucrtd:strtod.obj
 0002:00100470       ?parse_digit@__crt_strtox@@YAID@Z 00000001401db470 f i libucrtd:strtod.obj
 0002:001004f0       ?parse_digit@__crt_strtox@@YAI_W@Z 00000001401db4f0 f i libucrtd:strtod.obj
 0002:00100560       ?restore_state@?$c_string_character_source@D@__crt_strtox@@QEAA_NQEBD@Z 00000001401db560 f i libucrtd:strtod.obj
 0002:00100580       ?restore_state@?$c_string_character_source@_W@__crt_strtox@@QEAA_NQEB_W@Z 00000001401db580 f i libucrtd:strtod.obj
 0002:001005a0       ?right_shift_with_rounding@__crt_strtox@@YA_K_N_KI0@Z 00000001401db5a0 f i libucrtd:strtod.obj
 0002:00100760       ?save_state@?$c_string_character_source@D@__crt_strtox@@QEBAPEBDXZ 00000001401db760 f i libucrtd:strtod.obj
 0002:00100780       ?save_state@?$c_string_character_source@_W@__crt_strtox@@QEBAPEB_WXZ 00000001401db780 f i libucrtd:strtod.obj
 0002:001007a0       ?shift_left@__crt_strtox@@YA_NAEAUbig_integer@1@I@Z 00000001401db7a0 f i libucrtd:strtod.obj
 0002:00100b30       ?should_round_up@__crt_strtox@@YA_N_N000@Z 00000001401dbb30 f i libucrtd:strtod.obj
 0002:00100ca0       ?unget@?$c_string_character_source@D@__crt_strtox@@QEAAXD@Z 00000001401dbca0 f i libucrtd:strtod.obj
 0002:00100db0       ?unget@?$c_string_character_source@_W@__crt_strtox@@QEAAX_W@Z 00000001401dbdb0 f i libucrtd:strtod.obj
 0002:00100ec0       ?validate@?$c_string_character_source@D@__crt_strtox@@QEBA_NXZ 00000001401dbec0 f i libucrtd:strtod.obj
 0002:00100fb0       ?validate@?$c_string_character_source@_W@__crt_strtox@@QEBA_NXZ 00000001401dbfb0 f i libucrtd:strtod.obj
 0002:001010a0       ?wide_character_to_digit@__crt_strtox@@YAH_W@Z 00000001401dc0a0 f i libucrtd:strtod.obj
 0002:001014e0       __ascii_iswalpha           00000001401dc4e0 f i libucrtd:strtod.obj
 0002:00101530       __ascii_toupper            00000001401dc530 f i libucrtd:strtod.obj
 0002:00101560       __ascii_towupper           00000001401dc560 f i libucrtd:strtod.obj
 0002:00101580       _strtod_l                  00000001401dc580 f   libucrtd:strtod.obj
 0002:001015c0       _strtof_l                  00000001401dc5c0 f   libucrtd:strtod.obj
 0002:00101600       _strtold_l                 00000001401dc600 f   libucrtd:strtod.obj
 0002:00101640       _wcstod_l                  00000001401dc640 f   libucrtd:strtod.obj
 0002:00101680       _wcstof_l                  00000001401dc680 f   libucrtd:strtod.obj
 0002:001016c0       _wcstold_l                 00000001401dc6c0 f   libucrtd:strtod.obj
 0002:00101890       strtod                     00000001401dc890 f   libucrtd:strtod.obj
 0002:001018c0       strtof                     00000001401dc8c0 f   libucrtd:strtod.obj
 0002:001018f0       strtold                    00000001401dc8f0 f   libucrtd:strtod.obj
 0002:00101920       wcstod                     00000001401dc920 f   libucrtd:strtod.obj
 0002:00101950       wcstof                     00000001401dc950 f   libucrtd:strtod.obj
 0002:00101980       wcstold                    00000001401dc980 f   libucrtd:strtod.obj
 0002:001019c0       strcmp                     00000001401dc9c0 f   libucrtd:strcmp.obj
 0002:00101c00       strcspn                    00000001401dcc00 f   libucrtd:strcspn.obj
 0002:00102770       strlen                     00000001401dd770 f   libucrtd:strlen.obj
 0002:00102850       ??$?0AEBV?$stream_output_adapter@D@__crt_stdio_output@@AEB_KAEBQEBDAEAV__crt_cached_ptd_host@@AEBQEAD@?$format_validation_base@DV?$stream_output_adapter@D@__crt_stdio_output@@@__crt_stdio_output@@IEAA@AEBV?$stream_output_adapter@D@1@AEB_KAEBQEBDAEAV__crt_cached_ptd_host@@AEBQEAD@Z 00000001401dd850 f i libucrtd:output.obj
 0002:001028c0       ??$?0AEBV?$stream_output_adapter@D@__crt_stdio_output@@AEB_KAEBQEBDAEAV__crt_cached_ptd_host@@AEBQEAD@?$positional_parameter_base@DV?$stream_output_adapter@D@__crt_stdio_output@@@__crt_stdio_output@@IEAA@AEBV?$stream_output_adapter@D@1@AEB_KAEBQEBDAEAV__crt_cached_ptd_host@@AEBQEAD@Z 00000001401dd8c0 f i libucrtd:output.obj
 0002:00102990       ??$?0AEBV?$stream_output_adapter@D@__crt_stdio_output@@AEB_KAEBQEBDAEAV__crt_cached_ptd_host@@AEBQEAD@?$standard_base@DV?$stream_output_adapter@D@__crt_stdio_output@@@__crt_stdio_output@@IEAA@AEBV?$stream_output_adapter@D@1@AEB_KAEBQEBDAEAV__crt_cached_ptd_host@@AEBQEAD@Z 00000001401dd990 f i libucrtd:output.obj
 0002:00102a10       ??$?0AEBV?$stream_output_adapter@_W@__crt_stdio_output@@AEB_KAEBQEB_WAEAV__crt_cached_ptd_host@@AEBQEAD@?$format_validation_base@_WV?$stream_output_adapter@_W@__crt_stdio_output@@@__crt_stdio_output@@IEAA@AEBV?$stream_output_adapter@_W@1@AEB_KAEBQEB_WAEAV__crt_cached_ptd_host@@AEBQEAD@Z 00000001401dda10 f i libucrtd:output.obj
 0002:00102a80       ??$?0AEBV?$stream_output_adapter@_W@__crt_stdio_output@@AEB_KAEBQEB_WAEAV__crt_cached_ptd_host@@AEBQEAD@?$positional_parameter_base@_WV?$stream_output_adapter@_W@__crt_stdio_output@@@__crt_stdio_output@@IEAA@AEBV?$stream_output_adapter@_W@1@AEB_KAEBQEB_WAEAV__crt_cached_ptd_host@@AEBQEAD@Z 00000001401dda80 f i libucrtd:output.obj
 0002:00102b50       ??$?0AEBV?$stream_output_adapter@_W@__crt_stdio_output@@AEB_KAEBQEB_WAEAV__crt_cached_ptd_host@@AEBQEAD@?$standard_base@_WV?$stream_output_adapter@_W@__crt_stdio_output@@@__crt_stdio_output@@IEAA@AEBV?$stream_output_adapter@_W@1@AEB_KAEBQEB_WAEAV__crt_cached_ptd_host@@AEBQEAD@Z 00000001401ddb50 f i libucrtd:output.obj
 0002:00102bd0       ??$?0AEBV?$string_output_adapter@D@__crt_stdio_output@@AEB_KAEBQEBDAEAV__crt_cached_ptd_host@@AEBQEAD@?$format_validation_base@DV?$string_output_adapter@D@__crt_stdio_output@@@__crt_stdio_output@@IEAA@AEBV?$string_output_adapter@D@1@AEB_KAEBQEBDAEAV__crt_cached_ptd_host@@AEBQEAD@Z 00000001401ddbd0 f i libucrtd:output.obj
 0002:00102c40       ??$?0AEBV?$string_output_adapter@D@__crt_stdio_output@@AEB_KAEBQEBDAEAV__crt_cached_ptd_host@@AEBQEAD@?$positional_parameter_base@DV?$string_output_adapter@D@__crt_stdio_output@@@__crt_stdio_output@@IEAA@AEBV?$string_output_adapter@D@1@AEB_KAEBQEBDAEAV__crt_cached_ptd_host@@AEBQEAD@Z 00000001401ddc40 f i libucrtd:output.obj
 0002:00102d10       ??$?0AEBV?$string_output_adapter@D@__crt_stdio_output@@AEB_KAEBQEBDAEAV__crt_cached_ptd_host@@AEBQEAD@?$standard_base@DV?$string_output_adapter@D@__crt_stdio_output@@@__crt_stdio_output@@IEAA@AEBV?$string_output_adapter@D@1@AEB_KAEBQEBDAEAV__crt_cached_ptd_host@@AEBQEAD@Z 00000001401ddd10 f i libucrtd:output.obj
 0002:00102d90       ??$?0AEBV?$string_output_adapter@_W@__crt_stdio_output@@AEB_KAEBQEB_WAEAV__crt_cached_ptd_host@@AEBQEAD@?$format_validation_base@_WV?$string_output_adapter@_W@__crt_stdio_output@@@__crt_stdio_output@@IEAA@AEBV?$string_output_adapter@_W@1@AEB_KAEBQEB_WAEAV__crt_cached_ptd_host@@AEBQEAD@Z 00000001401ddd90 f i libucrtd:output.obj
 0002:00102e00       ??$?0AEBV?$string_output_adapter@_W@__crt_stdio_output@@AEB_KAEBQEB_WAEAV__crt_cached_ptd_host@@AEBQEAD@?$positional_parameter_base@_WV?$string_output_adapter@_W@__crt_stdio_output@@@__crt_stdio_output@@IEAA@AEBV?$string_output_adapter@_W@1@AEB_KAEBQEB_WAEAV__crt_cached_ptd_host@@AEBQEAD@Z 00000001401dde00 f i libucrtd:output.obj
 0002:00102ed0       ??$?0AEBV?$string_output_adapter@_W@__crt_stdio_output@@AEB_KAEBQEB_WAEAV__crt_cached_ptd_host@@AEBQEAD@?$standard_base@_WV?$string_output_adapter@_W@__crt_stdio_output@@@__crt_stdio_output@@IEAA@AEBV?$string_output_adapter@_W@1@AEB_KAEBQEB_WAEAV__crt_cached_ptd_host@@AEBQEAD@Z 00000001401dded0 f i libucrtd:output.obj
 0002:00103490       ??$_tcstol_internal@DPEAPEAD$0A@@@YAJAEAV__crt_cached_ptd_host@@QEBDQEAPEADH@Z 00000001401de490 f i libucrtd:output.obj
 0002:00103500       ??$_tcstol_internal@_WPEAPEA_W$0A@@@YAJAEAV__crt_cached_ptd_host@@QEB_WQEAPEA_WH@Z 00000001401de500 f i libucrtd:output.obj
 0002:00108480       ??$count@D@formatting_buffer@__crt_stdio_output@@QEBA_KXZ 00000001401e3480 f i libucrtd:output.obj
 0002:001084e0       ??$count@_W@formatting_buffer@__crt_stdio_output@@QEBA_KXZ 00000001401e34e0 f i libucrtd:output.obj
 0002:00108550       ??$data@D@formatting_buffer@__crt_stdio_output@@QEAAPEADXZ 00000001401e3550 f i libucrtd:output.obj
 0002:001085b0       ??$data@_W@formatting_buffer@__crt_stdio_output@@QEAAPEA_WXZ 00000001401e35b0 f i libucrtd:output.obj
 0002:00108610       ??$ensure_buffer_is_big_enough@D@formatting_buffer@__crt_stdio_output@@QEAA_N_KAEAV__crt_cached_ptd_host@@@Z 00000001401e3610 f i libucrtd:output.obj
 0002:001087a0       ??$ensure_buffer_is_big_enough@_W@formatting_buffer@__crt_stdio_output@@QEAA_N_KAEAV__crt_cached_ptd_host@@@Z 00000001401e37a0 f i libucrtd:output.obj
 0002:00108930       ??$extract_argument_from_va_list@C_J@?$positional_parameter_base@DV?$stream_output_adapter@D@__crt_stdio_output@@@__crt_stdio_output@@IEAA_NAEA_J@Z 00000001401e3930 f i libucrtd:output.obj
 0002:00108b60       ??$extract_argument_from_va_list@C_J@?$positional_parameter_base@DV?$string_output_adapter@D@__crt_stdio_output@@@__crt_stdio_output@@IEAA_NAEA_J@Z 00000001401e3b60 f i libucrtd:output.obj
 0002:00108d90       ??$extract_argument_from_va_list@C_J@?$positional_parameter_base@_WV?$stream_output_adapter@_W@__crt_stdio_output@@@__crt_stdio_output@@IEAA_NAEA_J@Z 00000001401e3d90 f i libucrtd:output.obj
 0002:00108fc0       ??$extract_argument_from_va_list@C_J@?$positional_parameter_base@_WV?$string_output_adapter@_W@__crt_stdio_output@@@__crt_stdio_output@@IEAA_NAEA_J@Z 00000001401e3fc0 f i libucrtd:output.obj
 0002:001091f0       ??$extract_argument_from_va_list@C_J@?$standard_base@DV?$stream_output_adapter@D@__crt_stdio_output@@@__crt_stdio_output@@IEAA_NAEA_J@Z 00000001401e41f0 f i libucrtd:output.obj
 0002:00109230       ??$extract_argument_from_va_list@C_J@?$standard_base@DV?$string_output_adapter@D@__crt_stdio_output@@@__crt_stdio_output@@IEAA_NAEA_J@Z 00000001401e4230 f i libucrtd:output.obj
 0002:00109270       ??$extract_argument_from_va_list@C_J@?$standard_base@_WV?$stream_output_adapter@_W@__crt_stdio_output@@@__crt_stdio_output@@IEAA_NAEA_J@Z 00000001401e4270 f i libucrtd:output.obj
 0002:001092b0       ??$extract_argument_from_va_list@C_J@?$standard_base@_WV?$string_output_adapter@_W@__crt_stdio_output@@@__crt_stdio_output@@IEAA_NAEA_J@Z 00000001401e42b0 f i libucrtd:output.obj
 0002:001092f0       ??$extract_argument_from_va_list@E_J@?$positional_parameter_base@DV?$stream_output_adapter@D@__crt_stdio_output@@@__crt_stdio_output@@IEAA_NAEA_J@Z 00000001401e42f0 f i libucrtd:output.obj
 0002:00109520       ??$extract_argument_from_va_list@E_J@?$positional_parameter_base@DV?$string_output_adapter@D@__crt_stdio_output@@@__crt_stdio_output@@IEAA_NAEA_J@Z 00000001401e4520 f i libucrtd:output.obj
 0002:00109750       ??$extract_argument_from_va_list@E_J@?$positional_parameter_base@_WV?$stream_output_adapter@_W@__crt_stdio_output@@@__crt_stdio_output@@IEAA_NAEA_J@Z 00000001401e4750 f i libucrtd:output.obj
 0002:00109980       ??$extract_argument_from_va_list@E_J@?$positional_parameter_base@_WV?$string_output_adapter@_W@__crt_stdio_output@@@__crt_stdio_output@@IEAA_NAEA_J@Z 00000001401e4980 f i libucrtd:output.obj
 0002:00109bb0       ??$extract_argument_from_va_list@E_J@?$standard_base@DV?$stream_output_adapter@D@__crt_stdio_output@@@__crt_stdio_output@@IEAA_NAEA_J@Z 00000001401e4bb0 f i libucrtd:output.obj
 0002:00109bf0       ??$extract_argument_from_va_list@E_J@?$standard_base@DV?$string_output_adapter@D@__crt_stdio_output@@@__crt_stdio_output@@IEAA_NAEA_J@Z 00000001401e4bf0 f i libucrtd:output.obj
 0002:00109c30       ??$extract_argument_from_va_list@E_J@?$standard_base@_WV?$stream_output_adapter@_W@__crt_stdio_output@@@__crt_stdio_output@@IEAA_NAEA_J@Z 00000001401e4c30 f i libucrtd:output.obj
 0002:00109c70       ??$extract_argument_from_va_list@E_J@?$standard_base@_WV?$string_output_adapter@_W@__crt_stdio_output@@@__crt_stdio_output@@IEAA_NAEA_J@Z 00000001401e4c70 f i libucrtd:output.obj
 0002:00109cb0       ??$extract_argument_from_va_list@F_J@?$positional_parameter_base@DV?$stream_output_adapter@D@__crt_stdio_output@@@__crt_stdio_output@@IEAA_NAEA_J@Z 00000001401e4cb0 f i libucrtd:output.obj
 0002:00109ee0       ??$extract_argument_from_va_list@F_J@?$positional_parameter_base@DV?$string_output_adapter@D@__crt_stdio_output@@@__crt_stdio_output@@IEAA_NAEA_J@Z 00000001401e4ee0 f i libucrtd:output.obj
 0002:0010a110       ??$extract_argument_from_va_list@F_J@?$positional_parameter_base@_WV?$stream_output_adapter@_W@__crt_stdio_output@@@__crt_stdio_output@@IEAA_NAEA_J@Z 00000001401e5110 f i libucrtd:output.obj
 0002:0010a340       ??$extract_argument_from_va_list@F_J@?$positional_parameter_base@_WV?$string_output_adapter@_W@__crt_stdio_output@@@__crt_stdio_output@@IEAA_NAEA_J@Z 00000001401e5340 f i libucrtd:output.obj
 0002:0010a570       ??$extract_argument_from_va_list@F_J@?$standard_base@DV?$stream_output_adapter@D@__crt_stdio_output@@@__crt_stdio_output@@IEAA_NAEA_J@Z 00000001401e5570 f i libucrtd:output.obj
 0002:0010a5b0       ??$extract_argument_from_va_list@F_J@?$standard_base@DV?$string_output_adapter@D@__crt_stdio_output@@@__crt_stdio_output@@IEAA_NAEA_J@Z 00000001401e55b0 f i libucrtd:output.obj
 0002:0010a5f0       ??$extract_argument_from_va_list@F_J@?$standard_base@_WV?$stream_output_adapter@_W@__crt_stdio_output@@@__crt_stdio_output@@IEAA_NAEA_J@Z 00000001401e55f0 f i libucrtd:output.obj
 0002:0010a630       ??$extract_argument_from_va_list@F_J@?$standard_base@_WV?$string_output_adapter@_W@__crt_stdio_output@@@__crt_stdio_output@@IEAA_NAEA_J@Z 00000001401e5630 f i libucrtd:output.obj
 0002:0010a670       ??$extract_argument_from_va_list@GD@?$positional_parameter_base@DV?$stream_output_adapter@D@__crt_stdio_output@@@__crt_stdio_output@@IEAA_NAEAD@Z 00000001401e5670 f i libucrtd:output.obj
 0002:0010a8a0       ??$extract_argument_from_va_list@GD@?$positional_parameter_base@DV?$string_output_adapter@D@__crt_stdio_output@@@__crt_stdio_output@@IEAA_NAEAD@Z 00000001401e58a0 f i libucrtd:output.obj
 0002:0010aad0       ??$extract_argument_from_va_list@GD@?$standard_base@DV?$stream_output_adapter@D@__crt_stdio_output@@@__crt_stdio_output@@IEAA_NAEAD@Z 00000001401e5ad0 f i libucrtd:output.obj
 0002:0010ab10       ??$extract_argument_from_va_list@GD@?$standard_base@DV?$string_output_adapter@D@__crt_stdio_output@@@__crt_stdio_output@@IEAA_NAEAD@Z 00000001401e5b10 f i libucrtd:output.obj
 0002:0010ab50       ??$extract_argument_from_va_list@G_J@?$positional_parameter_base@DV?$stream_output_adapter@D@__crt_stdio_output@@@__crt_stdio_output@@IEAA_NAEA_J@Z 00000001401e5b50 f i libucrtd:output.obj
 0002:0010ad80       ??$extract_argument_from_va_list@G_J@?$positional_parameter_base@DV?$string_output_adapter@D@__crt_stdio_output@@@__crt_stdio_output@@IEAA_NAEA_J@Z 00000001401e5d80 f i libucrtd:output.obj
 0002:0010afb0       ??$extract_argument_from_va_list@G_J@?$positional_parameter_base@_WV?$stream_output_adapter@_W@__crt_stdio_output@@@__crt_stdio_output@@IEAA_NAEA_J@Z 00000001401e5fb0 f i libucrtd:output.obj
 0002:0010b1e0       ??$extract_argument_from_va_list@G_J@?$positional_parameter_base@_WV?$string_output_adapter@_W@__crt_stdio_output@@@__crt_stdio_output@@IEAA_NAEA_J@Z 00000001401e61e0 f i libucrtd:output.obj
 0002:0010b410       ??$extract_argument_from_va_list@G_J@?$standard_base@DV?$stream_output_adapter@D@__crt_stdio_output@@@__crt_stdio_output@@IEAA_NAEA_J@Z 00000001401e6410 f i libucrtd:output.obj
 0002:0010b450       ??$extract_argument_from_va_list@G_J@?$standard_base@DV?$string_output_adapter@D@__crt_stdio_output@@@__crt_stdio_output@@IEAA_NAEA_J@Z 00000001401e6450 f i libucrtd:output.obj
 0002:0010b490       ??$extract_argument_from_va_list@G_J@?$standard_base@_WV?$stream_output_adapter@_W@__crt_stdio_output@@@__crt_stdio_output@@IEAA_NAEA_J@Z 00000001401e6490 f i libucrtd:output.obj
 0002:0010b4d0       ??$extract_argument_from_va_list@G_J@?$standard_base@_WV?$string_output_adapter@_W@__crt_stdio_output@@@__crt_stdio_output@@IEAA_NAEA_J@Z 00000001401e64d0 f i libucrtd:output.obj
 0002:0010b510       ??$extract_argument_from_va_list@H_J@?$positional_parameter_base@DV?$stream_output_adapter@D@__crt_stdio_output@@@__crt_stdio_output@@IEAA_NAEA_J@Z 00000001401e6510 f i libucrtd:output.obj
 0002:0010b740       ??$extract_argument_from_va_list@H_J@?$positional_parameter_base@DV?$string_output_adapter@D@__crt_stdio_output@@@__crt_stdio_output@@IEAA_NAEA_J@Z 00000001401e6740 f i libucrtd:output.obj
 0002:0010b970       ??$extract_argument_from_va_list@H_J@?$positional_parameter_base@_WV?$stream_output_adapter@_W@__crt_stdio_output@@@__crt_stdio_output@@IEAA_NAEA_J@Z 00000001401e6970 f i libucrtd:output.obj
 0002:0010bba0       ??$extract_argument_from_va_list@H_J@?$positional_parameter_base@_WV?$string_output_adapter@_W@__crt_stdio_output@@@__crt_stdio_output@@IEAA_NAEA_J@Z 00000001401e6ba0 f i libucrtd:output.obj
 0002:0010bdd0       ??$extract_argument_from_va_list@H_J@?$standard_base@DV?$stream_output_adapter@D@__crt_stdio_output@@@__crt_stdio_output@@IEAA_NAEA_J@Z 00000001401e6dd0 f i libucrtd:output.obj
 0002:0010be10       ??$extract_argument_from_va_list@H_J@?$standard_base@DV?$string_output_adapter@D@__crt_stdio_output@@@__crt_stdio_output@@IEAA_NAEA_J@Z 00000001401e6e10 f i libucrtd:output.obj
 0002:0010be50       ??$extract_argument_from_va_list@H_J@?$standard_base@_WV?$stream_output_adapter@_W@__crt_stdio_output@@@__crt_stdio_output@@IEAA_NAEA_J@Z 00000001401e6e50 f i libucrtd:output.obj
 0002:0010be90       ??$extract_argument_from_va_list@H_J@?$standard_base@_WV?$string_output_adapter@_W@__crt_stdio_output@@@__crt_stdio_output@@IEAA_NAEA_J@Z 00000001401e6e90 f i libucrtd:output.obj
 0002:0010bed0       ??$extract_argument_from_va_list@I_J@?$positional_parameter_base@DV?$stream_output_adapter@D@__crt_stdio_output@@@__crt_stdio_output@@IEAA_NAEA_J@Z 00000001401e6ed0 f i libucrtd:output.obj
 0002:0010c100       ??$extract_argument_from_va_list@I_J@?$positional_parameter_base@DV?$string_output_adapter@D@__crt_stdio_output@@@__crt_stdio_output@@IEAA_NAEA_J@Z 00000001401e7100 f i libucrtd:output.obj
 0002:0010c330       ??$extract_argument_from_va_list@I_J@?$positional_parameter_base@_WV?$stream_output_adapter@_W@__crt_stdio_output@@@__crt_stdio_output@@IEAA_NAEA_J@Z 00000001401e7330 f i libucrtd:output.obj
 0002:0010c560       ??$extract_argument_from_va_list@I_J@?$positional_parameter_base@_WV?$string_output_adapter@_W@__crt_stdio_output@@@__crt_stdio_output@@IEAA_NAEA_J@Z 00000001401e7560 f i libucrtd:output.obj
 0002:0010c790       ??$extract_argument_from_va_list@I_J@?$standard_base@DV?$stream_output_adapter@D@__crt_stdio_output@@@__crt_stdio_output@@IEAA_NAEA_J@Z 00000001401e7790 f i libucrtd:output.obj
 0002:0010c7d0       ??$extract_argument_from_va_list@I_J@?$standard_base@DV?$string_output_adapter@D@__crt_stdio_output@@@__crt_stdio_output@@IEAA_NAEA_J@Z 00000001401e77d0 f i libucrtd:output.obj
 0002:0010c810       ??$extract_argument_from_va_list@I_J@?$standard_base@_WV?$stream_output_adapter@_W@__crt_stdio_output@@@__crt_stdio_output@@IEAA_NAEA_J@Z 00000001401e7810 f i libucrtd:output.obj
 0002:0010c850       ??$extract_argument_from_va_list@I_J@?$standard_base@_WV?$string_output_adapter@_W@__crt_stdio_output@@@__crt_stdio_output@@IEAA_NAEA_J@Z 00000001401e7850 f i libucrtd:output.obj
 0002:0010c890       ??$extract_argument_from_va_list@PEADPEAD@?$positional_parameter_base@DV?$stream_output_adapter@D@__crt_stdio_output@@@__crt_stdio_output@@IEAA_NAEAPEAD@Z 00000001401e7890 f i libucrtd:output.obj
 0002:0010cac0       ??$extract_argument_from_va_list@PEADPEAD@?$positional_parameter_base@DV?$string_output_adapter@D@__crt_stdio_output@@@__crt_stdio_output@@IEAA_NAEAPEAD@Z 00000001401e7ac0 f i libucrtd:output.obj
 0002:0010ccf0       ??$extract_argument_from_va_list@PEADPEAD@?$positional_parameter_base@_WV?$stream_output_adapter@_W@__crt_stdio_output@@@__crt_stdio_output@@IEAA_NAEAPEAD@Z 00000001401e7cf0 f i libucrtd:output.obj
 0002:0010cf20       ??$extract_argument_from_va_list@PEADPEAD@?$positional_parameter_base@_WV?$string_output_adapter@_W@__crt_stdio_output@@@__crt_stdio_output@@IEAA_NAEAPEAD@Z 00000001401e7f20 f i libucrtd:output.obj
 0002:0010d150       ??$extract_argument_from_va_list@PEADPEAD@?$standard_base@DV?$stream_output_adapter@D@__crt_stdio_output@@@__crt_stdio_output@@IEAA_NAEAPEAD@Z 00000001401e8150 f i libucrtd:output.obj
 0002:0010d190       ??$extract_argument_from_va_list@PEADPEAD@?$standard_base@DV?$string_output_adapter@D@__crt_stdio_output@@@__crt_stdio_output@@IEAA_NAEAPEAD@Z 00000001401e8190 f i libucrtd:output.obj
 0002:0010d1d0       ??$extract_argument_from_va_list@PEADPEAD@?$standard_base@_WV?$stream_output_adapter@_W@__crt_stdio_output@@@__crt_stdio_output@@IEAA_NAEAPEAD@Z 00000001401e81d0 f i libucrtd:output.obj
 0002:0010d210       ??$extract_argument_from_va_list@PEADPEAD@?$standard_base@_WV?$string_output_adapter@_W@__crt_stdio_output@@@__crt_stdio_output@@IEAA_NAEAPEAD@Z 00000001401e8210 f i libucrtd:output.obj
 0002:0010d250       ??$extract_argument_from_va_list@PEAUansi_string@?1??type_case_Z@?$output_processor@DV?$stream_output_adapter@D@__crt_stdio_output@@V?$format_validation_base@DV?$stream_output_adapter@D@__crt_stdio_output@@@2@@__crt_stdio_output@@AEAA_NXZ@PEAU1?1??234@AEAA_NXZ@@?$standard_base@DV?$stream_output_adapter@D@__crt_stdio_output@@@__crt_stdio_output@@IEAA_NAEAPEAUansi_string@?1??type_case_Z@?$output_processor@DV?$stream_output_adapter@D@__crt_stdio_output@@V?$format_validation_base@DV?$stream_output_adapter@D@__crt_stdio_output@@@2@@1@AEAA_NXZ@@Z 00000001401e8250 f i libucrtd:output.obj
 0002:0010d290       ??$extract_argument_from_va_list@PEAUansi_string@?1??type_case_Z@?$output_processor@DV?$stream_output_adapter@D@__crt_stdio_output@@V?$positional_parameter_base@DV?$stream_output_adapter@D@__crt_stdio_output@@@2@@__crt_stdio_output@@AEAA_NXZ@PEAU1?1??234@AEAA_NXZ@@?$positional_parameter_base@DV?$stream_output_adapter@D@__crt_stdio_output@@@__crt_stdio_output@@IEAA_NAEAPEAUansi_string@?1??type_case_Z@?$output_processor@DV?$stream_output_adapter@D@__crt_stdio_output@@V?$positional_parameter_base@DV?$stream_output_adapter@D@__crt_stdio_output@@@2@@1@AEAA_NXZ@@Z 00000001401e8290 f i libucrtd:output.obj
 0002:0010d4c0       ??$extract_argument_from_va_list@PEAUansi_string@?1??type_case_Z@?$output_processor@DV?$stream_output_adapter@D@__crt_stdio_output@@V?$positional_parameter_base@DV?$stream_output_adapter@D@__crt_stdio_output@@@2@@__crt_stdio_output@@AEAA_NXZ@PEAU1?1??234@AEAA_NXZ@@?$standard_base@DV?$stream_output_adapter@D@__crt_stdio_output@@@__crt_stdio_output@@IEAA_NAEAPEAUansi_string@?1??type_case_Z@?$output_processor@DV?$stream_output_adapter@D@__crt_stdio_output@@V?$positional_parameter_base@DV?$stream_output_adapter@D@__crt_stdio_output@@@2@@1@AEAA_NXZ@@Z 00000001401e84c0 f i libucrtd:output.obj
 0002:0010d500       ??$extract_argument_from_va_list@PEAUansi_string@?1??type_case_Z@?$output_processor@DV?$stream_output_adapter@D@__crt_stdio_output@@V?$standard_base@DV?$stream_output_adapter@D@__crt_stdio_output@@@2@@__crt_stdio_output@@AEAA_NXZ@PEAU1?1??234@AEAA_NXZ@@?$standard_base@DV?$stream_output_adapter@D@__crt_stdio_output@@@__crt_stdio_output@@IEAA_NAEAPEAUansi_string@?1??type_case_Z@?$output_processor@DV?$stream_output_adapter@D@__crt_stdio_output@@V?$standard_base@DV?$stream_output_adapter@D@__crt_stdio_output@@@2@@1@AEAA_NXZ@@Z 00000001401e8500 f i libucrtd:output.obj
 0002:0010d540       ??$extract_argument_from_va_list@PEAUansi_string@?1??type_case_Z@?$output_processor@DV?$string_output_adapter@D@__crt_stdio_output@@V?$format_validation_base@DV?$string_output_adapter@D@__crt_stdio_output@@@2@@__crt_stdio_output@@AEAA_NXZ@PEAU1?1??234@AEAA_NXZ@@?$standard_base@DV?$string_output_adapter@D@__crt_stdio_output@@@__crt_stdio_output@@IEAA_NAEAPEAUansi_string@?1??type_case_Z@?$output_processor@DV?$string_output_adapter@D@__crt_stdio_output@@V?$format_validation_base@DV?$string_output_adapter@D@__crt_stdio_output@@@2@@1@AEAA_NXZ@@Z 00000001401e8540 f i libucrtd:output.obj
 0002:0010d580       ??$extract_argument_from_va_list@PEAUansi_string@?1??type_case_Z@?$output_processor@DV?$string_output_adapter@D@__crt_stdio_output@@V?$positional_parameter_base@DV?$string_output_adapter@D@__crt_stdio_output@@@2@@__crt_stdio_output@@AEAA_NXZ@PEAU1?1??234@AEAA_NXZ@@?$positional_parameter_base@DV?$string_output_adapter@D@__crt_stdio_output@@@__crt_stdio_output@@IEAA_NAEAPEAUansi_string@?1??type_case_Z@?$output_processor@DV?$string_output_adapter@D@__crt_stdio_output@@V?$positional_parameter_base@DV?$string_output_adapter@D@__crt_stdio_output@@@2@@1@AEAA_NXZ@@Z 00000001401e8580 f i libucrtd:output.obj
 0002:0010d7b0       ??$extract_argument_from_va_list@PEAUansi_string@?1??type_case_Z@?$output_processor@DV?$string_output_adapter@D@__crt_stdio_output@@V?$positional_parameter_base@DV?$string_output_adapter@D@__crt_stdio_output@@@2@@__crt_stdio_output@@AEAA_NXZ@PEAU1?1??234@AEAA_NXZ@@?$standard_base@DV?$string_output_adapter@D@__crt_stdio_output@@@__crt_stdio_output@@IEAA_NAEAPEAUansi_string@?1??type_case_Z@?$output_processor@DV?$string_output_adapter@D@__crt_stdio_output@@V?$positional_parameter_base@DV?$string_output_adapter@D@__crt_stdio_output@@@2@@1@AEAA_NXZ@@Z 00000001401e87b0 f i libucrtd:output.obj
 0002:0010d7f0       ??$extract_argument_from_va_list@PEAUansi_string@?1??type_case_Z@?$output_processor@DV?$string_output_adapter@D@__crt_stdio_output@@V?$standard_base@DV?$string_output_adapter@D@__crt_stdio_output@@@2@@__crt_stdio_output@@AEAA_NXZ@PEAU1?1??234@AEAA_NXZ@@?$standard_base@DV?$string_output_adapter@D@__crt_stdio_output@@@__crt_stdio_output@@IEAA_NAEAPEAUansi_string@?1??type_case_Z@?$output_processor@DV?$string_output_adapter@D@__crt_stdio_output@@V?$standard_base@DV?$string_output_adapter@D@__crt_stdio_output@@@2@@1@AEAA_NXZ@@Z 00000001401e87f0 f i libucrtd:output.obj
 0002:0010d830       ??$extract_argument_from_va_list@PEAUansi_string@?1??type_case_Z@?$output_processor@_WV?$stream_output_adapter@_W@__crt_stdio_output@@V?$format_validation_base@_WV?$stream_output_adapter@_W@__crt_stdio_output@@@2@@__crt_stdio_output@@AEAA_NXZ@PEAU1?1??234@AEAA_NXZ@@?$standard_base@_WV?$stream_output_adapter@_W@__crt_stdio_output@@@__crt_stdio_output@@IEAA_NAEAPEAUansi_string@?1??type_case_Z@?$output_processor@_WV?$stream_output_adapter@_W@__crt_stdio_output@@V?$format_validation_base@_WV?$stream_output_adapter@_W@__crt_stdio_output@@@2@@1@AEAA_NXZ@@Z 00000001401e8830 f i libucrtd:output.obj
 0002:0010d870       ??$extract_argument_from_va_list@PEAUansi_string@?1??type_case_Z@?$output_processor@_WV?$stream_output_adapter@_W@__crt_stdio_output@@V?$positional_parameter_base@_WV?$stream_output_adapter@_W@__crt_stdio_output@@@2@@__crt_stdio_output@@AEAA_NXZ@PEAU1?1??234@AEAA_NXZ@@?$positional_parameter_base@_WV?$stream_output_adapter@_W@__crt_stdio_output@@@__crt_stdio_output@@IEAA_NAEAPEAUansi_string@?1??type_case_Z@?$output_processor@_WV?$stream_output_adapter@_W@__crt_stdio_output@@V?$positional_parameter_base@_WV?$stream_output_adapter@_W@__crt_stdio_output@@@2@@1@AEAA_NXZ@@Z 00000001401e8870 f i libucrtd:output.obj
 0002:0010daa0       ??$extract_argument_from_va_list@PEAUansi_string@?1??type_case_Z@?$output_processor@_WV?$stream_output_adapter@_W@__crt_stdio_output@@V?$positional_parameter_base@_WV?$stream_output_adapter@_W@__crt_stdio_output@@@2@@__crt_stdio_output@@AEAA_NXZ@PEAU1?1??234@AEAA_NXZ@@?$standard_base@_WV?$stream_output_adapter@_W@__crt_stdio_output@@@__crt_stdio_output@@IEAA_NAEAPEAUansi_string@?1??type_case_Z@?$output_processor@_WV?$stream_output_adapter@_W@__crt_stdio_output@@V?$positional_parameter_base@_WV?$stream_output_adapter@_W@__crt_stdio_output@@@2@@1@AEAA_NXZ@@Z 00000001401e8aa0 f i libucrtd:output.obj
 0002:0010dae0       ??$extract_argument_from_va_list@PEAUansi_string@?1??type_case_Z@?$output_processor@_WV?$stream_output_adapter@_W@__crt_stdio_output@@V?$standard_base@_WV?$stream_output_adapter@_W@__crt_stdio_output@@@2@@__crt_stdio_output@@AEAA_NXZ@PEAU1?1??234@AEAA_NXZ@@?$standard_base@_WV?$stream_output_adapter@_W@__crt_stdio_output@@@__crt_stdio_output@@IEAA_NAEAPEAUansi_string@?1??type_case_Z@?$output_processor@_WV?$stream_output_adapter@_W@__crt_stdio_output@@V?$standard_base@_WV?$stream_output_adapter@_W@__crt_stdio_output@@@2@@1@AEAA_NXZ@@Z 00000001401e8ae0 f i libucrtd:output.obj
 0002:0010db20       ??$extract_argument_from_va_list@PEAUansi_string@?1??type_case_Z@?$output_processor@_WV?$string_output_adapter@_W@__crt_stdio_output@@V?$format_validation_base@_WV?$string_output_adapter@_W@__crt_stdio_output@@@2@@__crt_stdio_output@@AEAA_NXZ@PEAU1?1??234@AEAA_NXZ@@?$standard_base@_WV?$string_output_adapter@_W@__crt_stdio_output@@@__crt_stdio_output@@IEAA_NAEAPEAUansi_string@?1??type_case_Z@?$output_processor@_WV?$string_output_adapter@_W@__crt_stdio_output@@V?$format_validation_base@_WV?$string_output_adapter@_W@__crt_stdio_output@@@2@@1@AEAA_NXZ@@Z 00000001401e8b20 f i libucrtd:output.obj
 0002:0010db60       ??$extract_argument_from_va_list@PEAUansi_string@?1??type_case_Z@?$output_processor@_WV?$string_output_adapter@_W@__crt_stdio_output@@V?$positional_parameter_base@_WV?$string_output_adapter@_W@__crt_stdio_output@@@2@@__crt_stdio_output@@AEAA_NXZ@PEAU1?1??234@AEAA_NXZ@@?$positional_parameter_base@_WV?$string_output_adapter@_W@__crt_stdio_output@@@__crt_stdio_output@@IEAA_NAEAPEAUansi_string@?1??type_case_Z@?$output_processor@_WV?$string_output_adapter@_W@__crt_stdio_output@@V?$positional_parameter_base@_WV?$string_output_adapter@_W@__crt_stdio_output@@@2@@1@AEAA_NXZ@@Z 00000001401e8b60 f i libucrtd:output.obj
 0002:0010dd90       ??$extract_argument_from_va_list@PEAUansi_string@?1??type_case_Z@?$output_processor@_WV?$string_output_adapter@_W@__crt_stdio_output@@V?$positional_parameter_base@_WV?$string_output_adapter@_W@__crt_stdio_output@@@2@@__crt_stdio_output@@AEAA_NXZ@PEAU1?1??234@AEAA_NXZ@@?$standard_base@_WV?$string_output_adapter@_W@__crt_stdio_output@@@__crt_stdio_output@@IEAA_NAEAPEAUansi_string@?1??type_case_Z@?$output_processor@_WV?$string_output_adapter@_W@__crt_stdio_output@@V?$positional_parameter_base@_WV?$string_output_adapter@_W@__crt_stdio_output@@@2@@1@AEAA_NXZ@@Z 00000001401e8d90 f i libucrtd:output.obj
 0002:0010ddd0       ??$extract_argument_from_va_list@PEAUansi_string@?1??type_case_Z@?$output_processor@_WV?$string_output_adapter@_W@__crt_stdio_output@@V?$standard_base@_WV?$string_output_adapter@_W@__crt_stdio_output@@@2@@__crt_stdio_output@@AEAA_NXZ@PEAU1?1??234@AEAA_NXZ@@?$standard_base@_WV?$string_output_adapter@_W@__crt_stdio_output@@@__crt_stdio_output@@IEAA_NAEAPEAUansi_string@?1??type_case_Z@?$output_processor@_WV?$string_output_adapter@_W@__crt_stdio_output@@V?$standard_base@_WV?$string_output_adapter@_W@__crt_stdio_output@@@2@@1@AEAA_NXZ@@Z 00000001401e8dd0 f i libucrtd:output.obj
 0002:0010de10       ??$extract_argument_from_va_list@PEAXPEAX@?$positional_parameter_base@DV?$stream_output_adapter@D@__crt_stdio_output@@@__crt_stdio_output@@IEAA_NAEAPEAX@Z 00000001401e8e10 f i libucrtd:output.obj
 0002:0010e040       ??$extract_argument_from_va_list@PEAXPEAX@?$positional_parameter_base@DV?$string_output_adapter@D@__crt_stdio_output@@@__crt_stdio_output@@IEAA_NAEAPEAX@Z 00000001401e9040 f i libucrtd:output.obj
 0002:0010e270       ??$extract_argument_from_va_list@PEAXPEAX@?$positional_parameter_base@_WV?$stream_output_adapter@_W@__crt_stdio_output@@@__crt_stdio_output@@IEAA_NAEAPEAX@Z 00000001401e9270 f i libucrtd:output.obj
 0002:0010e4a0       ??$extract_argument_from_va_list@PEAXPEAX@?$positional_parameter_base@_WV?$string_output_adapter@_W@__crt_stdio_output@@@__crt_stdio_output@@IEAA_NAEAPEAX@Z 00000001401e94a0 f i libucrtd:output.obj
 0002:0010e6d0       ??$extract_argument_from_va_list@PEAXPEAX@?$standard_base@DV?$stream_output_adapter@D@__crt_stdio_output@@@__crt_stdio_output@@IEAA_NAEAPEAX@Z 00000001401e96d0 f i libucrtd:output.obj
 0002:0010e710       ??$extract_argument_from_va_list@PEAXPEAX@?$standard_base@DV?$string_output_adapter@D@__crt_stdio_output@@@__crt_stdio_output@@IEAA_NAEAPEAX@Z 00000001401e9710 f i libucrtd:output.obj
 0002:0010e750       ??$extract_argument_from_va_list@PEAXPEAX@?$standard_base@_WV?$stream_output_adapter@_W@__crt_stdio_output@@@__crt_stdio_output@@IEAA_NAEAPEAX@Z 00000001401e9750 f i libucrtd:output.obj
 0002:0010e790       ??$extract_argument_from_va_list@PEAXPEAX@?$standard_base@_WV?$string_output_adapter@_W@__crt_stdio_output@@@__crt_stdio_output@@IEAA_NAEAPEAX@Z 00000001401e9790 f i libucrtd:output.obj
 0002:0010e7d0       ??$extract_argument_from_va_list@U_CRT_DOUBLE@@U1@@?$positional_parameter_base@DV?$stream_output_adapter@D@__crt_stdio_output@@@__crt_stdio_output@@IEAA_NAEAU_CRT_DOUBLE@@@Z 00000001401e97d0 f i libucrtd:output.obj
 0002:0010ea70       ??$extract_argument_from_va_list@U_CRT_DOUBLE@@U1@@?$positional_parameter_base@DV?$string_output_adapter@D@__crt_stdio_output@@@__crt_stdio_output@@IEAA_NAEAU_CRT_DOUBLE@@@Z 00000001401e9a70 f i libucrtd:output.obj
 0002:0010ed10       ??$extract_argument_from_va_list@U_CRT_DOUBLE@@U1@@?$positional_parameter_base@_WV?$stream_output_adapter@_W@__crt_stdio_output@@@__crt_stdio_output@@IEAA_NAEAU_CRT_DOUBLE@@@Z 00000001401e9d10 f i libucrtd:output.obj
 0002:0010efb0       ??$extract_argument_from_va_list@U_CRT_DOUBLE@@U1@@?$positional_parameter_base@_WV?$string_output_adapter@_W@__crt_stdio_output@@@__crt_stdio_output@@IEAA_NAEAU_CRT_DOUBLE@@@Z 00000001401e9fb0 f i libucrtd:output.obj
 0002:0010f250       ??$extract_argument_from_va_list@U_CRT_DOUBLE@@U1@@?$standard_base@DV?$stream_output_adapter@D@__crt_stdio_output@@@__crt_stdio_output@@IEAA_NAEAU_CRT_DOUBLE@@@Z 00000001401ea250 f i libucrtd:output.obj
 0002:0010f2b0       ??$extract_argument_from_va_list@U_CRT_DOUBLE@@U1@@?$standard_base@DV?$string_output_adapter@D@__crt_stdio_output@@@__crt_stdio_output@@IEAA_NAEAU_CRT_DOUBLE@@@Z 00000001401ea2b0 f i libucrtd:output.obj
 0002:0010f310       ??$extract_argument_from_va_list@U_CRT_DOUBLE@@U1@@?$standard_base@_WV?$stream_output_adapter@_W@__crt_stdio_output@@@__crt_stdio_output@@IEAA_NAEAU_CRT_DOUBLE@@@Z 00000001401ea310 f i libucrtd:output.obj
 0002:0010f370       ??$extract_argument_from_va_list@U_CRT_DOUBLE@@U1@@?$standard_base@_WV?$string_output_adapter@_W@__crt_stdio_output@@@__crt_stdio_output@@IEAA_NAEAU_CRT_DOUBLE@@@Z 00000001401ea370 f i libucrtd:output.obj
 0002:0010f3d0       ??$extract_argument_from_va_list@_J_J@?$positional_parameter_base@DV?$stream_output_adapter@D@__crt_stdio_output@@@__crt_stdio_output@@IEAA_NAEA_J@Z 00000001401ea3d0 f i libucrtd:output.obj
 0002:0010f600       ??$extract_argument_from_va_list@_J_J@?$positional_parameter_base@DV?$string_output_adapter@D@__crt_stdio_output@@@__crt_stdio_output@@IEAA_NAEA_J@Z 00000001401ea600 f i libucrtd:output.obj
 0002:0010f830       ??$extract_argument_from_va_list@_J_J@?$positional_parameter_base@_WV?$stream_output_adapter@_W@__crt_stdio_output@@@__crt_stdio_output@@IEAA_NAEA_J@Z 00000001401ea830 f i libucrtd:output.obj
 0002:0010fa60       ??$extract_argument_from_va_list@_J_J@?$positional_parameter_base@_WV?$string_output_adapter@_W@__crt_stdio_output@@@__crt_stdio_output@@IEAA_NAEA_J@Z 00000001401eaa60 f i libucrtd:output.obj
 0002:0010fc90       ??$extract_argument_from_va_list@_J_J@?$standard_base@DV?$stream_output_adapter@D@__crt_stdio_output@@@__crt_stdio_output@@IEAA_NAEA_J@Z 00000001401eac90 f i libucrtd:output.obj
 0002:0010fcd0       ??$extract_argument_from_va_list@_J_J@?$standard_base@DV?$string_output_adapter@D@__crt_stdio_output@@@__crt_stdio_output@@IEAA_NAEA_J@Z 00000001401eacd0 f i libucrtd:output.obj
 0002:0010fd10       ??$extract_argument_from_va_list@_J_J@?$standard_base@_WV?$stream_output_adapter@_W@__crt_stdio_output@@@__crt_stdio_output@@IEAA_NAEA_J@Z 00000001401ead10 f i libucrtd:output.obj
 0002:0010fd50       ??$extract_argument_from_va_list@_J_J@?$standard_base@_WV?$string_output_adapter@_W@__crt_stdio_output@@@__crt_stdio_output@@IEAA_NAEA_J@Z 00000001401ead50 f i libucrtd:output.obj
 0002:0010fd90       ??$extract_argument_from_va_list@_K_J@?$positional_parameter_base@DV?$stream_output_adapter@D@__crt_stdio_output@@@__crt_stdio_output@@IEAA_NAEA_J@Z 00000001401ead90 f i libucrtd:output.obj
 0002:0010ffc0       ??$extract_argument_from_va_list@_K_J@?$positional_parameter_base@DV?$string_output_adapter@D@__crt_stdio_output@@@__crt_stdio_output@@IEAA_NAEA_J@Z 00000001401eafc0 f i libucrtd:output.obj
 0002:001101f0       ??$extract_argument_from_va_list@_K_J@?$positional_parameter_base@_WV?$stream_output_adapter@_W@__crt_stdio_output@@@__crt_stdio_output@@IEAA_NAEA_J@Z 00000001401eb1f0 f i libucrtd:output.obj
 0002:00110420       ??$extract_argument_from_va_list@_K_J@?$positional_parameter_base@_WV?$string_output_adapter@_W@__crt_stdio_output@@@__crt_stdio_output@@IEAA_NAEA_J@Z 00000001401eb420 f i libucrtd:output.obj
 0002:00110650       ??$extract_argument_from_va_list@_K_J@?$standard_base@DV?$stream_output_adapter@D@__crt_stdio_output@@@__crt_stdio_output@@IEAA_NAEA_J@Z 00000001401eb650 f i libucrtd:output.obj
 0002:00110690       ??$extract_argument_from_va_list@_K_J@?$standard_base@DV?$string_output_adapter@D@__crt_stdio_output@@@__crt_stdio_output@@IEAA_NAEA_J@Z 00000001401eb690 f i libucrtd:output.obj
 0002:001106d0       ??$extract_argument_from_va_list@_K_J@?$standard_base@_WV?$stream_output_adapter@_W@__crt_stdio_output@@@__crt_stdio_output@@IEAA_NAEA_J@Z 00000001401eb6d0 f i libucrtd:output.obj
 0002:00110710       ??$extract_argument_from_va_list@_K_J@?$standard_base@_WV?$string_output_adapter@_W@__crt_stdio_output@@@__crt_stdio_output@@IEAA_NAEA_J@Z 00000001401eb710 f i libucrtd:output.obj
 0002:00110750       ??$extract_argument_from_va_list@_W_W@?$positional_parameter_base@DV?$stream_output_adapter@D@__crt_stdio_output@@@__crt_stdio_output@@IEAA_NAEA_W@Z 00000001401eb750 f i libucrtd:output.obj
 0002:00110980       ??$extract_argument_from_va_list@_W_W@?$positional_parameter_base@DV?$string_output_adapter@D@__crt_stdio_output@@@__crt_stdio_output@@IEAA_NAEA_W@Z 00000001401eb980 f i libucrtd:output.obj
 0002:00110bb0       ??$extract_argument_from_va_list@_W_W@?$positional_parameter_base@_WV?$stream_output_adapter@_W@__crt_stdio_output@@@__crt_stdio_output@@IEAA_NAEA_W@Z 00000001401ebbb0 f i libucrtd:output.obj
 0002:00110de0       ??$extract_argument_from_va_list@_W_W@?$positional_parameter_base@_WV?$string_output_adapter@_W@__crt_stdio_output@@@__crt_stdio_output@@IEAA_NAEA_W@Z 00000001401ebde0 f i libucrtd:output.obj
 0002:00111010       ??$extract_argument_from_va_list@_W_W@?$standard_base@DV?$stream_output_adapter@D@__crt_stdio_output@@@__crt_stdio_output@@IEAA_NAEA_W@Z 00000001401ec010 f i libucrtd:output.obj
 0002:00111050       ??$extract_argument_from_va_list@_W_W@?$standard_base@DV?$string_output_adapter@D@__crt_stdio_output@@@__crt_stdio_output@@IEAA_NAEA_W@Z 00000001401ec050 f i libucrtd:output.obj
 0002:00111090       ??$extract_argument_from_va_list@_W_W@?$standard_base@_WV?$stream_output_adapter@_W@__crt_stdio_output@@@__crt_stdio_output@@IEAA_NAEA_W@Z 00000001401ec090 f i libucrtd:output.obj
 0002:001110d0       ??$extract_argument_from_va_list@_W_W@?$standard_base@_WV?$string_output_adapter@_W@__crt_stdio_output@@@__crt_stdio_output@@IEAA_NAEA_W@Z 00000001401ec0d0 f i libucrtd:output.obj
 0002:00111110       ??$get_parameter_type@D@?$positional_parameter_base@DV?$stream_output_adapter@D@__crt_stdio_output@@@__crt_stdio_output@@CA?AW4parameter_type@01@PEAD@Z 00000001401ec110 f i libucrtd:output.obj
 0002:00111120       ??$get_parameter_type@D@?$positional_parameter_base@DV?$string_output_adapter@D@__crt_stdio_output@@@__crt_stdio_output@@CA?AW4parameter_type@01@PEAD@Z 00000001401ec120 f i libucrtd:output.obj
 0002:00111130       ??$get_parameter_type@D@?$positional_parameter_base@_WV?$stream_output_adapter@_W@__crt_stdio_output@@@__crt_stdio_output@@CA?AW4parameter_type@01@PEAD@Z 00000001401ec130 f i libucrtd:output.obj
 0002:00111140       ??$get_parameter_type@D@?$positional_parameter_base@_WV?$string_output_adapter@_W@__crt_stdio_output@@@__crt_stdio_output@@CA?AW4parameter_type@01@PEAD@Z 00000001401ec140 f i libucrtd:output.obj
 0002:00111150       ??$get_parameter_type@Uansi_string@?1??type_case_Z@?$output_processor@DV?$stream_output_adapter@D@__crt_stdio_output@@V?$positional_parameter_base@DV?$stream_output_adapter@D@__crt_stdio_output@@@2@@__crt_stdio_output@@AEAA_NXZ@@?$positional_parameter_base@DV?$stream_output_adapter@D@__crt_stdio_output@@@__crt_stdio_output@@CA?AW4parameter_type@01@PEAUansi_string@?1??type_case_Z@?$output_processor@DV?$stream_output_adapter@D@__crt_stdio_output@@V?$positional_parameter_base@DV?$stream_output_adapter@D@__crt_stdio_output@@@2@@1@AEAA_NXZ@@Z 00000001401ec150 f i libucrtd:output.obj
 0002:00111160       ??$get_parameter_type@Uansi_string@?1??type_case_Z@?$output_processor@DV?$string_output_adapter@D@__crt_stdio_output@@V?$positional_parameter_base@DV?$string_output_adapter@D@__crt_stdio_output@@@2@@__crt_stdio_output@@AEAA_NXZ@@?$positional_parameter_base@DV?$string_output_adapter@D@__crt_stdio_output@@@__crt_stdio_output@@CA?AW4parameter_type@01@PEAUansi_string@?1??type_case_Z@?$output_processor@DV?$string_output_adapter@D@__crt_stdio_output@@V?$positional_parameter_base@DV?$string_output_adapter@D@__crt_stdio_output@@@2@@1@AEAA_NXZ@@Z 00000001401ec160 f i libucrtd:output.obj
 0002:00111170       ??$get_parameter_type@Uansi_string@?1??type_case_Z@?$output_processor@_WV?$stream_output_adapter@_W@__crt_stdio_output@@V?$positional_parameter_base@_WV?$stream_output_adapter@_W@__crt_stdio_output@@@2@@__crt_stdio_output@@AEAA_NXZ@@?$positional_parameter_base@_WV?$stream_output_adapter@_W@__crt_stdio_output@@@__crt_stdio_output@@CA?AW4parameter_type@01@PEAUansi_string@?1??type_case_Z@?$output_processor@_WV?$stream_output_adapter@_W@__crt_stdio_output@@V?$positional_parameter_base@_WV?$stream_output_adapter@_W@__crt_stdio_output@@@2@@1@AEAA_NXZ@@Z 00000001401ec170 f i libucrtd:output.obj
 0002:00111180       ??$get_parameter_type@Uansi_string@?1??type_case_Z@?$output_processor@_WV?$string_output_adapter@_W@__crt_stdio_output@@V?$positional_parameter_base@_WV?$string_output_adapter@_W@__crt_stdio_output@@@2@@__crt_stdio_output@@AEAA_NXZ@@?$positional_parameter_base@_WV?$string_output_adapter@_W@__crt_stdio_output@@@__crt_stdio_output@@CA?AW4parameter_type@01@PEAUansi_string@?1??type_case_Z@?$output_processor@_WV?$string_output_adapter@_W@__crt_stdio_output@@V?$positional_parameter_base@_WV?$string_output_adapter@_W@__crt_stdio_output@@@2@@1@AEAA_NXZ@@Z 00000001401ec180 f i libucrtd:output.obj
 0002:00111190       ??$get_parameter_type@X@?$positional_parameter_base@DV?$stream_output_adapter@D@__crt_stdio_output@@@__crt_stdio_output@@CA?AW4parameter_type@01@PEAX@Z 00000001401ec190 f i libucrtd:output.obj
 0002:001111a0       ??$get_parameter_type@X@?$positional_parameter_base@DV?$string_output_adapter@D@__crt_stdio_output@@@__crt_stdio_output@@CA?AW4parameter_type@01@PEAX@Z 00000001401ec1a0 f i libucrtd:output.obj
 0002:001111b0       ??$get_parameter_type@X@?$positional_parameter_base@_WV?$stream_output_adapter@_W@__crt_stdio_output@@@__crt_stdio_output@@CA?AW4parameter_type@01@PEAX@Z 00000001401ec1b0 f i libucrtd:output.obj
 0002:001111c0       ??$get_parameter_type@X@?$positional_parameter_base@_WV?$string_output_adapter@_W@__crt_stdio_output@@@__crt_stdio_output@@CA?AW4parameter_type@01@PEAX@Z 00000001401ec1c0 f i libucrtd:output.obj
 0002:001111d0       ??$is_character_specifier@D@?$positional_parameter_base@DV?$stream_output_adapter@D@__crt_stdio_output@@@__crt_stdio_output@@CA_ND@Z 00000001401ec1d0 f i libucrtd:output.obj
 0002:00111220       ??$is_character_specifier@D@?$positional_parameter_base@DV?$string_output_adapter@D@__crt_stdio_output@@@__crt_stdio_output@@CA_ND@Z 00000001401ec220 f i libucrtd:output.obj
 0002:00111270       ??$is_character_specifier@_W@?$positional_parameter_base@_WV?$stream_output_adapter@_W@__crt_stdio_output@@@__crt_stdio_output@@CA_N_W@Z 00000001401ec270 f i libucrtd:output.obj
 0002:001112c0       ??$is_character_specifier@_W@?$positional_parameter_base@_WV?$string_output_adapter@_W@__crt_stdio_output@@@__crt_stdio_output@@CA_N_W@Z 00000001401ec2c0 f i libucrtd:output.obj
 0002:00111310       ??$is_integral_specifier@D@?$positional_parameter_base@DV?$stream_output_adapter@D@__crt_stdio_output@@@__crt_stdio_output@@CA_ND@Z 00000001401ec310 f i libucrtd:output.obj
 0002:00111390       ??$is_integral_specifier@D@?$positional_parameter_base@DV?$string_output_adapter@D@__crt_stdio_output@@@__crt_stdio_output@@CA_ND@Z 00000001401ec390 f i libucrtd:output.obj
 0002:00111410       ??$is_integral_specifier@_W@?$positional_parameter_base@_WV?$stream_output_adapter@_W@__crt_stdio_output@@@__crt_stdio_output@@CA_N_W@Z 00000001401ec410 f i libucrtd:output.obj
 0002:001114a0       ??$is_integral_specifier@_W@?$positional_parameter_base@_WV?$string_output_adapter@_W@__crt_stdio_output@@@__crt_stdio_output@@CA_N_W@Z 00000001401ec4a0 f i libucrtd:output.obj
 0002:00111530       ??$is_overflow_condition@K@__crt_strtox@@YA_NIK@Z 00000001401ec530 f i libucrtd:output.obj
 0002:001115b0       ??$is_pointer_specifier@D@?$positional_parameter_base@DV?$stream_output_adapter@D@__crt_stdio_output@@@__crt_stdio_output@@CA_ND@Z 00000001401ec5b0 f i libucrtd:output.obj
 0002:001115f0       ??$is_pointer_specifier@D@?$positional_parameter_base@DV?$string_output_adapter@D@__crt_stdio_output@@@__crt_stdio_output@@CA_ND@Z 00000001401ec5f0 f i libucrtd:output.obj
 0002:00111630       ??$is_pointer_specifier@_W@?$positional_parameter_base@_WV?$stream_output_adapter@_W@__crt_stdio_output@@@__crt_stdio_output@@CA_N_W@Z 00000001401ec630 f i libucrtd:output.obj
 0002:00111670       ??$is_pointer_specifier@_W@?$positional_parameter_base@_WV?$string_output_adapter@_W@__crt_stdio_output@@@__crt_stdio_output@@CA_N_W@Z 00000001401ec670 f i libucrtd:output.obj
 0002:001116b0       ??$is_string_specifier@D@?$positional_parameter_base@DV?$stream_output_adapter@D@__crt_stdio_output@@@__crt_stdio_output@@CA_ND@Z 00000001401ec6b0 f i libucrtd:output.obj
 0002:00111700       ??$is_string_specifier@D@?$positional_parameter_base@DV?$string_output_adapter@D@__crt_stdio_output@@@__crt_stdio_output@@CA_ND@Z 00000001401ec700 f i libucrtd:output.obj
 0002:00111750       ??$is_string_specifier@_W@?$positional_parameter_base@_WV?$stream_output_adapter@_W@__crt_stdio_output@@@__crt_stdio_output@@CA_N_W@Z 00000001401ec750 f i libucrtd:output.obj
 0002:001117a0       ??$is_string_specifier@_W@?$positional_parameter_base@_WV?$string_output_adapter@_W@__crt_stdio_output@@@__crt_stdio_output@@CA_N_W@Z 00000001401ec7a0 f i libucrtd:output.obj
 0002:001117f0       ??$is_wide_character_specifier@D@__crt_stdio_output@@YA_N_KDW4length_modifier@0@@Z 00000001401ec7f0 f i libucrtd:output.obj
 0002:001118b0       ??$is_wide_character_specifier@_W@__crt_stdio_output@@YA_N_K_WW4length_modifier@0@@Z 00000001401ec8b0 f i libucrtd:output.obj
 0002:001119b0       ??$parse_integer@KV?$c_string_character_source@D@__crt_strtox@@$0A@@__crt_strtox@@YAKAEAV__crt_cached_ptd_host@@V?$c_string_character_source@D@0@H_N@Z 00000001401ec9b0 f i libucrtd:output.obj
 0002:00111f50       ??$parse_integer@KV?$c_string_character_source@_W@__crt_strtox@@$0A@@__crt_strtox@@YAKAEAV__crt_cached_ptd_host@@V?$c_string_character_source@_W@0@H_N@Z 00000001401ecf50 f i libucrtd:output.obj
 0002:001124f0       ??$peek_va_arg@C@__crt_stdio_output@@YACPEAD@Z 00000001401ed4f0 f i libucrtd:output.obj
 0002:00112560       ??$peek_va_arg@E@__crt_stdio_output@@YAEPEAD@Z 00000001401ed560 f i libucrtd:output.obj
 0002:001125d0       ??$peek_va_arg@F@__crt_stdio_output@@YAFPEAD@Z 00000001401ed5d0 f i libucrtd:output.obj
 0002:00112640       ??$peek_va_arg@G@__crt_stdio_output@@YAGPEAD@Z 00000001401ed640 f i libucrtd:output.obj
 0002:001126b0       ??$peek_va_arg@H@__crt_stdio_output@@YAHPEAD@Z 00000001401ed6b0 f i libucrtd:output.obj
 0002:00112720       ??$peek_va_arg@I@__crt_stdio_output@@YAIPEAD@Z 00000001401ed720 f i libucrtd:output.obj
 0002:00112790       ??$peek_va_arg@PEAD@__crt_stdio_output@@YAPEADPEAD@Z 00000001401ed790 f i libucrtd:output.obj
 0002:00112800       ??$peek_va_arg@PEAUansi_string@?1??type_case_Z@?$output_processor@DV?$stream_output_adapter@D@__crt_stdio_output@@V?$positional_parameter_base@DV?$stream_output_adapter@D@__crt_stdio_output@@@2@@__crt_stdio_output@@AEAA_NXZ@@__crt_stdio_output@@YAPEAUansi_string@?1??type_case_Z@?$output_processor@DV?$stream_output_adapter@D@__crt_stdio_output@@V?$positional_parameter_base@DV?$stream_output_adapter@D@__crt_stdio_output@@@2@@0@AEAA_NXZ@PEAD@Z 00000001401ed800 f i libucrtd:output.obj
 0002:00112870       ??$peek_va_arg@PEAUansi_string@?1??type_case_Z@?$output_processor@DV?$string_output_adapter@D@__crt_stdio_output@@V?$positional_parameter_base@DV?$string_output_adapter@D@__crt_stdio_output@@@2@@__crt_stdio_output@@AEAA_NXZ@@__crt_stdio_output@@YAPEAUansi_string@?1??type_case_Z@?$output_processor@DV?$string_output_adapter@D@__crt_stdio_output@@V?$positional_parameter_base@DV?$string_output_adapter@D@__crt_stdio_output@@@2@@0@AEAA_NXZ@PEAD@Z 00000001401ed870 f i libucrtd:output.obj
 0002:001128e0       ??$peek_va_arg@PEAUansi_string@?1??type_case_Z@?$output_processor@_WV?$stream_output_adapter@_W@__crt_stdio_output@@V?$positional_parameter_base@_WV?$stream_output_adapter@_W@__crt_stdio_output@@@2@@__crt_stdio_output@@AEAA_NXZ@@__crt_stdio_output@@YAPEAUansi_string@?1??type_case_Z@?$output_processor@_WV?$stream_output_adapter@_W@__crt_stdio_output@@V?$positional_parameter_base@_WV?$stream_output_adapter@_W@__crt_stdio_output@@@2@@0@AEAA_NXZ@PEAD@Z 00000001401ed8e0 f i libucrtd:output.obj
 0002:00112950       ??$peek_va_arg@PEAUansi_string@?1??type_case_Z@?$output_processor@_WV?$string_output_adapter@_W@__crt_stdio_output@@V?$positional_parameter_base@_WV?$string_output_adapter@_W@__crt_stdio_output@@@2@@__crt_stdio_output@@AEAA_NXZ@@__crt_stdio_output@@YAPEAUansi_string@?1??type_case_Z@?$output_processor@_WV?$string_output_adapter@_W@__crt_stdio_output@@V?$positional_parameter_base@_WV?$string_output_adapter@_W@__crt_stdio_output@@@2@@0@AEAA_NXZ@PEAD@Z 00000001401ed950 f i libucrtd:output.obj
 0002:001129c0       ??$peek_va_arg@PEAX@__crt_stdio_output@@YAPEAXPEAD@Z 00000001401ed9c0 f i libucrtd:output.obj
 0002:00112a30       ??$peek_va_arg@U_CRT_DOUBLE@@@__crt_stdio_output@@YA?AU_CRT_DOUBLE@@PEAD@Z 00000001401eda30 f i libucrtd:output.obj
 0002:00112aa0       ??$peek_va_arg@_J@__crt_stdio_output@@YA_JPEAD@Z 00000001401edaa0 f i libucrtd:output.obj
 0002:00112b10       ??$peek_va_arg@_K@__crt_stdio_output@@YA_KPEAD@Z 00000001401edb10 f i libucrtd:output.obj
 0002:00112b80       ??$peek_va_arg@_W@__crt_stdio_output@@YA_WPEAD@Z 00000001401edb80 f i libucrtd:output.obj
 0002:00112bf0       ??$puttc_nolock_internal@AEBDPEAU_iobuf@@AEAV__crt_cached_ptd_host@@@?$__crt_char_traits@D@@SAHAEBD$$QEAPEAU_iobuf@@AEAV__crt_cached_ptd_host@@@Z 00000001401edbf0 f i libucrtd:output.obj
 0002:00112c40       ??$puttc_nolock_internal@AEB_WPEAU_iobuf@@AEAV__crt_cached_ptd_host@@@?$__crt_char_traits@_W@@SAGAEB_W$$QEAPEAU_iobuf@@AEAV__crt_cached_ptd_host@@@Z 00000001401edc40 f i libucrtd:output.obj
 0002:00112c80       ??$read_va_arg@C@__crt_stdio_output@@YACAEAPEAD@Z 00000001401edc80 f i libucrtd:output.obj
 0002:00112d00       ??$read_va_arg@E@__crt_stdio_output@@YAEAEAPEAD@Z 00000001401edd00 f i libucrtd:output.obj
 0002:00112d80       ??$read_va_arg@F@__crt_stdio_output@@YAFAEAPEAD@Z 00000001401edd80 f i libucrtd:output.obj
 0002:00112e00       ??$read_va_arg@G@__crt_stdio_output@@YAGAEAPEAD@Z 00000001401ede00 f i libucrtd:output.obj
 0002:00112e80       ??$read_va_arg@H@__crt_stdio_output@@YAHAEAPEAD@Z 00000001401ede80 f i libucrtd:output.obj
 0002:00112f00       ??$read_va_arg@I@__crt_stdio_output@@YAIAEAPEAD@Z 00000001401edf00 f i libucrtd:output.obj
 0002:00112f80       ??$read_va_arg@PEAD@__crt_stdio_output@@YAPEADAEAPEAD@Z 00000001401edf80 f i libucrtd:output.obj
 0002:00113000       ??$read_va_arg@PEAUansi_string@?1??type_case_Z@?$output_processor@DV?$stream_output_adapter@D@__crt_stdio_output@@V?$format_validation_base@DV?$stream_output_adapter@D@__crt_stdio_output@@@2@@__crt_stdio_output@@AEAA_NXZ@@__crt_stdio_output@@YAPEAUansi_string@?1??type_case_Z@?$output_processor@DV?$stream_output_adapter@D@__crt_stdio_output@@V?$format_validation_base@DV?$stream_output_adapter@D@__crt_stdio_output@@@2@@0@AEAA_NXZ@AEAPEAD@Z 00000001401ee000 f i libucrtd:output.obj
 0002:00113080       ??$read_va_arg@PEAUansi_string@?1??type_case_Z@?$output_processor@DV?$stream_output_adapter@D@__crt_stdio_output@@V?$positional_parameter_base@DV?$stream_output_adapter@D@__crt_stdio_output@@@2@@__crt_stdio_output@@AEAA_NXZ@@__crt_stdio_output@@YAPEAUansi_string@?1??type_case_Z@?$output_processor@DV?$stream_output_adapter@D@__crt_stdio_output@@V?$positional_parameter_base@DV?$stream_output_adapter@D@__crt_stdio_output@@@2@@0@AEAA_NXZ@AEAPEAD@Z 00000001401ee080 f i libucrtd:output.obj
 0002:00113100       ??$read_va_arg@PEAUansi_string@?1??type_case_Z@?$output_processor@DV?$stream_output_adapter@D@__crt_stdio_output@@V?$standard_base@DV?$stream_output_adapter@D@__crt_stdio_output@@@2@@__crt_stdio_output@@AEAA_NXZ@@__crt_stdio_output@@YAPEAUansi_string@?1??type_case_Z@?$output_processor@DV?$stream_output_adapter@D@__crt_stdio_output@@V?$standard_base@DV?$stream_output_adapter@D@__crt_stdio_output@@@2@@0@AEAA_NXZ@AEAPEAD@Z 00000001401ee100 f i libucrtd:output.obj
 0002:00113180       ??$read_va_arg@PEAUansi_string@?1??type_case_Z@?$output_processor@DV?$string_output_adapter@D@__crt_stdio_output@@V?$format_validation_base@DV?$string_output_adapter@D@__crt_stdio_output@@@2@@__crt_stdio_output@@AEAA_NXZ@@__crt_stdio_output@@YAPEAUansi_string@?1??type_case_Z@?$output_processor@DV?$string_output_adapter@D@__crt_stdio_output@@V?$format_validation_base@DV?$string_output_adapter@D@__crt_stdio_output@@@2@@0@AEAA_NXZ@AEAPEAD@Z 00000001401ee180 f i libucrtd:output.obj
 0002:00113200       ??$read_va_arg@PEAUansi_string@?1??type_case_Z@?$output_processor@DV?$string_output_adapter@D@__crt_stdio_output@@V?$positional_parameter_base@DV?$string_output_adapter@D@__crt_stdio_output@@@2@@__crt_stdio_output@@AEAA_NXZ@@__crt_stdio_output@@YAPEAUansi_string@?1??type_case_Z@?$output_processor@DV?$string_output_adapter@D@__crt_stdio_output@@V?$positional_parameter_base@DV?$string_output_adapter@D@__crt_stdio_output@@@2@@0@AEAA_NXZ@AEAPEAD@Z 00000001401ee200 f i libucrtd:output.obj
 0002:00113280       ??$read_va_arg@PEAUansi_string@?1??type_case_Z@?$output_processor@DV?$string_output_adapter@D@__crt_stdio_output@@V?$standard_base@DV?$string_output_adapter@D@__crt_stdio_output@@@2@@__crt_stdio_output@@AEAA_NXZ@@__crt_stdio_output@@YAPEAUansi_string@?1??type_case_Z@?$output_processor@DV?$string_output_adapter@D@__crt_stdio_output@@V?$standard_base@DV?$string_output_adapter@D@__crt_stdio_output@@@2@@0@AEAA_NXZ@AEAPEAD@Z 00000001401ee280 f i libucrtd:output.obj
 0002:00113300       ??$read_va_arg@PEAUansi_string@?1??type_case_Z@?$output_processor@_WV?$stream_output_adapter@_W@__crt_stdio_output@@V?$format_validation_base@_WV?$stream_output_adapter@_W@__crt_stdio_output@@@2@@__crt_stdio_output@@AEAA_NXZ@@__crt_stdio_output@@YAPEAUansi_string@?1??type_case_Z@?$output_processor@_WV?$stream_output_adapter@_W@__crt_stdio_output@@V?$format_validation_base@_WV?$stream_output_adapter@_W@__crt_stdio_output@@@2@@0@AEAA_NXZ@AEAPEAD@Z 00000001401ee300 f i libucrtd:output.obj
 0002:00113380       ??$read_va_arg@PEAUansi_string@?1??type_case_Z@?$output_processor@_WV?$stream_output_adapter@_W@__crt_stdio_output@@V?$positional_parameter_base@_WV?$stream_output_adapter@_W@__crt_stdio_output@@@2@@__crt_stdio_output@@AEAA_NXZ@@__crt_stdio_output@@YAPEAUansi_string@?1??type_case_Z@?$output_processor@_WV?$stream_output_adapter@_W@__crt_stdio_output@@V?$positional_parameter_base@_WV?$stream_output_adapter@_W@__crt_stdio_output@@@2@@0@AEAA_NXZ@AEAPEAD@Z 00000001401ee380 f i libucrtd:output.obj
 0002:00113400       ??$read_va_arg@PEAUansi_string@?1??type_case_Z@?$output_processor@_WV?$stream_output_adapter@_W@__crt_stdio_output@@V?$standard_base@_WV?$stream_output_adapter@_W@__crt_stdio_output@@@2@@__crt_stdio_output@@AEAA_NXZ@@__crt_stdio_output@@YAPEAUansi_string@?1??type_case_Z@?$output_processor@_WV?$stream_output_adapter@_W@__crt_stdio_output@@V?$standard_base@_WV?$stream_output_adapter@_W@__crt_stdio_output@@@2@@0@AEAA_NXZ@AEAPEAD@Z 00000001401ee400 f i libucrtd:output.obj
 0002:00113480       ??$read_va_arg@PEAUansi_string@?1??type_case_Z@?$output_processor@_WV?$string_output_adapter@_W@__crt_stdio_output@@V?$format_validation_base@_WV?$string_output_adapter@_W@__crt_stdio_output@@@2@@__crt_stdio_output@@AEAA_NXZ@@__crt_stdio_output@@YAPEAUansi_string@?1??type_case_Z@?$output_processor@_WV?$string_output_adapter@_W@__crt_stdio_output@@V?$format_validation_base@_WV?$string_output_adapter@_W@__crt_stdio_output@@@2@@0@AEAA_NXZ@AEAPEAD@Z 00000001401ee480 f i libucrtd:output.obj
 0002:00113500       ??$read_va_arg@PEAUansi_string@?1??type_case_Z@?$output_processor@_WV?$string_output_adapter@_W@__crt_stdio_output@@V?$positional_parameter_base@_WV?$string_output_adapter@_W@__crt_stdio_output@@@2@@__crt_stdio_output@@AEAA_NXZ@@__crt_stdio_output@@YAPEAUansi_string@?1??type_case_Z@?$output_processor@_WV?$string_output_adapter@_W@__crt_stdio_output@@V?$positional_parameter_base@_WV?$string_output_adapter@_W@__crt_stdio_output@@@2@@0@AEAA_NXZ@AEAPEAD@Z 00000001401ee500 f i libucrtd:output.obj
 0002:00113580       ??$read_va_arg@PEAUansi_string@?1??type_case_Z@?$output_processor@_WV?$string_output_adapter@_W@__crt_stdio_output@@V?$standard_base@_WV?$string_output_adapter@_W@__crt_stdio_output@@@2@@__crt_stdio_output@@AEAA_NXZ@@__crt_stdio_output@@YAPEAUansi_string@?1??type_case_Z@?$output_processor@_WV?$string_output_adapter@_W@__crt_stdio_output@@V?$standard_base@_WV?$string_output_adapter@_W@__crt_stdio_output@@@2@@0@AEAA_NXZ@AEAPEAD@Z 00000001401ee580 f i libucrtd:output.obj
 0002:00113600       ??$read_va_arg@PEAX@__crt_stdio_output@@YAPEAXAEAPEAD@Z 00000001401ee600 f i libucrtd:output.obj
 0002:00113680       ??$read_va_arg@U_CRT_DOUBLE@@@__crt_stdio_output@@YA?AU_CRT_DOUBLE@@AEAPEAD@Z 00000001401ee680 f i libucrtd:output.obj
 0002:00113700       ??$read_va_arg@_J@__crt_stdio_output@@YA_JAEAPEAD@Z 00000001401ee700 f i libucrtd:output.obj
 0002:00113780       ??$read_va_arg@_K@__crt_stdio_output@@YA_KAEAPEAD@Z 00000001401ee780 f i libucrtd:output.obj
 0002:00113800       ??$read_va_arg@_W@__crt_stdio_output@@YA_WAEAPEAD@Z 00000001401ee800 f i libucrtd:output.obj
 0002:00113880       ??$scratch_count@D@formatting_buffer@__crt_stdio_output@@QEBA_KXZ 00000001401ee880 f i libucrtd:output.obj
 0002:001138a0       ??$scratch_data@D@formatting_buffer@__crt_stdio_output@@QEAAPEADXZ 00000001401ee8a0 f i libucrtd:output.obj
 0002:00113930       ??$type_case_integer@$07@?$output_processor@DV?$stream_output_adapter@D@__crt_stdio_output@@V?$format_validation_base@DV?$stream_output_adapter@D@__crt_stdio_output@@@2@@__crt_stdio_output@@AEAA_N_N@Z 00000001401ee930 f i libucrtd:output.obj
 0002:00113ec0       ??$type_case_integer@$07@?$output_processor@DV?$stream_output_adapter@D@__crt_stdio_output@@V?$positional_parameter_base@DV?$stream_output_adapter@D@__crt_stdio_output@@@2@@__crt_stdio_output@@AEAA_N_N@Z 00000001401eeec0 f i libucrtd:output.obj
 0002:00114450       ??$type_case_integer@$07@?$output_processor@DV?$stream_output_adapter@D@__crt_stdio_output@@V?$standard_base@DV?$stream_output_adapter@D@__crt_stdio_output@@@2@@__crt_stdio_output@@AEAA_N_N@Z 00000001401ef450 f i libucrtd:output.obj
 0002:001149e0       ??$type_case_integer@$07@?$output_processor@DV?$string_output_adapter@D@__crt_stdio_output@@V?$format_validation_base@DV?$string_output_adapter@D@__crt_stdio_output@@@2@@__crt_stdio_output@@AEAA_N_N@Z 00000001401ef9e0 f i libucrtd:output.obj
 0002:00114f70       ??$type_case_integer@$07@?$output_processor@DV?$string_output_adapter@D@__crt_stdio_output@@V?$positional_parameter_base@DV?$string_output_adapter@D@__crt_stdio_output@@@2@@__crt_stdio_output@@AEAA_N_N@Z 00000001401eff70 f i libucrtd:output.obj
 0002:00115500       ??$type_case_integer@$07@?$output_processor@DV?$string_output_adapter@D@__crt_stdio_output@@V?$standard_base@DV?$string_output_adapter@D@__crt_stdio_output@@@2@@__crt_stdio_output@@AEAA_N_N@Z 00000001401f0500 f i libucrtd:output.obj
 0002:00115a90       ??$type_case_integer@$07@?$output_processor@_WV?$stream_output_adapter@_W@__crt_stdio_output@@V?$format_validation_base@_WV?$stream_output_adapter@_W@__crt_stdio_output@@@2@@__crt_stdio_output@@AEAA_N_N@Z 00000001401f0a90 f i libucrtd:output.obj
 0002:00116030       ??$type_case_integer@$07@?$output_processor@_WV?$stream_output_adapter@_W@__crt_stdio_output@@V?$positional_parameter_base@_WV?$stream_output_adapter@_W@__crt_stdio_output@@@2@@__crt_stdio_output@@AEAA_N_N@Z 00000001401f1030 f i libucrtd:output.obj
 0002:001165d0       ??$type_case_integer@$07@?$output_processor@_WV?$stream_output_adapter@_W@__crt_stdio_output@@V?$standard_base@_WV?$stream_output_adapter@_W@__crt_stdio_output@@@2@@__crt_stdio_output@@AEAA_N_N@Z 00000001401f15d0 f i libucrtd:output.obj
 0002:00116b70       ??$type_case_integer@$07@?$output_processor@_WV?$string_output_adapter@_W@__crt_stdio_output@@V?$format_validation_base@_WV?$string_output_adapter@_W@__crt_stdio_output@@@2@@__crt_stdio_output@@AEAA_N_N@Z 00000001401f1b70 f i libucrtd:output.obj
 0002:00117110       ??$type_case_integer@$07@?$output_processor@_WV?$string_output_adapter@_W@__crt_stdio_output@@V?$positional_parameter_base@_WV?$string_output_adapter@_W@__crt_stdio_output@@@2@@__crt_stdio_output@@AEAA_N_N@Z 00000001401f2110 f i libucrtd:output.obj
 0002:001176b0       ??$type_case_integer@$07@?$output_processor@_WV?$string_output_adapter@_W@__crt_stdio_output@@V?$standard_base@_WV?$string_output_adapter@_W@__crt_stdio_output@@@2@@__crt_stdio_output@@AEAA_N_N@Z 00000001401f26b0 f i libucrtd:output.obj
 0002:00117c50       ??$type_case_integer@$09@?$output_processor@DV?$stream_output_adapter@D@__crt_stdio_output@@V?$format_validation_base@DV?$stream_output_adapter@D@__crt_stdio_output@@@2@@__crt_stdio_output@@AEAA_N_N@Z 00000001401f2c50 f i libucrtd:output.obj
 0002:001181e0       ??$type_case_integer@$09@?$output_processor@DV?$stream_output_adapter@D@__crt_stdio_output@@V?$positional_parameter_base@DV?$stream_output_adapter@D@__crt_stdio_output@@@2@@__crt_stdio_output@@AEAA_N_N@Z 00000001401f31e0 f i libucrtd:output.obj
 0002:00118770       ??$type_case_integer@$09@?$output_processor@DV?$stream_output_adapter@D@__crt_stdio_output@@V?$standard_base@DV?$stream_output_adapter@D@__crt_stdio_output@@@2@@__crt_stdio_output@@AEAA_N_N@Z 00000001401f3770 f i libucrtd:output.obj
 0002:00118d00       ??$type_case_integer@$09@?$output_processor@DV?$string_output_adapter@D@__crt_stdio_output@@V?$format_validation_base@DV?$string_output_adapter@D@__crt_stdio_output@@@2@@__crt_stdio_output@@AEAA_N_N@Z 00000001401f3d00 f i libucrtd:output.obj
 0002:00119290       ??$type_case_integer@$09@?$output_processor@DV?$string_output_adapter@D@__crt_stdio_output@@V?$positional_parameter_base@DV?$string_output_adapter@D@__crt_stdio_output@@@2@@__crt_stdio_output@@AEAA_N_N@Z 00000001401f4290 f i libucrtd:output.obj
 0002:00119820       ??$type_case_integer@$09@?$output_processor@DV?$string_output_adapter@D@__crt_stdio_output@@V?$standard_base@DV?$string_output_adapter@D@__crt_stdio_output@@@2@@__crt_stdio_output@@AEAA_N_N@Z 00000001401f4820 f i libucrtd:output.obj
 0002:00119db0       ??$type_case_integer@$09@?$output_processor@_WV?$stream_output_adapter@_W@__crt_stdio_output@@V?$format_validation_base@_WV?$stream_output_adapter@_W@__crt_stdio_output@@@2@@__crt_stdio_output@@AEAA_N_N@Z 00000001401f4db0 f i libucrtd:output.obj
 0002:0011a350       ??$type_case_integer@$09@?$output_processor@_WV?$stream_output_adapter@_W@__crt_stdio_output@@V?$positional_parameter_base@_WV?$stream_output_adapter@_W@__crt_stdio_output@@@2@@__crt_stdio_output@@AEAA_N_N@Z 00000001401f5350 f i libucrtd:output.obj
 0002:0011a8f0       ??$type_case_integer@$09@?$output_processor@_WV?$stream_output_adapter@_W@__crt_stdio_output@@V?$standard_base@_WV?$stream_output_adapter@_W@__crt_stdio_output@@@2@@__crt_stdio_output@@AEAA_N_N@Z 00000001401f58f0 f i libucrtd:output.obj
 0002:0011ae90       ??$type_case_integer@$09@?$output_processor@_WV?$string_output_adapter@_W@__crt_stdio_output@@V?$format_validation_base@_WV?$string_output_adapter@_W@__crt_stdio_output@@@2@@__crt_stdio_output@@AEAA_N_N@Z 00000001401f5e90 f i libucrtd:output.obj
 0002:0011b430       ??$type_case_integer@$09@?$output_processor@_WV?$string_output_adapter@_W@__crt_stdio_output@@V?$positional_parameter_base@_WV?$string_output_adapter@_W@__crt_stdio_output@@@2@@__crt_stdio_output@@AEAA_N_N@Z 00000001401f6430 f i libucrtd:output.obj
 0002:0011b9d0       ??$type_case_integer@$09@?$output_processor@_WV?$string_output_adapter@_W@__crt_stdio_output@@V?$standard_base@_WV?$string_output_adapter@_W@__crt_stdio_output@@@2@@__crt_stdio_output@@AEAA_N_N@Z 00000001401f69d0 f i libucrtd:output.obj
 0002:0011bf70       ??$type_case_integer@$0BA@@?$output_processor@DV?$stream_output_adapter@D@__crt_stdio_output@@V?$format_validation_base@DV?$stream_output_adapter@D@__crt_stdio_output@@@2@@__crt_stdio_output@@AEAA_N_N@Z 00000001401f6f70 f i libucrtd:output.obj
 0002:0011c500       ??$type_case_integer@$0BA@@?$output_processor@DV?$stream_output_adapter@D@__crt_stdio_output@@V?$positional_parameter_base@DV?$stream_output_adapter@D@__crt_stdio_output@@@2@@__crt_stdio_output@@AEAA_N_N@Z 00000001401f7500 f i libucrtd:output.obj
 0002:0011ca90       ??$type_case_integer@$0BA@@?$output_processor@DV?$stream_output_adapter@D@__crt_stdio_output@@V?$standard_base@DV?$stream_output_adapter@D@__crt_stdio_output@@@2@@__crt_stdio_output@@AEAA_N_N@Z 00000001401f7a90 f i libucrtd:output.obj
 0002:0011d020       ??$type_case_integer@$0BA@@?$output_processor@DV?$string_output_adapter@D@__crt_stdio_output@@V?$format_validation_base@DV?$string_output_adapter@D@__crt_stdio_output@@@2@@__crt_stdio_output@@AEAA_N_N@Z 00000001401f8020 f i libucrtd:output.obj
 0002:0011d5b0       ??$type_case_integer@$0BA@@?$output_processor@DV?$string_output_adapter@D@__crt_stdio_output@@V?$positional_parameter_base@DV?$string_output_adapter@D@__crt_stdio_output@@@2@@__crt_stdio_output@@AEAA_N_N@Z 00000001401f85b0 f i libucrtd:output.obj
 0002:0011db40       ??$type_case_integer@$0BA@@?$output_processor@DV?$string_output_adapter@D@__crt_stdio_output@@V?$standard_base@DV?$string_output_adapter@D@__crt_stdio_output@@@2@@__crt_stdio_output@@AEAA_N_N@Z 00000001401f8b40 f i libucrtd:output.obj
 0002:0011e0d0       ??$type_case_integer@$0BA@@?$output_processor@_WV?$stream_output_adapter@_W@__crt_stdio_output@@V?$format_validation_base@_WV?$stream_output_adapter@_W@__crt_stdio_output@@@2@@__crt_stdio_output@@AEAA_N_N@Z 00000001401f90d0 f i libucrtd:output.obj
 0002:0011e670       ??$type_case_integer@$0BA@@?$output_processor@_WV?$stream_output_adapter@_W@__crt_stdio_output@@V?$positional_parameter_base@_WV?$stream_output_adapter@_W@__crt_stdio_output@@@2@@__crt_stdio_output@@AEAA_N_N@Z 00000001401f9670 f i libucrtd:output.obj
 0002:0011ec10       ??$type_case_integer@$0BA@@?$output_processor@_WV?$stream_output_adapter@_W@__crt_stdio_output@@V?$standard_base@_WV?$stream_output_adapter@_W@__crt_stdio_output@@@2@@__crt_stdio_output@@AEAA_N_N@Z 00000001401f9c10 f i libucrtd:output.obj
 0002:0011f1b0       ??$type_case_integer@$0BA@@?$output_processor@_WV?$string_output_adapter@_W@__crt_stdio_output@@V?$format_validation_base@_WV?$string_output_adapter@_W@__crt_stdio_output@@@2@@__crt_stdio_output@@AEAA_N_N@Z 00000001401fa1b0 f i libucrtd:output.obj
 0002:0011f750       ??$type_case_integer@$0BA@@?$output_processor@_WV?$string_output_adapter@_W@__crt_stdio_output@@V?$positional_parameter_base@_WV?$string_output_adapter@_W@__crt_stdio_output@@@2@@__crt_stdio_output@@AEAA_N_N@Z 00000001401fa750 f i libucrtd:output.obj
 0002:0011fcf0       ??$type_case_integer@$0BA@@?$output_processor@_WV?$string_output_adapter@_W@__crt_stdio_output@@V?$standard_base@_WV?$string_output_adapter@_W@__crt_stdio_output@@@2@@__crt_stdio_output@@AEAA_N_N@Z 00000001401facf0 f i libucrtd:output.obj
 0002:00120290       ??$type_case_integer_parse_into_buffer@I$07@?$output_processor@DV?$stream_output_adapter@D@__crt_stdio_output@@V?$format_validation_base@DV?$stream_output_adapter@D@__crt_stdio_output@@@2@@__crt_stdio_output@@AEAAXI_N@Z 00000001401fb290 f i libucrtd:output.obj
 0002:00120400       ??$type_case_integer_parse_into_buffer@I$07@?$output_processor@DV?$stream_output_adapter@D@__crt_stdio_output@@V?$positional_parameter_base@DV?$stream_output_adapter@D@__crt_stdio_output@@@2@@__crt_stdio_output@@AEAAXI_N@Z 00000001401fb400 f i libucrtd:output.obj
 0002:00120570       ??$type_case_integer_parse_into_buffer@I$07@?$output_processor@DV?$stream_output_adapter@D@__crt_stdio_output@@V?$standard_base@DV?$stream_output_adapter@D@__crt_stdio_output@@@2@@__crt_stdio_output@@AEAAXI_N@Z 00000001401fb570 f i libucrtd:output.obj
 0002:001206e0       ??$type_case_integer_parse_into_buffer@I$07@?$output_processor@DV?$string_output_adapter@D@__crt_stdio_output@@V?$format_validation_base@DV?$string_output_adapter@D@__crt_stdio_output@@@2@@__crt_stdio_output@@AEAAXI_N@Z 00000001401fb6e0 f i libucrtd:output.obj
 0002:00120850       ??$type_case_integer_parse_into_buffer@I$07@?$output_processor@DV?$string_output_adapter@D@__crt_stdio_output@@V?$positional_parameter_base@DV?$string_output_adapter@D@__crt_stdio_output@@@2@@__crt_stdio_output@@AEAAXI_N@Z 00000001401fb850 f i libucrtd:output.obj
 0002:001209c0       ??$type_case_integer_parse_into_buffer@I$07@?$output_processor@DV?$string_output_adapter@D@__crt_stdio_output@@V?$standard_base@DV?$string_output_adapter@D@__crt_stdio_output@@@2@@__crt_stdio_output@@AEAAXI_N@Z 00000001401fb9c0 f i libucrtd:output.obj
 0002:00120b30       ??$type_case_integer_parse_into_buffer@I$07@?$output_processor@_WV?$stream_output_adapter@_W@__crt_stdio_output@@V?$format_validation_base@_WV?$stream_output_adapter@_W@__crt_stdio_output@@@2@@__crt_stdio_output@@AEAAXI_N@Z 00000001401fbb30 f i libucrtd:output.obj
 0002:00120cc0       ??$type_case_integer_parse_into_buffer@I$07@?$output_processor@_WV?$stream_output_adapter@_W@__crt_stdio_output@@V?$positional_parameter_base@_WV?$stream_output_adapter@_W@__crt_stdio_output@@@2@@__crt_stdio_output@@AEAAXI_N@Z 00000001401fbcc0 f i libucrtd:output.obj
 0002:00120e50       ??$type_case_integer_parse_into_buffer@I$07@?$output_processor@_WV?$stream_output_adapter@_W@__crt_stdio_output@@V?$standard_base@_WV?$stream_output_adapter@_W@__crt_stdio_output@@@2@@__crt_stdio_output@@AEAAXI_N@Z 00000001401fbe50 f i libucrtd:output.obj
 0002:00120fe0       ??$type_case_integer_parse_into_buffer@I$07@?$output_processor@_WV?$string_output_adapter@_W@__crt_stdio_output@@V?$format_validation_base@_WV?$string_output_adapter@_W@__crt_stdio_output@@@2@@__crt_stdio_output@@AEAAXI_N@Z 00000001401fbfe0 f i libucrtd:output.obj
 0002:00121170       ??$type_case_integer_parse_into_buffer@I$07@?$output_processor@_WV?$string_output_adapter@_W@__crt_stdio_output@@V?$positional_parameter_base@_WV?$string_output_adapter@_W@__crt_stdio_output@@@2@@__crt_stdio_output@@AEAAXI_N@Z 00000001401fc170 f i libucrtd:output.obj
 0002:00121300       ??$type_case_integer_parse_into_buffer@I$07@?$output_processor@_WV?$string_output_adapter@_W@__crt_stdio_output@@V?$standard_base@_WV?$string_output_adapter@_W@__crt_stdio_output@@@2@@__crt_stdio_output@@AEAAXI_N@Z 00000001401fc300 f i libucrtd:output.obj
 0002:00121490       ??$type_case_integer_parse_into_buffer@I$09@?$output_processor@DV?$stream_output_adapter@D@__crt_stdio_output@@V?$format_validation_base@DV?$stream_output_adapter@D@__crt_stdio_output@@@2@@__crt_stdio_output@@AEAAXI_N@Z 00000001401fc490 f i libucrtd:output.obj
 0002:00121600       ??$type_case_integer_parse_into_buffer@I$09@?$output_processor@DV?$stream_output_adapter@D@__crt_stdio_output@@V?$positional_parameter_base@DV?$stream_output_adapter@D@__crt_stdio_output@@@2@@__crt_stdio_output@@AEAAXI_N@Z 00000001401fc600 f i libucrtd:output.obj
 0002:00121770       ??$type_case_integer_parse_into_buffer@I$09@?$output_processor@DV?$stream_output_adapter@D@__crt_stdio_output@@V?$standard_base@DV?$stream_output_adapter@D@__crt_stdio_output@@@2@@__crt_stdio_output@@AEAAXI_N@Z 00000001401fc770 f i libucrtd:output.obj
 0002:001218e0       ??$type_case_integer_parse_into_buffer@I$09@?$output_processor@DV?$string_output_adapter@D@__crt_stdio_output@@V?$format_validation_base@DV?$string_output_adapter@D@__crt_stdio_output@@@2@@__crt_stdio_output@@AEAAXI_N@Z 00000001401fc8e0 f i libucrtd:output.obj
 0002:00121a50       ??$type_case_integer_parse_into_buffer@I$09@?$output_processor@DV?$string_output_adapter@D@__crt_stdio_output@@V?$positional_parameter_base@DV?$string_output_adapter@D@__crt_stdio_output@@@2@@__crt_stdio_output@@AEAAXI_N@Z 00000001401fca50 f i libucrtd:output.obj
 0002:00121bc0       ??$type_case_integer_parse_into_buffer@I$09@?$output_processor@DV?$string_output_adapter@D@__crt_stdio_output@@V?$standard_base@DV?$string_output_adapter@D@__crt_stdio_output@@@2@@__crt_stdio_output@@AEAAXI_N@Z 00000001401fcbc0 f i libucrtd:output.obj
 0002:00121d30       ??$type_case_integer_parse_into_buffer@I$09@?$output_processor@_WV?$stream_output_adapter@_W@__crt_stdio_output@@V?$format_validation_base@_WV?$stream_output_adapter@_W@__crt_stdio_output@@@2@@__crt_stdio_output@@AEAAXI_N@Z 00000001401fcd30 f i libucrtd:output.obj
 0002:00121ec0       ??$type_case_integer_parse_into_buffer@I$09@?$output_processor@_WV?$stream_output_adapter@_W@__crt_stdio_output@@V?$positional_parameter_base@_WV?$stream_output_adapter@_W@__crt_stdio_output@@@2@@__crt_stdio_output@@AEAAXI_N@Z 00000001401fcec0 f i libucrtd:output.obj
 0002:00122050       ??$type_case_integer_parse_into_buffer@I$09@?$output_processor@_WV?$stream_output_adapter@_W@__crt_stdio_output@@V?$standard_base@_WV?$stream_output_adapter@_W@__crt_stdio_output@@@2@@__crt_stdio_output@@AEAAXI_N@Z 00000001401fd050 f i libucrtd:output.obj
 0002:001221e0       ??$type_case_integer_parse_into_buffer@I$09@?$output_processor@_WV?$string_output_adapter@_W@__crt_stdio_output@@V?$format_validation_base@_WV?$string_output_adapter@_W@__crt_stdio_output@@@2@@__crt_stdio_output@@AEAAXI_N@Z 00000001401fd1e0 f i libucrtd:output.obj
 0002:00122370       ??$type_case_integer_parse_into_buffer@I$09@?$output_processor@_WV?$string_output_adapter@_W@__crt_stdio_output@@V?$positional_parameter_base@_WV?$string_output_adapter@_W@__crt_stdio_output@@@2@@__crt_stdio_output@@AEAAXI_N@Z 00000001401fd370 f i libucrtd:output.obj
 0002:00122500       ??$type_case_integer_parse_into_buffer@I$09@?$output_processor@_WV?$string_output_adapter@_W@__crt_stdio_output@@V?$standard_base@_WV?$string_output_adapter@_W@__crt_stdio_output@@@2@@__crt_stdio_output@@AEAAXI_N@Z 00000001401fd500 f i libucrtd:output.obj
 0002:00122690       ??$type_case_integer_parse_into_buffer@I$0BA@@?$output_processor@DV?$stream_output_adapter@D@__crt_stdio_output@@V?$format_validation_base@DV?$stream_output_adapter@D@__crt_stdio_output@@@2@@__crt_stdio_output@@AEAAXI_N@Z 00000001401fd690 f i libucrtd:output.obj
 0002:00122800       ??$type_case_integer_parse_into_buffer@I$0BA@@?$output_processor@DV?$stream_output_adapter@D@__crt_stdio_output@@V?$positional_parameter_base@DV?$stream_output_adapter@D@__crt_stdio_output@@@2@@__crt_stdio_output@@AEAAXI_N@Z 00000001401fd800 f i libucrtd:output.obj
 0002:00122970       ??$type_case_integer_parse_into_buffer@I$0BA@@?$output_processor@DV?$stream_output_adapter@D@__crt_stdio_output@@V?$standard_base@DV?$stream_output_adapter@D@__crt_stdio_output@@@2@@__crt_stdio_output@@AEAAXI_N@Z 00000001401fd970 f i libucrtd:output.obj
 0002:00122ae0       ??$type_case_integer_parse_into_buffer@I$0BA@@?$output_processor@DV?$string_output_adapter@D@__crt_stdio_output@@V?$format_validation_base@DV?$string_output_adapter@D@__crt_stdio_output@@@2@@__crt_stdio_output@@AEAAXI_N@Z 00000001401fdae0 f i libucrtd:output.obj
 0002:00122c50       ??$type_case_integer_parse_into_buffer@I$0BA@@?$output_processor@DV?$string_output_adapter@D@__crt_stdio_output@@V?$positional_parameter_base@DV?$string_output_adapter@D@__crt_stdio_output@@@2@@__crt_stdio_output@@AEAAXI_N@Z 00000001401fdc50 f i libucrtd:output.obj
 0002:00122dc0       ??$type_case_integer_parse_into_buffer@I$0BA@@?$output_processor@DV?$string_output_adapter@D@__crt_stdio_output@@V?$standard_base@DV?$string_output_adapter@D@__crt_stdio_output@@@2@@__crt_stdio_output@@AEAAXI_N@Z 00000001401fddc0 f i libucrtd:output.obj
 0002:00122f30       ??$type_case_integer_parse_into_buffer@I$0BA@@?$output_processor@_WV?$stream_output_adapter@_W@__crt_stdio_output@@V?$format_validation_base@_WV?$stream_output_adapter@_W@__crt_stdio_output@@@2@@__crt_stdio_output@@AEAAXI_N@Z 00000001401fdf30 f i libucrtd:output.obj
 0002:001230c0       ??$type_case_integer_parse_into_buffer@I$0BA@@?$output_processor@_WV?$stream_output_adapter@_W@__crt_stdio_output@@V?$positional_parameter_base@_WV?$stream_output_adapter@_W@__crt_stdio_output@@@2@@__crt_stdio_output@@AEAAXI_N@Z 00000001401fe0c0 f i libucrtd:output.obj
 0002:00123250       ??$type_case_integer_parse_into_buffer@I$0BA@@?$output_processor@_WV?$stream_output_adapter@_W@__crt_stdio_output@@V?$standard_base@_WV?$stream_output_adapter@_W@__crt_stdio_output@@@2@@__crt_stdio_output@@AEAAXI_N@Z 00000001401fe250 f i libucrtd:output.obj
 0002:001233e0       ??$type_case_integer_parse_into_buffer@I$0BA@@?$output_processor@_WV?$string_output_adapter@_W@__crt_stdio_output@@V?$format_validation_base@_WV?$string_output_adapter@_W@__crt_stdio_output@@@2@@__crt_stdio_output@@AEAAXI_N@Z 00000001401fe3e0 f i libucrtd:output.obj
 0002:00123570       ??$type_case_integer_parse_into_buffer@I$0BA@@?$output_processor@_WV?$string_output_adapter@_W@__crt_stdio_output@@V?$positional_parameter_base@_WV?$string_output_adapter@_W@__crt_stdio_output@@@2@@__crt_stdio_output@@AEAAXI_N@Z 00000001401fe570 f i libucrtd:output.obj
 0002:00123700       ??$type_case_integer_parse_into_buffer@I$0BA@@?$output_processor@_WV?$string_output_adapter@_W@__crt_stdio_output@@V?$standard_base@_WV?$string_output_adapter@_W@__crt_stdio_output@@@2@@__crt_stdio_output@@AEAAXI_N@Z 00000001401fe700 f i libucrtd:output.obj
 0002:00123890       ??$type_case_integer_parse_into_buffer@_K$07@?$output_processor@DV?$stream_output_adapter@D@__crt_stdio_output@@V?$format_validation_base@DV?$stream_output_adapter@D@__crt_stdio_output@@@2@@__crt_stdio_output@@AEAAX_K_N@Z 00000001401fe890 f i libucrtd:output.obj
 0002:00123a10       ??$type_case_integer_parse_into_buffer@_K$07@?$output_processor@DV?$stream_output_adapter@D@__crt_stdio_output@@V?$positional_parameter_base@DV?$stream_output_adapter@D@__crt_stdio_output@@@2@@__crt_stdio_output@@AEAAX_K_N@Z 00000001401fea10 f i libucrtd:output.obj
 0002:00123b90       ??$type_case_integer_parse_into_buffer@_K$07@?$output_processor@DV?$stream_output_adapter@D@__crt_stdio_output@@V?$standard_base@DV?$stream_output_adapter@D@__crt_stdio_output@@@2@@__crt_stdio_output@@AEAAX_K_N@Z 00000001401feb90 f i libucrtd:output.obj
 0002:00123d10       ??$type_case_integer_parse_into_buffer@_K$07@?$output_processor@DV?$string_output_adapter@D@__crt_stdio_output@@V?$format_validation_base@DV?$string_output_adapter@D@__crt_stdio_output@@@2@@__crt_stdio_output@@AEAAX_K_N@Z 00000001401fed10 f i libucrtd:output.obj
 0002:00123e90       ??$type_case_integer_parse_into_buffer@_K$07@?$output_processor@DV?$string_output_adapter@D@__crt_stdio_output@@V?$positional_parameter_base@DV?$string_output_adapter@D@__crt_stdio_output@@@2@@__crt_stdio_output@@AEAAX_K_N@Z 00000001401fee90 f i libucrtd:output.obj
 0002:00124010       ??$type_case_integer_parse_into_buffer@_K$07@?$output_processor@DV?$string_output_adapter@D@__crt_stdio_output@@V?$standard_base@DV?$string_output_adapter@D@__crt_stdio_output@@@2@@__crt_stdio_output@@AEAAX_K_N@Z 00000001401ff010 f i libucrtd:output.obj
 0002:00124190       ??$type_case_integer_parse_into_buffer@_K$07@?$output_processor@_WV?$stream_output_adapter@_W@__crt_stdio_output@@V?$format_validation_base@_WV?$stream_output_adapter@_W@__crt_stdio_output@@@2@@__crt_stdio_output@@AEAAX_K_N@Z 00000001401ff190 f i libucrtd:output.obj
 0002:00124320       ??$type_case_integer_parse_into_buffer@_K$07@?$output_processor@_WV?$stream_output_adapter@_W@__crt_stdio_output@@V?$positional_parameter_base@_WV?$stream_output_adapter@_W@__crt_stdio_output@@@2@@__crt_stdio_output@@AEAAX_K_N@Z 00000001401ff320 f i libucrtd:output.obj
 0002:001244b0       ??$type_case_integer_parse_into_buffer@_K$07@?$output_processor@_WV?$stream_output_adapter@_W@__crt_stdio_output@@V?$standard_base@_WV?$stream_output_adapter@_W@__crt_stdio_output@@@2@@__crt_stdio_output@@AEAAX_K_N@Z 00000001401ff4b0 f i libucrtd:output.obj
 0002:00124640       ??$type_case_integer_parse_into_buffer@_K$07@?$output_processor@_WV?$string_output_adapter@_W@__crt_stdio_output@@V?$format_validation_base@_WV?$string_output_adapter@_W@__crt_stdio_output@@@2@@__crt_stdio_output@@AEAAX_K_N@Z 00000001401ff640 f i libucrtd:output.obj
 0002:001247d0       ??$type_case_integer_parse_into_buffer@_K$07@?$output_processor@_WV?$string_output_adapter@_W@__crt_stdio_output@@V?$positional_parameter_base@_WV?$string_output_adapter@_W@__crt_stdio_output@@@2@@__crt_stdio_output@@AEAAX_K_N@Z 00000001401ff7d0 f i libucrtd:output.obj
 0002:00124960       ??$type_case_integer_parse_into_buffer@_K$07@?$output_processor@_WV?$string_output_adapter@_W@__crt_stdio_output@@V?$standard_base@_WV?$string_output_adapter@_W@__crt_stdio_output@@@2@@__crt_stdio_output@@AEAAX_K_N@Z 00000001401ff960 f i libucrtd:output.obj
 0002:00124af0       ??$type_case_integer_parse_into_buffer@_K$09@?$output_processor@DV?$stream_output_adapter@D@__crt_stdio_output@@V?$format_validation_base@DV?$stream_output_adapter@D@__crt_stdio_output@@@2@@__crt_stdio_output@@AEAAX_K_N@Z 00000001401ffaf0 f i libucrtd:output.obj
 0002:00124c70       ??$type_case_integer_parse_into_buffer@_K$09@?$output_processor@DV?$stream_output_adapter@D@__crt_stdio_output@@V?$positional_parameter_base@DV?$stream_output_adapter@D@__crt_stdio_output@@@2@@__crt_stdio_output@@AEAAX_K_N@Z 00000001401ffc70 f i libucrtd:output.obj
 0002:00124df0       ??$type_case_integer_parse_into_buffer@_K$09@?$output_processor@DV?$stream_output_adapter@D@__crt_stdio_output@@V?$standard_base@DV?$stream_output_adapter@D@__crt_stdio_output@@@2@@__crt_stdio_output@@AEAAX_K_N@Z 00000001401ffdf0 f i libucrtd:output.obj
 0002:00124f70       ??$type_case_integer_parse_into_buffer@_K$09@?$output_processor@DV?$string_output_adapter@D@__crt_stdio_output@@V?$format_validation_base@DV?$string_output_adapter@D@__crt_stdio_output@@@2@@__crt_stdio_output@@AEAAX_K_N@Z 00000001401fff70 f i libucrtd:output.obj
 0002:001250f0       ??$type_case_integer_parse_into_buffer@_K$09@?$output_processor@DV?$string_output_adapter@D@__crt_stdio_output@@V?$positional_parameter_base@DV?$string_output_adapter@D@__crt_stdio_output@@@2@@__crt_stdio_output@@AEAAX_K_N@Z 00000001402000f0 f i libucrtd:output.obj
 0002:00125270       ??$type_case_integer_parse_into_buffer@_K$09@?$output_processor@DV?$string_output_adapter@D@__crt_stdio_output@@V?$standard_base@DV?$string_output_adapter@D@__crt_stdio_output@@@2@@__crt_stdio_output@@AEAAX_K_N@Z 0000000140200270 f i libucrtd:output.obj
 0002:001253f0       ??$type_case_integer_parse_into_buffer@_K$09@?$output_processor@_WV?$stream_output_adapter@_W@__crt_stdio_output@@V?$format_validation_base@_WV?$stream_output_adapter@_W@__crt_stdio_output@@@2@@__crt_stdio_output@@AEAAX_K_N@Z 00000001402003f0 f i libucrtd:output.obj
 0002:00125580       ??$type_case_integer_parse_into_buffer@_K$09@?$output_processor@_WV?$stream_output_adapter@_W@__crt_stdio_output@@V?$positional_parameter_base@_WV?$stream_output_adapter@_W@__crt_stdio_output@@@2@@__crt_stdio_output@@AEAAX_K_N@Z 0000000140200580 f i libucrtd:output.obj
 0002:00125710       ??$type_case_integer_parse_into_buffer@_K$09@?$output_processor@_WV?$stream_output_adapter@_W@__crt_stdio_output@@V?$standard_base@_WV?$stream_output_adapter@_W@__crt_stdio_output@@@2@@__crt_stdio_output@@AEAAX_K_N@Z 0000000140200710 f i libucrtd:output.obj
 0002:001258a0       ??$type_case_integer_parse_into_buffer@_K$09@?$output_processor@_WV?$string_output_adapter@_W@__crt_stdio_output@@V?$format_validation_base@_WV?$string_output_adapter@_W@__crt_stdio_output@@@2@@__crt_stdio_output@@AEAAX_K_N@Z 00000001402008a0 f i libucrtd:output.obj
 0002:00125a30       ??$type_case_integer_parse_into_buffer@_K$09@?$output_processor@_WV?$string_output_adapter@_W@__crt_stdio_output@@V?$positional_parameter_base@_WV?$string_output_adapter@_W@__crt_stdio_output@@@2@@__crt_stdio_output@@AEAAX_K_N@Z 0000000140200a30 f i libucrtd:output.obj
 0002:00125bc0       ??$type_case_integer_parse_into_buffer@_K$09@?$output_processor@_WV?$string_output_adapter@_W@__crt_stdio_output@@V?$standard_base@_WV?$string_output_adapter@_W@__crt_stdio_output@@@2@@__crt_stdio_output@@AEAAX_K_N@Z 0000000140200bc0 f i libucrtd:output.obj
 0002:00125d50       ??$type_case_integer_parse_into_buffer@_K$0BA@@?$output_processor@DV?$stream_output_adapter@D@__crt_stdio_output@@V?$format_validation_base@DV?$stream_output_adapter@D@__crt_stdio_output@@@2@@__crt_stdio_output@@AEAAX_K_N@Z 0000000140200d50 f i libucrtd:output.obj
 0002:00125ed0       ??$type_case_integer_parse_into_buffer@_K$0BA@@?$output_processor@DV?$stream_output_adapter@D@__crt_stdio_output@@V?$positional_parameter_base@DV?$stream_output_adapter@D@__crt_stdio_output@@@2@@__crt_stdio_output@@AEAAX_K_N@Z 0000000140200ed0 f i libucrtd:output.obj
 0002:00126050       ??$type_case_integer_parse_into_buffer@_K$0BA@@?$output_processor@DV?$stream_output_adapter@D@__crt_stdio_output@@V?$standard_base@DV?$stream_output_adapter@D@__crt_stdio_output@@@2@@__crt_stdio_output@@AEAAX_K_N@Z 0000000140201050 f i libucrtd:output.obj
 0002:001261d0       ??$type_case_integer_parse_into_buffer@_K$0BA@@?$output_processor@DV?$string_output_adapter@D@__crt_stdio_output@@V?$format_validation_base@DV?$string_output_adapter@D@__crt_stdio_output@@@2@@__crt_stdio_output@@AEAAX_K_N@Z 00000001402011d0 f i libucrtd:output.obj
 0002:00126350       ??$type_case_integer_parse_into_buffer@_K$0BA@@?$output_processor@DV?$string_output_adapter@D@__crt_stdio_output@@V?$positional_parameter_base@DV?$string_output_adapter@D@__crt_stdio_output@@@2@@__crt_stdio_output@@AEAAX_K_N@Z 0000000140201350 f i libucrtd:output.obj
 0002:001264d0       ??$type_case_integer_parse_into_buffer@_K$0BA@@?$output_processor@DV?$string_output_adapter@D@__crt_stdio_output@@V?$standard_base@DV?$string_output_adapter@D@__crt_stdio_output@@@2@@__crt_stdio_output@@AEAAX_K_N@Z 00000001402014d0 f i libucrtd:output.obj
 0002:00126650       ??$type_case_integer_parse_into_buffer@_K$0BA@@?$output_processor@_WV?$stream_output_adapter@_W@__crt_stdio_output@@V?$format_validation_base@_WV?$stream_output_adapter@_W@__crt_stdio_output@@@2@@__crt_stdio_output@@AEAAX_K_N@Z 0000000140201650 f i libucrtd:output.obj
 0002:001267e0       ??$type_case_integer_parse_into_buffer@_K$0BA@@?$output_processor@_WV?$stream_output_adapter@_W@__crt_stdio_output@@V?$positional_parameter_base@_WV?$stream_output_adapter@_W@__crt_stdio_output@@@2@@__crt_stdio_output@@AEAAX_K_N@Z 00000001402017e0 f i libucrtd:output.obj
 0002:00126970       ??$type_case_integer_parse_into_buffer@_K$0BA@@?$output_processor@_WV?$stream_output_adapter@_W@__crt_stdio_output@@V?$standard_base@_WV?$stream_output_adapter@_W@__crt_stdio_output@@@2@@__crt_stdio_output@@AEAAX_K_N@Z 0000000140201970 f i libucrtd:output.obj
 0002:00126b00       ??$type_case_integer_parse_into_buffer@_K$0BA@@?$output_processor@_WV?$string_output_adapter@_W@__crt_stdio_output@@V?$format_validation_base@_WV?$string_output_adapter@_W@__crt_stdio_output@@@2@@__crt_stdio_output@@AEAAX_K_N@Z 0000000140201b00 f i libucrtd:output.obj
 0002:00126c90       ??$type_case_integer_parse_into_buffer@_K$0BA@@?$output_processor@_WV?$string_output_adapter@_W@__crt_stdio_output@@V?$positional_parameter_base@_WV?$string_output_adapter@_W@__crt_stdio_output@@@2@@__crt_stdio_output@@AEAAX_K_N@Z 0000000140201c90 f i libucrtd:output.obj
 0002:00126e20       ??$type_case_integer_parse_into_buffer@_K$0BA@@?$output_processor@_WV?$string_output_adapter@_W@__crt_stdio_output@@V?$standard_base@_WV?$string_output_adapter@_W@__crt_stdio_output@@@2@@__crt_stdio_output@@AEAAX_K_N@Z 0000000140201e20 f i libucrtd:output.obj
 0002:00126fb0       ??$write_multiple_characters@V?$stream_output_adapter@D@__crt_stdio_output@@D@__crt_stdio_output@@YAXAEBV?$stream_output_adapter@D@0@DHQEAHAEAV__crt_cached_ptd_host@@@Z 0000000140201fb0 f i libucrtd:output.obj
 0002:00127030       ??$write_multiple_characters@V?$stream_output_adapter@_W@__crt_stdio_output@@D@__crt_stdio_output@@YAXAEBV?$stream_output_adapter@_W@0@DHQEAHAEAV__crt_cached_ptd_host@@@Z 0000000140202030 f i libucrtd:output.obj
 0002:001270b0       ??$write_multiple_characters@V?$string_output_adapter@D@__crt_stdio_output@@D@__crt_stdio_output@@YAXAEBV?$string_output_adapter@D@0@DHQEAHAEAV__crt_cached_ptd_host@@@Z 00000001402020b0 f i libucrtd:output.obj
 0002:00127130       ??$write_multiple_characters@V?$string_output_adapter@_W@__crt_stdio_output@@D@__crt_stdio_output@@YAXAEBV?$string_output_adapter@_W@0@DHQEAHAEAV__crt_cached_ptd_host@@@Z 0000000140202130 f i libucrtd:output.obj
 0002:001276f0       ??0?$common_data@D@__crt_stdio_output@@IEAA@AEAV__crt_cached_ptd_host@@@Z 00000001402026f0 f i libucrtd:output.obj
 0002:001277e0       ??0?$common_data@_W@__crt_stdio_output@@IEAA@AEAV__crt_cached_ptd_host@@@Z 00000001402027e0 f i libucrtd:output.obj
 0002:001278d0       ??0?$output_adapter_data@DV?$stream_output_adapter@D@__crt_stdio_output@@@__crt_stdio_output@@IEAA@AEBV?$stream_output_adapter@D@1@_KQEBDAEAV__crt_cached_ptd_host@@QEAD@Z 00000001402028d0 f i libucrtd:output.obj
 0002:00127970       ??0?$output_adapter_data@DV?$string_output_adapter@D@__crt_stdio_output@@@__crt_stdio_output@@IEAA@AEBV?$string_output_adapter@D@1@_KQEBDAEAV__crt_cached_ptd_host@@QEAD@Z 0000000140202970 f i libucrtd:output.obj
 0002:00127a10       ??0?$output_adapter_data@_WV?$stream_output_adapter@_W@__crt_stdio_output@@@__crt_stdio_output@@IEAA@AEBV?$stream_output_adapter@_W@1@_KQEB_WAEAV__crt_cached_ptd_host@@QEAD@Z 0000000140202a10 f i libucrtd:output.obj
 0002:00127ab0       ??0?$output_adapter_data@_WV?$string_output_adapter@_W@__crt_stdio_output@@@__crt_stdio_output@@IEAA@AEBV?$string_output_adapter@_W@1@_KQEB_WAEAV__crt_cached_ptd_host@@QEAD@Z 0000000140202ab0 f i libucrtd:output.obj
 0002:00127b50       ??0?$output_processor@DV?$stream_output_adapter@D@__crt_stdio_output@@V?$format_validation_base@DV?$stream_output_adapter@D@__crt_stdio_output@@@2@@__crt_stdio_output@@QEAA@AEBV?$stream_output_adapter@D@1@_KQEBDAEAV__crt_cached_ptd_host@@QEAD@Z 0000000140202b50 f i libucrtd:output.obj
 0002:00127bc0       ??0?$output_processor@DV?$stream_output_adapter@D@__crt_stdio_output@@V?$positional_parameter_base@DV?$stream_output_adapter@D@__crt_stdio_output@@@2@@__crt_stdio_output@@QEAA@AEBV?$stream_output_adapter@D@1@_KQEBDAEAV__crt_cached_ptd_host@@QEAD@Z 0000000140202bc0 f i libucrtd:output.obj
 0002:00127c30       ??0?$output_processor@DV?$stream_output_adapter@D@__crt_stdio_output@@V?$standard_base@DV?$stream_output_adapter@D@__crt_stdio_output@@@2@@__crt_stdio_output@@QEAA@AEBV?$stream_output_adapter@D@1@_KQEBDAEAV__crt_cached_ptd_host@@QEAD@Z 0000000140202c30 f i libucrtd:output.obj
 0002:00127ca0       ??0?$output_processor@DV?$string_output_adapter@D@__crt_stdio_output@@V?$format_validation_base@DV?$string_output_adapter@D@__crt_stdio_output@@@2@@__crt_stdio_output@@QEAA@AEBV?$string_output_adapter@D@1@_KQEBDAEAV__crt_cached_ptd_host@@QEAD@Z 0000000140202ca0 f i libucrtd:output.obj
 0002:00127d10       ??0?$output_processor@DV?$string_output_adapter@D@__crt_stdio_output@@V?$positional_parameter_base@DV?$string_output_adapter@D@__crt_stdio_output@@@2@@__crt_stdio_output@@QEAA@AEBV?$string_output_adapter@D@1@_KQEBDAEAV__crt_cached_ptd_host@@QEAD@Z 0000000140202d10 f i libucrtd:output.obj
 0002:00127d80       ??0?$output_processor@DV?$string_output_adapter@D@__crt_stdio_output@@V?$standard_base@DV?$string_output_adapter@D@__crt_stdio_output@@@2@@__crt_stdio_output@@QEAA@AEBV?$string_output_adapter@D@1@_KQEBDAEAV__crt_cached_ptd_host@@QEAD@Z 0000000140202d80 f i libucrtd:output.obj
 0002:00127df0       ??0?$output_processor@_WV?$stream_output_adapter@_W@__crt_stdio_output@@V?$format_validation_base@_WV?$stream_output_adapter@_W@__crt_stdio_output@@@2@@__crt_stdio_output@@QEAA@AEBV?$stream_output_adapter@_W@1@_KQEB_WAEAV__crt_cached_ptd_host@@QEAD@Z 0000000140202df0 f i libucrtd:output.obj
 0002:00127e60       ??0?$output_processor@_WV?$stream_output_adapter@_W@__crt_stdio_output@@V?$positional_parameter_base@_WV?$stream_output_adapter@_W@__crt_stdio_output@@@2@@__crt_stdio_output@@QEAA@AEBV?$stream_output_adapter@_W@1@_KQEB_WAEAV__crt_cached_ptd_host@@QEAD@Z 0000000140202e60 f i libucrtd:output.obj
 0002:00127ed0       ??0?$output_processor@_WV?$stream_output_adapter@_W@__crt_stdio_output@@V?$standard_base@_WV?$stream_output_adapter@_W@__crt_stdio_output@@@2@@__crt_stdio_output@@QEAA@AEBV?$stream_output_adapter@_W@1@_KQEB_WAEAV__crt_cached_ptd_host@@QEAD@Z 0000000140202ed0 f i libucrtd:output.obj
 0002:00127f40       ??0?$output_processor@_WV?$string_output_adapter@_W@__crt_stdio_output@@V?$format_validation_base@_WV?$string_output_adapter@_W@__crt_stdio_output@@@2@@__crt_stdio_output@@QEAA@AEBV?$string_output_adapter@_W@1@_KQEB_WAEAV__crt_cached_ptd_host@@QEAD@Z 0000000140202f40 f i libucrtd:output.obj
 0002:00127fb0       ??0?$output_processor@_WV?$string_output_adapter@_W@__crt_stdio_output@@V?$positional_parameter_base@_WV?$string_output_adapter@_W@__crt_stdio_output@@@2@@__crt_stdio_output@@QEAA@AEBV?$string_output_adapter@_W@1@_KQEB_WAEAV__crt_cached_ptd_host@@QEAD@Z 0000000140202fb0 f i libucrtd:output.obj
 0002:00128020       ??0?$output_processor@_WV?$string_output_adapter@_W@__crt_stdio_output@@V?$standard_base@_WV?$string_output_adapter@_W@__crt_stdio_output@@@2@@__crt_stdio_output@@QEAA@AEBV?$string_output_adapter@_W@1@_KQEB_WAEAV__crt_cached_ptd_host@@QEAD@Z 0000000140203020 f i libucrtd:output.obj
 0002:00128090       ??0?$stream_output_adapter@D@__crt_stdio_output@@QEAA@QEAU_iobuf@@@Z 0000000140203090 f i libucrtd:output.obj
 0002:001280d0       ??0?$stream_output_adapter@_W@__crt_stdio_output@@QEAA@QEAU_iobuf@@@Z 00000001402030d0 f i libucrtd:output.obj
 0002:00128110       ??0?$string_output_adapter@D@__crt_stdio_output@@QEAA@QEAU?$string_output_adapter_context@D@1@@Z 0000000140203110 f i libucrtd:output.obj
 0002:00128140       ??0?$string_output_adapter@_W@__crt_stdio_output@@QEAA@QEAU?$string_output_adapter_context@_W@1@@Z 0000000140203140 f i libucrtd:output.obj
 0002:00128170       ??0formatting_buffer@__crt_stdio_output@@QEAA@XZ 0000000140203170 f i libucrtd:output.obj
 0002:001281c0       ??0guard@?$cached@H@__crt_cached_ptd_host@@QEAA@AEAU12@@Z 00000001402031c0 f i libucrtd:output.obj
 0002:00128210       ??1?$common_data@D@__crt_stdio_output@@QEAA@XZ 0000000140203210 f i libucrtd:output.obj
 0002:00128240       ??1?$common_data@_W@__crt_stdio_output@@QEAA@XZ 0000000140203240 f i libucrtd:output.obj
 0002:00128270       ??1?$format_validation_base@DV?$stream_output_adapter@D@__crt_stdio_output@@@__crt_stdio_output@@QEAA@XZ 0000000140203270 f i libucrtd:output.obj
 0002:00128290       ??1?$format_validation_base@DV?$string_output_adapter@D@__crt_stdio_output@@@__crt_stdio_output@@QEAA@XZ 0000000140203290 f i libucrtd:output.obj
 0002:001282b0       ??1?$format_validation_base@_WV?$stream_output_adapter@_W@__crt_stdio_output@@@__crt_stdio_output@@QEAA@XZ 00000001402032b0 f i libucrtd:output.obj
 0002:001282d0       ??1?$format_validation_base@_WV?$string_output_adapter@_W@__crt_stdio_output@@@__crt_stdio_output@@QEAA@XZ 00000001402032d0 f i libucrtd:output.obj
 0002:001282f0       ??1?$output_adapter_data@DV?$stream_output_adapter@D@__crt_stdio_output@@@__crt_stdio_output@@QEAA@XZ 00000001402032f0 f i libucrtd:output.obj
 0002:00128310       ??1?$output_adapter_data@DV?$string_output_adapter@D@__crt_stdio_output@@@__crt_stdio_output@@QEAA@XZ 0000000140203310 f i libucrtd:output.obj
 0002:00128330       ??1?$output_adapter_data@_WV?$stream_output_adapter@_W@__crt_stdio_output@@@__crt_stdio_output@@QEAA@XZ 0000000140203330 f i libucrtd:output.obj
 0002:00128350       ??1?$output_adapter_data@_WV?$string_output_adapter@_W@__crt_stdio_output@@@__crt_stdio_output@@QEAA@XZ 0000000140203350 f i libucrtd:output.obj
 0002:00128370       ??1?$output_processor@DV?$stream_output_adapter@D@__crt_stdio_output@@V?$format_validation_base@DV?$stream_output_adapter@D@__crt_stdio_output@@@2@@__crt_stdio_output@@QEAA@XZ 0000000140203370 f i libucrtd:output.obj
 0002:00128390       ??1?$output_processor@DV?$stream_output_adapter@D@__crt_stdio_output@@V?$positional_parameter_base@DV?$stream_output_adapter@D@__crt_stdio_output@@@2@@__crt_stdio_output@@QEAA@XZ 0000000140203390 f i libucrtd:output.obj
 0002:001283b0       ??1?$output_processor@DV?$stream_output_adapter@D@__crt_stdio_output@@V?$standard_base@DV?$stream_output_adapter@D@__crt_stdio_output@@@2@@__crt_stdio_output@@QEAA@XZ 00000001402033b0 f i libucrtd:output.obj
 0002:001283d0       ??1?$output_processor@DV?$string_output_adapter@D@__crt_stdio_output@@V?$format_validation_base@DV?$string_output_adapter@D@__crt_stdio_output@@@2@@__crt_stdio_output@@QEAA@XZ 00000001402033d0 f i libucrtd:output.obj
 0002:001283f0       ??1?$output_processor@DV?$string_output_adapter@D@__crt_stdio_output@@V?$positional_parameter_base@DV?$string_output_adapter@D@__crt_stdio_output@@@2@@__crt_stdio_output@@QEAA@XZ 00000001402033f0 f i libucrtd:output.obj
 0002:00128410       ??1?$output_processor@DV?$string_output_adapter@D@__crt_stdio_output@@V?$standard_base@DV?$string_output_adapter@D@__crt_stdio_output@@@2@@__crt_stdio_output@@QEAA@XZ 0000000140203410 f i libucrtd:output.obj
 0002:00128430       ??1?$output_processor@_WV?$stream_output_adapter@_W@__crt_stdio_output@@V?$format_validation_base@_WV?$stream_output_adapter@_W@__crt_stdio_output@@@2@@__crt_stdio_output@@QEAA@XZ 0000000140203430 f i libucrtd:output.obj
 0002:00128450       ??1?$output_processor@_WV?$stream_output_adapter@_W@__crt_stdio_output@@V?$positional_parameter_base@_WV?$stream_output_adapter@_W@__crt_stdio_output@@@2@@__crt_stdio_output@@QEAA@XZ 0000000140203450 f i libucrtd:output.obj
 0002:00128470       ??1?$output_processor@_WV?$stream_output_adapter@_W@__crt_stdio_output@@V?$standard_base@_WV?$stream_output_adapter@_W@__crt_stdio_output@@@2@@__crt_stdio_output@@QEAA@XZ 0000000140203470 f i libucrtd:output.obj
 0002:00128490       ??1?$output_processor@_WV?$string_output_adapter@_W@__crt_stdio_output@@V?$format_validation_base@_WV?$string_output_adapter@_W@__crt_stdio_output@@@2@@__crt_stdio_output@@QEAA@XZ 0000000140203490 f i libucrtd:output.obj
 0002:001284b0       ??1?$output_processor@_WV?$string_output_adapter@_W@__crt_stdio_output@@V?$positional_parameter_base@_WV?$string_output_adapter@_W@__crt_stdio_output@@@2@@__crt_stdio_output@@QEAA@XZ 00000001402034b0 f i libucrtd:output.obj
 0002:001284d0       ??1?$output_processor@_WV?$string_output_adapter@_W@__crt_stdio_output@@V?$standard_base@_WV?$string_output_adapter@_W@__crt_stdio_output@@@2@@__crt_stdio_output@@QEAA@XZ 00000001402034d0 f i libucrtd:output.obj
 0002:001284f0       ??1?$positional_parameter_base@DV?$stream_output_adapter@D@__crt_stdio_output@@@__crt_stdio_output@@QEAA@XZ 00000001402034f0 f i libucrtd:output.obj
 0002:00128510       ??1?$positional_parameter_base@DV?$string_output_adapter@D@__crt_stdio_output@@@__crt_stdio_output@@QEAA@XZ 0000000140203510 f i libucrtd:output.obj
 0002:00128530       ??1?$positional_parameter_base@_WV?$stream_output_adapter@_W@__crt_stdio_output@@@__crt_stdio_output@@QEAA@XZ 0000000140203530 f i libucrtd:output.obj
 0002:00128550       ??1?$positional_parameter_base@_WV?$string_output_adapter@_W@__crt_stdio_output@@@__crt_stdio_output@@QEAA@XZ 0000000140203550 f i libucrtd:output.obj
 0002:00128570       ??1?$standard_base@DV?$stream_output_adapter@D@__crt_stdio_output@@@__crt_stdio_output@@QEAA@XZ 0000000140203570 f i libucrtd:output.obj
 0002:00128590       ??1?$standard_base@DV?$string_output_adapter@D@__crt_stdio_output@@@__crt_stdio_output@@QEAA@XZ 0000000140203590 f i libucrtd:output.obj
 0002:001285b0       ??1?$standard_base@_WV?$stream_output_adapter@_W@__crt_stdio_output@@@__crt_stdio_output@@QEAA@XZ 00000001402035b0 f i libucrtd:output.obj
 0002:001285d0       ??1?$standard_base@_WV?$string_output_adapter@_W@__crt_stdio_output@@@__crt_stdio_output@@QEAA@XZ 00000001402035d0 f i libucrtd:output.obj
 0002:001285f0       ??1formatting_buffer@__crt_stdio_output@@QEAA@XZ 00000001402035f0 f i libucrtd:output.obj
 0002:00128620       ??1guard@?$cached@H@__crt_cached_ptd_host@@QEAA@XZ 0000000140203620 f i libucrtd:output.obj
 0002:00128650       ??4?$__crt_unique_heap_ptr@DU__crt_internal_free_policy@@@@QEAAAEAV0@$$QEAV0@@Z 0000000140203650 f i libucrtd:output.obj
 0002:001286a0       ??A?$spectre_mitigated_lookup_table@Ustate_transition_pair@__crt_stdio_output@@$0IA@@__crt_stdio_output@@QEBAAEBUstate_transition_pair@1@_K@Z 00000001402036a0 f i libucrtd:output.obj
 0002:001291b0       ?adjust_hexit@?$output_processor@DV?$stream_output_adapter@D@__crt_stdio_output@@V?$format_validation_base@DV?$stream_output_adapter@D@__crt_stdio_output@@@2@@__crt_stdio_output@@CADH_N@Z 00000001402041b0 f i libucrtd:output.obj
 0002:00129210       ?adjust_hexit@?$output_processor@DV?$stream_output_adapter@D@__crt_stdio_output@@V?$positional_parameter_base@DV?$stream_output_adapter@D@__crt_stdio_output@@@2@@__crt_stdio_output@@CADH_N@Z 0000000140204210 f i libucrtd:output.obj
 0002:00129270       ?adjust_hexit@?$output_processor@DV?$stream_output_adapter@D@__crt_stdio_output@@V?$standard_base@DV?$stream_output_adapter@D@__crt_stdio_output@@@2@@__crt_stdio_output@@CADH_N@Z 0000000140204270 f i libucrtd:output.obj
 0002:001292d0       ?adjust_hexit@?$output_processor@DV?$string_output_adapter@D@__crt_stdio_output@@V?$format_validation_base@DV?$string_output_adapter@D@__crt_stdio_output@@@2@@__crt_stdio_output@@CADH_N@Z 00000001402042d0 f i libucrtd:output.obj
 0002:00129330       ?adjust_hexit@?$output_processor@DV?$string_output_adapter@D@__crt_stdio_output@@V?$positional_parameter_base@DV?$string_output_adapter@D@__crt_stdio_output@@@2@@__crt_stdio_output@@CADH_N@Z 0000000140204330 f i libucrtd:output.obj
 0002:00129390       ?adjust_hexit@?$output_processor@DV?$string_output_adapter@D@__crt_stdio_output@@V?$standard_base@DV?$string_output_adapter@D@__crt_stdio_output@@@2@@__crt_stdio_output@@CADH_N@Z 0000000140204390 f i libucrtd:output.obj
 0002:001293f0       ?adjust_hexit@?$output_processor@_WV?$stream_output_adapter@_W@__crt_stdio_output@@V?$format_validation_base@_WV?$stream_output_adapter@_W@__crt_stdio_output@@@2@@__crt_stdio_output@@CADH_N@Z 00000001402043f0 f i libucrtd:output.obj
 0002:00129450       ?adjust_hexit@?$output_processor@_WV?$stream_output_adapter@_W@__crt_stdio_output@@V?$positional_parameter_base@_WV?$stream_output_adapter@_W@__crt_stdio_output@@@2@@__crt_stdio_output@@CADH_N@Z 0000000140204450 f i libucrtd:output.obj
 0002:001294b0       ?adjust_hexit@?$output_processor@_WV?$stream_output_adapter@_W@__crt_stdio_output@@V?$standard_base@_WV?$stream_output_adapter@_W@__crt_stdio_output@@@2@@__crt_stdio_output@@CADH_N@Z 00000001402044b0 f i libucrtd:output.obj
 0002:00129510       ?adjust_hexit@?$output_processor@_WV?$string_output_adapter@_W@__crt_stdio_output@@V?$format_validation_base@_WV?$string_output_adapter@_W@__crt_stdio_output@@@2@@__crt_stdio_output@@CADH_N@Z 0000000140204510 f i libucrtd:output.obj
 0002:00129570       ?adjust_hexit@?$output_processor@_WV?$string_output_adapter@_W@__crt_stdio_output@@V?$positional_parameter_base@_WV?$string_output_adapter@_W@__crt_stdio_output@@@2@@__crt_stdio_output@@CADH_N@Z 0000000140204570 f i libucrtd:output.obj
 0002:001295d0       ?adjust_hexit@?$output_processor@_WV?$string_output_adapter@_W@__crt_stdio_output@@V?$standard_base@_WV?$string_output_adapter@_W@__crt_stdio_output@@@2@@__crt_stdio_output@@CADH_N@Z 00000001402045d0 f i libucrtd:output.obj
 0002:00129630       ?advance_to_next_pass@?$positional_parameter_base@DV?$stream_output_adapter@D@__crt_stdio_output@@@__crt_stdio_output@@IEAA_NXZ 0000000140204630 f i libucrtd:output.obj
 0002:00129710       ?advance_to_next_pass@?$positional_parameter_base@DV?$string_output_adapter@D@__crt_stdio_output@@@__crt_stdio_output@@IEAA_NXZ 0000000140204710 f i libucrtd:output.obj
 0002:001297f0       ?advance_to_next_pass@?$positional_parameter_base@_WV?$stream_output_adapter@_W@__crt_stdio_output@@@__crt_stdio_output@@IEAA_NXZ 00000001402047f0 f i libucrtd:output.obj
 0002:001298d0       ?advance_to_next_pass@?$positional_parameter_base@_WV?$string_output_adapter@_W@__crt_stdio_output@@@__crt_stdio_output@@IEAA_NXZ 00000001402048d0 f i libucrtd:output.obj
 0002:001299b0       ?advance_to_next_pass@?$standard_base@DV?$stream_output_adapter@D@__crt_stdio_output@@@__crt_stdio_output@@IEAA_NXZ 00000001402049b0 f i libucrtd:output.obj
 0002:00129a10       ?advance_to_next_pass@?$standard_base@DV?$string_output_adapter@D@__crt_stdio_output@@@__crt_stdio_output@@IEAA_NXZ 0000000140204a10 f i libucrtd:output.obj
 0002:00129a70       ?advance_to_next_pass@?$standard_base@_WV?$stream_output_adapter@_W@__crt_stdio_output@@@__crt_stdio_output@@IEAA_NXZ 0000000140204a70 f i libucrtd:output.obj
 0002:00129ad0       ?advance_to_next_pass@?$standard_base@_WV?$string_output_adapter@_W@__crt_stdio_output@@@__crt_stdio_output@@IEAA_NXZ 0000000140204ad0 f i libucrtd:output.obj
 0002:00129b30       ?check@?$cached@H@__crt_cached_ptd_host@@QEBA_NH@Z 0000000140204b30 f i libucrtd:output.obj
 0002:00129b80       ?create_guard@?$cached@H@__crt_cached_ptd_host@@QEAA?AVguard@12@XZ 0000000140204b80 f i libucrtd:output.obj
 0002:00129bb0       ?crop_zeroes@__crt_stdio_output@@YAXPEADQEAU__crt_locale_pointers@@@Z 0000000140204bb0 f i libucrtd:output.obj
 0002:00129d50       ?disable@guard@?$cached@H@__crt_cached_ptd_host@@QEAAXXZ 0000000140204d50 f i libucrtd:output.obj
 0002:00129d70       ?enable@guard@?$cached@H@__crt_cached_ptd_host@@QEAAXXZ 0000000140204d70 f i libucrtd:output.obj
 0002:00129d90       ?find_next_state@?$output_processor@DV?$stream_output_adapter@D@__crt_stdio_output@@V?$format_validation_base@DV?$stream_output_adapter@D@__crt_stdio_output@@@2@@__crt_stdio_output@@AEBA?AW4state@2@DW432@@Z 0000000140204d90 f i libucrtd:output.obj
 0002:00129e50       ?find_next_state@?$output_processor@DV?$stream_output_adapter@D@__crt_stdio_output@@V?$positional_parameter_base@DV?$stream_output_adapter@D@__crt_stdio_output@@@2@@__crt_stdio_output@@AEBA?AW4state@2@DW432@@Z 0000000140204e50 f i libucrtd:output.obj
 0002:00129f10       ?find_next_state@?$output_processor@DV?$stream_output_adapter@D@__crt_stdio_output@@V?$standard_base@DV?$stream_output_adapter@D@__crt_stdio_output@@@2@@__crt_stdio_output@@AEBA?AW4state@2@DW432@@Z 0000000140204f10 f i libucrtd:output.obj
 0002:00129fd0       ?find_next_state@?$output_processor@DV?$string_output_adapter@D@__crt_stdio_output@@V?$format_validation_base@DV?$string_output_adapter@D@__crt_stdio_output@@@2@@__crt_stdio_output@@AEBA?AW4state@2@DW432@@Z 0000000140204fd0 f i libucrtd:output.obj
 0002:0012a090       ?find_next_state@?$output_processor@DV?$string_output_adapter@D@__crt_stdio_output@@V?$positional_parameter_base@DV?$string_output_adapter@D@__crt_stdio_output@@@2@@__crt_stdio_output@@AEBA?AW4state@2@DW432@@Z 0000000140205090 f i libucrtd:output.obj
 0002:0012a150       ?find_next_state@?$output_processor@DV?$string_output_adapter@D@__crt_stdio_output@@V?$standard_base@DV?$string_output_adapter@D@__crt_stdio_output@@@2@@__crt_stdio_output@@AEBA?AW4state@2@DW432@@Z 0000000140205150 f i libucrtd:output.obj
 0002:0012a210       ?find_next_state@?$output_processor@_WV?$stream_output_adapter@_W@__crt_stdio_output@@V?$format_validation_base@_WV?$stream_output_adapter@_W@__crt_stdio_output@@@2@@__crt_stdio_output@@AEBA?AW4state@2@_WW432@@Z 0000000140205210 f i libucrtd:output.obj
 0002:0012a2d0       ?find_next_state@?$output_processor@_WV?$stream_output_adapter@_W@__crt_stdio_output@@V?$positional_parameter_base@_WV?$stream_output_adapter@_W@__crt_stdio_output@@@2@@__crt_stdio_output@@AEBA?AW4state@2@_WW432@@Z 00000001402052d0 f i libucrtd:output.obj
 0002:0012a390       ?find_next_state@?$output_processor@_WV?$stream_output_adapter@_W@__crt_stdio_output@@V?$standard_base@_WV?$stream_output_adapter@_W@__crt_stdio_output@@@2@@__crt_stdio_output@@AEBA?AW4state@2@_WW432@@Z 0000000140205390 f i libucrtd:output.obj
 0002:0012a450       ?find_next_state@?$output_processor@_WV?$string_output_adapter@_W@__crt_stdio_output@@V?$format_validation_base@_WV?$string_output_adapter@_W@__crt_stdio_output@@@2@@__crt_stdio_output@@AEBA?AW4state@2@_WW432@@Z 0000000140205450 f i libucrtd:output.obj
 0002:0012a510       ?find_next_state@?$output_processor@_WV?$string_output_adapter@_W@__crt_stdio_output@@V?$positional_parameter_base@_WV?$string_output_adapter@_W@__crt_stdio_output@@@2@@__crt_stdio_output@@AEBA?AW4state@2@_WW432@@Z 0000000140205510 f i libucrtd:output.obj
 0002:0012a5d0       ?find_next_state@?$output_processor@_WV?$string_output_adapter@_W@__crt_stdio_output@@V?$standard_base@_WV?$string_output_adapter@_W@__crt_stdio_output@@@2@@__crt_stdio_output@@AEBA?AW4state@2@_WW432@@Z 00000001402055d0 f i libucrtd:output.obj
 0002:0012a690       ?force_decimal_point@__crt_stdio_output@@YAXPEADQEAU__crt_locale_pointers@@@Z 0000000140205690 f i libucrtd:output.obj
 0002:0012a7c0       ?get_locale@__crt_cached_ptd_host@@QEAAPEAU__crt_locale_pointers@@XZ 00000001402057c0 f i libucrtd:output.obj
 0002:0012a7f0       ?get_parameter_type@?$positional_parameter_base@DV?$stream_output_adapter@D@__crt_stdio_output@@@__crt_stdio_output@@CA?AW4parameter_type@12@F@Z 00000001402057f0 f i libucrtd:output.obj
 0002:0012a800       ?get_parameter_type@?$positional_parameter_base@DV?$stream_output_adapter@D@__crt_stdio_output@@@__crt_stdio_output@@CA?AW4parameter_type@12@G@Z 0000000140205800 f i libucrtd:output.obj
 0002:0012a810       ?get_parameter_type@?$positional_parameter_base@DV?$stream_output_adapter@D@__crt_stdio_output@@@__crt_stdio_output@@CA?AW4parameter_type@12@H@Z 0000000140205810 f i libucrtd:output.obj
 0002:0012a820       ?get_parameter_type@?$positional_parameter_base@DV?$stream_output_adapter@D@__crt_stdio_output@@@__crt_stdio_output@@CA?AW4parameter_type@12@I@Z 0000000140205820 f i libucrtd:output.obj
 0002:0012a830       ?get_parameter_type@?$positional_parameter_base@DV?$stream_output_adapter@D@__crt_stdio_output@@@__crt_stdio_output@@CA?AW4parameter_type@12@U_CRT_DOUBLE@@@Z 0000000140205830 f i libucrtd:output.obj
 0002:0012a840       ?get_parameter_type@?$positional_parameter_base@DV?$stream_output_adapter@D@__crt_stdio_output@@@__crt_stdio_output@@CA?AW4parameter_type@12@_J@Z 0000000140205840 f i libucrtd:output.obj
 0002:0012a850       ?get_parameter_type@?$positional_parameter_base@DV?$stream_output_adapter@D@__crt_stdio_output@@@__crt_stdio_output@@CA?AW4parameter_type@12@_K@Z 0000000140205850 f i libucrtd:output.obj
 0002:0012a860       ?get_parameter_type@?$positional_parameter_base@DV?$stream_output_adapter@D@__crt_stdio_output@@@__crt_stdio_output@@CA?AW4parameter_type@12@_W@Z 0000000140205860 f i libucrtd:output.obj
 0002:0012a870       ?get_parameter_type@?$positional_parameter_base@DV?$string_output_adapter@D@__crt_stdio_output@@@__crt_stdio_output@@CA?AW4parameter_type@12@F@Z 0000000140205870 f i libucrtd:output.obj
 0002:0012a880       ?get_parameter_type@?$positional_parameter_base@DV?$string_output_adapter@D@__crt_stdio_output@@@__crt_stdio_output@@CA?AW4parameter_type@12@G@Z 0000000140205880 f i libucrtd:output.obj
 0002:0012a890       ?get_parameter_type@?$positional_parameter_base@DV?$string_output_adapter@D@__crt_stdio_output@@@__crt_stdio_output@@CA?AW4parameter_type@12@H@Z 0000000140205890 f i libucrtd:output.obj
 0002:0012a8a0       ?get_parameter_type@?$positional_parameter_base@DV?$string_output_adapter@D@__crt_stdio_output@@@__crt_stdio_output@@CA?AW4parameter_type@12@I@Z 00000001402058a0 f i libucrtd:output.obj
 0002:0012a8b0       ?get_parameter_type@?$positional_parameter_base@DV?$string_output_adapter@D@__crt_stdio_output@@@__crt_stdio_output@@CA?AW4parameter_type@12@U_CRT_DOUBLE@@@Z 00000001402058b0 f i libucrtd:output.obj
 0002:0012a8c0       ?get_parameter_type@?$positional_parameter_base@DV?$string_output_adapter@D@__crt_stdio_output@@@__crt_stdio_output@@CA?AW4parameter_type@12@_J@Z 00000001402058c0 f i libucrtd:output.obj
 0002:0012a8d0       ?get_parameter_type@?$positional_parameter_base@DV?$string_output_adapter@D@__crt_stdio_output@@@__crt_stdio_output@@CA?AW4parameter_type@12@_K@Z 00000001402058d0 f i libucrtd:output.obj
 0002:0012a8e0       ?get_parameter_type@?$positional_parameter_base@DV?$string_output_adapter@D@__crt_stdio_output@@@__crt_stdio_output@@CA?AW4parameter_type@12@_W@Z 00000001402058e0 f i libucrtd:output.obj
 0002:0012a8f0       ?get_parameter_type@?$positional_parameter_base@_WV?$stream_output_adapter@_W@__crt_stdio_output@@@__crt_stdio_output@@CA?AW4parameter_type@12@F@Z 00000001402058f0 f i libucrtd:output.obj
 0002:0012a900       ?get_parameter_type@?$positional_parameter_base@_WV?$stream_output_adapter@_W@__crt_stdio_output@@@__crt_stdio_output@@CA?AW4parameter_type@12@G@Z 0000000140205900 f i libucrtd:output.obj
 0002:0012a910       ?get_parameter_type@?$positional_parameter_base@_WV?$stream_output_adapter@_W@__crt_stdio_output@@@__crt_stdio_output@@CA?AW4parameter_type@12@H@Z 0000000140205910 f i libucrtd:output.obj
 0002:0012a920       ?get_parameter_type@?$positional_parameter_base@_WV?$stream_output_adapter@_W@__crt_stdio_output@@@__crt_stdio_output@@CA?AW4parameter_type@12@I@Z 0000000140205920 f i libucrtd:output.obj
 0002:0012a930       ?get_parameter_type@?$positional_parameter_base@_WV?$stream_output_adapter@_W@__crt_stdio_output@@@__crt_stdio_output@@CA?AW4parameter_type@12@U_CRT_DOUBLE@@@Z 0000000140205930 f i libucrtd:output.obj
 0002:0012a940       ?get_parameter_type@?$positional_parameter_base@_WV?$stream_output_adapter@_W@__crt_stdio_output@@@__crt_stdio_output@@CA?AW4parameter_type@12@_J@Z 0000000140205940 f i libucrtd:output.obj
 0002:0012a950       ?get_parameter_type@?$positional_parameter_base@_WV?$stream_output_adapter@_W@__crt_stdio_output@@@__crt_stdio_output@@CA?AW4parameter_type@12@_K@Z 0000000140205950 f i libucrtd:output.obj
 0002:0012a960       ?get_parameter_type@?$positional_parameter_base@_WV?$stream_output_adapter@_W@__crt_stdio_output@@@__crt_stdio_output@@CA?AW4parameter_type@12@_W@Z 0000000140205960 f i libucrtd:output.obj
 0002:0012a970       ?get_parameter_type@?$positional_parameter_base@_WV?$string_output_adapter@_W@__crt_stdio_output@@@__crt_stdio_output@@CA?AW4parameter_type@12@F@Z 0000000140205970 f i libucrtd:output.obj
 0002:0012a980       ?get_parameter_type@?$positional_parameter_base@_WV?$string_output_adapter@_W@__crt_stdio_output@@@__crt_stdio_output@@CA?AW4parameter_type@12@G@Z 0000000140205980 f i libucrtd:output.obj
 0002:0012a990       ?get_parameter_type@?$positional_parameter_base@_WV?$string_output_adapter@_W@__crt_stdio_output@@@__crt_stdio_output@@CA?AW4parameter_type@12@H@Z 0000000140205990 f i libucrtd:output.obj
 0002:0012a9a0       ?get_parameter_type@?$positional_parameter_base@_WV?$string_output_adapter@_W@__crt_stdio_output@@@__crt_stdio_output@@CA?AW4parameter_type@12@I@Z 00000001402059a0 f i libucrtd:output.obj
 0002:0012a9b0       ?get_parameter_type@?$positional_parameter_base@_WV?$string_output_adapter@_W@__crt_stdio_output@@@__crt_stdio_output@@CA?AW4parameter_type@12@U_CRT_DOUBLE@@@Z 00000001402059b0 f i libucrtd:output.obj
 0002:0012a9c0       ?get_parameter_type@?$positional_parameter_base@_WV?$string_output_adapter@_W@__crt_stdio_output@@@__crt_stdio_output@@CA?AW4parameter_type@12@_J@Z 00000001402059c0 f i libucrtd:output.obj
 0002:0012a9d0       ?get_parameter_type@?$positional_parameter_base@_WV?$string_output_adapter@_W@__crt_stdio_output@@@__crt_stdio_output@@CA?AW4parameter_type@12@_K@Z 00000001402059d0 f i libucrtd:output.obj
 0002:0012a9e0       ?get_parameter_type@?$positional_parameter_base@_WV?$string_output_adapter@_W@__crt_stdio_output@@@__crt_stdio_output@@CA?AW4parameter_type@12@_W@Z 00000001402059e0 f i libucrtd:output.obj
 0002:0012a9f0       ?has_flag@?$output_processor@DV?$stream_output_adapter@D@__crt_stdio_output@@V?$format_validation_base@DV?$stream_output_adapter@D@__crt_stdio_output@@@2@@__crt_stdio_output@@AEBA_NI@Z 00000001402059f0 f i libucrtd:output.obj
 0002:0012aa40       ?has_flag@?$output_processor@DV?$stream_output_adapter@D@__crt_stdio_output@@V?$positional_parameter_base@DV?$stream_output_adapter@D@__crt_stdio_output@@@2@@__crt_stdio_output@@AEBA_NI@Z 0000000140205a40 f i libucrtd:output.obj
 0002:0012aa90       ?has_flag@?$output_processor@DV?$stream_output_adapter@D@__crt_stdio_output@@V?$standard_base@DV?$stream_output_adapter@D@__crt_stdio_output@@@2@@__crt_stdio_output@@AEBA_NI@Z 0000000140205a90 f i libucrtd:output.obj
 0002:0012aae0       ?has_flag@?$output_processor@DV?$string_output_adapter@D@__crt_stdio_output@@V?$format_validation_base@DV?$string_output_adapter@D@__crt_stdio_output@@@2@@__crt_stdio_output@@AEBA_NI@Z 0000000140205ae0 f i libucrtd:output.obj
 0002:0012ab30       ?has_flag@?$output_processor@DV?$string_output_adapter@D@__crt_stdio_output@@V?$positional_parameter_base@DV?$string_output_adapter@D@__crt_stdio_output@@@2@@__crt_stdio_output@@AEBA_NI@Z 0000000140205b30 f i libucrtd:output.obj
 0002:0012ab80       ?has_flag@?$output_processor@DV?$string_output_adapter@D@__crt_stdio_output@@V?$standard_base@DV?$string_output_adapter@D@__crt_stdio_output@@@2@@__crt_stdio_output@@AEBA_NI@Z 0000000140205b80 f i libucrtd:output.obj
 0002:0012abd0       ?has_flag@?$output_processor@_WV?$stream_output_adapter@_W@__crt_stdio_output@@V?$format_validation_base@_WV?$stream_output_adapter@_W@__crt_stdio_output@@@2@@__crt_stdio_output@@AEBA_NI@Z 0000000140205bd0 f i libucrtd:output.obj
 0002:0012ac20       ?has_flag@?$output_processor@_WV?$stream_output_adapter@_W@__crt_stdio_output@@V?$positional_parameter_base@_WV?$stream_output_adapter@_W@__crt_stdio_output@@@2@@__crt_stdio_output@@AEBA_NI@Z 0000000140205c20 f i libucrtd:output.obj
 0002:0012ac70       ?has_flag@?$output_processor@_WV?$stream_output_adapter@_W@__crt_stdio_output@@V?$standard_base@_WV?$stream_output_adapter@_W@__crt_stdio_output@@@2@@__crt_stdio_output@@AEBA_NI@Z 0000000140205c70 f i libucrtd:output.obj
 0002:0012acc0       ?has_flag@?$output_processor@_WV?$string_output_adapter@_W@__crt_stdio_output@@V?$format_validation_base@_WV?$string_output_adapter@_W@__crt_stdio_output@@@2@@__crt_stdio_output@@AEBA_NI@Z 0000000140205cc0 f i libucrtd:output.obj
 0002:0012ad10       ?has_flag@?$output_processor@_WV?$string_output_adapter@_W@__crt_stdio_output@@V?$positional_parameter_base@_WV?$string_output_adapter@_W@__crt_stdio_output@@@2@@__crt_stdio_output@@AEBA_NI@Z 0000000140205d10 f i libucrtd:output.obj
 0002:0012ad60       ?has_flag@?$output_processor@_WV?$string_output_adapter@_W@__crt_stdio_output@@V?$standard_base@_WV?$string_output_adapter@_W@__crt_stdio_output@@@2@@__crt_stdio_output@@AEBA_NI@Z 0000000140205d60 f i libucrtd:output.obj
 0002:0012adb0       ?is_positional_parameter_reappearance_consistent@?$positional_parameter_base@DV?$stream_output_adapter@D@__crt_stdio_output@@@__crt_stdio_output@@AEAA_NAEBUparameter_data@12@W4parameter_type@12@DW4length_modifier@2@@Z 0000000140205db0 f i libucrtd:output.obj
 0002:0012b0a0       ?is_positional_parameter_reappearance_consistent@?$positional_parameter_base@DV?$string_output_adapter@D@__crt_stdio_output@@@__crt_stdio_output@@AEAA_NAEBUparameter_data@12@W4parameter_type@12@DW4length_modifier@2@@Z 00000001402060a0 f i libucrtd:output.obj
 0002:0012b390       ?is_positional_parameter_reappearance_consistent@?$positional_parameter_base@_WV?$stream_output_adapter@_W@__crt_stdio_output@@@__crt_stdio_output@@AEAA_NAEBUparameter_data@12@W4parameter_type@12@_WW4length_modifier@2@@Z 0000000140206390 f i libucrtd:output.obj
 0002:0012b680       ?is_positional_parameter_reappearance_consistent@?$positional_parameter_base@_WV?$string_output_adapter@_W@__crt_stdio_output@@@__crt_stdio_output@@AEAA_NAEBUparameter_data@12@W4parameter_type@12@_WW4length_modifier@2@@Z 0000000140206680 f i libucrtd:output.obj
 0002:0012b970       ?maximum_signed_value@__crt_strtox@@YAJK@Z 0000000140206970 f i libucrtd:output.obj
 0002:0012b980       ?minimum_signed_value@__crt_strtox@@YAJK@Z 0000000140206980 f i libucrtd:output.obj
 0002:0012b990       ?narrow_null_string@?$output_processor@DV?$stream_output_adapter@D@__crt_stdio_output@@V?$format_validation_base@DV?$stream_output_adapter@D@__crt_stdio_output@@@2@@__crt_stdio_output@@CAPEADXZ 0000000140206990 f i libucrtd:output.obj
 0002:0012b9a0       ?narrow_null_string@?$output_processor@DV?$stream_output_adapter@D@__crt_stdio_output@@V?$positional_parameter_base@DV?$stream_output_adapter@D@__crt_stdio_output@@@2@@__crt_stdio_output@@CAPEADXZ 00000001402069a0 f i libucrtd:output.obj
 0002:0012b9b0       ?narrow_null_string@?$output_processor@DV?$stream_output_adapter@D@__crt_stdio_output@@V?$standard_base@DV?$stream_output_adapter@D@__crt_stdio_output@@@2@@__crt_stdio_output@@CAPEADXZ 00000001402069b0 f i libucrtd:output.obj
 0002:0012b9c0       ?narrow_null_string@?$output_processor@DV?$string_output_adapter@D@__crt_stdio_output@@V?$format_validation_base@DV?$string_output_adapter@D@__crt_stdio_output@@@2@@__crt_stdio_output@@CAPEADXZ 00000001402069c0 f i libucrtd:output.obj
 0002:0012b9d0       ?narrow_null_string@?$output_processor@DV?$string_output_adapter@D@__crt_stdio_output@@V?$positional_parameter_base@DV?$string_output_adapter@D@__crt_stdio_output@@@2@@__crt_stdio_output@@CAPEADXZ 00000001402069d0 f i libucrtd:output.obj
 0002:0012b9e0       ?narrow_null_string@?$output_processor@DV?$string_output_adapter@D@__crt_stdio_output@@V?$standard_base@DV?$string_output_adapter@D@__crt_stdio_output@@@2@@__crt_stdio_output@@CAPEADXZ 00000001402069e0 f i libucrtd:output.obj
 0002:0012b9f0       ?narrow_null_string@?$output_processor@_WV?$stream_output_adapter@_W@__crt_stdio_output@@V?$format_validation_base@_WV?$stream_output_adapter@_W@__crt_stdio_output@@@2@@__crt_stdio_output@@CAPEADXZ 00000001402069f0 f i libucrtd:output.obj
 0002:0012ba00       ?narrow_null_string@?$output_processor@_WV?$stream_output_adapter@_W@__crt_stdio_output@@V?$positional_parameter_base@_WV?$stream_output_adapter@_W@__crt_stdio_output@@@2@@__crt_stdio_output@@CAPEADXZ 0000000140206a00 f i libucrtd:output.obj
 0002:0012ba10       ?narrow_null_string@?$output_processor@_WV?$stream_output_adapter@_W@__crt_stdio_output@@V?$standard_base@_WV?$stream_output_adapter@_W@__crt_stdio_output@@@2@@__crt_stdio_output@@CAPEADXZ 0000000140206a10 f i libucrtd:output.obj
 0002:0012ba20       ?narrow_null_string@?$output_processor@_WV?$string_output_adapter@_W@__crt_stdio_output@@V?$format_validation_base@_WV?$string_output_adapter@_W@__crt_stdio_output@@@2@@__crt_stdio_output@@CAPEADXZ 0000000140206a20 f i libucrtd:output.obj
 0002:0012ba30       ?narrow_null_string@?$output_processor@_WV?$string_output_adapter@_W@__crt_stdio_output@@V?$positional_parameter_base@_WV?$string_output_adapter@_W@__crt_stdio_output@@@2@@__crt_stdio_output@@CAPEADXZ 0000000140206a30 f i libucrtd:output.obj
 0002:0012ba40       ?narrow_null_string@?$output_processor@_WV?$string_output_adapter@_W@__crt_stdio_output@@V?$standard_base@_WV?$string_output_adapter@_W@__crt_stdio_output@@@2@@__crt_stdio_output@@CAPEADXZ 0000000140206a40 f i libucrtd:output.obj
 0002:0012ba50       ?parse_int_from_format_string@?$output_processor@DV?$stream_output_adapter@D@__crt_stdio_output@@V?$format_validation_base@DV?$stream_output_adapter@D@__crt_stdio_output@@@2@@__crt_stdio_output@@AEAA_NQEAH@Z 0000000140206a50 f i libucrtd:output.obj
 0002:0012bb90       ?parse_int_from_format_string@?$output_processor@DV?$stream_output_adapter@D@__crt_stdio_output@@V?$positional_parameter_base@DV?$stream_output_adapter@D@__crt_stdio_output@@@2@@__crt_stdio_output@@AEAA_NQEAH@Z 0000000140206b90 f i libucrtd:output.obj
 0002:0012bcd0       ?parse_int_from_format_string@?$output_processor@DV?$stream_output_adapter@D@__crt_stdio_output@@V?$standard_base@DV?$stream_output_adapter@D@__crt_stdio_output@@@2@@__crt_stdio_output@@AEAA_NQEAH@Z 0000000140206cd0 f i libucrtd:output.obj
 0002:0012be10       ?parse_int_from_format_string@?$output_processor@DV?$string_output_adapter@D@__crt_stdio_output@@V?$format_validation_base@DV?$string_output_adapter@D@__crt_stdio_output@@@2@@__crt_stdio_output@@AEAA_NQEAH@Z 0000000140206e10 f i libucrtd:output.obj
 0002:0012bf50       ?parse_int_from_format_string@?$output_processor@DV?$string_output_adapter@D@__crt_stdio_output@@V?$positional_parameter_base@DV?$string_output_adapter@D@__crt_stdio_output@@@2@@__crt_stdio_output@@AEAA_NQEAH@Z 0000000140206f50 f i libucrtd:output.obj
 0002:0012c090       ?parse_int_from_format_string@?$output_processor@DV?$string_output_adapter@D@__crt_stdio_output@@V?$standard_base@DV?$string_output_adapter@D@__crt_stdio_output@@@2@@__crt_stdio_output@@AEAA_NQEAH@Z 0000000140207090 f i libucrtd:output.obj
 0002:0012c1d0       ?parse_int_from_format_string@?$output_processor@_WV?$stream_output_adapter@_W@__crt_stdio_output@@V?$format_validation_base@_WV?$stream_output_adapter@_W@__crt_stdio_output@@@2@@__crt_stdio_output@@AEAA_NQEAH@Z 00000001402071d0 f i libucrtd:output.obj
 0002:0012c310       ?parse_int_from_format_string@?$output_processor@_WV?$stream_output_adapter@_W@__crt_stdio_output@@V?$positional_parameter_base@_WV?$stream_output_adapter@_W@__crt_stdio_output@@@2@@__crt_stdio_output@@AEAA_NQEAH@Z 0000000140207310 f i libucrtd:output.obj
 0002:0012c450       ?parse_int_from_format_string@?$output_processor@_WV?$stream_output_adapter@_W@__crt_stdio_output@@V?$standard_base@_WV?$stream_output_adapter@_W@__crt_stdio_output@@@2@@__crt_stdio_output@@AEAA_NQEAH@Z 0000000140207450 f i libucrtd:output.obj
 0002:0012c590       ?parse_int_from_format_string@?$output_processor@_WV?$string_output_adapter@_W@__crt_stdio_output@@V?$format_validation_base@_WV?$string_output_adapter@_W@__crt_stdio_output@@@2@@__crt_stdio_output@@AEAA_NQEAH@Z 0000000140207590 f i libucrtd:output.obj
 0002:0012c6d0       ?parse_int_from_format_string@?$output_processor@_WV?$string_output_adapter@_W@__crt_stdio_output@@V?$positional_parameter_base@_WV?$string_output_adapter@_W@__crt_stdio_output@@@2@@__crt_stdio_output@@AEAA_NQEAH@Z 00000001402076d0 f i libucrtd:output.obj
 0002:0012c810       ?parse_int_from_format_string@?$output_processor@_WV?$string_output_adapter@_W@__crt_stdio_output@@V?$standard_base@_WV?$string_output_adapter@_W@__crt_stdio_output@@@2@@__crt_stdio_output@@AEAA_NQEAH@Z 0000000140207810 f i libucrtd:output.obj
 0002:0012c950       ?process@?$output_processor@DV?$stream_output_adapter@D@__crt_stdio_output@@V?$format_validation_base@DV?$stream_output_adapter@D@__crt_stdio_output@@@2@@__crt_stdio_output@@QEAAHXZ 0000000140207950 f i libucrtd:output.obj
 0002:0012ce00       ?process@?$output_processor@DV?$stream_output_adapter@D@__crt_stdio_output@@V?$positional_parameter_base@DV?$stream_output_adapter@D@__crt_stdio_output@@@2@@__crt_stdio_output@@QEAAHXZ 0000000140207e00 f i libucrtd:output.obj
