 kamelaslibDU_x64

 Timestamp is 67f4be88 (Tue Apr  8 15:13:28 2025)

 Preferred load address is 0000000180000000

 Start         Length     Name                   Class
 0001:00000000 00000030H .text$di                CODE
 0001:00000030 000b2fa0H .text$mn                CODE
 0001:000b2fd0 00000040H .text$mn$00             CODE
 0001:000b3010 00000b40H .text$mn$21             CODE
 0001:000b3b50 00001210H .text$x                 CODE
 0001:000b4d60 00000056H .text$yd                CODE
 0002:00000000 00000398H .idata$5                DATA
 0002:00000398 00000038H .00cfg                  DATA
 0002:000003d0 00000008H .CRT$XCA                DATA
 0002:000003d8 00000008H .CRT$XCC                DATA
 0002:000003e0 00000008H .CRT$XCZ                DATA
 0002:000003e8 00000008H .CRT$XIA                DATA
 0002:000003f0 00000018H .CRT$XIC                DATA
 0002:00000408 00000008H .CRT$XIZ                DATA
 0002:00000410 00000008H .CRT$XLA                DATA
 0002:00000418 00000008H .CRT$XLZ                DATA
 0002:00000420 00000008H .CRT$XPA                DATA
 0002:00000428 00000010H .CRT$XPX                DATA
 0002:00000438 00000008H .CRT$XPXA               DATA
 0002:00000440 00000008H .CRT$XPZ                DATA
 0002:00000448 00000008H .CRT$XTA                DATA
 0002:00000450 00000010H .CRT$XTZ                DATA
 0002:00000458 00000000H .gehcont$y              DATA
 0002:00000458 00000000H .gfids$y                DATA
 0002:00000460 00024290H .rdata                  DATA
 0002:000246f0 00000190H .rdata$00               DATA
 0002:00024880 00000080H .rdata$CastGuardVftablesA DATA
 0002:00024900 00000080H .rdata$CastGuardVftablesC DATA
 0002:00024980 00000028H .rdata$T                DATA
 0002:000249a8 00000c6cH .rdata$r                DATA
 0002:00025614 00000174H .rdata$voltmd           DATA
 0002:00025788 00000488H .rdata$zzzdbg           DATA
 0002:00025c10 00000008H .rtc$IAA                DATA
 0002:00025c18 00000008H .rtc$IZZ                DATA
 0002:00025c20 00000008H .rtc$TAA                DATA
 0002:00025c28 00000008H .rtc$TZZ                DATA
 0002:00025c30 00000004H .tls                    DATA
 0002:00025c34 00000004H .tls$                   DATA
 0002:00025c38 00000008H .tls$ZZZ                DATA
 0002:00025c40 00007708H .xdata                  DATA
 0002:0002d348 00000448H .xdata$x                DATA
 0002:0002d790 00000680H .edata                  DATA
 0002:0002de10 00000028H .idata$2                DATA
 0002:0002de38 00000018H .idata$3                DATA
 0002:0002de50 00000398H .idata$4                DATA
 0002:0002e1e8 00000866H .idata$6                DATA
 0003:00000000 00000b50H .data                   DATA
 0003:00000b50 00000200H .data$r                 DATA
 0003:00000d50 00000220H .data$rs                DATA
 0003:00000f70 00003c64H .bss                    DATA
 0004:00000000 00009150H .pdata                  DATA
 0005:00000000 00000060H .rsrc$01                DATA
 0005:00000060 00000098H .rsrc$02                DATA

  Address         Publics by Value              Rva+Base               Lib:Object

 0000:00000000       __AbsoluteZero             0000000000000000     <absolute>
 0000:00000000       ___safe_se_handler_count   0000000000000000     <absolute>
 0000:00000000       ___safe_se_handler_table   0000000000000000     <absolute>
 0000:00000000       __arm64x_extra_rfe_table   0000000000000000     <absolute>
 0000:00000000       __arm64x_extra_rfe_table_size 0000000000000000     <absolute>
 0000:00000000       __arm64x_native_entrypoint 0000000000000000     <absolute>
 0000:00000000       __arm64x_redirection_metadata 0000000000000000     <absolute>
 0000:00000000       __arm64x_redirection_metadata_count 0000000000000000     <absolute>
 0000:00000000       __dynamic_value_reloc_table 0000000000000000     <absolute>
 0000:00000000       __enclave_config           0000000000000000     <absolute>
 0000:00000000       __guard_check_icall_a64n_fptr 0000000000000000     <absolute>
 0000:00000000       __guard_eh_cont_count      0000000000000000     <absolute>
 0000:00000000       __guard_eh_cont_table      0000000000000000     <absolute>
 0000:00000000       __guard_fids_count         0000000000000000     <absolute>
 0000:00000000       __guard_fids_table         0000000000000000     <absolute>
 0000:00000000       __guard_iat_count          0000000000000000     <absolute>
 0000:00000000       __guard_iat_table          0000000000000000     <absolute>
 0000:00000000       __guard_longjmp_count      0000000000000000     <absolute>
 0000:00000000       __guard_longjmp_table      0000000000000000     <absolute>
 0000:00000000       __hybrid_auxiliary_delayload_iat 0000000000000000     <absolute>
 0000:00000000       __hybrid_auxiliary_delayload_iat_copy 0000000000000000     <absolute>
 0000:00000000       __hybrid_auxiliary_iat     0000000000000000     <absolute>
 0000:00000000       __hybrid_auxiliary_iat_copy 0000000000000000     <absolute>
 0000:00000000       __hybrid_code_map          0000000000000000     <absolute>
 0000:00000000       __hybrid_code_map_count    0000000000000000     <absolute>
 0000:00000000       __hybrid_image_info_bitfield 0000000000000000     <absolute>
 0000:00000000       __x64_code_ranges_to_entry_points 0000000000000000     <absolute>
 0000:00000000       __x64_code_ranges_to_entry_points_count 0000000000000000     <absolute>
 0000:00000100       __guard_flags              0000000000000100     <absolute>
 0000:00000000       __ImageBase                0000000180000000     <linker-defined>
 0001:00000030       ?DebugLog@kamelaslib@@YAXHPEA_WZZ 0000000180001030 f   debuglog.obj
 0001:00000090       ?DebugWrite@kamelaslib@@YAXHPEB_W@Z 0000000180001090 f   debuglog.obj
 0001:000000c0       ?vswprintf@@YAHQEA_WQEB_WPEAD@Z 00000001800010c0 f i debuglog.obj
 0001:00000100       __local_stdio_printf_options 0000000180001100 f i debuglog.obj
 0001:00000110       _vswprintf_c_l             0000000180001110 f i debuglog.obj
 0001:00000180       vswprintf                  0000000180001180 f i debuglog.obj
 0001:000001c0       ??1KamelasBase@kamelaslib@@UEAA@XZ 00000001800011c0 f   kamelasbase.obj
 0001:000001e0       CreateKamelas              00000001800011e0 f   kamelasbase.obj
 0001:00000260       DestroyKamelas             0000000180001260 f   kamelasbase.obj
 0001:000002b0       ??0KamelasBase@kamelaslib@@QEAA@AEBV01@@Z 00000001800012b0 f i kamelasbase.obj
 0001:000002d0       ??0KamelasBase@kamelaslib@@QEAA@XZ 00000001800012d0 f i kamelasbase.obj
 0001:000002f0       ??4KamelasBase@kamelaslib@@QEAAAEAV01@AEBV01@@Z 00000001800012f0 f i kamelasbase.obj
 0001:00000300       ??_EKamelasBase@kamelaslib@@UEAAPEAXI@Z 0000000180001300 f i kamelasbase.obj
 0001:000003a0       ??_GKamelasBase@kamelaslib@@UEAAPEAXI@Z 00000001800013a0 f i kamelasbase.obj
 0001:000003e0       ?create@KamelasFactory@kamelaslib@@QEAAPEAVKamelasBase@2@AEBUtagKAMELASFLAG@2@@Z 00000001800013e0 f   kamelasfactory.obj
 0001:000004f0       ?remove@KamelasFactory@kamelaslib@@QEAAXPEAVKamelasBase@2@@Z 00000001800014f0 f   kamelasfactory.obj
 0001:00000540       ??0KamelasFactory@kamelaslib@@QEAA@XZ 0000000180001540 f   kamelasfactory.obj
 0001:00000560       ??1KamelasFactory@kamelaslib@@UEAA@XZ 0000000180001560 f   kamelasfactory.obj
 0001:00000580       GetFactory                 0000000180001580 f   kamelasfactory.obj
 0001:00000600       ??0KamelasFactory@kamelaslib@@QEAA@AEBV01@@Z 0000000180001600 f i kamelasfactory.obj
 0001:00000620       ??4KamelasFactory@kamelaslib@@QEAAAEAV01@AEBV01@@Z 0000000180001620 f i kamelasfactory.obj
 0001:00000630       ??_EKamelasFactory@kamelaslib@@UEAAPEAXI@Z 0000000180001630 f i kamelasfactory.obj
 0001:000006d0       ??_GKamelasFactory@kamelaslib@@UEAAPEAXI@Z 00000001800016d0 f i kamelasfactory.obj
 0001:00000710       ??AKamelasManager@kamelaslib@@QEAAAEAVKamelasBase@1@PEB_W@Z 0000000180001710 f   kamelasmanager.obj
 0001:00000760       ?query@KamelasManager@kamelaslib@@QEAAPEAVKamelasBase@2@PEB_W@Z 0000000180001760 f   kamelasmanager.obj
 0001:000008a0       ?at@KamelasManager@kamelaslib@@QEAAPEAVKamelasBase@2@I@Z 00000001800018a0 f   kamelasmanager.obj
 0001:000009f0       ?attach@KamelasManager@kamelaslib@@QEAA_NPEBVKamelasBase@2@@Z 00000001800019f0 f   kamelasmanager.obj
 0001:00000af0       ?detach@KamelasManager@kamelaslib@@QEAA_NPEBVKamelasBase@2@@Z 0000000180001af0 f   kamelasmanager.obj
 0001:00000cf0       ??YKamelasManager@kamelaslib@@QEAA_NPEBVKamelasBase@1@@Z 0000000180001cf0 f   kamelasmanager.obj
 0001:00000d20       ??ZKamelasManager@kamelaslib@@QEAA_NPEBVKamelasBase@1@@Z 0000000180001d20 f   kamelasmanager.obj
 0001:00000d50       ?size@KamelasManager@kamelaslib@@QEAAIXZ 0000000180001d50 f   kamelasmanager.obj
 0001:00000d80       ?clear@KamelasManager@kamelaslib@@QEAAXXZ 0000000180001d80 f   kamelasmanager.obj
 0001:00000e40       ??0KamelasManager@kamelaslib@@QEAA@XZ 0000000180001e40 f   kamelasmanager.obj
 0001:00000ee0       ??1KamelasManager@kamelaslib@@UEAA@XZ 0000000180001ee0 f   kamelasmanager.obj
 0001:00000f50       GetManager                 0000000180001f50 f   kamelasmanager.obj
 0001:00000fd0       ??$?0$$V@?$_Compressed_pair@V?$allocator@U?$_Tree_node@PEBVKamelasBase@kamelaslib@@PEAX@std@@@std@@V?$_Tree_val@U?$_Tree_simple_types@PEBVKamelasBase@kamelaslib@@@std@@@2@$00@std@@QEAA@U_Zero_then_variadic_args_t@1@@Z 0000000180001fd0 f i kamelasmanager.obj
 0001:00001000       ??$?0AEAPEAU?$_Tree_node@PEBVKamelasBase@kamelaslib@@PEAX@std@@_N$0A@@?$pair@PEAU?$_Tree_node@PEBVKamelasBase@kamelaslib@@PEAX@std@@_N@std@@QEAA@AEAPEAU?$_Tree_node@PEBVKamelasBase@kamelaslib@@PEAX@1@$$QEA_N@Z 0000000180002000 f i kamelasmanager.obj
 0001:00001050       ??$?0AEBQEBVKamelasBase@kamelaslib@@@?$_Tree_temp_node@V?$allocator@U?$_Tree_node@PEBVKamelasBase@kamelaslib@@PEAX@std@@@std@@@std@@QEAA@AEAV?$allocator@U?$_Tree_node@PEBVKamelasBase@kamelaslib@@PEAX@std@@@1@PEAU?$_Tree_node@PEBVKamelasBase@kamelaslib@@PEAX@1@AEBQEBVKamelasBase@kamelaslib@@@Z 0000000180002050 f i kamelasmanager.obj
 0001:00001120       ??$?0AEBU?$less@PEBVKamelasBase@kamelaslib@@@std@@U_Zero_then_variadic_args_t@1@@?$_Compressed_pair@U?$less@PEBVKamelasBase@kamelaslib@@@std@@V?$_Compressed_pair@V?$allocator@U?$_Tree_node@PEBVKamelasBase@kamelaslib@@PEAX@std@@@std@@V?$_Tree_val@U?$_Tree_simple_types@PEBVKamelasBase@kamelaslib@@@std@@@2@$00@2@$00@std@@QEAA@U_One_then_variadic_args_t@1@AEBU?$less@PEBVKamelasBase@kamelaslib@@@1@$$QEAU_Zero_then_variadic_args_t@1@@Z 0000000180002120 f i kamelasmanager.obj
 0001:00001170       ??$?0PEAU?$_Tree_node@PEBVKamelasBase@kamelaslib@@PEAX@std@@_N$0A@@?$pair@PEAU?$_Tree_node@PEBVKamelasBase@kamelaslib@@PEAX@std@@_N@std@@QEAA@$$QEAPEAU?$_Tree_node@PEBVKamelasBase@kamelaslib@@PEAX@1@$$QEA_N@Z 0000000180002170 f i kamelasmanager.obj
 0001:000011c0       ??$?0U?$_Tree_node@PEBVKamelasBase@kamelaslib@@PEAX@std@@@?$allocator@U_Container_proxy@std@@@std@@QEAA@AEBV?$allocator@U?$_Tree_node@PEBVKamelasBase@kamelaslib@@PEAX@std@@@1@@Z 00000001800021c0 f i kamelasmanager.obj
 0001:000011d0       ??$?0V?$_Tree_const_iterator@V?$_Tree_val@U?$_Tree_simple_types@PEBVKamelasBase@kamelaslib@@@std@@@std@@@std@@AEB_N$0A@@?$pair@V?$_Tree_const_iterator@V?$_Tree_val@U?$_Tree_simple_types@PEBVKamelasBase@kamelaslib@@@std@@@std@@@std@@_N@std@@QEAA@$$QEAV?$_Tree_const_iterator@V?$_Tree_val@U?$_Tree_simple_types@PEBVKamelasBase@kamelaslib@@@std@@@std@@@1@AEB_N@Z 00000001800021d0 f i kamelasmanager.obj
 0001:00001220       ??$_Allocate@$0BA@U_Default_allocate_traits@std@@@std@@YAPEAX_K@Z 0000000180002220 f i kamelasmanager.obj
 0001:00001260       ??$_Allocate_manually_vector_aligned@U_Default_allocate_traits@std@@@std@@YAPEAX_K@Z 0000000180002260 f i kamelasmanager.obj
 0001:00001370       ??$_Buyheadnode@V?$allocator@U?$_Tree_node@PEBVKamelasBase@kamelaslib@@PEAX@std@@@std@@@?$_Tree_node@PEBVKamelasBase@kamelaslib@@PEAX@std@@SAPEAU01@AEAV?$allocator@U?$_Tree_node@PEBVKamelasBase@kamelaslib@@PEAX@std@@@1@@Z 0000000180002370 f i kamelasmanager.obj
 0001:000013f0       ??$_Construct_in_place@PEAU?$_Tree_node@PEBVKamelasBase@kamelaslib@@PEAX@std@@AEAPEAU12@@std@@YAXAEAPEAU?$_Tree_node@PEBVKamelasBase@kamelaslib@@PEAX@0@0@Z 00000001800023f0 f i kamelasmanager.obj
 0001:00001440       ??$_Construct_in_place@PEAU?$_Tree_node@PEBVKamelasBase@kamelaslib@@PEAX@std@@AEBQEAU12@@std@@YAXAEAPEAU?$_Tree_node@PEBVKamelasBase@kamelaslib@@PEAX@0@AEBQEAU10@@Z 0000000180002440 f i kamelasmanager.obj
 0001:00001490       ??$_Construct_in_place@U_Container_proxy@std@@PEAU_Container_base12@2@@std@@YAXAEAU_Container_proxy@0@$$QEAPEAU_Container_base12@0@@Z 0000000180002490 f i kamelasmanager.obj
 0001:000014e0       ??$_Deallocate@$0BA@@std@@YAXPEAX_K@Z 00000001800024e0 f i kamelasmanager.obj
 0001:00001520       ??$_Deallocate_plain@V?$allocator@U_Container_proxy@std@@@std@@@std@@YAXAEAV?$allocator@U_Container_proxy@std@@@0@QEAU_Container_proxy@0@@Z 0000000180002520 f i kamelasmanager.obj
 0001:00001550       ??$_Debug_lt_pred@AEBU?$less@PEBVKamelasBase@kamelaslib@@@std@@AEBQEBVKamelasBase@kamelaslib@@AEBQEBV34@@std@@YA_NAEBU?$less@PEBVKamelasBase@kamelaslib@@@0@AEBQEBVKamelasBase@kamelaslib@@1@Z 0000000180002550 f i kamelasmanager.obj
 0001:00001630       ??$_Delete_plain_internal@V?$allocator@U_Container_proxy@std@@@std@@@std@@YAXAEAV?$allocator@U_Container_proxy@std@@@0@QEAU_Container_proxy@0@@Z 0000000180002630 f i kamelasmanager.obj
 0001:00001660       ??$_Destroy_in_place@PEAU?$_Tree_node@PEBVKamelasBase@kamelaslib@@PEAX@std@@@std@@YAXAEAPEAU?$_Tree_node@PEBVKamelasBase@kamelaslib@@PEAX@0@@Z 0000000180002660 f i kamelasmanager.obj
 0001:00001670       ??$_Emplace@AEBQEBVKamelasBase@kamelaslib@@@?$_Tree@V?$_Tset_traits@PEBVKamelasBase@kamelaslib@@U?$less@PEBVKamelasBase@kamelaslib@@@std@@V?$allocator@PEBVKamelasBase@kamelaslib@@@4@$0A@@std@@@std@@IEAA?AU?$pair@PEAU?$_Tree_node@PEBVKamelasBase@kamelaslib@@PEAX@std@@_N@1@AEBQEBVKamelasBase@kamelaslib@@@Z 0000000180002670 f i kamelasmanager.obj
 0001:000017f0       ??$_Erase_head@V?$allocator@U?$_Tree_node@PEBVKamelasBase@kamelaslib@@PEAX@std@@@std@@@?$_Tree_val@U?$_Tree_simple_types@PEBVKamelasBase@kamelaslib@@@std@@@std@@QEAAXAEAV?$allocator@U?$_Tree_node@PEBVKamelasBase@kamelaslib@@PEAX@std@@@1@@Z 00000001800027f0 f i kamelasmanager.obj
 0001:00001840       ??$_Erase_tree@V?$allocator@U?$_Tree_node@PEBVKamelasBase@kamelaslib@@PEAX@std@@@std@@@?$_Tree_val@U?$_Tree_simple_types@PEBVKamelasBase@kamelaslib@@@std@@@std@@QEAAXAEAV?$allocator@U?$_Tree_node@PEBVKamelasBase@kamelaslib@@PEAX@std@@@1@PEAU?$_Tree_node@PEBVKamelasBase@kamelaslib@@PEAX@1@@Z 0000000180002840 f i kamelasmanager.obj
 0001:000018a0       ??$_Find@PEBVKamelasBase@kamelaslib@@@?$_Tree@V?$_Tset_traits@PEBVKamelasBase@kamelaslib@@U?$less@PEBVKamelasBase@kamelaslib@@@std@@V?$allocator@PEBVKamelasBase@kamelaslib@@@4@$0A@@std@@@std@@AEBAPEAU?$_Tree_node@PEBVKamelasBase@kamelaslib@@PEAX@1@AEBQEBVKamelasBase@kamelaslib@@@Z 00000001800028a0 f i kamelasmanager.obj
 0001:00001900       ??$_Find_lower_bound@PEBVKamelasBase@kamelaslib@@@?$_Tree@V?$_Tset_traits@PEBVKamelasBase@kamelaslib@@U?$less@PEBVKamelasBase@kamelaslib@@@std@@V?$allocator@PEBVKamelasBase@kamelaslib@@@4@$0A@@std@@@std@@IEBA?AU?$_Tree_find_result@PEAU?$_Tree_node@PEBVKamelasBase@kamelaslib@@PEAX@std@@@1@AEBQEBVKamelasBase@kamelaslib@@@Z 0000000180002900 f i kamelasmanager.obj
 0001:00001a10       ??$_Freenode0@V?$allocator@U?$_Tree_node@PEBVKamelasBase@kamelaslib@@PEAX@std@@@std@@@?$_Tree_node@PEBVKamelasBase@kamelaslib@@PEAX@std@@SAXAEAV?$allocator@U?$_Tree_node@PEBVKamelasBase@kamelaslib@@PEAX@std@@@1@PEAU01@@Z 0000000180002a10 f i kamelasmanager.obj
 0001:00001a70       ??$_Freenode@V?$allocator@U?$_Tree_node@PEBVKamelasBase@kamelaslib@@PEAX@std@@@std@@@?$_Tree_node@PEBVKamelasBase@kamelaslib@@PEAX@std@@SAXAEAV?$allocator@U?$_Tree_node@PEBVKamelasBase@kamelaslib@@PEAX@std@@@1@PEAU01@@Z 0000000180002a70 f i kamelasmanager.obj
 0001:00001ac0       ??$_Get_size_of_n@$0BA@@std@@YA_K_K@Z 0000000180002ac0 f i kamelasmanager.obj
 0001:00001b00       ??$_Get_size_of_n@$0CI@@std@@YA_K_K@Z 0000000180002b00 f i kamelasmanager.obj
 0001:00001b40       ??$_Lower_bound_duplicate@PEBVKamelasBase@kamelaslib@@@?$_Tree@V?$_Tset_traits@PEBVKamelasBase@kamelaslib@@U?$less@PEBVKamelasBase@kamelaslib@@@std@@V?$allocator@PEBVKamelasBase@kamelaslib@@@4@$0A@@std@@@std@@IEBA_NQEAU?$_Tree_node@PEBVKamelasBase@kamelaslib@@PEAX@1@AEBQEBVKamelasBase@kamelaslib@@@Z 0000000180002b40 f i kamelasmanager.obj
 0001:00001bc0       ??$_Max_limit@_J@std@@YA_JXZ 0000000180002bc0 f i kamelasmanager.obj
 0001:00001be0       ??$_Unfancy@U_Container_proxy@std@@@std@@YAPEAU_Container_proxy@0@PEAU10@@Z 0000000180002be0 f i kamelasmanager.obj
 0001:00001bf0       ??$addressof@$$CBV?$_Tree_val@U?$_Tree_simple_types@PEBVKamelasBase@kamelaslib@@@std@@@std@@@std@@YAPEBV?$_Tree_val@U?$_Tree_simple_types@PEBVKamelasBase@kamelaslib@@@std@@@0@AEBV10@@Z 0000000180002bf0 f i kamelasmanager.obj
 0001:00001c00       ??$addressof@PEAU?$_Tree_node@PEBVKamelasBase@kamelaslib@@PEAX@std@@@std@@YAPEAPEAU?$_Tree_node@PEBVKamelasBase@kamelaslib@@PEAX@0@AEAPEAU10@@Z 0000000180002c00 f i kamelasmanager.obj
 0001:00001c10       ??$addressof@PEBVKamelasBase@kamelaslib@@@std@@YAPEAPEBVKamelasBase@kamelaslib@@AEAPEBV12@@Z 0000000180002c10 f i kamelasmanager.obj
 0001:00001c20       ??$addressof@U_Container_base12@std@@@std@@YAPEAU_Container_base12@0@AEAU10@@Z 0000000180002c20 f i kamelasmanager.obj
 0001:00001c30       ??$addressof@U_Container_proxy@std@@@std@@YAPEAU_Container_proxy@0@AEAU10@@Z 0000000180002c30 f i kamelasmanager.obj
 0001:00001c40       ??$addressof@V?$_Tree_val@U?$_Tree_simple_types@PEBVKamelasBase@kamelaslib@@@std@@@std@@@std@@YAPEAV?$_Tree_val@U?$_Tree_simple_types@PEBVKamelasBase@kamelaslib@@@std@@@0@AEAV10@@Z 0000000180002c40 f i kamelasmanager.obj
 0001:00001c50       ??$construct@PEBVKamelasBase@kamelaslib@@AEBQEBV12@@?$_Default_allocator_traits@V?$allocator@U?$_Tree_node@PEBVKamelasBase@kamelaslib@@PEAX@std@@@std@@@std@@SAXAEAV?$allocator@U?$_Tree_node@PEBVKamelasBase@kamelaslib@@PEAX@std@@@1@QEAPEBVKamelasBase@kamelaslib@@AEBQEBV34@@Z 0000000180002c50 f i kamelasmanager.obj
 0001:00001ca0       ??$destroy@PEBVKamelasBase@kamelaslib@@@?$_Default_allocator_traits@V?$allocator@U?$_Tree_node@PEBVKamelasBase@kamelaslib@@PEAX@std@@@std@@@std@@SAXAEAV?$allocator@U?$_Tree_node@PEBVKamelasBase@kamelaslib@@PEAX@std@@@1@QEAPEBVKamelasBase@kamelaslib@@@Z 0000000180002ca0 f i kamelasmanager.obj
 0001:00001cb0       ??$exchange@PEAU?$_Tree_node@PEBVKamelasBase@kamelaslib@@PEAX@std@@$$T@std@@YAPEAU?$_Tree_node@PEBVKamelasBase@kamelaslib@@PEAX@0@AEAPEAU10@$$QEA$$T@Z 0000000180002cb0 f i kamelasmanager.obj
 0001:00001cf0       ??$exchange@PEAU?$_Tree_node@PEBVKamelasBase@kamelaslib@@PEAX@std@@AEAPEAU12@@std@@YAPEAU?$_Tree_node@PEBVKamelasBase@kamelaslib@@PEAX@0@AEAPEAU10@0@Z 0000000180002cf0 f i kamelasmanager.obj
 0001:00001d30       ??$exchange@PEAU_Iterator_base12@std@@$$T@std@@YAPEAU_Iterator_base12@0@AEAPEAU10@$$QEA$$T@Z 0000000180002d30 f i kamelasmanager.obj
 0001:00001d70       ??$forward@AEAPEAU?$_Tree_node@PEBVKamelasBase@kamelaslib@@PEAX@std@@@std@@YAAEAPEAU?$_Tree_node@PEBVKamelasBase@kamelaslib@@PEAX@0@AEAPEAU10@@Z 0000000180002d70 f i kamelasmanager.obj
 0001:00001d80       ??$forward@AEBQEAU?$_Tree_node@PEBVKamelasBase@kamelaslib@@PEAX@std@@@std@@YAAEBQEAU?$_Tree_node@PEBVKamelasBase@kamelaslib@@PEAX@0@AEBQEAU10@@Z 0000000180002d80 f i kamelasmanager.obj
 0001:00001d90       ??$forward@AEBQEBVKamelasBase@kamelaslib@@@std@@YAAEBQEBVKamelasBase@kamelaslib@@AEBQEBV12@@Z 0000000180002d90 f i kamelasmanager.obj
 0001:00001da0       ??$forward@AEBU?$less@PEBVKamelasBase@kamelaslib@@@std@@@std@@YAAEBU?$less@PEBVKamelasBase@kamelaslib@@@0@AEBU10@@Z 0000000180002da0 f i kamelasmanager.obj
 0001:00001db0       ??$forward@AEB_N@std@@YAAEB_NAEB_N@Z 0000000180002db0 f i kamelasmanager.obj
 0001:00001dc0       ??$forward@PEAU?$_Tree_node@PEBVKamelasBase@kamelaslib@@PEAX@std@@@std@@YA$$QEAPEAU?$_Tree_node@PEBVKamelasBase@kamelaslib@@PEAX@0@AEAPEAU10@@Z 0000000180002dc0 f i kamelasmanager.obj
 0001:00001dd0       ??$forward@PEAU_Container_base12@std@@@std@@YA$$QEAPEAU_Container_base12@0@AEAPEAU10@@Z 0000000180002dd0 f i kamelasmanager.obj
 0001:00001de0       ??$forward@U_Zero_then_variadic_args_t@std@@@std@@YA$$QEAU_Zero_then_variadic_args_t@0@AEAU10@@Z 0000000180002de0 f i kamelasmanager.obj
 0001:00001df0       ??$forward@V?$_Tree_const_iterator@V?$_Tree_val@U?$_Tree_simple_types@PEBVKamelasBase@kamelaslib@@@std@@@std@@@std@@@std@@YA$$QEAV?$_Tree_const_iterator@V?$_Tree_val@U?$_Tree_simple_types@PEBVKamelasBase@kamelaslib@@@std@@@std@@@0@AEAV10@@Z 0000000180002df0 f i kamelasmanager.obj
 0001:00001e00       ??$forward@_N@std@@YA$$QEA_NAEA_N@Z 0000000180002e00 f i kamelasmanager.obj
 0001:00001e10       ??$insert@$0A@$0A@@?$_Tree@V?$_Tset_traits@PEBVKamelasBase@kamelaslib@@U?$less@PEBVKamelasBase@kamelaslib@@@std@@V?$allocator@PEBVKamelasBase@kamelaslib@@@4@$0A@@std@@@std@@QEAA?AU?$pair@V?$_Tree_const_iterator@V?$_Tree_val@U?$_Tree_simple_types@PEBVKamelasBase@kamelaslib@@@std@@@std@@@std@@_N@1@AEBQEBVKamelasBase@kamelaslib@@@Z 0000000180002e10 f i kamelasmanager.obj
 0001:00001ea0       ??$min@_K@std@@YAAEB_KAEB_K0@Z 0000000180002ea0 f i kamelasmanager.obj
 0001:00001ef0       ??$move@AEAD@std@@YA$$QEADAEAD@Z 0000000180002ef0 f i kamelasmanager.obj
 0001:00001f00       ??$swap@D$0A@@std@@YAXAEAD0@Z 0000000180002f00 f i kamelasmanager.obj
 0001:00001f50       ??0?$_Alloc_construct_ptr@V?$allocator@U?$_Tree_node@PEBVKamelasBase@kamelaslib@@PEAX@std@@@std@@@std@@QEAA@AEAV?$allocator@U?$_Tree_node@PEBVKamelasBase@kamelaslib@@PEAX@std@@@1@@Z 0000000180002f50 f i kamelasmanager.obj
 0001:00001f80       ??0?$_Container_proxy_ptr12@V?$allocator@U_Container_proxy@std@@@std@@@std@@QEAA@AEAV?$allocator@U_Container_proxy@std@@@1@AEAU_Container_base12@1@@Z 0000000180002f80 f i kamelasmanager.obj
 0001:00002010       ??0?$_Tree@V?$_Tset_traits@PEBVKamelasBase@kamelaslib@@U?$less@PEBVKamelasBase@kamelaslib@@@std@@V?$allocator@PEBVKamelasBase@kamelaslib@@@4@$0A@@std@@@std@@QEAA@AEBU?$less@PEBVKamelasBase@kamelaslib@@@1@@Z 0000000180003010 f i kamelasmanager.obj
 0001:00002050       ??0?$_Tree_const_iterator@V?$_Tree_val@U?$_Tree_simple_types@PEBVKamelasBase@kamelaslib@@@std@@@std@@@std@@QEAA@$$QEAV01@@Z 0000000180003050 f i kamelasmanager.obj
 0001:00002080       ??0?$_Tree_const_iterator@V?$_Tree_val@U?$_Tree_simple_types@PEBVKamelasBase@kamelaslib@@@std@@@std@@@std@@QEAA@AEBV01@@Z 0000000180003080 f i kamelasmanager.obj
 0001:000020b0       ??0?$_Tree_const_iterator@V?$_Tree_val@U?$_Tree_simple_types@PEBVKamelasBase@kamelaslib@@@std@@@std@@@std@@QEAA@PEAU?$_Tree_node@PEBVKamelasBase@kamelaslib@@PEAX@1@PEBV?$_Tree_val@U?$_Tree_simple_types@PEBVKamelasBase@kamelaslib@@@std@@@1@@Z 00000001800030b0 f i kamelasmanager.obj
 0001:000020f0       ??0?$_Tree_const_iterator@V?$_Tree_val@U?$_Tree_simple_types@PEBVKamelasBase@kamelaslib@@@std@@@std@@@std@@QEAA@XZ 00000001800030f0 f i kamelasmanager.obj
 0001:00002110       ??0?$_Tree_temp_node_alloc@V?$allocator@U?$_Tree_node@PEBVKamelasBase@kamelaslib@@PEAX@std@@@std@@@std@@QEAA@AEAV?$allocator@U?$_Tree_node@PEBVKamelasBase@kamelaslib@@PEAX@std@@@1@@Z 0000000180003110 f i kamelasmanager.obj
 0001:00002150       ??0?$_Tree_unchecked_const_iterator@V?$_Tree_val@U?$_Tree_simple_types@PEBVKamelasBase@kamelaslib@@@std@@@std@@U_Iterator_base0@2@@std@@QEAA@PEAU?$_Tree_node@PEBVKamelasBase@kamelaslib@@PEAX@1@PEBV?$_Tree_val@U?$_Tree_simple_types@PEBVKamelasBase@kamelaslib@@@std@@@1@@Z 0000000180003150 f i kamelasmanager.obj
 0001:00002190       ??0?$_Tree_unchecked_const_iterator@V?$_Tree_val@U?$_Tree_simple_types@PEBVKamelasBase@kamelaslib@@@std@@@std@@U_Iterator_base12@2@@std@@QEAA@$$QEAV01@@Z 0000000180003190 f i kamelasmanager.obj
 0001:000021d0       ??0?$_Tree_unchecked_const_iterator@V?$_Tree_val@U?$_Tree_simple_types@PEBVKamelasBase@kamelaslib@@@std@@@std@@U_Iterator_base12@2@@std@@QEAA@AEBV01@@Z 00000001800031d0 f i kamelasmanager.obj
 0001:00002210       ??0?$_Tree_unchecked_const_iterator@V?$_Tree_val@U?$_Tree_simple_types@PEBVKamelasBase@kamelaslib@@@std@@@std@@U_Iterator_base12@2@@std@@QEAA@PEAU?$_Tree_node@PEBVKamelasBase@kamelaslib@@PEAX@1@PEBV?$_Tree_val@U?$_Tree_simple_types@PEBVKamelasBase@kamelaslib@@@std@@@1@@Z 0000000180003210 f i kamelasmanager.obj
 0001:00002260       ??0?$_Tree_unchecked_const_iterator@V?$_Tree_val@U?$_Tree_simple_types@PEBVKamelasBase@kamelaslib@@@std@@@std@@U_Iterator_base12@2@@std@@QEAA@XZ 0000000180003260 f i kamelasmanager.obj
 0001:00002290       ??0?$_Tree_val@U?$_Tree_simple_types@PEBVKamelasBase@kamelaslib@@@std@@@std@@QEAA@XZ 0000000180003290 f i kamelasmanager.obj
 0001:000022d0       ??0?$allocator@U?$_Tree_node@PEBVKamelasBase@kamelaslib@@PEAX@std@@@std@@QEAA@XZ 00000001800032d0 f i kamelasmanager.obj
 0001:000022e0       ??0?$set@PEBVKamelasBase@kamelaslib@@U?$less@PEBVKamelasBase@kamelaslib@@@std@@V?$allocator@PEBVKamelasBase@kamelaslib@@@4@@std@@QEAA@XZ 00000001800032e0 f i kamelasmanager.obj
 0001:00002310       ??0KamelasManager@kamelaslib@@QEAA@AEBV01@@Z 0000000180003310 f i kamelasmanager.obj
 0001:00002350       ??0KamelasManagerPimpl@kamelaslib@@QEAA@XZ 0000000180003350 f i kamelasmanager.obj
 0001:000023a0       ??0Monitor@kamelaslib@@QEAA@PEAU_RTL_CRITICAL_SECTION@@@Z 00000001800033a0 f i kamelasmanager.obj
 0001:00002400       ??0_Basic_container_proxy_ptr12@std@@IEAA@XZ 0000000180003400 f i kamelasmanager.obj
 0001:00002420       ??0_Container_base12@std@@QEAA@XZ 0000000180003420 f i kamelasmanager.obj
 0001:00002440       ??0_Container_proxy@std@@QEAA@PEAU_Container_base12@1@@Z 0000000180003440 f i kamelasmanager.obj
 0001:00002470       ??0_Iterator_base12@std@@QEAA@AEBU01@@Z 0000000180003470 f i kamelasmanager.obj
 0001:000024c0       ??0_Iterator_base12@std@@QEAA@XZ 00000001800034c0 f i kamelasmanager.obj
 0001:000024f0       ??0bad_alloc@std@@AEAA@QEBD@Z 00000001800034f0 f i kamelasmanager.obj
 0001:00002530       ??0bad_alloc@std@@QEAA@AEBV01@@Z 0000000180003530 f i kamelasmanager.obj
 0001:00002570       ??0bad_array_new_length@std@@QEAA@AEBV01@@Z 0000000180003570 f i kamelasmanager.obj
 0001:000025b0       ??0bad_array_new_length@std@@QEAA@XZ 00000001800035b0 f i kamelasmanager.obj
 0001:000025f0       ??0exception@std@@QEAA@AEBV01@@Z 00000001800035f0 f i kamelasmanager.obj
 0001:00002650       ??0exception@std@@QEAA@QEBDH@Z 0000000180003650 f i kamelasmanager.obj
 0001:000026a0       ??1?$_Alloc_construct_ptr@V?$allocator@U?$_Tree_node@PEBVKamelasBase@kamelaslib@@PEAX@std@@@std@@@std@@QEAA@XZ 00000001800036a0 f i kamelasmanager.obj
 0001:000026e0       ??1?$_Container_proxy_ptr12@V?$allocator@U_Container_proxy@std@@@std@@@std@@QEAA@XZ 00000001800036e0 f i kamelasmanager.obj
 0001:00002710       ??1?$_Tree@V?$_Tset_traits@PEBVKamelasBase@kamelaslib@@U?$less@PEBVKamelasBase@kamelaslib@@@std@@V?$allocator@PEBVKamelasBase@kamelaslib@@@4@$0A@@std@@@std@@QEAA@XZ 0000000180003710 f i kamelasmanager.obj
 0001:00002780       ??1?$_Tree_const_iterator@V?$_Tree_val@U?$_Tree_simple_types@PEBVKamelasBase@kamelaslib@@@std@@@std@@@std@@QEAA@XZ 0000000180003780 f i kamelasmanager.obj
 0001:000027a0       ??1?$_Tree_temp_node@V?$allocator@U?$_Tree_node@PEBVKamelasBase@kamelaslib@@PEAX@std@@@std@@@std@@QEAA@XZ 00000001800037a0 f i kamelasmanager.obj
 0001:00002830       ??1?$_Tree_temp_node_alloc@V?$allocator@U?$_Tree_node@PEBVKamelasBase@kamelaslib@@PEAX@std@@@std@@@std@@QEAA@XZ 0000000180003830 f i kamelasmanager.obj
 0001:00002850       ??1?$_Tree_unchecked_const_iterator@V?$_Tree_val@U?$_Tree_simple_types@PEBVKamelasBase@kamelaslib@@@std@@@std@@U_Iterator_base12@2@@std@@QEAA@XZ 0000000180003850 f i kamelasmanager.obj
 0001:00002870       ??1?$pair@V?$_Tree_const_iterator@V?$_Tree_val@U?$_Tree_simple_types@PEBVKamelasBase@kamelaslib@@@std@@@std@@@std@@_N@std@@QEAA@XZ 0000000180003870 f i kamelasmanager.obj
 0001:00002890       ??1?$set@PEBVKamelasBase@kamelaslib@@U?$less@PEBVKamelasBase@kamelaslib@@@std@@V?$allocator@PEBVKamelasBase@kamelaslib@@@4@@std@@QEAA@XZ 0000000180003890 f i kamelasmanager.obj
 0001:000028b0       ??1KamelasManagerPimpl@kamelaslib@@UEAA@XZ 00000001800038b0 f i kamelasmanager.obj
 0001:00002900       ??1Monitor@kamelaslib@@QEAA@XZ 0000000180003900 f i kamelasmanager.obj
 0001:00002920       ??1_Iterator_base12@std@@QEAA@XZ 0000000180003920 f i kamelasmanager.obj
 0001:00002940       ??1bad_alloc@std@@UEAA@XZ  0000000180003940 f i kamelasmanager.obj
 0001:00002960       ??1bad_array_new_length@std@@UEAA@XZ 0000000180003960 f i kamelasmanager.obj
 0001:00002980       ??1exception@std@@UEAA@XZ  0000000180003980 f i kamelasmanager.obj
 0001:000029b0       ??2@YAPEAX_KPEAX@Z         00000001800039b0 f i kamelasmanager.obj
 0001:000029c0       ??4?$_Tree_const_iterator@V?$_Tree_val@U?$_Tree_simple_types@PEBVKamelasBase@kamelaslib@@@std@@@std@@@std@@QEAAAEAV01@$$QEAV01@@Z 00000001800039c0 f i kamelasmanager.obj
 0001:000029f0       ??4?$_Tree_unchecked_const_iterator@V?$_Tree_val@U?$_Tree_simple_types@PEBVKamelasBase@kamelaslib@@@std@@@std@@U_Iterator_base12@2@@std@@QEAAAEAV01@$$QEAV01@@Z 00000001800039f0 f i kamelasmanager.obj
 0001:00002a30       ??4KamelasManager@kamelaslib@@QEAAAEAV01@AEBV01@@Z 0000000180003a30 f i kamelasmanager.obj
 0001:00002a60       ??4_Iterator_base12@std@@QEAAAEAU01@AEBU01@@Z 0000000180003a60 f i kamelasmanager.obj
 0001:00002a90       ??8?$_Tree_const_iterator@V?$_Tree_val@U?$_Tree_simple_types@PEBVKamelasBase@kamelaslib@@@std@@@std@@@std@@QEBA_NAEBV01@@Z 0000000180003a90 f i kamelasmanager.obj
 0001:00002b70       ??9?$_Tree_const_iterator@V?$_Tree_val@U?$_Tree_simple_types@PEBVKamelasBase@kamelaslib@@@std@@@std@@@std@@QEBA_NAEBV01@@Z 0000000180003b70 f i kamelasmanager.obj
 0001:00002bb0       ??D?$_Tree_const_iterator@V?$_Tree_val@U?$_Tree_simple_types@PEBVKamelasBase@kamelaslib@@@std@@@std@@@std@@QEBAAEBQEBVKamelasBase@kamelaslib@@XZ 0000000180003bb0 f i kamelasmanager.obj
 0001:00002ce0       ??E?$_Tree_const_iterator@V?$_Tree_val@U?$_Tree_simple_types@PEBVKamelasBase@kamelaslib@@@std@@@std@@@std@@QEAAAEAV01@XZ 0000000180003ce0 f i kamelasmanager.obj
 0001:00002e10       ??E?$_Tree_unchecked_const_iterator@V?$_Tree_val@U?$_Tree_simple_types@PEBVKamelasBase@kamelaslib@@@std@@@std@@U_Iterator_base0@2@@std@@QEAAAEAV01@XZ 0000000180003e10 f i kamelasmanager.obj
 0001:00002ea0       ??E?$_Tree_unchecked_const_iterator@V?$_Tree_val@U?$_Tree_simple_types@PEBVKamelasBase@kamelaslib@@@std@@@std@@U_Iterator_base12@2@@std@@QEAAAEAV01@XZ 0000000180003ea0 f i kamelasmanager.obj
 0001:00002f40       ??R?$less@PEBVKamelasBase@kamelaslib@@@std@@QEBA_NAEBQEBVKamelasBase@kamelaslib@@0@Z 0000000180003f40 f i kamelasmanager.obj
 0001:00002f80       ??_EKamelasManager@kamelaslib@@UEAAPEAXI@Z 0000000180003f80 f i kamelasmanager.obj
 0001:00003020       ??_GKamelasManager@kamelaslib@@UEAAPEAXI@Z 0000000180004020 f i kamelasmanager.obj
 0001:00003060       ??_EKamelasManagerPimpl@kamelaslib@@UEAAPEAXI@Z 0000000180004060 f i kamelasmanager.obj
 0001:00003060       ??_GKamelasManagerPimpl@kamelaslib@@UEAAPEAXI@Z 0000000180004060 f i kamelasmanager.obj
 0001:000030a0       ??_Ebad_alloc@std@@UEAAPEAXI@Z 00000001800040a0 f i kamelasmanager.obj
 0001:000030a0       ??_Gbad_alloc@std@@UEAAPEAXI@Z 00000001800040a0 f i kamelasmanager.obj
 0001:000030e0       ??_Ebad_array_new_length@std@@UEAAPEAXI@Z 00000001800040e0 f i kamelasmanager.obj
 0001:000030e0       ??_Gbad_array_new_length@std@@UEAAPEAXI@Z 00000001800040e0 f i kamelasmanager.obj
 0001:00003120       ??_Eexception@std@@UEAAPEAXI@Z 0000000180004120 f i kamelasmanager.obj
 0001:00003120       ??_Gexception@std@@UEAAPEAXI@Z 0000000180004120 f i kamelasmanager.obj
 0001:00003160       ?_Adjust_manually_vector_aligned@std@@YAXAEAPEAXAEA_K@Z 0000000180004160 f i kamelasmanager.obj
 0001:000032f0       ?_Adopt@_Iterator_base0@std@@QEAAXPEBX@Z 00000001800042f0 f i kamelasmanager.obj
 0001:00003300       ?_Adopt@_Iterator_base12@std@@QEAAXPEBU_Container_base12@2@@Z 0000000180004300 f i kamelasmanager.obj
 0001:00003330       ?_Adopt_locked@_Iterator_base12@std@@AEAAXPEBU_Container_base12@2@@Z 0000000180004330 f i kamelasmanager.obj
 0001:00003370       ?_Adopt_unlocked@_Iterator_base12@std@@AEAAXPEBU_Container_base12@2@@Z 0000000180004370 f i kamelasmanager.obj
 0001:00003400       ?_Alloc_sentinel_and_proxy@?$_Tree@V?$_Tset_traits@PEBVKamelasBase@kamelaslib@@U?$less@PEBVKamelasBase@kamelaslib@@@std@@V?$allocator@PEBVKamelasBase@kamelaslib@@@4@$0A@@std@@@std@@IEAAXXZ 0000000180004400 f i kamelasmanager.obj
 0001:00003490       ?_Allocate@?$_Alloc_construct_ptr@V?$allocator@U?$_Tree_node@PEBVKamelasBase@kamelaslib@@PEAX@std@@@std@@@std@@QEAAXXZ 0000000180004490 f i kamelasmanager.obj
 0001:000034d0       ?_Allocate@_Default_allocate_traits@std@@SAPEAX_K@Z 00000001800044d0 f i kamelasmanager.obj
 0001:000034f0       ?_Assign_locked@_Iterator_base12@std@@AEAAXAEBU12@@Z 00000001800044f0 f i kamelasmanager.obj
 0001:00003530       ?_Assign_unlocked@_Iterator_base12@std@@AEAAXAEBU12@@Z 0000000180004530 f i kamelasmanager.obj
 0001:00003590       ?_Check_grow_by_1@?$_Tree@V?$_Tset_traits@PEBVKamelasBase@kamelaslib@@U?$less@PEBVKamelasBase@kamelaslib@@@std@@V?$allocator@PEBVKamelasBase@kamelaslib@@@4@$0A@@std@@@std@@IEAAXXZ 0000000180004590 f i kamelasmanager.obj
 0001:000035d0       ?_Erase_unchecked@?$_Tree@V?$_Tset_traits@PEBVKamelasBase@kamelaslib@@U?$less@PEBVKamelasBase@kamelaslib@@@std@@V?$allocator@PEBVKamelasBase@kamelaslib@@@4@$0A@@std@@@std@@AEAAPEAU?$_Tree_node@PEBVKamelasBase@kamelaslib@@PEAX@2@V?$_Tree_unchecked_const_iterator@V?$_Tree_val@U?$_Tree_simple_types@PEBVKamelasBase@kamelaslib@@@std@@@std@@U_Iterator_base0@2@@2@@Z 00000001800045d0 f i kamelasmanager.obj
 0001:00003650       ?_Extract@?$_In_place_key_extract_set_impl@PEBVKamelasBase@kamelaslib@@PEBV12@@std@@SAAEBQEBVKamelasBase@kamelaslib@@AEBQEBV34@@Z 0000000180004650 f i kamelasmanager.obj
 0001:00003660       ?_Extract@?$_Tree_val@U?$_Tree_simple_types@PEBVKamelasBase@kamelaslib@@@std@@@std@@QEAAPEAU?$_Tree_node@PEBVKamelasBase@kamelaslib@@PEAX@2@V?$_Tree_unchecked_const_iterator@V?$_Tree_val@U?$_Tree_simple_types@PEBVKamelasBase@kamelaslib@@@std@@@std@@U_Iterator_base0@2@@2@@Z 0000000180004660 f i kamelasmanager.obj
 0001:00003c10       ?_Get_first@?$_Compressed_pair@U?$less@PEBVKamelasBase@kamelaslib@@@std@@V?$_Compressed_pair@V?$allocator@U?$_Tree_node@PEBVKamelasBase@kamelaslib@@PEAX@std@@@std@@V?$_Tree_val@U?$_Tree_simple_types@PEBVKamelasBase@kamelaslib@@@std@@@2@$00@2@$00@std@@QEBAAEBU?$less@PEBVKamelasBase@kamelaslib@@@2@XZ 0000000180004c10 f i kamelasmanager.obj
 0001:00003c20       ?_Get_first@?$_Compressed_pair@V?$allocator@U?$_Tree_node@PEBVKamelasBase@kamelaslib@@PEAX@std@@@std@@V?$_Tree_val@U?$_Tree_simple_types@PEBVKamelasBase@kamelaslib@@@std@@@2@$00@std@@QEAAAEAV?$allocator@U?$_Tree_node@PEBVKamelasBase@kamelaslib@@PEAX@std@@@2@XZ 0000000180004c20 f i kamelasmanager.obj
 0001:00003c30       ?_Get_first@?$_Compressed_pair@V?$allocator@U?$_Tree_node@PEBVKamelasBase@kamelaslib@@PEAX@std@@@std@@V?$_Tree_val@U?$_Tree_simple_types@PEBVKamelasBase@kamelaslib@@@std@@@2@$00@std@@QEBAAEBV?$allocator@U?$_Tree_node@PEBVKamelasBase@kamelaslib@@PEAX@std@@@2@XZ 0000000180004c30 f i kamelasmanager.obj
 0001:00003c40       ?_Get_scary@?$_Tree@V?$_Tset_traits@PEBVKamelasBase@kamelaslib@@U?$less@PEBVKamelasBase@kamelaslib@@@std@@V?$allocator@PEBVKamelasBase@kamelaslib@@@4@$0A@@std@@@std@@IEAAPEAV?$_Tree_val@U?$_Tree_simple_types@PEBVKamelasBase@kamelaslib@@@std@@@2@XZ 0000000180004c40 f i kamelasmanager.obj
 0001:00003c60       ?_Get_scary@?$_Tree@V?$_Tset_traits@PEBVKamelasBase@kamelaslib@@U?$less@PEBVKamelasBase@kamelaslib@@@std@@V?$allocator@PEBVKamelasBase@kamelaslib@@@4@$0A@@std@@@std@@IEBAPEBV?$_Tree_val@U?$_Tree_simple_types@PEBVKamelasBase@kamelaslib@@@std@@@2@XZ 0000000180004c60 f i kamelasmanager.obj
 0001:00003c80       ?_Getal@?$_Tree@V?$_Tset_traits@PEBVKamelasBase@kamelaslib@@U?$less@PEBVKamelasBase@kamelaslib@@@std@@V?$allocator@PEBVKamelasBase@kamelaslib@@@4@$0A@@std@@@std@@IEAAAEAV?$allocator@U?$_Tree_node@PEBVKamelasBase@kamelaslib@@PEAX@std@@@2@XZ 0000000180004c80 f i kamelasmanager.obj
 0001:00003ca0       ?_Getal@?$_Tree@V?$_Tset_traits@PEBVKamelasBase@kamelaslib@@U?$less@PEBVKamelasBase@kamelaslib@@@std@@V?$allocator@PEBVKamelasBase@kamelaslib@@@4@$0A@@std@@@std@@IEBAAEBV?$allocator@U?$_Tree_node@PEBVKamelasBase@kamelaslib@@PEAX@std@@@2@XZ 0000000180004ca0 f i kamelasmanager.obj
 0001:00003cc0       ?_Getcomp@?$_Tree@V?$_Tset_traits@PEBVKamelasBase@kamelaslib@@U?$less@PEBVKamelasBase@kamelaslib@@@std@@V?$allocator@PEBVKamelasBase@kamelaslib@@@4@$0A@@std@@@std@@IEBAAEBU?$less@PEBVKamelasBase@kamelaslib@@@2@XZ 0000000180004cc0 f i kamelasmanager.obj
 0001:00003ce0       ?_Getcont@_Iterator_base12@std@@QEBAPEBU_Container_base12@2@XZ 0000000180004ce0 f i kamelasmanager.obj
 0001:00003d20       ?_Insert_node@?$_Tree_val@U?$_Tree_simple_types@PEBVKamelasBase@kamelaslib@@@std@@@std@@QEAAPEAU?$_Tree_node@PEBVKamelasBase@kamelaslib@@PEAX@2@U?$_Tree_id@PEAU?$_Tree_node@PEBVKamelasBase@kamelaslib@@PEAX@std@@@2@QEAU32@@Z 0000000180004d20 f i kamelasmanager.obj
 0001:00004010       ?_Kfn@?$_Tset_traits@PEBVKamelasBase@kamelaslib@@U?$less@PEBVKamelasBase@kamelaslib@@@std@@V?$allocator@PEBVKamelasBase@kamelaslib@@@4@$0A@@std@@SAAEBQEBVKamelasBase@kamelaslib@@AEBQEBV34@@Z 0000000180005010 f i kamelasmanager.obj
 0001:00004020       ?_Lrotate@?$_Tree_val@U?$_Tree_simple_types@PEBVKamelasBase@kamelaslib@@@std@@@std@@QEAAXPEAU?$_Tree_node@PEBVKamelasBase@kamelaslib@@PEAX@2@@Z 0000000180005020 f i kamelasmanager.obj
 0001:00004100       ?_Max@?$_Tree_val@U?$_Tree_simple_types@PEBVKamelasBase@kamelaslib@@@std@@@std@@SAPEAU?$_Tree_node@PEBVKamelasBase@kamelaslib@@PEAX@2@PEAU32@@Z 0000000180005100 f i kamelasmanager.obj
 0001:00004130       ?_Min@?$_Tree_val@U?$_Tree_simple_types@PEBVKamelasBase@kamelaslib@@@std@@@std@@SAPEAU?$_Tree_node@PEBVKamelasBase@kamelaslib@@PEAX@2@PEAU32@@Z 0000000180005130 f i kamelasmanager.obj
 0001:00004160       ?_Orphan_all@_Container_base12@std@@QEAAXXZ 0000000180005160 f i kamelasmanager.obj
 0001:00004180       ?_Orphan_all_locked_v3@_Container_base12@std@@AEAAXXZ 0000000180005180 f i kamelasmanager.obj
 0001:000041c0       ?_Orphan_all_unlocked_v3@_Container_base12@std@@AEAAXXZ 00000001800051c0 f i kamelasmanager.obj
 0001:00004230       ?_Orphan_me_locked_v3@_Iterator_base12@std@@AEAAXXZ 0000000180005230 f i kamelasmanager.obj
 0001:00004270       ?_Orphan_me_unlocked_v3@_Iterator_base12@std@@AEAAXXZ 0000000180005270 f i kamelasmanager.obj
 0001:00004370       ?_Orphan_ptr@?$_Tree_val@U?$_Tree_simple_types@PEBVKamelasBase@kamelaslib@@@std@@@std@@QEAAXQEAU?$_Tree_node@PEBVKamelasBase@kamelaslib@@PEAX@2@@Z 0000000180005370 f i kamelasmanager.obj
 0001:00004430       ?_Release@?$_Alloc_construct_ptr@V?$allocator@U?$_Tree_node@PEBVKamelasBase@kamelaslib@@PEAX@std@@@std@@@std@@QEAAPEAU?$_Tree_node@PEBVKamelasBase@kamelaslib@@PEAX@2@XZ 0000000180005430 f i kamelasmanager.obj
 0001:00004460       ?_Release@_Basic_container_proxy_ptr12@std@@QEAAXXZ 0000000180005460 f i kamelasmanager.obj
 0001:00004480       ?_Rrotate@?$_Tree_val@U?$_Tree_simple_types@PEBVKamelasBase@kamelaslib@@@std@@@std@@QEAAXPEAU?$_Tree_node@PEBVKamelasBase@kamelaslib@@PEAX@2@@Z 0000000180005480 f i kamelasmanager.obj
 0001:00004560       ?_Throw_bad_array_new_length@std@@YAXXZ 0000000180005560 f i kamelasmanager.obj
 0001:00004590       ?_Throw_tree_length_error@std@@YAXXZ 0000000180005590 f i kamelasmanager.obj
 0001:000045b0       ?_Unwrapped@?$_Tree_const_iterator@V?$_Tree_val@U?$_Tree_simple_types@PEBVKamelasBase@kamelaslib@@@std@@@std@@@std@@QEBA?AV?$_Tree_unchecked_const_iterator@V?$_Tree_val@U?$_Tree_simple_types@PEBVKamelasBase@kamelaslib@@@std@@@std@@U_Iterator_base0@2@@2@XZ 00000001800055b0 f i kamelasmanager.obj
 0001:000045f0       ?allocate@?$allocator@U?$_Tree_node@PEBVKamelasBase@kamelaslib@@PEAX@std@@@std@@QEAAPEAU?$_Tree_node@PEBVKamelasBase@kamelaslib@@PEAX@2@_K@Z 00000001800055f0 f i kamelasmanager.obj
 0001:00004620       ?allocate@?$allocator@U_Container_proxy@std@@@std@@QEAAPEAU_Container_proxy@2@_K@Z 0000000180005620 f i kamelasmanager.obj
 0001:00004650       ?begin@?$_Tree@V?$_Tset_traits@PEBVKamelasBase@kamelaslib@@U?$less@PEBVKamelasBase@kamelaslib@@@std@@V?$allocator@PEBVKamelasBase@kamelaslib@@@4@$0A@@std@@@std@@QEAA?AV?$_Tree_const_iterator@V?$_Tree_val@U?$_Tree_simple_types@PEBVKamelasBase@kamelaslib@@@std@@@std@@@2@XZ 0000000180005650 f i kamelasmanager.obj
 0001:000046a0       ?deallocate@?$_Default_allocator_traits@V?$allocator@U?$_Tree_node@PEBVKamelasBase@kamelaslib@@PEAX@std@@@std@@@std@@SAXAEAV?$allocator@U?$_Tree_node@PEBVKamelasBase@kamelaslib@@PEAX@std@@@2@QEAU?$_Tree_node@PEBVKamelasBase@kamelaslib@@PEAX@2@_K@Z 00000001800056a0 f i kamelasmanager.obj
 0001:000046d0       ?deallocate@?$_Default_allocator_traits@V?$allocator@U_Container_proxy@std@@@std@@@std@@SAXAEAV?$allocator@U_Container_proxy@std@@@2@QEAU_Container_proxy@2@_K@Z 00000001800056d0 f i kamelasmanager.obj
 0001:00004700       ?deallocate@?$allocator@U?$_Tree_node@PEBVKamelasBase@kamelaslib@@PEAX@std@@@std@@QEAAXQEAU?$_Tree_node@PEBVKamelasBase@kamelaslib@@PEAX@2@_K@Z 0000000180005700 f i kamelasmanager.obj
 0001:000047c0       ?empty@?$_Tree@V?$_Tset_traits@PEBVKamelasBase@kamelaslib@@U?$less@PEBVKamelasBase@kamelaslib@@@std@@V?$allocator@PEBVKamelasBase@kamelaslib@@@4@$0A@@std@@@std@@QEBA_NXZ 00000001800057c0 f i kamelasmanager.obj
 0001:00004800       ?end@?$_Tree@V?$_Tset_traits@PEBVKamelasBase@kamelaslib@@U?$less@PEBVKamelasBase@kamelaslib@@@std@@V?$allocator@PEBVKamelasBase@kamelaslib@@@4@$0A@@std@@@std@@QEAA?AV?$_Tree_const_iterator@V?$_Tree_val@U?$_Tree_simple_types@PEBVKamelasBase@kamelaslib@@@std@@@std@@@2@XZ 0000000180005800 f i kamelasmanager.obj
 0001:00004840       ?erase@?$_Tree@V?$_Tset_traits@PEBVKamelasBase@kamelaslib@@U?$less@PEBVKamelasBase@kamelaslib@@@std@@V?$allocator@PEBVKamelasBase@kamelaslib@@@4@$0A@@std@@@std@@QEAA?AV?$_Tree_const_iterator@V?$_Tree_val@U?$_Tree_simple_types@PEBVKamelasBase@kamelaslib@@@std@@@std@@@2@V32@@Z 0000000180005840 f i kamelasmanager.obj
 0001:000049c0       ?find@?$_Tree@V?$_Tset_traits@PEBVKamelasBase@kamelaslib@@U?$less@PEBVKamelasBase@kamelaslib@@@std@@V?$allocator@PEBVKamelasBase@kamelaslib@@@4@$0A@@std@@@std@@QEAA?AV?$_Tree_const_iterator@V?$_Tree_val@U?$_Tree_simple_types@PEBVKamelasBase@kamelaslib@@@std@@@std@@@2@AEBQEBVKamelasBase@kamelaslib@@@Z 00000001800059c0 f i kamelasmanager.obj
 0001:00004a30       ?max_size@?$_Default_allocator_traits@V?$allocator@U?$_Tree_node@PEBVKamelasBase@kamelaslib@@PEAX@std@@@std@@@std@@SA_KAEBV?$allocator@U?$_Tree_node@PEBVKamelasBase@kamelaslib@@PEAX@std@@@2@@Z 0000000180005a30 f i kamelasmanager.obj
 0001:00004a40       ?max_size@?$_Tree@V?$_Tset_traits@PEBVKamelasBase@kamelaslib@@U?$less@PEBVKamelasBase@kamelaslib@@@std@@V?$allocator@PEBVKamelasBase@kamelaslib@@@4@$0A@@std@@@std@@QEBA_KXZ 0000000180005a40 f i kamelasmanager.obj
 0001:00004a90       ?size@?$_Tree@V?$_Tset_traits@PEBVKamelasBase@kamelaslib@@U?$less@PEBVKamelasBase@kamelaslib@@@std@@V?$allocator@PEBVKamelasBase@kamelaslib@@@4@$0A@@std@@@std@@QEBA_KXZ 0000000180005a90 f i kamelasmanager.obj
 0001:00004ab0       ?what@exception@std@@UEBAPEBDXZ 0000000180005ab0 f i kamelasmanager.obj
 0001:00004af0       ?open@SharedMemory@kamelaslib@@UEAAHXZ 0000000180005af0 f   sharedmemory.obj
 0001:00005400       ?close@SharedMemory@kamelaslib@@UEAAHXZ 0000000180006400 f   sharedmemory.obj
 0001:00005590       ?isOpen@SharedMemory@kamelaslib@@UEAAHXZ 0000000180006590 f   sharedmemory.obj
 0001:000055d0       ?name@SharedMemory@kamelaslib@@UEBAPEB_WXZ 00000001800065d0 f   sharedmemory.obj
 0001:000055f0       ?size@SharedMemory@kamelaslib@@UEBAIXZ 00000001800065f0 f   sharedmemory.obj
 0001:00005610       ?recv@SharedMemory@kamelaslib@@UEAAHPEAXI@Z 0000000180006610 f   sharedmemory.obj
 0001:00005800       ?send@SharedMemory@kamelaslib@@UEAAHPEAXI@Z 0000000180006800 f   sharedmemory.obj
 0001:00005a50       ??0SharedMemory@kamelaslib@@QEAA@PEB_WIH@Z 0000000180006a50 f   sharedmemory.obj
 0001:00005c00       ??1SharedMemory@kamelaslib@@UEAA@XZ 0000000180006c00 f   sharedmemory.obj
 0001:00005c70       ??$max@I@std@@YAAEBIAEBI0@Z 0000000180006c70 f i sharedmemory.obj
 0001:00005cc0       ??$min@I@std@@YAAEBIAEBI0@Z 0000000180006cc0 f i sharedmemory.obj
 0001:00005d10       ??0SharedMemoryPimpl@kamelaslib@@QEAA@XZ 0000000180006d10 f i sharedmemory.obj
 0001:00005dc0       ??1SharedMemoryPimpl@kamelaslib@@UEAA@XZ 0000000180006dc0 f i sharedmemory.obj
 0001:00005de0       ??_ESharedMemory@kamelaslib@@UEAAPEAXI@Z 0000000180006de0 f i sharedmemory.obj
 0001:00005de0       ??_GSharedMemory@kamelaslib@@UEAAPEAXI@Z 0000000180006de0 f i sharedmemory.obj
 0001:00005e20       ??_ESharedMemoryPimpl@kamelaslib@@UEAAPEAXI@Z 0000000180006e20 f i sharedmemory.obj
 0001:00005e20       ??_GSharedMemoryPimpl@kamelaslib@@UEAAPEAXI@Z 0000000180006e20 f i sharedmemory.obj
 0001:00005e60       ?__empty_global_delete@@YAXPEAX@Z 0000000180006e60 f i sharedmemory.obj
 0001:00005e70       ?__empty_global_delete@@YAXPEAX_K@Z 0000000180006e70 f i sharedmemory.obj
 0001:00005e7b       OutputDebugStringW         0000000180006e7b f   kernel32:KERNEL32.dll
 0001:00005e81       InitializeCriticalSection  0000000180006e81 f   kernel32:KERNEL32.dll
 0001:00005e87       EnterCriticalSection       0000000180006e87 f   kernel32:KERNEL32.dll
 0001:00005e8d       LeaveCriticalSection       0000000180006e8d f   kernel32:KERNEL32.dll
 0001:00005e93       DeleteCriticalSection      0000000180006e93 f   kernel32:KERNEL32.dll
 0001:00005e99       CloseHandle                0000000180006e99 f   kernel32:KERNEL32.dll
 0001:00005e9f       SetEvent                   0000000180006e9f f   kernel32:KERNEL32.dll
 0001:00005ea5       ResetEvent                 0000000180006ea5 f   kernel32:KERNEL32.dll
 0001:00005eab       ReleaseMutex               0000000180006eab f   kernel32:KERNEL32.dll
 0001:00005eb1       WaitForSingleObject        0000000180006eb1 f   kernel32:KERNEL32.dll
 0001:00005eb7       CreateMutexW               0000000180006eb7 f   kernel32:KERNEL32.dll
 0001:00005ebd       OpenMutexW                 0000000180006ebd f   kernel32:KERNEL32.dll
 0001:00005ec3       CreateEventW               0000000180006ec3 f   kernel32:KERNEL32.dll
 0001:00005ec9       OpenEventW                 0000000180006ec9 f   kernel32:KERNEL32.dll
 0001:00005ecf       CreateFileMappingW         0000000180006ecf f   kernel32:KERNEL32.dll
 0001:00005ed5       OpenFileMappingW           0000000180006ed5 f   kernel32:KERNEL32.dll
 0001:00005edb       MapViewOfFile              0000000180006edb f   kernel32:KERNEL32.dll
 0001:00005ee1       UnmapViewOfFile            0000000180006ee1 f   kernel32:KERNEL32.dll
 0001:00005ef0       ??_M@YAXPEAX_K1P6AX0@Z@Z   0000000180006ef0 f   LIBCMTD:ehvecdtr.obj
 0001:00005fb0       ??_M@YAXPEAX_KHP6AX0@Z@Z   0000000180006fb0 f   LIBCMTD:ehvecdtr.obj
 0001:00006060       ?__ArrayUnwind@@YAXPEAX_K1P6AX0@Z@Z 0000000180007060 f   LIBCMTD:ehvecdtr.obj
 0001:000060e0       ??2@YAPEAX_K@Z             00000001800070e0 f   LIBCMTD:new_scalar.obj
 0001:00006140       ??3@YAXPEAX_K@Z            0000000180007140 f   LIBCMTD:delete_scalar_size.obj
 0001:00006160       ??_V@YAXPEAX_K@Z           0000000180007160 f   LIBCMTD:delete_array_size.obj
 0001:00006180       ??1type_info@@UEAA@XZ      0000000180007180 f   LIBCMTD:std_type_info_static.obj
 0001:000061a0       ??_Etype_info@@UEAAPEAXI@Z 00000001800071a0 f i LIBCMTD:std_type_info_static.obj
 0001:000061a0       ??_Gtype_info@@UEAAPEAXI@Z 00000001800071a0 f i LIBCMTD:std_type_info_static.obj
 0001:000061e0       ?configure_argv@__scrt_narrow_argv_policy@@SAHXZ 00000001800071e0 f i LIBCMTD:utility.obj
 0001:000062d0       ?initialize_environment@__scrt_narrow_environment_policy@@SAHXZ 00000001800072d0 f i LIBCMTD:utility.obj
 0001:00006370       NtCurrentTeb               0000000180007370 f i LIBCMTD:utility.obj
 0001:00006380       __scrt_acquire_startup_lock 0000000180007380 f   LIBCMTD:utility.obj
 0001:000063f0       __scrt_dllmain_after_initialize_c 00000001800073f0 f   LIBCMTD:utility.obj
 0001:00006420       __scrt_dllmain_before_initialize_c 0000000180007420 f   LIBCMTD:utility.obj
 0001:00006440       __scrt_dllmain_crt_thread_attach 0000000180007440 f   LIBCMTD:utility.obj
 0001:00006470       __scrt_dllmain_crt_thread_detach 0000000180007470 f   LIBCMTD:utility.obj
 0001:00006490       __scrt_dllmain_exception_filter 0000000180007490 f   LIBCMTD:utility.obj
 0001:00006500       __scrt_dllmain_uninitialize_c 0000000180007500 f   LIBCMTD:utility.obj
 0001:00006530       __scrt_dllmain_uninitialize_critical 0000000180007530 f   LIBCMTD:utility.obj
 0001:00006550       __scrt_initialize_crt      0000000180007550 f   LIBCMTD:utility.obj
 0001:000065a0       __scrt_initialize_onexit_tables 00000001800075a0 f   LIBCMTD:utility.obj
 0001:000066b0       __scrt_is_nonwritable_in_current_image 00000001800076b0 f   LIBCMTD:utility.obj
 0001:00006740       __scrt_release_startup_lock 0000000180007740 f   LIBCMTD:utility.obj
 0001:00006770       __scrt_uninitialize_crt    0000000180007770 f   LIBCMTD:utility.obj
 0001:000067b0       _onexit                    00000001800077b0 f   LIBCMTD:utility.obj
 0001:00006830       at_quick_exit              0000000180007830 f   LIBCMTD:utility.obj
 0001:00006880       atexit                     0000000180007880 f   LIBCMTD:utility.obj
 0001:000068c0       _Init_thread_abort         00000001800078c0 f   LIBCMTD:thread_safe_statics.obj
 0001:000068f0       _Init_thread_footer        00000001800078f0 f   LIBCMTD:thread_safe_statics.obj
 0001:00006950       _Init_thread_header        0000000180007950 f   LIBCMTD:thread_safe_statics.obj
 0001:000069e0       _Init_thread_lock          00000001800079e0 f   LIBCMTD:thread_safe_statics.obj
 0001:00006a00       _Init_thread_notify        0000000180007a00 f   LIBCMTD:thread_safe_statics.obj
 0001:00006a20       _Init_thread_unlock        0000000180007a20 f   LIBCMTD:thread_safe_statics.obj
 0001:00006a40       _Init_thread_wait_v2       0000000180007a40 f   LIBCMTD:thread_safe_statics.obj
 0001:00006a70       __GSHandlerCheck           0000000180007a70 f   LIBCMTD:gshandler.obj
 0001:00006ab0       __GSHandlerCheckCommon     0000000180007ab0 f   LIBCMTD:gshandler.obj
 0001:00006bc0       __security_check_cookie    0000000180007bc0 f   LIBCMTD:amdsecgs.obj
 0001:00006ff0       _CRT_INIT                  0000000180007ff0 f   LIBCMTD:dll_dllmain.obj
 0001:00007020       _DllMainCRTStartup         0000000180008020 f   LIBCMTD:dll_dllmain.obj
 0001:00007060       _guard_check_icall_nop     0000000180008060 f i LIBCMTD:guard_support.obj
 0001:00007070       ReadNoFence64              0000000180008070 f i LIBCMTD:guard_support.obj
 0001:00007090       ReadPointerNoFence         0000000180008090 f i LIBCMTD:guard_support.obj
 0001:000070b0       __castguard_check_failure_debugbreak 00000001800080b0 f i LIBCMTD:guard_support.obj
 0001:000070d0       __castguard_check_failure_fastfail 00000001800080d0 f i LIBCMTD:guard_support.obj
 0001:00007100       __castguard_check_failure_nop 0000000180008100 f i LIBCMTD:guard_support.obj
 0001:00007110       __castguard_check_failure_os_handled 0000000180008110 f i LIBCMTD:guard_support.obj
 0001:00007180       __castguard_check_failure_user_handled 0000000180008180 f i LIBCMTD:guard_support.obj
 0001:00007270       __castguard_set_user_handler 0000000180008270 f i LIBCMTD:guard_support.obj
 0001:000072a0       __castguard_slow_path_check_debugbreak 00000001800082a0 f i LIBCMTD:guard_support.obj
 0001:000072e0       __castguard_slow_path_check_fastfail 00000001800082e0 f i LIBCMTD:guard_support.obj
 0001:00007330       __castguard_slow_path_check_nop 0000000180008330 f i LIBCMTD:guard_support.obj
 0001:00007340       __castguard_slow_path_check_os_handled 0000000180008340 f i LIBCMTD:guard_support.obj
 0001:00007390       __castguard_slow_path_check_user_handled 0000000180008390 f i LIBCMTD:guard_support.obj
 0001:00007450       _guard_icall_checks_enforced 0000000180008450 f i LIBCMTD:guard_support.obj
 0001:00007490       _guard_rf_checks_enforced  0000000180008490 f i LIBCMTD:guard_support.obj
 0001:000074a0       ??0bad_alloc@std@@QEAA@XZ  00000001800084a0 f i LIBCMTD:throw_bad_alloc.obj
 0001:000074e0       ?__scrt_throw_std_bad_alloc@@YAXXZ 00000001800084e0 f   LIBCMTD:throw_bad_alloc.obj
 0001:00007510       ?__scrt_throw_std_bad_array_new_length@@YAXXZ 0000000180008510 f   LIBCMTD:throw_bad_alloc.obj
 0001:00007540       ??3@YAXPEAX@Z              0000000180008540 f   LIBCMTD:delete_scalar.obj
 0001:00007560       ??_V@YAXPEAX@Z             0000000180008560 f   LIBCMTD:delete_array.obj
 0001:00007580       __isa_available_init       0000000180008580 f   LIBCMTD:cpu_disp.obj
 0001:00007a70       _get_startup_argv_mode     0000000180008a70 f   LIBCMTD:argv_mode.obj
 0001:00007a80       __scrt_is_ucrt_dll_in_use  0000000180008a80 f   LIBCMTD:ucrt_detection.obj
 0001:00007ab0       __crt_debugger_hook        0000000180008ab0 f   LIBCMTD:utility_desktop.obj
 0001:00007ac0       __scrt_fastfail            0000000180008ac0 f   LIBCMTD:utility_desktop.obj
 0001:00007c60       __scrt_get_show_window_mode 0000000180008c60 f   LIBCMTD:utility_desktop.obj
 0001:00007cc0       __scrt_initialize_mta      0000000180008cc0 f   LIBCMTD:utility_desktop.obj
 0001:00007cd0       __scrt_initialize_winrt    0000000180008cd0 f   LIBCMTD:utility_desktop.obj
 0001:00007ce0       __scrt_is_managed_app      0000000180008ce0 f   LIBCMTD:utility_desktop.obj
 0001:00007d90       __scrt_set_unhandled_exception_filter 0000000180008d90 f   LIBCMTD:utility_desktop.obj
 0001:00007db0       __scrt_exe_initialize_mta  0000000180008db0 f   LIBCMTD:utility_desktop.obj
 0001:00007db0       __scrt_stub_for_initialize_mta 0000000180008db0 f   LIBCMTD:utility_desktop.obj
 0001:00007dc0       __scrt_unhandled_exception_filter 0000000180008dc0 f   LIBCMTD:utility_desktop.obj
 0001:00007e60       __raise_securityfailure    0000000180008e60 f   LIBCMTD:gs_report.obj
 0001:00007ea0       __report_gsfailure         0000000180008ea0 f   LIBCMTD:gs_report.obj
 0001:00007f80       __report_rangecheckfailure 0000000180008f80 f   LIBCMTD:gs_report.obj
 0001:00007fa0       __report_securityfailure   0000000180008fa0 f   LIBCMTD:gs_report.obj
 0001:00008040       __report_securityfailureEx 0000000180009040 f   LIBCMTD:gs_report.obj
 0001:00008370       __security_init_cookie     0000000180009370 f   LIBCMTD:gs_support.obj
 0001:000083f0       DllMain                    00000001800093f0 f   LIBCMTD:dll_dllmain_stub.obj
 0001:00008410       ?__scrt_initialize_type_info@@YAXXZ 0000000180009410 f   LIBCMTD:tncleanup.obj
 0001:00008430       ?__scrt_uninitialize_type_info@@YAXXZ 0000000180009430 f   LIBCMTD:tncleanup.obj
 0001:00008450       __local_stdio_scanf_options 0000000180009450 f i LIBCMTD:default_local_stdio_options.obj
 0001:00008460       __scrt_initialize_default_local_stdio_options 0000000180009460 f   LIBCMTD:default_local_stdio_options.obj
 0001:000084b0       __scrt_get_dyn_tls_init_callback 00000001800094b0 f   LIBCMTD:dyn_tls_init.obj
 0001:000084c0       _RTC_Initialize            00000001800094c0 f   LIBCMTD:initsect.obj
 0001:00008510       _RTC_Terminate             0000000180009510 f   LIBCMTD:initsect.obj
 0001:00008560       ??0_Init_locks@std@@QEAA@XZ 0000000180009560 f   libcpmtd:xlock.obj
 0001:000085f0       ??0_Lockit@std@@QEAA@H@Z   00000001800095f0 f   libcpmtd:xlock.obj
 0001:00008650       ??0_Lockit@std@@QEAA@XZ    0000000180009650 f   libcpmtd:xlock.obj
 0001:000086a0       ??1_Init_locks@std@@QEAA@XZ 00000001800096a0 f   libcpmtd:xlock.obj
 0001:00008720       ??1_Lockit@std@@QEAA@XZ    0000000180009720 f   libcpmtd:xlock.obj
 0001:00008770       ?_Init_locks_ctor@_Init_locks@std@@CAXPEAV12@@Z 0000000180009770 f   libcpmtd:xlock.obj
 0001:000087f0       ?_Init_locks_dtor@_Init_locks@std@@CAXPEAV12@@Z 00000001800097f0 f   libcpmtd:xlock.obj
 0001:00008870       ?_Lockit_ctor@_Lockit@std@@CAXPEAV12@@Z 0000000180009870 f   libcpmtd:xlock.obj
 0001:000088a0       ?_Lockit_ctor@_Lockit@std@@CAXPEAV12@H@Z 00000001800098a0 f   libcpmtd:xlock.obj
 0001:00008900       ?_Lockit_ctor@_Lockit@std@@SAXH@Z 0000000180009900 f   libcpmtd:xlock.obj
 0001:00008940       ?_Lockit_dtor@_Lockit@std@@CAXPEAV12@@Z 0000000180009940 f   libcpmtd:xlock.obj
 0001:00008970       ?_Lockit_dtor@_Lockit@std@@SAXH@Z 0000000180009970 f   libcpmtd:xlock.obj
 0001:000089b0       ??0bad_function_call@std@@QEAA@AEBV01@@Z 00000001800099b0 f i libcpmtd:xthrow.obj
 0001:000089f0       ??0bad_function_call@std@@QEAA@XZ 00000001800099f0 f i libcpmtd:xthrow.obj
 0001:00008a20       ??0exception@std@@QEAA@QEBD@Z 0000000180009a20 f i libcpmtd:xthrow.obj
 0001:00008a90       ??0exception@std@@QEAA@XZ  0000000180009a90 f i libcpmtd:xthrow.obj
 0001:00008ad0       ??0invalid_argument@std@@QEAA@AEBV01@@Z 0000000180009ad0 f i libcpmtd:xthrow.obj
 0001:00008b10       ??0invalid_argument@std@@QEAA@PEBD@Z 0000000180009b10 f i libcpmtd:xthrow.obj
 0001:00008b50       ??0length_error@std@@QEAA@AEBV01@@Z 0000000180009b50 f i libcpmtd:xthrow.obj
 0001:00008b90       ??0length_error@std@@QEAA@PEBD@Z 0000000180009b90 f i libcpmtd:xthrow.obj
 0001:00008bd0       ??0logic_error@std@@QEAA@AEBV01@@Z 0000000180009bd0 f i libcpmtd:xthrow.obj
 0001:00008c10       ??0logic_error@std@@QEAA@PEBD@Z 0000000180009c10 f i libcpmtd:xthrow.obj
 0001:00008c50       ??0out_of_range@std@@QEAA@AEBV01@@Z 0000000180009c50 f i libcpmtd:xthrow.obj
 0001:00008c90       ??0out_of_range@std@@QEAA@PEBD@Z 0000000180009c90 f i libcpmtd:xthrow.obj
 0001:00008cd0       ??0overflow_error@std@@QEAA@AEBV01@@Z 0000000180009cd0 f i libcpmtd:xthrow.obj
 0001:00008d10       ??0overflow_error@std@@QEAA@PEBD@Z 0000000180009d10 f i libcpmtd:xthrow.obj
 0001:00008d50       ??0regex_error@std@@QEAA@AEBV01@@Z 0000000180009d50 f i libcpmtd:xthrow.obj
 0001:00008da0       ??0regex_error@std@@QEAA@W4error_type@regex_constants@1@@Z 0000000180009da0 f i libcpmtd:xthrow.obj
 0001:00008df0       ??0runtime_error@std@@QEAA@AEBV01@@Z 0000000180009df0 f i libcpmtd:xthrow.obj
 0001:00008e30       ??0runtime_error@std@@QEAA@PEBD@Z 0000000180009e30 f i libcpmtd:xthrow.obj
 0001:00008e70       ??1bad_function_call@std@@UEAA@XZ 0000000180009e70 f i libcpmtd:xthrow.obj
 0001:00008e90       ??1invalid_argument@std@@UEAA@XZ 0000000180009e90 f i libcpmtd:xthrow.obj
 0001:00008eb0       ??1length_error@std@@UEAA@XZ 0000000180009eb0 f i libcpmtd:xthrow.obj
 0001:00008ed0       ??1logic_error@std@@UEAA@XZ 0000000180009ed0 f i libcpmtd:xthrow.obj
 0001:00008ef0       ??1out_of_range@std@@UEAA@XZ 0000000180009ef0 f i libcpmtd:xthrow.obj
 0001:00008f10       ??1overflow_error@std@@UEAA@XZ 0000000180009f10 f i libcpmtd:xthrow.obj
 0001:00008f30       ??1regex_error@std@@UEAA@XZ 0000000180009f30 f i libcpmtd:xthrow.obj
 0001:00008f50       ??1runtime_error@std@@UEAA@XZ 0000000180009f50 f i libcpmtd:xthrow.obj
 0001:00008f70       ??_Ebad_function_call@std@@UEAAPEAXI@Z 0000000180009f70 f i libcpmtd:xthrow.obj
 0001:00008f70       ??_Gbad_function_call@std@@UEAAPEAXI@Z 0000000180009f70 f i libcpmtd:xthrow.obj
 0001:00008fb0       ??_Einvalid_argument@std@@UEAAPEAXI@Z 0000000180009fb0 f i libcpmtd:xthrow.obj
 0001:00008fb0       ??_Ginvalid_argument@std@@UEAAPEAXI@Z 0000000180009fb0 f i libcpmtd:xthrow.obj
 0001:00008ff0       ??_Elength_error@std@@UEAAPEAXI@Z 0000000180009ff0 f i libcpmtd:xthrow.obj
 0001:00008ff0       ??_Glength_error@std@@UEAAPEAXI@Z 0000000180009ff0 f i libcpmtd:xthrow.obj
 0001:00009030       ??_Elogic_error@std@@UEAAPEAXI@Z 000000018000a030 f i libcpmtd:xthrow.obj
 0001:00009030       ??_Glogic_error@std@@UEAAPEAXI@Z 000000018000a030 f i libcpmtd:xthrow.obj
 0001:00009070       ??_Eout_of_range@std@@UEAAPEAXI@Z 000000018000a070 f i libcpmtd:xthrow.obj
 0001:00009070       ??_Gout_of_range@std@@UEAAPEAXI@Z 000000018000a070 f i libcpmtd:xthrow.obj
 0001:000090b0       ??_Eoverflow_error@std@@UEAAPEAXI@Z 000000018000a0b0 f i libcpmtd:xthrow.obj
 0001:000090b0       ??_Goverflow_error@std@@UEAAPEAXI@Z 000000018000a0b0 f i libcpmtd:xthrow.obj
 0001:000090f0       ??_Eregex_error@std@@UEAAPEAXI@Z 000000018000a0f0 f i libcpmtd:xthrow.obj
 0001:000090f0       ??_Gregex_error@std@@UEAAPEAXI@Z 000000018000a0f0 f i libcpmtd:xthrow.obj
 0001:00009130       ??_Eruntime_error@std@@UEAAPEAXI@Z 000000018000a130 f i libcpmtd:xthrow.obj
 0001:00009130       ??_Gruntime_error@std@@UEAAPEAXI@Z 000000018000a130 f i libcpmtd:xthrow.obj
 0001:00009170       ?_Stringify@regex_error@std@@CAPEBDW4error_type@regex_constants@2@@Z 000000018000a170 f i libcpmtd:xthrow.obj
 0001:00009280       ?_Xbad_alloc@std@@YAXXZ    000000018000a280 f   libcpmtd:xthrow.obj
 0001:000092b0       ?_Xbad_function_call@std@@YAXXZ 000000018000a2b0 f   libcpmtd:xthrow.obj
 0001:000092e0       ?_Xinvalid_argument@std@@YAXPEBD@Z 000000018000a2e0 f   libcpmtd:xthrow.obj
 0001:00009310       ?_Xlength_error@std@@YAXPEBD@Z 000000018000a310 f   libcpmtd:xthrow.obj
 0001:00009340       ?_Xout_of_range@std@@YAXPEBD@Z 000000018000a340 f   libcpmtd:xthrow.obj
 0001:00009370       ?_Xoverflow_error@std@@YAXPEBD@Z 000000018000a370 f   libcpmtd:xthrow.obj
 0001:000093a0       ?_Xregex_error@std@@YAXW4error_type@regex_constants@1@@Z 000000018000a3a0 f   libcpmtd:xthrow.obj
 0001:000093d0       ?_Xruntime_error@std@@YAXPEBD@Z 000000018000a3d0 f   libcpmtd:xthrow.obj
 0001:00009400       ?__empty_global_delete@@YAXPEAXW4align_val_t@std@@@Z 000000018000a400 f i libcpmtd:xthrow.obj
 0001:00009410       ?__empty_global_delete@@YAXPEAX_KW4align_val_t@std@@@Z 000000018000a410 f i libcpmtd:xthrow.obj
 0001:00009420       ?what@bad_function_call@std@@UEBAPEBDXZ 000000018000a420 f i libcpmtd:xthrow.obj
 0001:00009430       _Mtxdst                    000000018000a430 f   libcpmtd:xmtx.obj
 0001:00009450       _Mtxinit                   000000018000a450 f   libcpmtd:xmtx.obj
 0001:00009480       _Mtxlock                   000000018000a480 f   libcpmtd:xmtx.obj
 0001:000094a0       _Mtxunlock                 000000018000a4a0 f   libcpmtd:xmtx.obj
 0001:000094ba       timeGetDevCaps             000000018000a4ba f   winmm:WINMM.dll
 0001:000094c0       timeBeginPeriod            000000018000a4c0 f   winmm:WINMM.dll
 0001:000094c6       timeEndPeriod              000000018000a4c6 f   winmm:WINMM.dll
 0001:000094d0       ??$__crt_interlocked_exchange_pointer@$$A6AXXZP6AXXZ@@YAP6AXXZPEDS6AXXZQ6AXXZ@Z 000000018000a4d0 f i libvcruntimed:purevirt.obj
 0001:000094f0       ??$__crt_interlocked_read_pointer@$$A6AXXZ@@YAP6AXXZPEDS6AXXZ@Z 000000018000a4f0 f i libvcruntimed:purevirt.obj
 0001:00009510       ?__crt_interlocked_read_64@@YA_JPED_J@Z 000000018000a510 f i libvcruntimed:purevirt.obj
 0001:00009530       _get_purecall_handler      000000018000a530 f   libvcruntimed:purevirt.obj
 0001:00009550       _purecall                  000000018000a550 f   libvcruntimed:purevirt.obj
 0001:00009590       _set_purecall_handler      000000018000a590 f   libvcruntimed:purevirt.obj
 0001:000095b0       ??$?0AEAViterator@TryBlockMap4@FH4@@AEAV012@$0A@@?$pair@Viterator@TryBlockMap4@FH4@@V123@@std@@QEAA@AEAViterator@TryBlockMap4@FH4@@0@Z 000000018000a5b0 f i libvcruntimed:risctrnsctrl.obj
 0001:000095f0       ??$?0AEAViterator@TryBlockMap@__FrameHandler3@@AEAV012@$0A@@?$pair@Viterator@TryBlockMap@__FrameHandler3@@V123@@std@@QEAA@AEAViterator@TryBlockMap@__FrameHandler3@@0@Z 000000018000a5f0 f i libvcruntimed:risctrnsctrl.obj
 0001:000097e0       ??$_CallSETranslator@V__FrameHandler3@@@@YAHPEAUEHExceptionRecord@@PEA_KPEAU_CONTEXT@@PEAU_xDISPATCHER_CONTEXT@@PEBU_s_FuncInfo@@K1H@Z 000000018000a7e0 f i libvcruntimed:risctrnsctrl.obj
 0001:00009870       ??$_CallSETranslator@V__FrameHandler4@@@@YAHPEAUEHExceptionRecord@@PEA_KPEAU_CONTEXT@@PEAU_xDISPATCHER_CONTEXT@@PEAUFuncInfo4@FH4@@K1H@Z 000000018000a870 f i libvcruntimed:risctrnsctrl.obj
 0001:00009900       ??0FuncInfo4@FH4@@QEAA@XZ  000000018000a900 f i libvcruntimed:risctrnsctrl.obj
 0001:00009970       ??0FuncInfoHeader@FH4@@QEAA@XZ 000000018000a970 f i libvcruntimed:risctrnsctrl.obj
 0001:00009990       ??0iterator@TryBlockMap4@FH4@@QEAA@AEAV12@I@Z 000000018000a990 f i libvcruntimed:risctrnsctrl.obj
 0001:000099c0       ??0iterator@TryBlockMap@__FrameHandler3@@QEAA@AEAV12@I@Z 000000018000a9c0 f i libvcruntimed:risctrnsctrl.obj
 0001:000099f0       ??4iterator@TryBlockMap4@FH4@@QEAAAEAV012@AEBV012@@Z 000000018000a9f0 f i libvcruntimed:risctrnsctrl.obj
 0001:00009a10       ??9iterator@TryBlockMap4@FH4@@QEBA_NAEBV012@@Z 000000018000aa10 f i libvcruntimed:risctrnsctrl.obj
 0001:00009a50       ??Diterator@TryBlockMap4@FH4@@QEAA?AUTryBlockMapEntry4@2@XZ 000000018000aa50 f i libvcruntimed:risctrnsctrl.obj
 0001:00009a80       ??Eiterator@TryBlockMap4@FH4@@QEAAAEAV012@XZ 000000018000aa80 f i libvcruntimed:risctrnsctrl.obj
 0001:00009ac0       ?CatchTryBlock@__FrameHandler3@@SAPEBU_s_TryBlockMapEntry@@PEBU_s_FuncInfo@@H@Z 000000018000aac0 f   libvcruntimed:risctrnsctrl.obj
 0001:00009b50       ?DecompFuncInfo@FH4@@YA_JPEAEAEAUFuncInfo4@1@_KH@Z 000000018000ab50 f i libvcruntimed:risctrnsctrl.obj
 0001:00009b90       ?DecompFuncInfo@FH4@@YA_JPEAEAEAUFuncInfo4@1@_KH_N@Z 000000018000ab90 f i libvcruntimed:risctrnsctrl.obj
 0001:00009d70       ?DecompTryBlock@TryBlockMap4@FH4@@AEAAXXZ 000000018000ad70 f i libvcruntimed:risctrnsctrl.obj
 0001:00009df0       ?ExecutionInCatch@__FrameHandler3@@SA_NPEAU_xDISPATCHER_CONTEXT@@PEBU_s_FuncInfo@@@Z 000000018000adf0 f   libvcruntimed:risctrnsctrl.obj
 0001:00009e40       ?ExecutionInCatch@__FrameHandler4@@SA_NPEAU_xDISPATCHER_CONTEXT@@PEAUFuncInfo4@FH4@@@Z 000000018000ae40 f   libvcruntimed:risctrnsctrl.obj
 0001:00009e60       ?FrameUnwindToEmptyState@__FrameHandler3@@SAXPEA_KPEAU_xDISPATCHER_CONTEXT@@PEBU_s_FuncInfo@@@Z 000000018000ae60 f   libvcruntimed:risctrnsctrl.obj
 0001:00009f00       ?FrameUnwindToEmptyState@__FrameHandler4@@SAXPEA_KPEAU_xDISPATCHER_CONTEXT@@PEAUFuncInfo4@FH4@@@Z 000000018000af00 f   libvcruntimed:risctrnsctrl.obj
 0001:00009f60       ?GetEstablisherFrame@__FrameHandler3@@SAPEA_KPEA_KPEAU_xDISPATCHER_CONTEXT@@PEBU_s_FuncInfo@@0@Z 000000018000af60 f   libvcruntimed:risctrnsctrl.obj
 0001:0000a0d0       ?GetEstablisherFrame@__FrameHandler4@@SAPEA_KPEA_KPEAU_xDISPATCHER_CONTEXT@@PEAUFuncInfo4@FH4@@0@Z 000000018000b0d0 f   libvcruntimed:risctrnsctrl.obj
 0001:0000a140       ?GetRangeOfTrysToCheck@__FrameHandler3@@SA?AU?$pair@Viterator@TryBlockMap@__FrameHandler3@@V123@@std@@AEAVTryBlockMap@1@HPEAU_xDISPATCHER_CONTEXT@@PEBU_s_FuncInfo@@H@Z 000000018000b140 f   libvcruntimed:risctrnsctrl.obj
 0001:0000a380       ?GetRangeOfTrysToCheck@__FrameHandler4@@SA?AU?$pair@Viterator@TryBlockMap4@FH4@@V123@@std@@AEAVTryBlockMap4@FH4@@HPEAU_xDISPATCHER_CONTEXT@@PEAUFuncInfo4@5@H@Z 000000018000b380 f   libvcruntimed:risctrnsctrl.obj
 0001:0000a540       ?ReadInt@FH4@@YAHPEAPEAE@Z 000000018000b540 f i libvcruntimed:risctrnsctrl.obj
 0001:0000a580       ?ReadUnsigned@FH4@@YAIPEAPEAE@Z 000000018000b580 f i libvcruntimed:risctrnsctrl.obj
 0001:0000a610       ?UnwindNestedFrames@__FrameHandler3@@SAXPEA_KPEAUEHExceptionRecord@@PEAU_CONTEXT@@0PEAXPEBU_s_FuncInfo@@HHPEBU_s_HandlerType@@PEAU_xDISPATCHER_CONTEXT@@E@Z 000000018000b610 f   libvcruntimed:risctrnsctrl.obj
 0001:0000a780       ?UnwindNestedFrames@__FrameHandler4@@SAXPEA_KPEAUEHExceptionRecord@@PEAU_CONTEXT@@0PEAXPEAUFuncInfo4@FH4@@HHPEAUHandlerType4@5@PEAU_xDISPATCHER_CONTEXT@@E@Z 000000018000b780 f   libvcruntimed:risctrnsctrl.obj
 0001:0000a950       ?begin@TryBlockMap4@FH4@@QEAA?AViterator@12@XZ 000000018000b950 f i libvcruntimed:risctrnsctrl.obj
 0001:0000a980       ?end@TryBlockMap4@FH4@@QEAA?AViterator@12@XZ 000000018000b980 f i libvcruntimed:risctrnsctrl.obj
 0001:0000a9b0       ?imageRelToByteBuffer@FH4@@YAPEAE_KH@Z 000000018000b9b0 f i libvcruntimed:risctrnsctrl.obj
 0001:0000a9d0       ?incrementToSentinel@iterator@TryBlockMap4@FH4@@QEAAXXZ 000000018000b9d0 f i libvcruntimed:risctrnsctrl.obj
 0001:0000a9f0       ?setBuffer@TryBlockMap4@FH4@@QEAAXViterator@12@@Z 000000018000b9f0 f i libvcruntimed:risctrnsctrl.obj
 0001:0000aa60       _CreateFrameInfo           000000018000ba60 f   libvcruntimed:risctrnsctrl.obj
 0001:0000aad0       _FindAndUnlinkFrame        000000018000bad0 f   libvcruntimed:risctrnsctrl.obj
 0001:0000ab50       _GetImageBase              000000018000bb50 f   libvcruntimed:risctrnsctrl.obj
 0001:0000ab70       _GetThrowImageBase         000000018000bb70 f   libvcruntimed:risctrnsctrl.obj
 0001:0000ab90       _SetImageBase              000000018000bb90 f   libvcruntimed:risctrnsctrl.obj
 0001:0000abb0       _SetThrowImageBase         000000018000bbb0 f   libvcruntimed:risctrnsctrl.obj
 0001:0000abd0       __CxxFrameHandler          000000018000bbd0 f   libvcruntimed:risctrnsctrl.obj
 0001:0000ac10       __CxxFrameHandler2         000000018000bc10 f   libvcruntimed:risctrnsctrl.obj
 0001:0000ac50       __CxxFrameHandler3         000000018000bc50 f   libvcruntimed:risctrnsctrl.obj
 0001:0000ad30       __CxxFrameHandler4         000000018000bd30 f   libvcruntimed:risctrnsctrl.obj
 0001:0000ae40       ??$?RD@__crt_public_free_policy@@QEBAXQEBD@Z 000000018000be40 f i libvcruntimed:std_exception.obj
 0001:0000ae60       ??0?$__crt_unique_heap_ptr@DU__crt_public_free_policy@@@@QEAA@QEAD@Z 000000018000be60 f i libvcruntimed:std_exception.obj
 0001:0000ae80       ??1?$__crt_unique_heap_ptr@DU__crt_public_free_policy@@@@QEAA@XZ 000000018000be80 f i libvcruntimed:std_exception.obj
 0001:0000aea0       ??B?$__crt_unique_heap_ptr@DU__crt_public_free_policy@@@@QEBA_NXZ 000000018000bea0 f i libvcruntimed:std_exception.obj
 0001:0000aec0       ?detach@?$__crt_unique_heap_ptr@DU__crt_public_free_policy@@@@QEAAPEADXZ 000000018000bec0 f i libvcruntimed:std_exception.obj
 0001:0000aef0       ?get@?$__crt_unique_heap_ptr@DU__crt_public_free_policy@@@@QEBAPEADXZ 000000018000bef0 f i libvcruntimed:std_exception.obj
 0001:0000af00       ?is_valid@?$__crt_unique_heap_ptr@DU__crt_public_free_policy@@@@QEBA_NXZ 000000018000bf00 f i libvcruntimed:std_exception.obj
 0001:0000af30       ?release@?$__crt_unique_heap_ptr@DU__crt_public_free_policy@@@@QEAAXXZ 000000018000bf30 f i libvcruntimed:std_exception.obj
 0001:0000af60       __std_exception_copy       000000018000bf60 f   libvcruntimed:std_exception.obj
 0001:0000b0a0       __std_exception_destroy    000000018000c0a0 f   libvcruntimed:std_exception.obj
 0001:0000b0e0       _CxxThrowException         000000018000c0e0 f   libvcruntimed:throw.obj
 0001:0000b220       __DestructExceptionObject  000000018000c220 f   libvcruntimed:ehhelpers.obj
 0001:0000b320       ?_CallMemberFunction0@@YAXQEAX0@Z 000000018000c320 f i libvcruntimed:ehhelpers.obj
 0001:0000b400       ?raw_name@type_info@@QEBAPEBDXZ 000000018000c400 f i libvcruntimed:ehhelpers.obj
 0001:0000b410       _IsExceptionObjectToBeDestroyed 000000018000c410 f   libvcruntimed:ehhelpers.obj
 0001:0000b460       _SetWinRTOutOfMemoryExceptionCallback 000000018000c460 f   libvcruntimed:ehhelpers.obj
 0001:0000b480       __AdjustPointer            000000018000c480 f   libvcruntimed:ehhelpers.obj
 0001:0000b500       __FrameUnwindFilter        000000018000c500 f   libvcruntimed:ehhelpers.obj
 0001:0000b5b0       __GetPlatformExceptionInfo 000000018000c5b0 f   libvcruntimed:ehhelpers.obj
 0001:0000b660       __current_exception        000000018000c660 f   libvcruntimed:ehhelpers.obj
 0001:0000b680       __current_exception_context 000000018000c680 f   libvcruntimed:ehhelpers.obj
 0001:0000b6a0       __processing_throw         000000018000c6a0 f   libvcruntimed:ehhelpers.obj
 0001:0000b6c0       __std_terminate            000000018000c6c0 f   libvcruntimed:ehhelpers.obj
 0001:0000b6d0       _is_exception_typeof       000000018000c6d0 f   libvcruntimed:ehhelpers.obj
 0001:0000b820       __C_specific_handler       000000018000c820 f   libvcruntimed:riscchandler.obj
 0001:0000bc90       __vcrt_initialize          000000018000cc90 f   libvcruntimed:initialization.obj
 0001:0000bcd0       __vcrt_thread_attach       000000018000ccd0 f   libvcruntimed:initialization.obj
 0001:0000bcf0       __vcrt_thread_detach       000000018000ccf0 f   libvcruntimed:initialization.obj
 0001:0000bd00       __vcrt_uninitialize        000000018000cd00 f   libvcruntimed:initialization.obj
 0001:0000bd20       __vcrt_uninitialize_critical 000000018000cd20 f   libvcruntimed:initialization.obj
 0001:0000bd80       ??$?RD@__crt_internal_free_policy@@QEBAXQEBD@Z 000000018000cd80 f i libvcruntimed:std_type_info.obj
 0001:0000bdb0       ??$?RX@__crt_internal_free_policy@@QEBAXQEBX@Z 000000018000cdb0 f i libvcruntimed:std_type_info.obj
 0001:0000bde0       ??$__crt_interlocked_compare_exchange_pointer@$$CBDPEAD$$T@@YAPEBDPEDSEBDQEAD$$T@Z 000000018000cde0 f i libvcruntimed:std_type_info.obj
 0001:0000be20       ??$__crt_interlocked_read_pointer@$$CBD@@YAPEBDPEDSEBD@Z 000000018000ce20 f i libvcruntimed:std_type_info.obj
 0001:0000be40       ??0?$__crt_unique_heap_ptr@DU__crt_internal_free_policy@@@@QEAA@QEAD@Z 000000018000ce40 f i libvcruntimed:std_type_info.obj
 0001:0000be60       ??0?$__crt_unique_heap_ptr@XU__crt_internal_free_policy@@@@QEAA@QEAX@Z 000000018000ce60 f i libvcruntimed:std_type_info.obj
 0001:0000be80       ??1?$__crt_unique_heap_ptr@DU__crt_internal_free_policy@@@@QEAA@XZ 000000018000ce80 f i libvcruntimed:std_type_info.obj
 0001:0000bea0       ??1?$__crt_unique_heap_ptr@XU__crt_internal_free_policy@@@@QEAA@XZ 000000018000cea0 f i libvcruntimed:std_type_info.obj
 0001:0000bec0       ??B?$__crt_unique_heap_ptr@DU__crt_internal_free_policy@@@@QEBA_NXZ 000000018000cec0 f i libvcruntimed:std_type_info.obj
 0001:0000bee0       ??B?$__crt_unique_heap_ptr@XU__crt_internal_free_policy@@@@QEBA_NXZ 000000018000cee0 f i libvcruntimed:std_type_info.obj
 0001:0000bf60       ?detach@?$__crt_unique_heap_ptr@XU__crt_internal_free_policy@@@@QEAAPEAXXZ 000000018000cf60 f i libvcruntimed:std_type_info.obj
 0001:0000bf90       ?get@?$__crt_unique_heap_ptr@DU__crt_internal_free_policy@@@@QEBAPEADXZ 000000018000cf90 f i libvcruntimed:std_type_info.obj
 0001:0000bfa0       ?get@?$__crt_unique_heap_ptr@XU__crt_internal_free_policy@@@@QEBAPEAXXZ 000000018000cfa0 f i libvcruntimed:std_type_info.obj
 0001:0000bfb0       ?is_valid@?$__crt_unique_heap_ptr@DU__crt_internal_free_policy@@@@QEBA_NXZ 000000018000cfb0 f i libvcruntimed:std_type_info.obj
 0001:0000bfe0       ?is_valid@?$__crt_unique_heap_ptr@XU__crt_internal_free_policy@@@@QEBA_NXZ 000000018000cfe0 f i libvcruntimed:std_type_info.obj
 0001:0000c010       ?release@?$__crt_unique_heap_ptr@DU__crt_internal_free_policy@@@@QEAAXXZ 000000018000d010 f i libvcruntimed:std_type_info.obj
 0001:0000c040       ?release@?$__crt_unique_heap_ptr@XU__crt_internal_free_policy@@@@QEAAXXZ 000000018000d040 f i libvcruntimed:std_type_info.obj
 0001:0000c070       __std_type_info_compare    000000018000d070 f   libvcruntimed:std_type_info.obj
 0001:0000c0b0       __std_type_info_destroy_list 000000018000d0b0 f   libvcruntimed:std_type_info.obj
 0001:0000c110       __std_type_info_hash       000000018000d110 f   libvcruntimed:std_type_info.obj
 0001:0000c1c0       __std_type_info_name       000000018000d1c0 f   libvcruntimed:std_type_info.obj
 0001:0000c450       ??$?RU__vcrt_ptd@@@__crt_internal_free_policy@@QEBAXQEBU__vcrt_ptd@@@Z 000000018000d450 f i libvcruntimed:per_thread_data.obj
 0001:0000c480       ??0?$__crt_unique_heap_ptr@U__vcrt_ptd@@U__crt_internal_free_policy@@@@QEAA@QEAU__vcrt_ptd@@@Z 000000018000d480 f i libvcruntimed:per_thread_data.obj
 0001:0000c4c0       ??1?$__crt_unique_heap_ptr@U__vcrt_ptd@@U__crt_internal_free_policy@@@@QEAA@XZ 000000018000d4c0 f i libvcruntimed:per_thread_data.obj
 0001:0000c500       ??B?$__crt_unique_heap_ptr@U__vcrt_ptd@@U__crt_internal_free_policy@@@@QEBA_NXZ 000000018000d500 f i libvcruntimed:per_thread_data.obj
 0001:0000c520       ?detach@?$__crt_unique_heap_ptr@U__vcrt_ptd@@U__crt_internal_free_policy@@@@QEAAPEAU__vcrt_ptd@@XZ 000000018000d520 f i libvcruntimed:per_thread_data.obj
 0001:0000c550       ?get@?$__crt_unique_heap_ptr@U__vcrt_ptd@@U__crt_internal_free_policy@@@@QEBAPEAU__vcrt_ptd@@XZ 000000018000d550 f i libvcruntimed:per_thread_data.obj
 0001:0000c560       ?is_valid@?$__crt_unique_heap_ptr@U__vcrt_ptd@@U__crt_internal_free_policy@@@@QEBA_NXZ 000000018000d560 f i libvcruntimed:per_thread_data.obj
 0001:0000c590       ?release@?$__crt_unique_heap_ptr@U__vcrt_ptd@@U__crt_internal_free_policy@@@@QEAAXXZ 000000018000d590 f i libvcruntimed:per_thread_data.obj
 0001:0000c600       __vcrt_freefls             000000018000d600 f   libvcruntimed:per_thread_data.obj
 0001:0000c640       __vcrt_freeptd_for_this_thread 000000018000d640 f   libvcruntimed:per_thread_data.obj
 0001:0000c680       __vcrt_getptd              000000018000d680 f   libvcruntimed:per_thread_data.obj
 0001:0000c6b0       __vcrt_getptd_noexit       000000018000d6b0 f   libvcruntimed:per_thread_data.obj
 0001:0000c850       __vcrt_getptd_noinit       000000018000d850 f   libvcruntimed:per_thread_data.obj
 0001:0000c8b0       __vcrt_initialize_ptd      000000018000d8b0 f   libvcruntimed:per_thread_data.obj
 0001:0000c900       __vcrt_uninitialize_ptd    000000018000d900 f   libvcruntimed:per_thread_data.obj
 0001:0000c930       ?GetCurrentState@__FrameHandler3@@SAHPEA_KPEAU_xDISPATCHER_CONTEXT@@PEBU_s_FuncInfo@@@Z 000000018000d930 f   libvcruntimed:ehstate.obj
 0001:0000c990       ?GetUnwindTryBlock@__FrameHandler3@@SAHPEA_KPEAU_xDISPATCHER_CONTEXT@@PEBU_s_FuncInfo@@@Z 000000018000d990 f   libvcruntimed:ehstate.obj
 0001:0000c9e0       ?SetState@__FrameHandler3@@SAXPEA_KPEBU_s_FuncInfo@@H@Z 000000018000d9e0 f   libvcruntimed:ehstate.obj
 0001:0000ca10       ?SetUnwindTryBlock@__FrameHandler3@@SAXPEA_KPEAU_xDISPATCHER_CONTEXT@@PEBU_s_FuncInfo@@H@Z 000000018000da10 f   libvcruntimed:ehstate.obj
 0001:0000ca80       ?StateFromControlPc@__FrameHandler3@@SAHPEBU_s_FuncInfo@@PEAU_xDISPATCHER_CONTEXT@@@Z 000000018000da80 f   libvcruntimed:ehstate.obj
 0001:0000cac0       ?StateFromControlPc@__FrameHandler4@@SAHPEAUFuncInfo4@FH4@@PEAU_xDISPATCHER_CONTEXT@@@Z 000000018000dac0 f   libvcruntimed:ehstate.obj
 0001:0000cb00       ?StateFromIp@__FrameHandler3@@SAHPEBU_s_FuncInfo@@PEAU_xDISPATCHER_CONTEXT@@_K@Z 000000018000db00 f   libvcruntimed:ehstate.obj
 0001:0000cc00       ?StateFromIp@__FrameHandler4@@SAHPEAUFuncInfo4@FH4@@PEAU_xDISPATCHER_CONTEXT@@_K@Z 000000018000dc00 f   libvcruntimed:ehstate.obj
 0001:0000ccf0       ?__FuncRelToRealOffset@@YA_KPEAU_xDISPATCHER_CONTEXT@@I@Z 000000018000dcf0 f i libvcruntimed:ehstate.obj
 0001:0000cd20       ?__RVAtoRealOffset@@YA_KPEAU_xDISPATCHER_CONTEXT@@H@Z 000000018000dd20 f i libvcruntimed:ehstate.obj
 0001:0000efc0       ??$TypeMatchHelper@V__FrameHandler3@@@@YAHPEBU_s_HandlerType@@PEBU_s_CatchableType@@PEBU_s_ThrowInfo@@@Z 000000018000ffc0 f i libvcruntimed:frame.obj
 0001:0000f1c0       ??$TypeMatchHelper@V__FrameHandler4@@@@YAHPEAUHandlerType4@FH4@@PEBU_s_CatchableType@@PEBU_s_ThrowInfo@@@Z 00000001800101c0 f i libvcruntimed:frame.obj
 0001:0000f3d0       ??$__InternalCxxFrameHandler@V__FrameHandler3@@@@YA?AW4_EXCEPTION_DISPOSITION@@PEAUEHExceptionRecord@@PEA_KPEAU_CONTEXT@@PEAU_xDISPATCHER_CONTEXT@@PEBU_s_FuncInfo@@H1E@Z 00000001800103d0 f i libvcruntimed:frame.obj
 0001:0000f850       ??$__InternalCxxFrameHandler@V__FrameHandler4@@@@YA?AW4_EXCEPTION_DISPOSITION@@PEAUEHExceptionRecord@@PEA_KPEAU_CONTEXT@@PEAU_xDISPATCHER_CONTEXT@@PEAUFuncInfo4@FH4@@H1E@Z 0000000180010850 f i libvcruntimed:frame.obj
 0001:0000fcf0       ??$__InternalCxxFrameHandlerWrapper@V__FrameHandler3@@@@YA?AW4_EXCEPTION_DISPOSITION@@PEAUEHExceptionRecord@@PEA_KPEAU_CONTEXT@@PEAU_xDISPATCHER_CONTEXT@@PEBU_s_FuncInfo@@H1E@Z 0000000180010cf0 f i libvcruntimed:frame.obj
 0001:0000fd60       ??$__InternalCxxFrameHandlerWrapper@V__FrameHandler4@@@@YA?AW4_EXCEPTION_DISPOSITION@@PEAUEHExceptionRecord@@PEA_KPEAU_CONTEXT@@PEAU_xDISPATCHER_CONTEXT@@PEAUFuncInfo4@FH4@@H1E@Z 0000000180010d60 f i libvcruntimed:frame.obj
 0001:0000fdf0       ??0HandlerMap4@FH4@@QEAA@PEBUTryBlockMapEntry4@1@_KH@Z 0000000180010df0 f i libvcruntimed:frame.obj
 0001:0000fed0       ??0HandlerMap@__FrameHandler3@@QEAA@PEBU_s_TryBlockMapEntry@@_KI@Z 0000000180010ed0 f i libvcruntimed:frame.obj
 0001:0000ff20       ??0HandlerType4@FH4@@QEAA@XZ 0000000180010f20 f i libvcruntimed:frame.obj
 0001:0000ff40       ??0TryBlockMap4@FH4@@QEAA@PEBUFuncInfo4@1@_K@Z 0000000180010f40 f i libvcruntimed:frame.obj
 0001:00010000       ??0TryBlockMap@__FrameHandler3@@QEAA@PEBU_s_FuncInfo@@_K@Z 0000000180011000 f i libvcruntimed:frame.obj
 0001:00010030       ??0UWMap4@FH4@@QEAA@PEBUFuncInfo4@1@_K@Z 0000000180011030 f i libvcruntimed:frame.obj
 0001:000100c0       ??0bad_exception@std@@QEAA@AEBV01@@Z 00000001800110c0 f i libvcruntimed:frame.obj
 0001:00010100       ??0bad_exception@std@@QEAA@XZ 0000000180011100 f i libvcruntimed:frame.obj
 0001:00010140       ??0iterator@HandlerMap4@FH4@@QEAA@AEAV12@I@Z 0000000180011140 f i libvcruntimed:frame.obj
 0001:00010170       ??0iterator@HandlerMap@__FrameHandler3@@QEAA@AEAV12@I@Z 0000000180011170 f i libvcruntimed:frame.obj
 0001:000101a0       ??0iterator@UWMap4@FH4@@QEAA@AEAV12@PEAE@Z 00000001800111a0 f i libvcruntimed:frame.obj
 0001:000101d0       ??1bad_exception@std@@UEAA@XZ 00000001800111d0 f i libvcruntimed:frame.obj
 0001:000101f0       ??4iterator@UWMap4@FH4@@QEAAAEAV012@AEBV012@@Z 00000001800111f0 f i libvcruntimed:frame.obj
 0001:00010240       ??8iterator@HandlerMap4@FH4@@QEBA_NAEBV012@@Z 0000000180011240 f i libvcruntimed:frame.obj
 0001:00010280       ??8iterator@HandlerMap@__FrameHandler3@@QEBA_NAEBV012@@Z 0000000180011280 f i libvcruntimed:frame.obj
 0001:000102c0       ??8type_info@@QEBA_NAEBV0@@Z 00000001800112c0 f i libvcruntimed:frame.obj
 0001:00010340       ??9iterator@HandlerMap4@FH4@@QEBA_NAEBV012@@Z 0000000180011340 f i libvcruntimed:frame.obj
 0001:00010380       ??9iterator@HandlerMap@__FrameHandler3@@QEBA_NAEBV012@@Z 0000000180011380 f i libvcruntimed:frame.obj
 0001:000103c0       ??Diterator@HandlerMap4@FH4@@QEAA?AUHandlerType4@2@XZ 00000001800113c0 f i libvcruntimed:frame.obj
 0001:000103f0       ??Diterator@HandlerMap@__FrameHandler3@@QEAA?BU_s_HandlerType@@XZ 00000001800113f0 f i libvcruntimed:frame.obj
 0001:00010430       ??Diterator@TryBlockMap@__FrameHandler3@@QEAA?BU_s_TryBlockMapEntry@@XZ 0000000180011430 f i libvcruntimed:frame.obj
 0001:00010480       ??Diterator@UWMap4@FH4@@QEAA?AUUnwindMapEntry4@2@XZ 0000000180011480 f i libvcruntimed:frame.obj
 0001:00010500       ??Eiterator@HandlerMap4@FH4@@QEAAAEAV012@XZ 0000000180011500 f i libvcruntimed:frame.obj
 0001:00010540       ??Eiterator@HandlerMap@__FrameHandler3@@QEAAAEAV012@XZ 0000000180011540 f i libvcruntimed:frame.obj
 0001:00010560       ??Eiterator@TryBlockMap@__FrameHandler3@@QEAAAEAV012@XZ 0000000180011560 f i libvcruntimed:frame.obj
 0001:00010580       ??Eiterator@UWMap4@FH4@@QEAAAEAV012@XZ 0000000180011580 f i libvcruntimed:frame.obj
 0001:000105c0       ??Giterator@UWMap4@FH4@@QEBA_JAEBV012@@Z 00000001800115c0 f i libvcruntimed:frame.obj
 0001:000105e0       ??Miterator@TryBlockMap4@FH4@@QEBA_NAEBV012@@Z 00000001800115e0 f i libvcruntimed:frame.obj
 0001:00010620       ??Miterator@TryBlockMap@__FrameHandler3@@QEBA_NAEBV012@@Z 0000000180011620 f i libvcruntimed:frame.obj
 0001:00010660       ??Oiterator@UWMap4@FH4@@QEBA_NAEBV012@@Z 0000000180011660 f i libvcruntimed:frame.obj
 0001:000106a0       ??Piterator@UWMap4@FH4@@QEBA_NAEBV012@@Z 00000001800116a0 f i libvcruntimed:frame.obj
 0001:000106e0       ??_Ebad_exception@std@@UEAAPEAXI@Z 00000001800116e0 f i libvcruntimed:frame.obj
 0001:000106e0       ??_Gbad_exception@std@@UEAAPEAXI@Z 00000001800116e0 f i libvcruntimed:frame.obj
 0001:00010720       ?BuildCatchObject@__FrameHandler3@@SAXPEAUEHExceptionRecord@@PEAXPEBU_s_HandlerType@@PEBU_s_CatchableType@@@Z 0000000180011720 f   libvcruntimed:frame.obj
 0001:00010760       ?BuildCatchObject@__FrameHandler4@@SAXPEAUEHExceptionRecord@@PEAXPEAUHandlerType4@FH4@@PEBU_s_CatchableType@@@Z 0000000180011760 f   libvcruntimed:frame.obj
 0001:000107a0       ?BuildCatchObjectHelper@__FrameHandler3@@SAHPEAUEHExceptionRecord@@PEAXPEBU_s_HandlerType@@PEBU_s_CatchableType@@@Z 00000001800117a0 f   libvcruntimed:frame.obj
 0001:000107e0       ?BuildCatchObjectHelper@__FrameHandler4@@SAHPEAUEHExceptionRecord@@PEAXPEAUHandlerType4@FH4@@PEBU_s_CatchableType@@@Z 00000001800117e0 f   libvcruntimed:frame.obj
 0001:00010820       ?CxxCallCatchBlock@__FrameHandler3@@SAPEAXPEAU_EXCEPTION_RECORD@@@Z 0000000180011820 f   libvcruntimed:frame.obj
 0001:00010a80       ?CxxCallCatchBlock@__FrameHandler4@@SAPEAXPEAU_EXCEPTION_RECORD@@@Z 0000000180011a80 f   libvcruntimed:frame.obj
 0001:00010db0       ?DecompHandler@HandlerMap4@FH4@@AEAAXXZ 0000000180011db0 f i libvcruntimed:frame.obj
 0001:00011180       ?FrameUnwindToState@__FrameHandler3@@SAXPEA_KPEAU_xDISPATCHER_CONTEXT@@PEBU_s_FuncInfo@@H@Z 0000000180012180 f   libvcruntimed:frame.obj
 0001:000113d0       ?FrameUnwindToState@__FrameHandler4@@SAXPEA_KPEAU_xDISPATCHER_CONTEXT@@PEAUFuncInfo4@FH4@@H@Z 00000001800123d0 f   libvcruntimed:frame.obj
 0001:000116f0       ?GetHandlerSearchState@__FrameHandler3@@SAHPEA_KPEAU_xDISPATCHER_CONTEXT@@PEBU_s_FuncInfo@@@Z 00000001800126f0 f i libvcruntimed:frame.obj
 0001:000117a0       ?GetHandlerSearchState@__FrameHandler4@@SAHPEA_KPEAU_xDISPATCHER_CONTEXT@@PEAUFuncInfo4@FH4@@@Z 00000001800127a0 f i libvcruntimed:frame.obj
 0001:00011830       ?GetMaxState@__FrameHandler3@@SAHPEAU_xDISPATCHER_CONTEXT@@PEBU_s_FuncInfo@@@Z 0000000180012830 f i libvcruntimed:frame.obj
 0001:00011850       ?GetMaxState@__FrameHandler4@@SAHPEAU_xDISPATCHER_CONTEXT@@PEAUFuncInfo4@FH4@@@Z 0000000180012850 f i libvcruntimed:frame.obj
 0001:00011a80       ?ReadEntry@UWMap4@FH4@@AEAAXPEAPEAE@Z 0000000180012a80 f i libvcruntimed:frame.obj
 0001:00011b30       ?TypeMatch@__FrameHandler3@@SAHPEBU_s_HandlerType@@PEBU_s_CatchableType@@PEBU_s_ThrowInfo@@@Z 0000000180012b30 f   libvcruntimed:frame.obj
 0001:00011b60       ?TypeMatch@__FrameHandler4@@SAHPEAUHandlerType4@FH4@@PEBU_s_CatchableType@@PEBU_s_ThrowInfo@@@Z 0000000180012b60 f   libvcruntimed:frame.obj
 0001:00011b90       ?WalkBack@UWMap4@FH4@@AEAAXPEAPEAE@Z 0000000180012b90 f i libvcruntimed:frame.obj
 0001:00011be0       ?WalkBack@iterator@UWMap4@FH4@@QEAAXXZ 0000000180012be0 f i libvcruntimed:frame.obj
 0001:00011c20       ?WalkForward@UWMap4@FH4@@AEAAXPEAPEAE@Z 0000000180012c20 f i libvcruntimed:frame.obj
 0001:00011c50       ?_CallMemberFunction1@@YAXQEAX00@Z 0000000180012c50 f i libvcruntimed:frame.obj
 0001:00011c90       ?_CallMemberFunction2@@YAXQEAX00H@Z 0000000180012c90 f i libvcruntimed:frame.obj
 0001:00011d20       ?begin@HandlerMap4@FH4@@QEAA?AViterator@12@XZ 0000000180012d20 f i libvcruntimed:frame.obj
 0001:00011d50       ?begin@HandlerMap@__FrameHandler3@@QEAA?AViterator@12@XZ 0000000180012d50 f i libvcruntimed:frame.obj
 0001:00011d80       ?begin@UWMap4@FH4@@QEAA?AViterator@12@XZ 0000000180012d80 f i libvcruntimed:frame.obj
 0001:00011db0       ?end@HandlerMap4@FH4@@QEAA?AViterator@12@XZ 0000000180012db0 f i libvcruntimed:frame.obj
 0001:00011de0       ?end@HandlerMap@__FrameHandler3@@QEAA?AViterator@12@XZ 0000000180012de0 f i libvcruntimed:frame.obj
 0001:00011e10       ?getESTypes@__FrameHandler3@@SAPEBU_s_ESTypeList@@PEBU_s_FuncInfo@@@Z 0000000180012e10 f i libvcruntimed:frame.obj
 0001:00011e50       ?getESTypes@__FrameHandler4@@SAPEBU_s_ESTypeList@@PEAUFuncInfo4@FH4@@@Z 0000000180012e50 f i libvcruntimed:frame.obj
 0001:00011e60       ?getLastEntry@HandlerMap4@FH4@@QEAAPEAUHandlerType4@2@XZ 0000000180012e60 f i libvcruntimed:frame.obj
 0001:00011ea0       ?getLastEntry@HandlerMap@__FrameHandler3@@QEAAPEBU_s_HandlerType@@XZ 0000000180012ea0 f i libvcruntimed:frame.obj
 0001:00011ec0       ?getMagicNum@__FrameHandler3@@SAIPEBU_s_FuncInfo@@@Z 0000000180012ec0 f i libvcruntimed:frame.obj
 0001:00011ee0       ?getMagicNum@__FrameHandler4@@SAIPEAUFuncInfo4@FH4@@@Z 0000000180012ee0 f i libvcruntimed:frame.obj
 0001:00011ef0       ?getNumTryBlocks@TryBlockMap4@FH4@@QEAAIXZ 0000000180012ef0 f i libvcruntimed:frame.obj
 0001:00011f00       ?getNumTryBlocks@TryBlockMap@__FrameHandler3@@QEAAIXZ 0000000180012f00 f i libvcruntimed:frame.obj
 0001:00011f20       ?getStartStop@UWMap4@FH4@@QEAAXHHAEAViterator@12@0@Z 0000000180012f20 f i libvcruntimed:frame.obj
 0001:00012040       ?getStateFromIterators@UWMap4@FH4@@SAHAEBViterator@12@H0H0@Z 0000000180013040 f i libvcruntimed:frame.obj
 0001:00012180       ?isEHs@__FrameHandler3@@SA_NPEBU_s_FuncInfo@@@Z 0000000180013180 f i libvcruntimed:frame.obj
 0001:000121c0       ?isEHs@__FrameHandler4@@SA_NPEAUFuncInfo4@FH4@@@Z 00000001800131c0 f i libvcruntimed:frame.obj
 0001:000121e0       ?isNoExcept@__FrameHandler3@@SA_NPEBU_s_FuncInfo@@@Z 00000001800131e0 f i libvcruntimed:frame.obj
 0001:00012220       ?isNoExcept@__FrameHandler4@@SA_NPEAUFuncInfo4@FH4@@@Z 0000000180013220 f i libvcruntimed:frame.obj
 0001:00012240       ?reset@HandlerType4@FH4@@QEAAXXZ 0000000180013240 f i libvcruntimed:frame.obj
 0001:000122a0       ?resetBuffer@HandlerMap4@FH4@@QEAAXXZ 00000001800132a0 f i libvcruntimed:frame.obj
 0001:000122c0       ?setBuffer@HandlerMap4@FH4@@QEAAXI@Z 00000001800132c0 f i libvcruntimed:frame.obj
 0001:00012320       __BuildCatchObject         0000000180013320 f   libvcruntimed:frame.obj
 0001:00012360       __BuildCatchObjectHelper   0000000180013360 f   libvcruntimed:frame.obj
 0001:000123a0       __TypeMatch                00000001800133a0 f   libvcruntimed:frame.obj
 0001:000123d0       __vcrt_EncodePointer       00000001800133d0 f i libvcruntimed:frame.obj
 0001:00012420       _NLG_Notify                0000000180013420 f   libvcruntimed:notify.obj
 0001:00012440       __NLG_Dispatch2            0000000180013440 f   libvcruntimed:notify.obj
 0001:00012450       __NLG_Return2              0000000180013450 f   libvcruntimed:notify.obj
 0001:00012470       __except_validate_context_record 0000000180013470 f   libvcruntimed:jbcxrval.obj
 0001:000124d0       __except_validate_jump_buffer 00000001800134d0 f   libvcruntimed:jbcxrval.obj
 0001:000124f0       __except_validate_jump_buffer_common 00000001800134f0 f i libvcruntimed:jbcxrval.obj
 0001:00012570       __vcrt_initialize_locks    0000000180013570 f   libvcruntimed:locks.obj
 0001:000125e0       __vcrt_lock                00000001800135e0 f   libvcruntimed:locks.obj
 0001:00012610       __vcrt_uninitialize_locks  0000000180013610 f   libvcruntimed:locks.obj
 0001:00012670       __vcrt_unlock              0000000180013670 f   libvcruntimed:locks.obj
 0001:000126a0       ??$?0$00@DName@@QEAA@PEBDU?$StringLifeSelector@$00@@@Z 00000001800136a0 f i libvcruntimed:undname.obj
 0001:00012710       ??$?0$00@pcharNode@@QEAA@PEBDHU?$StringLifeSelector@$00@@@Z 0000000180013710 f i libvcruntimed:undname.obj
 0001:00012770       ??$?0$01@DName@@QEAA@PEBDU?$StringLifeSelector@$01@@@Z 0000000180013770 f i libvcruntimed:undname.obj
 0001:000127e0       ??$?0$01@pcharNode@@QEAA@PEBDHU?$StringLifeSelector@$01@@@Z 00000001800137e0 f i libvcruntimed:undname.obj
 0001:00012890       ??$?0$0A@@DName@@QEAA@PEBDU?$StringLifeSelector@$0A@@@@Z 0000000180013890 f i libvcruntimed:undname.obj
 0001:00012900       ??$?0$0A@@pcharNode@@QEAA@PEBDHU?$StringLifeSelector@$0A@@@@Z 0000000180013900 f i libvcruntimed:undname.obj
 0001:000129b0       ??$?0_K$0A@@?$optional@_K@std@@QEAA@$$QEA_K@Z 00000001800139b0 f i libvcruntimed:undname.obj
 0001:000129e0       ??$?0_K@?$_Optional_construct_base@_K@std@@QEAA@Uin_place_t@1@$$QEA_K@Z 00000001800139e0 f i libvcruntimed:undname.obj
 0001:00012a20       ??$?0_K@?$_Optional_destruct_base@_K$00@std@@QEAA@Uin_place_t@1@$$QEA_K@Z 0000000180013a20 f i libvcruntimed:undname.obj
 0001:00012a50       ??$append@VDNameNode@@@DName@@AEAAXPEBVDNameNode@@@Z 0000000180013a50 f i libvcruntimed:undname.obj
 0001:00012b00       ??$append@VDNameStatusNode@@@DName@@AEAAXPEBVDNameStatusNode@@@Z 0000000180013b00 f i libvcruntimed:undname.obj
 0001:00012bb0       ??$append@VcharNode@@@DName@@AEAAXPEBVcharNode@@@Z 0000000180013bb0 f i libvcruntimed:undname.obj
 0001:00012c60       ??$append@VpDNameNode@@@DName@@AEAAXPEBVpDNameNode@@@Z 0000000180013c60 f i libvcruntimed:undname.obj
 0001:00012d10       ??$append@VpcharNode@@@DName@@AEAAXPEBVpcharNode@@@Z 0000000180013d10 f i libvcruntimed:undname.obj
 0001:00012dc0       ??$doPchar@$00@DName@@AEAAXPEBDH@Z 0000000180013dc0 f i libvcruntimed:undname.obj
 0001:00012f20       ??$doPchar@$01@DName@@AEAAXPEBDH@Z 0000000180013f20 f i libvcruntimed:undname.obj
 0001:00013080       ??$doPchar@$0A@@DName@@AEAAXPEBDH@Z 0000000180014080 f i libvcruntimed:undname.obj
 0001:00013360       ??0?$_Optional_construct_base@_K@std@@QEAA@XZ 0000000180014360 f i libvcruntimed:undname.obj
 0001:00013380       ??0?$_Optional_destruct_base@_K$00@std@@QEAA@XZ 0000000180014380 f i libvcruntimed:undname.obj
 0001:000133b0       ??0?$optional@_K@std@@QEAA@XZ 00000001800143b0 f i libvcruntimed:undname.obj
 0001:000133d0       ??0Block@_HeapManager@@QEAA@XZ 00000001800143d0 f i libvcruntimed:undname.obj
 0001:000133f0       ??0DName@@QEAA@AEAPEBDD@Z  00000001800143f0 f   libvcruntimed:undname.obj
 0001:000135c0       ??0DName@@QEAA@AEBUStringLiteral@@@Z 00000001800145c0 f   libvcruntimed:undname.obj
 0001:00013620       ??0DName@@QEAA@AEBV0@@Z    0000000180014620 f i libvcruntimed:undname.obj
 0001:00013650       ??0DName@@QEAA@D@Z         0000000180014650 f   libvcruntimed:undname.obj
 0001:00013690       ??0DName@@QEAA@PEAV0@@Z    0000000180014690 f   libvcruntimed:undname.obj
 0001:00013770       ??0DName@@QEAA@W4DNameStatus@@@Z 0000000180014770 f   libvcruntimed:undname.obj
 0001:00013820       ??0DName@@QEAA@XZ          0000000180014820 f i libvcruntimed:undname.obj
 0001:00013850       ??0DName@@QEAA@_J@Z        0000000180014850 f   libvcruntimed:undname.obj
 0001:00013960       ??0DName@@QEAA@_K@Z        0000000180014960 f   libvcruntimed:undname.obj
 0001:00013a30       ??0DNameNode@@IEAA@XZ      0000000180014a30 f i libvcruntimed:undname.obj
 0001:00013a50       ??0Replicator@@QEAA@XZ     0000000180014a50 f i libvcruntimed:undname.obj
 0001:00013aa0       ??0UnDecorator@@QEAA@PEBDP6APEADJ@ZK@Z 0000000180014aa0 f i libvcruntimed:undname.obj
 0001:00013b50       ??0_Nontrivial_dummy_type@std@@QEAA@XZ 0000000180014b50 f i libvcruntimed:undname.obj
 0001:00013b60       ??0charNode@@QEAA@D@Z      0000000180014b60 f i libvcruntimed:undname.obj
 0001:00013ba0       ??0pDNameNode@@QEAA@PEAVDName@@@Z 0000000180014ba0 f   libvcruntimed:undname.obj
 0001:00013c20       ??0pairNode@@QEAA@PEBVDNameNode@@0@Z 0000000180014c20 f i libvcruntimed:undname.obj
 0001:00013ca0       ??2@YAPEAX_KAEAV_HeapManager@@H@Z 0000000180014ca0 f   libvcruntimed:undname.obj
 0001:00013d00       ??4DName@@QEAAAEAV0@AEBUStringLiteral@@@Z 0000000180014d00 f   libvcruntimed:undname.obj
 0001:00013d50       ??4DName@@QEAAAEAV0@AEBV0@@Z 0000000180014d50 f   libvcruntimed:undname.obj
 0001:00013d80       ??4DName@@QEAAAEAV0@D@Z    0000000180014d80 f i libvcruntimed:undname.obj
 0001:00013dc0       ??4DName@@QEAAAEAV0@PEAV0@@Z 0000000180014dc0 f   libvcruntimed:undname.obj
 0001:00013e90       ??4DName@@QEAAAEAV0@W4DNameStatus@@@Z 0000000180014e90 f   libvcruntimed:undname.obj
 0001:00013f20       ??AReplicator@@QEBA?AVDName@@H@Z 0000000180014f20 f   libvcruntimed:undname.obj
 0001:00013fb0       ??B?$optional@_K@std@@QEBA_NXZ 0000000180014fb0 f i libvcruntimed:undname.obj
 0001:00013fc0       ??D?$_Optional_construct_base@_K@std@@QEGAAAEA_KXZ 0000000180014fc0 f i libvcruntimed:undname.obj
 0001:00014060       ??H@YA?AVDName@@AEBUStringLiteral@@AEBV0@@Z 0000000180015060 f i libvcruntimed:undname.obj
 0001:000140b0       ??H@YA?AVDName@@DAEBV0@@Z  00000001800150b0 f i libvcruntimed:undname.obj
 0001:00014100       ??H@YA?AVDName@@W4DNameStatus@@AEBV0@@Z 0000000180015100 f i libvcruntimed:undname.obj
 0001:00014150       ??HDName@@QEBA?AV0@AEBUStringLiteral@@@Z 0000000180015150 f   libvcruntimed:undname.obj
 0001:00014190       ??HDName@@QEBA?AV0@AEBV0@@Z 0000000180015190 f   libvcruntimed:undname.obj
 0001:000141d0       ??HDName@@QEBA?AV0@D@Z     00000001800151d0 f   libvcruntimed:undname.obj
 0001:00014210       ??HDName@@QEBA?AV0@PEAV0@@Z 0000000180015210 f   libvcruntimed:undname.obj
 0001:00014250       ??HDName@@QEBA?AV0@W4DNameStatus@@@Z 0000000180015250 f   libvcruntimed:undname.obj
 0001:00014290       ??HStringLiteral@@QEBA?AU0@H@Z 0000000180015290 f i libvcruntimed:undname.obj
 0001:000142d0       ??YDName@@QEAAAEAV0@AEBUStringLiteral@@@Z 00000001800152d0 f   libvcruntimed:undname.obj
 0001:000143a0       ??YDName@@QEAAAEAV0@AEBV0@@Z 00000001800153a0 f   libvcruntimed:undname.obj
 0001:00014460       ??YDName@@QEAAAEAV0@D@Z    0000000180015460 f   libvcruntimed:undname.obj
 0001:00014500       ??YDName@@QEAAAEAV0@PEAV0@@Z 0000000180015500 f   libvcruntimed:undname.obj
 0001:000145e0       ??YDName@@QEAAAEAV0@W4DNameStatus@@@Z 00000001800155e0 f   libvcruntimed:undname.obj
 0001:00014660       ??YReplicator@@QEAAAEAV0@AEBVDName@@@Z 0000000180015660 f   libvcruntimed:undname.obj
 0001:00014720       ??_5DName@@QEAAAEAV0@AEBV0@@Z 0000000180015720 f   libvcruntimed:undname.obj
 0001:000147a0       ??__K_l@@YA?AUStringLiteral@@PEBD_K@Z 00000001800157a0 f i libvcruntimed:undname.obj
 0001:000147d0       ?Constructor@_HeapManager@@QEAAXP6APEAX_K@ZP6AXPEAX@Z@Z 00000001800157d0 f i libvcruntimed:undname.obj
 0001:00014830       ?Destructor@_HeapManager@@QEAAXXZ 0000000180015830 f i libvcruntimed:undname.obj
 0001:000148d0       ?UScore@UnDecorator@@SA?AUStringLiteral@@W4Tokens@@@Z 00000001800158d0 f   libvcruntimed:undname.obj
 0001:00014960       ?composeDeclaration@UnDecorator@@CA?AVDName@@AEBV2@@Z 0000000180015960 f i libvcruntimed:undname.obj
 0001:00016ed0       ?doAccessSpecifiers@UnDecorator@@SAHXZ 0000000180017ed0 f i libvcruntimed:undname.obj
 0001:00016f00       ?doAllocationLanguage@UnDecorator@@SAHXZ 0000000180017f00 f i libvcruntimed:undname.obj
 0001:00016f30       ?doAllocationModel@UnDecorator@@SAHXZ 0000000180017f30 f i libvcruntimed:undname.obj
 0001:00016f60       ?doEcsu@UnDecorator@@SAHXZ 0000000180017f60 f i libvcruntimed:undname.obj
 0001:00016f90       ?doEllipsis@UnDecorator@@SAHXZ 0000000180017f90 f i libvcruntimed:undname.obj
 0001:00016fc0       ?doFunctionReturns@UnDecorator@@SAHXZ 0000000180017fc0 f i libvcruntimed:undname.obj
 0001:00016ff0       ?doMSKeywords@UnDecorator@@SAHXZ 0000000180017ff0 f i libvcruntimed:undname.obj
 0001:00017020       ?doMemberTypes@UnDecorator@@SAHXZ 0000000180018020 f i libvcruntimed:undname.obj
 0001:00017050       ?doNameOnly@UnDecorator@@SAHXZ 0000000180018050 f i libvcruntimed:undname.obj
 0001:00017060       ?doNoIdentCharCheck@UnDecorator@@SAHXZ 0000000180018060 f i libvcruntimed:undname.obj
 0001:00017070       ?doPchar@DName@@AEAAXD@Z   0000000180018070 f   libvcruntimed:undname.obj
 0001:00017100       ?doPtr64@UnDecorator@@SAHXZ 0000000180018100 f i libvcruntimed:undname.obj
 0001:00017130       ?doRestrictionSpec@UnDecorator@@SAHXZ 0000000180018130 f i libvcruntimed:undname.obj
 0001:00017160       ?doThisTypes@UnDecorator@@SAHXZ 0000000180018160 f i libvcruntimed:undname.obj
 0001:00017190       ?doThrowTypes@UnDecorator@@SAHXZ 0000000180018190 f i libvcruntimed:undname.obj
 0001:000171c0       ?doTypeOnly@UnDecorator@@SAHXZ 00000001800181c0 f i libvcruntimed:undname.obj
 0001:000171d0       ?doUnderScore@UnDecorator@@SAHXZ 00000001800181d0 f i libvcruntimed:undname.obj
 0001:00017200       ?getAddressOf@UnDecorator@@CA?AVDName@@XZ 0000000180018200 f   libvcruntimed:undname.obj
 0001:000172a0       ?getArgumentList@UnDecorator@@CA?AVDName@@XZ 00000001800182a0 f   libvcruntimed:undname.obj
 0001:00017430       ?getArgumentTypes@UnDecorator@@CA?AVDName@@XZ 0000000180018430 f   libvcruntimed:undname.obj
 0001:000176e0       ?getArrayAccess@UnDecorator@@CA?AVDName@@XZ 00000001800186e0 f   libvcruntimed:undname.obj
 0001:00017790       ?getArrayObject@UnDecorator@@CA?AVDName@@XZ 0000000180018790 f   libvcruntimed:undname.obj
 0001:000178c0       ?getArrayType@UnDecorator@@CA?AVDName@@AEBV2@@Z 00000001800188c0 f i libvcruntimed:undname.obj
 0001:00017c80       ?getBasedType@UnDecorator@@CA?AVDName@@XZ 0000000180018c80 f   libvcruntimed:undname.obj
 0001:00017dd0       ?getBasicDataType@UnDecorator@@CA?AVDName@@AEBV2@@Z 0000000180018dd0 f   libvcruntimed:undname.obj
 0001:00018be0       ?getCHPEName@UnDecorator@@QEAAPEADPEADH@Z 0000000180019be0 f i libvcruntimed:undname.obj
 0001:00018db0       ?getCallIndex@UnDecorator@@CA?AVDName@@XZ 0000000180019db0 f i libvcruntimed:undname.obj
 0001:00018dd0       ?getCallingConvention@UnDecorator@@CA?AVDName@@XZ 0000000180019dd0 f   libvcruntimed:undname.obj
 0001:000191a0       ?getDataIndirectType@UnDecorator@@CA?AVDName@@AEBV2@W4IndirectionKind@@0H@Z 000000018001a1a0 f   libvcruntimed:undname.obj
 0001:00019e60       ?getDataIndirectType@UnDecorator@@CA?AVDName@@XZ 000000018001ae60 f i libvcruntimed:undname.obj
 0001:00019ec0       ?getDataType@UnDecorator@@CA?AVDName@@PEAV2@@Z 000000018001aec0 f   libvcruntimed:undname.obj
 0001:0001a070       ?getDecoratedName@UnDecorator@@CA?AVDName@@XZ 000000018001b070 f   libvcruntimed:undname.obj
 0001:0001a550       ?getDimension@UnDecorator@@CA?AVDName@@_N@Z 000000018001b550 f   libvcruntimed:undname.obj
 0001:0001a810       ?getDispatchTarget@UnDecorator@@CA?AVDName@@XZ 000000018001b810 f   libvcruntimed:undname.obj
 0001:0001a8b0       ?getDisplacement@UnDecorator@@CA?AVDName@@XZ 000000018001b8b0 f i libvcruntimed:undname.obj
 0001:0001a8d0       ?getECSUDataType@UnDecorator@@CA?AVDName@@XZ 000000018001b8d0 f   libvcruntimed:undname.obj
 0001:0001ad00       ?getECSUName@UnDecorator@@CA?AVDName@@XZ 000000018001bd00 f i libvcruntimed:undname.obj
 0001:0001ad20       ?getEnumType@UnDecorator@@CA?AVDName@@XZ 000000018001bd20 f i libvcruntimed:undname.obj
 0001:0001af90       ?getExtendedDataIndirectType@UnDecorator@@CA?AVDName@@AEAW4IndirectionKind@@AEA_NH@Z 000000018001bf90 f   libvcruntimed:undname.obj
 0001:0001b2f0       ?getExternalDataType@UnDecorator@@CA?AVDName@@AEBV2@@Z 000000018001c2f0 f i libvcruntimed:undname.obj
 0001:0001b3c0       ?getFloatingPoint@UnDecorator@@CA?AVDName@@H@Z 000000018001c3c0 f   libvcruntimed:undname.obj
 0001:0001b540       ?getFunctionIndirectType@UnDecorator@@CA?AVDName@@AEBV2@@Z 000000018001c540 f   libvcruntimed:undname.obj
 0001:0001bb40       ?getGuardNumber@UnDecorator@@CA?AVDName@@XZ 000000018001cb40 f i libvcruntimed:undname.obj
 0001:0001bb60       ?getLastChar@DName@@QEBADXZ 000000018001cb60 f i libvcruntimed:undname.obj
 0001:0001bbb0       ?getLastChar@DNameStatusNode@@UEBADXZ 000000018001cbb0 f i libvcruntimed:undname.obj
 0001:0001bbf0       ?getLastChar@charNode@@UEBADXZ 000000018001cbf0 f i libvcruntimed:undname.obj
 0001:0001bc00       ?getLastChar@pDNameNode@@UEBADXZ 000000018001cc00 f i libvcruntimed:undname.obj
 0001:0001bc40       ?getLastChar@pairNode@@UEBADXZ 000000018001cc40 f i libvcruntimed:undname.obj
 0001:0001bcc0       ?getLastChar@pcharNode@@UEBADXZ 000000018001ccc0 f i libvcruntimed:undname.obj
 0001:0001bd00       ?getLexicalFrame@UnDecorator@@CA?AVDName@@XZ 000000018001cd00 f i libvcruntimed:undname.obj
 0001:0001bd50       ?getMemberAccess@UnDecorator@@CA?AVDName@@XZ 000000018001cd50 f   libvcruntimed:undname.obj
 0001:0001be00       ?getMemoryWithBuffer@_HeapManager@@QEAAPEAX_K@Z 000000018001ce00 f   libvcruntimed:undname.obj
 0001:0001bf50       ?getMemoryWithoutBuffer@_HeapManager@@QEAAPEAX_K@Z 000000018001cf50 f   libvcruntimed:undname.obj
 0001:0001bfa0       ?getNoexcept@UnDecorator@@CA?AVDName@@XZ 000000018001cfa0 f   libvcruntimed:undname.obj
 0001:0001c030       ?getNumberOfDimensions@UnDecorator@@CAHXZ 000000018001d030 f   libvcruntimed:undname.obj
 0001:0001c100       ?getOperatorName@UnDecorator@@CA?AVDName@@_NPEA_N@Z 000000018001d100 f i libvcruntimed:undname.obj
 0001:0001cfe0       ?getPointerToMember@UnDecorator@@CA?AVDName@@XZ 000000018001dfe0 f   libvcruntimed:undname.obj
 0001:0001d110       ?getPointerType@UnDecorator@@CA?AVDName@@AEBV2@0@Z 000000018001e110 f i libvcruntimed:undname.obj
 0001:0001d150       ?getPointerTypeArray@UnDecorator@@CA?AVDName@@AEBV2@0@Z 000000018001e150 f i libvcruntimed:undname.obj
 0001:0001d190       ?getPrimaryDataType@UnDecorator@@CA?AVDName@@AEBV2@@Z 000000018001e190 f   libvcruntimed:undname.obj
 0001:0001d750       ?getPtrRefDataType@UnDecorator@@CA?AVDName@@AEBV2@H@Z 000000018001e750 f   libvcruntimed:undname.obj
 0001:0001db20       ?getPtrRefType@UnDecorator@@CA?AVDName@@AEBV2@0W4IndirectionKind@@@Z 000000018001eb20 f   libvcruntimed:undname.obj
 0001:0001dd60       ?getReferenceType@UnDecorator@@CA?AVDName@@AEBV2@0W4IndirectionKind@@@Z 000000018001ed60 f i libvcruntimed:undname.obj
 0001:0001dda0       ?getRestrictionSpec@UnDecorator@@CA?AVDName@@XZ 000000018001eda0 f   libvcruntimed:undname.obj
 0001:0001e000       ?getReturnType@UnDecorator@@CA?AVDName@@PEAV2@@Z 000000018001f000 f   libvcruntimed:undname.obj
 0001:0001e060       ?getScope@UnDecorator@@CA?AVDName@@XZ 000000018001f060 f   libvcruntimed:undname.obj
 0001:0001e7b0       ?getScopedName@UnDecorator@@CA?AVDName@@XZ 000000018001f7b0 f   libvcruntimed:undname.obj
 0001:0001e9b0       ?getSignedDimension@UnDecorator@@CA?AVDName@@XZ 000000018001f9b0 f   libvcruntimed:undname.obj
 0001:0001ea30       ?getStorageConvention@UnDecorator@@CA?AVDName@@XZ 000000018001fa30 f i libvcruntimed:undname.obj
 0001:0001ea50       ?getString@DName@@QEBAPEADPEAD0@Z 000000018001fa50 f i libvcruntimed:undname.obj
 0001:0001ead0       ?getString@DName@@QEBAPEADPEADH@Z 000000018001fad0 f i libvcruntimed:undname.obj
 0001:0001eb90       ?getString@DNameStatusNode@@UEBAPEADPEAD0@Z 000000018001fb90 f i libvcruntimed:undname.obj
 0001:0001ebe0       ?getString@charNode@@UEBAPEADPEAD0@Z 000000018001fbe0 f i libvcruntimed:undname.obj
 0001:0001ec20       ?getString@pDNameNode@@UEBAPEADPEAD0@Z 000000018001fc20 f i libvcruntimed:undname.obj
 0001:0001ec80       ?getString@pairNode@@UEBAPEADPEAD0@Z 000000018001fc80 f i libvcruntimed:undname.obj
 0001:0001ed50       ?getString@pcharNode@@UEBAPEADPEAD0@Z 000000018001fd50 f i libvcruntimed:undname.obj
 0001:0001ed90       ?getStringEncoding@UnDecorator@@CA?AVDName@@W4PrefixKind@@H@Z 000000018001fd90 f   libvcruntimed:undname.obj
 0001:0001eec0       ?getStringHelper@@YAPEADPEADPEBD1H@Z 000000018001fec0 f i libvcruntimed:undname.obj
 0001:0001ef30       ?getStringObject@UnDecorator@@CA?AVDName@@XZ 000000018001ff30 f   libvcruntimed:undname.obj
 0001:0001efe0       ?getSymbolName@UnDecorator@@CA?AVDName@@XZ 000000018001ffe0 f i libvcruntimed:undname.obj
 0001:0001f070       ?getTemplateArgumentList@UnDecorator@@CA?AVDName@@XZ 0000000180020070 f   libvcruntimed:undname.obj
 0001:0001f380       ?getTemplateName@UnDecorator@@CA?AVDName@@_N@Z 0000000180020380 f   libvcruntimed:undname.obj
 0001:0001f5a0       ?getTemplateNonTypeArgument@UnDecorator@@CA?AVDName@@XZ 00000001800205a0 f   libvcruntimed:undname.obj
 0001:0001fe20       ?getTemplateTypeArgument@UnDecorator@@CA?AVDName@@XZ 0000000180020e20 f   libvcruntimed:undname.obj
 0001:000200a0       ?getThisType@UnDecorator@@CA?AVDName@@XZ 00000001800210a0 f i libvcruntimed:undname.obj
 0001:00020100       ?getThrowTypes@UnDecorator@@CA?AVDName@@XZ 0000000180021100 f   libvcruntimed:undname.obj
 0001:00020140       ?getTypeEncoding@UnDecorator@@CAHXZ 0000000180021140 f i libvcruntimed:undname.obj
 0001:00020d10       ?getUndecoratedName@UnDecorator@@QEAAPEADPEADH@Z 0000000180021d10 f i libvcruntimed:undname.obj
 0001:00020f00       ?getUnionObject@UnDecorator@@CA?AVDName@@XZ 0000000180021f00 f   libvcruntimed:undname.obj
 0001:00021010       ?getVCallThunkType@UnDecorator@@CA?AVDName@@XZ 0000000180022010 f i libvcruntimed:undname.obj
 0001:000210b0       ?getValue@UnDecorator@@CA?AV?$optional@_K@std@@XZ 00000001800220b0 f   libvcruntimed:undname.obj
 0001:00021180       ?getValueObject@UnDecorator@@CA?AVDName@@XZ 0000000180022180 f   libvcruntimed:undname.obj
 0001:000213d0       ?getVbTableType@UnDecorator@@CA?AVDName@@AEBV2@@Z 00000001800223d0 f i libvcruntimed:undname.obj
 0001:00021400       ?getVdispMapType@UnDecorator@@CA?AVDName@@AEBV2@@Z 0000000180022400 f i libvcruntimed:undname.obj
 0001:000214a0       ?getVfTableType@UnDecorator@@CA?AVDName@@AEBV2@@Z 00000001800224a0 f i libvcruntimed:undname.obj
 0001:00021750       ?getZName@UnDecorator@@CA?AVDName@@_N0@Z 0000000180022750 f   libvcruntimed:undname.obj
 0001:00021b90       ?get_current_character_and_increment_buffer@UnDecorator@@CADXZ 0000000180022b90 f i libvcruntimed:undname.obj
 0001:00021bd0       ?haveTemplateParameters@UnDecorator@@SAHXZ 0000000180022bd0 f i libvcruntimed:undname.obj
 0001:00021be0       ?increment_buffer@UnDecorator@@CA_N_K@Z 0000000180022be0 f i libvcruntimed:undname.obj
 0001:00021c40       ?increment_buffer_no_check@UnDecorator@@CAXXZ 0000000180022c40 f i libvcruntimed:undname.obj
 0001:00021c60       ?increment_buffer_no_check@UnDecorator@@CAX_K@Z 0000000180022c60 f i libvcruntimed:undname.obj
 0001:00021cb0       ?isArray@DName@@QEBAHXZ    0000000180022cb0 f i libvcruntimed:undname.obj
 0001:00021cd0       ?isComArray@DName@@QEBAHXZ 0000000180022cd0 f i libvcruntimed:undname.obj
 0001:00021cf0       ?isEmpty@DName@@QEBAHXZ    0000000180022cf0 f i libvcruntimed:undname.obj
 0001:00021d20       ?isFull@Replicator@@QEBAHXZ 0000000180022d20 f i libvcruntimed:undname.obj
 0001:00021d50       ?isNoTE@DName@@QEBAHXZ     0000000180022d50 f i libvcruntimed:undname.obj
 0001:00021d70       ?isPinPtr@DName@@QEBAHXZ   0000000180022d70 f i libvcruntimed:undname.obj
 0001:00021d90       ?isPtrRef@DName@@QEBAHXZ   0000000180022d90 f i libvcruntimed:undname.obj
 0001:00021db0       ?isUDC@DName@@QEBAHXZ      0000000180022db0 f i libvcruntimed:undname.obj
 0001:00021e00       ?isUDTThunk@DName@@QEBAHXZ 0000000180022e00 f i libvcruntimed:undname.obj
 0001:00021e50       ?isVCallThunk@DName@@QEBAHXZ 0000000180022e50 f i libvcruntimed:undname.obj
 0001:00021e70       ?isValid@DName@@QEBAHXZ    0000000180022e70 f i libvcruntimed:undname.obj
 0001:00021eb0       ?length@DName@@QEBAHXZ     0000000180022eb0 f i libvcruntimed:undname.obj
 0001:00021f00       ?length@DNameStatusNode@@UEBAHXZ 0000000180022f00 f i libvcruntimed:undname.obj
 0001:00021f10       ?length@charNode@@UEBAHXZ  0000000180022f10 f i libvcruntimed:undname.obj
 0001:00021f20       ?length@pDNameNode@@UEBAHXZ 0000000180022f20 f i libvcruntimed:undname.obj
 0001:00021f60       ?length@pairNode@@UEBAHXZ  0000000180022f60 f i libvcruntimed:undname.obj
 0001:00021ff0       ?length@pcharNode@@UEBAHXZ 0000000180022ff0 f i libvcruntimed:undname.obj
 0001:00022000       ?make@DNameStatusNode@@SAPEBV1@W4DNameStatus@@@Z 0000000180023000 f i libvcruntimed:undname.obj
 0001:00022050       ?parseDecoratedName@UnDecorator@@CA?AVDName@@XZ 0000000180023050 f   libvcruntimed:undname.obj
 0001:00022250       ?raw_length@DNameStatusNode@@UEBAHXZ 0000000180023250 f i libvcruntimed:undname.obj
 0001:00022270       ?raw_length@charNode@@UEBAHXZ 0000000180023270 f i libvcruntimed:undname.obj
 0001:00022290       ?raw_length@pDNameNode@@UEBAHXZ 0000000180023290 f i libvcruntimed:undname.obj
 0001:000222a0       ?raw_length@pairNode@@UEBAHXZ 00000001800232a0 f i libvcruntimed:undname.obj
 0001:000222b0       ?raw_length@pcharNode@@UEBAHXZ 00000001800232b0 f i libvcruntimed:undname.obj
 0001:000222d0       ?setIsArray@DName@@QEAAXXZ 00000001800232d0 f i libvcruntimed:undname.obj
 0001:000222f0       ?setIsComArray@DName@@QEAAXXZ 00000001800232f0 f i libvcruntimed:undname.obj
 0001:00022310       ?setIsNoTE@DName@@QEAAXXZ  0000000180023310 f i libvcruntimed:undname.obj
 0001:00022330       ?setIsPinPtr@DName@@QEAAXXZ 0000000180023330 f i libvcruntimed:undname.obj
 0001:00022350       ?setIsUDC@DName@@QEAAXXZ   0000000180023350 f i libvcruntimed:undname.obj
 0001:00022380       ?setIsVCallThunk@DName@@QEAAXXZ 0000000180023380 f i libvcruntimed:undname.obj
 0001:000223a0       ?setPtrRef@DName@@QEAAAEAV1@XZ 00000001800233a0 f i libvcruntimed:undname.obj
 0001:000223c0       ?status@DName@@QEBA?AW4DNameStatus@@XZ 00000001800233c0 f i libvcruntimed:undname.obj
 0001:000224f0       __unDName                  00000001800234f0 f   libvcruntimed:undname.obj
 0001:00022550       __unDNameEx                0000000180023550 f   libvcruntimed:undname.obj
 0001:00022610       _vsprintf_s_l              0000000180023610 f i libvcruntimed:undname.obj
 0001:00022680       snprintf                   0000000180023680 f i libvcruntimed:undname.obj
 0001:000226e0       sprintf_s                  00000001800236e0 f i libvcruntimed:undname.obj
 0001:00022740       unDNameGenerateCHPE        0000000180023740 f   libvcruntimed:undname.obj
 0001:000227f0       vsnprintf                  00000001800237f0 f i libvcruntimed:undname.obj
 0001:00022870       ??$__crt_interlocked_exchange_pointer@UHINSTANCE__@@PEAU1@@@YAPEAUHINSTANCE__@@PEDSEAU0@QEAU0@@Z 0000000180023870 f i libvcruntimed:winapi_downlevel.obj
 0001:00022890       ??$__crt_interlocked_exchange_pointer@UHINSTANCE__@@PEAX@@YAPEAUHINSTANCE__@@PEDSEAU0@QEAX@Z 0000000180023890 f i libvcruntimed:winapi_downlevel.obj
 0001:000228b0       ??$__crt_interlocked_exchange_pointer@XPEAX@@YAPEAXPEDSEAXQEAX@Z 00000001800238b0 f i libvcruntimed:winapi_downlevel.obj
 0001:000228d0       ??$__crt_interlocked_read_pointer@UHINSTANCE__@@@@YAPEAUHINSTANCE__@@PEDSEAU0@@Z 00000001800238d0 f i libvcruntimed:winapi_downlevel.obj
 0001:000228f0       ??$__crt_interlocked_read_pointer@X@@YAPEAXPEDSEAX@Z 00000001800238f0 f i libvcruntimed:winapi_downlevel.obj
 0001:00022e00       __vcrt_FlsAlloc            0000000180023e00 f   libvcruntimed:winapi_downlevel.obj
 0001:00022e50       __vcrt_FlsFree             0000000180023e50 f   libvcruntimed:winapi_downlevel.obj
 0001:00022ea0       __vcrt_FlsGetValue         0000000180023ea0 f   libvcruntimed:winapi_downlevel.obj
 0001:00022ef0       __vcrt_FlsSetValue         0000000180023ef0 f   libvcruntimed:winapi_downlevel.obj
 0001:00022f50       __vcrt_InitializeCriticalSectionEx 0000000180023f50 f   libvcruntimed:winapi_downlevel.obj
 0001:00023000       _CallSettingFrame          0000000180024000 f   libvcruntimed:handlers.obj
 0001:00023040       _CallSettingFrame_LookupContinuationIndex 0000000180024040 f   libvcruntimed:handlers.obj
 0001:00023070       _CallSettingFrame_NotifyContinuationAddr 0000000180024070 f   libvcruntimed:handlers.obj
 0001:000230a0       _CallSettingFrameEncoded   00000001800240a0 f   libvcruntimed:handlers.obj
 0001:000230f0       ??$?0AEBV?$stream_output_adapter@D@__crt_stdio_output@@AEB_KAEBQEBDAEAV__crt_cached_ptd_host@@AEBQEAD@?$format_validation_base@DV?$stream_output_adapter@D@__crt_stdio_output@@@__crt_stdio_output@@IEAA@AEBV?$stream_output_adapter@D@1@AEB_KAEBQEBDAEAV__crt_cached_ptd_host@@AEBQEAD@Z 00000001800240f0 f i libucrtd:output.obj
 0001:00023140       ??$?0AEBV?$stream_output_adapter@D@__crt_stdio_output@@AEB_KAEBQEBDAEAV__crt_cached_ptd_host@@AEBQEAD@?$positional_parameter_base@DV?$stream_output_adapter@D@__crt_stdio_output@@@__crt_stdio_output@@IEAA@AEBV?$stream_output_adapter@D@1@AEB_KAEBQEBDAEAV__crt_cached_ptd_host@@AEBQEAD@Z 0000000180024140 f i libucrtd:output.obj
 0001:000231e0       ??$?0AEBV?$stream_output_adapter@D@__crt_stdio_output@@AEB_KAEBQEBDAEAV__crt_cached_ptd_host@@AEBQEAD@?$standard_base@DV?$stream_output_adapter@D@__crt_stdio_output@@@__crt_stdio_output@@IEAA@AEBV?$stream_output_adapter@D@1@AEB_KAEBQEBDAEAV__crt_cached_ptd_host@@AEBQEAD@Z 00000001800241e0 f i libucrtd:output.obj
 0001:00023250       ??$?0AEBV?$stream_output_adapter@_W@__crt_stdio_output@@AEB_KAEBQEB_WAEAV__crt_cached_ptd_host@@AEBQEAD@?$format_validation_base@_WV?$stream_output_adapter@_W@__crt_stdio_output@@@__crt_stdio_output@@IEAA@AEBV?$stream_output_adapter@_W@1@AEB_KAEBQEB_WAEAV__crt_cached_ptd_host@@AEBQEAD@Z 0000000180024250 f i libucrtd:output.obj
 0001:000232a0       ??$?0AEBV?$stream_output_adapter@_W@__crt_stdio_output@@AEB_KAEBQEB_WAEAV__crt_cached_ptd_host@@AEBQEAD@?$positional_parameter_base@_WV?$stream_output_adapter@_W@__crt_stdio_output@@@__crt_stdio_output@@IEAA@AEBV?$stream_output_adapter@_W@1@AEB_KAEBQEB_WAEAV__crt_cached_ptd_host@@AEBQEAD@Z 00000001800242a0 f i libucrtd:output.obj
 0001:00023340       ??$?0AEBV?$stream_output_adapter@_W@__crt_stdio_output@@AEB_KAEBQEB_WAEAV__crt_cached_ptd_host@@AEBQEAD@?$standard_base@_WV?$stream_output_adapter@_W@__crt_stdio_output@@@__crt_stdio_output@@IEAA@AEBV?$stream_output_adapter@_W@1@AEB_KAEBQEB_WAEAV__crt_cached_ptd_host@@AEBQEAD@Z 0000000180024340 f i libucrtd:output.obj
 0001:000233b0       ??$?0AEBV?$string_output_adapter@D@__crt_stdio_output@@AEB_KAEBQEBDAEAV__crt_cached_ptd_host@@AEBQEAD@?$format_validation_base@DV?$string_output_adapter@D@__crt_stdio_output@@@__crt_stdio_output@@IEAA@AEBV?$string_output_adapter@D@1@AEB_KAEBQEBDAEAV__crt_cached_ptd_host@@AEBQEAD@Z 00000001800243b0 f i libucrtd:output.obj
 0001:00023400       ??$?0AEBV?$string_output_adapter@D@__crt_stdio_output@@AEB_KAEBQEBDAEAV__crt_cached_ptd_host@@AEBQEAD@?$positional_parameter_base@DV?$string_output_adapter@D@__crt_stdio_output@@@__crt_stdio_output@@IEAA@AEBV?$string_output_adapter@D@1@AEB_KAEBQEBDAEAV__crt_cached_ptd_host@@AEBQEAD@Z 0000000180024400 f i libucrtd:output.obj
 0001:000234a0       ??$?0AEBV?$string_output_adapter@D@__crt_stdio_output@@AEB_KAEBQEBDAEAV__crt_cached_ptd_host@@AEBQEAD@?$standard_base@DV?$string_output_adapter@D@__crt_stdio_output@@@__crt_stdio_output@@IEAA@AEBV?$string_output_adapter@D@1@AEB_KAEBQEBDAEAV__crt_cached_ptd_host@@AEBQEAD@Z 00000001800244a0 f i libucrtd:output.obj
 0001:00023510       ??$?0AEBV?$string_output_adapter@_W@__crt_stdio_output@@AEB_KAEBQEB_WAEAV__crt_cached_ptd_host@@AEBQEAD@?$format_validation_base@_WV?$string_output_adapter@_W@__crt_stdio_output@@@__crt_stdio_output@@IEAA@AEBV?$string_output_adapter@_W@1@AEB_KAEBQEB_WAEAV__crt_cached_ptd_host@@AEBQEAD@Z 0000000180024510 f i libucrtd:output.obj
 0001:00023560       ??$?0AEBV?$string_output_adapter@_W@__crt_stdio_output@@AEB_KAEBQEB_WAEAV__crt_cached_ptd_host@@AEBQEAD@?$positional_parameter_base@_WV?$string_output_adapter@_W@__crt_stdio_output@@@__crt_stdio_output@@IEAA@AEBV?$string_output_adapter@_W@1@AEB_KAEBQEB_WAEAV__crt_cached_ptd_host@@AEBQEAD@Z 0000000180024560 f i libucrtd:output.obj
 0001:00023600       ??$?0AEBV?$string_output_adapter@_W@__crt_stdio_output@@AEB_KAEBQEB_WAEAV__crt_cached_ptd_host@@AEBQEAD@?$standard_base@_WV?$string_output_adapter@_W@__crt_stdio_output@@@__crt_stdio_output@@IEAA@AEBV?$string_output_adapter@_W@1@AEB_KAEBQEB_WAEAV__crt_cached_ptd_host@@AEBQEAD@Z 0000000180024600 f i libucrtd:output.obj
 0001:00023a90       ??$__crt_interlocked_read@J@@YAJPEDJ@Z 0000000180024a90 f i libucrtd:output.obj
 0001:00023ab0       ??$_tcstol_internal@DPEAPEAD$0A@@@YAJAEAV__crt_cached_ptd_host@@QEBDQEAPEADH@Z 0000000180024ab0 f i libucrtd:output.obj
 0001:00023b00       ??$_tcstol_internal@_WPEAPEA_W$0A@@@YAJAEAV__crt_cached_ptd_host@@QEB_WQEAPEA_WH@Z 0000000180024b00 f i libucrtd:output.obj
 0001:00027b20       ??$count@D@formatting_buffer@__crt_stdio_output@@QEBA_KXZ 0000000180028b20 f i libucrtd:output.obj
 0001:00027b70       ??$count@_W@formatting_buffer@__crt_stdio_output@@QEBA_KXZ 0000000180028b70 f i libucrtd:output.obj
 0001:00027bc0       ??$data@D@formatting_buffer@__crt_stdio_output@@QEAAPEADXZ 0000000180028bc0 f i libucrtd:output.obj
 0001:00027c10       ??$data@_W@formatting_buffer@__crt_stdio_output@@QEAAPEA_WXZ 0000000180028c10 f i libucrtd:output.obj
 0001:00027c60       ??$ensure_buffer_is_big_enough@D@formatting_buffer@__crt_stdio_output@@QEAA_N_KAEAV__crt_cached_ptd_host@@@Z 0000000180028c60 f i libucrtd:output.obj
 0001:00027da0       ??$ensure_buffer_is_big_enough@_W@formatting_buffer@__crt_stdio_output@@QEAA_N_KAEAV__crt_cached_ptd_host@@@Z 0000000180028da0 f i libucrtd:output.obj
 0001:00027ee0       ??$extract_argument_from_va_list@C_J@?$positional_parameter_base@DV?$stream_output_adapter@D@__crt_stdio_output@@@__crt_stdio_output@@IEAA_NAEA_J@Z 0000000180028ee0 f i libucrtd:output.obj
 0001:000280a0       ??$extract_argument_from_va_list@C_J@?$positional_parameter_base@DV?$string_output_adapter@D@__crt_stdio_output@@@__crt_stdio_output@@IEAA_NAEA_J@Z 00000001800290a0 f i libucrtd:output.obj
 0001:00028260       ??$extract_argument_from_va_list@C_J@?$positional_parameter_base@_WV?$stream_output_adapter@_W@__crt_stdio_output@@@__crt_stdio_output@@IEAA_NAEA_J@Z 0000000180029260 f i libucrtd:output.obj
 0001:00028420       ??$extract_argument_from_va_list@C_J@?$positional_parameter_base@_WV?$string_output_adapter@_W@__crt_stdio_output@@@__crt_stdio_output@@IEAA_NAEA_J@Z 0000000180029420 f i libucrtd:output.obj
 0001:000285e0       ??$extract_argument_from_va_list@C_J@?$standard_base@DV?$stream_output_adapter@D@__crt_stdio_output@@@__crt_stdio_output@@IEAA_NAEA_J@Z 00000001800295e0 f i libucrtd:output.obj
 0001:00028620       ??$extract_argument_from_va_list@C_J@?$standard_base@DV?$string_output_adapter@D@__crt_stdio_output@@@__crt_stdio_output@@IEAA_NAEA_J@Z 0000000180029620 f i libucrtd:output.obj
 0001:00028660       ??$extract_argument_from_va_list@C_J@?$standard_base@_WV?$stream_output_adapter@_W@__crt_stdio_output@@@__crt_stdio_output@@IEAA_NAEA_J@Z 0000000180029660 f i libucrtd:output.obj
 0001:000286a0       ??$extract_argument_from_va_list@C_J@?$standard_base@_WV?$string_output_adapter@_W@__crt_stdio_output@@@__crt_stdio_output@@IEAA_NAEA_J@Z 00000001800296a0 f i libucrtd:output.obj
 0001:000286e0       ??$extract_argument_from_va_list@E_J@?$positional_parameter_base@DV?$stream_output_adapter@D@__crt_stdio_output@@@__crt_stdio_output@@IEAA_NAEA_J@Z 00000001800296e0 f i libucrtd:output.obj
 0001:000288a0       ??$extract_argument_from_va_list@E_J@?$positional_parameter_base@DV?$string_output_adapter@D@__crt_stdio_output@@@__crt_stdio_output@@IEAA_NAEA_J@Z 00000001800298a0 f i libucrtd:output.obj
 0001:00028a60       ??$extract_argument_from_va_list@E_J@?$positional_parameter_base@_WV?$stream_output_adapter@_W@__crt_stdio_output@@@__crt_stdio_output@@IEAA_NAEA_J@Z 0000000180029a60 f i libucrtd:output.obj
 0001:00028c20       ??$extract_argument_from_va_list@E_J@?$positional_parameter_base@_WV?$string_output_adapter@_W@__crt_stdio_output@@@__crt_stdio_output@@IEAA_NAEA_J@Z 0000000180029c20 f i libucrtd:output.obj
 0001:00028de0       ??$extract_argument_from_va_list@E_J@?$standard_base@DV?$stream_output_adapter@D@__crt_stdio_output@@@__crt_stdio_output@@IEAA_NAEA_J@Z 0000000180029de0 f i libucrtd:output.obj
 0001:00028e20       ??$extract_argument_from_va_list@E_J@?$standard_base@DV?$string_output_adapter@D@__crt_stdio_output@@@__crt_stdio_output@@IEAA_NAEA_J@Z 0000000180029e20 f i libucrtd:output.obj
 0001:00028e60       ??$extract_argument_from_va_list@E_J@?$standard_base@_WV?$stream_output_adapter@_W@__crt_stdio_output@@@__crt_stdio_output@@IEAA_NAEA_J@Z 0000000180029e60 f i libucrtd:output.obj
 0001:00028ea0       ??$extract_argument_from_va_list@E_J@?$standard_base@_WV?$string_output_adapter@_W@__crt_stdio_output@@@__crt_stdio_output@@IEAA_NAEA_J@Z 0000000180029ea0 f i libucrtd:output.obj
 0001:00028ee0       ??$extract_argument_from_va_list@F_J@?$positional_parameter_base@DV?$stream_output_adapter@D@__crt_stdio_output@@@__crt_stdio_output@@IEAA_NAEA_J@Z 0000000180029ee0 f i libucrtd:output.obj
 0001:000290a0       ??$extract_argument_from_va_list@F_J@?$positional_parameter_base@DV?$string_output_adapter@D@__crt_stdio_output@@@__crt_stdio_output@@IEAA_NAEA_J@Z 000000018002a0a0 f i libucrtd:output.obj
 0001:00029260       ??$extract_argument_from_va_list@F_J@?$positional_parameter_base@_WV?$stream_output_adapter@_W@__crt_stdio_output@@@__crt_stdio_output@@IEAA_NAEA_J@Z 000000018002a260 f i libucrtd:output.obj
 0001:00029420       ??$extract_argument_from_va_list@F_J@?$positional_parameter_base@_WV?$string_output_adapter@_W@__crt_stdio_output@@@__crt_stdio_output@@IEAA_NAEA_J@Z 000000018002a420 f i libucrtd:output.obj
 0001:000295e0       ??$extract_argument_from_va_list@F_J@?$standard_base@DV?$stream_output_adapter@D@__crt_stdio_output@@@__crt_stdio_output@@IEAA_NAEA_J@Z 000000018002a5e0 f i libucrtd:output.obj
 0001:00029620       ??$extract_argument_from_va_list@F_J@?$standard_base@DV?$string_output_adapter@D@__crt_stdio_output@@@__crt_stdio_output@@IEAA_NAEA_J@Z 000000018002a620 f i libucrtd:output.obj
 0001:00029660       ??$extract_argument_from_va_list@F_J@?$standard_base@_WV?$stream_output_adapter@_W@__crt_stdio_output@@@__crt_stdio_output@@IEAA_NAEA_J@Z 000000018002a660 f i libucrtd:output.obj
 0001:000296a0       ??$extract_argument_from_va_list@F_J@?$standard_base@_WV?$string_output_adapter@_W@__crt_stdio_output@@@__crt_stdio_output@@IEAA_NAEA_J@Z 000000018002a6a0 f i libucrtd:output.obj
 0001:000296e0       ??$extract_argument_from_va_list@GD@?$positional_parameter_base@DV?$stream_output_adapter@D@__crt_stdio_output@@@__crt_stdio_output@@IEAA_NAEAD@Z 000000018002a6e0 f i libucrtd:output.obj
 0001:000298a0       ??$extract_argument_from_va_list@GD@?$positional_parameter_base@DV?$string_output_adapter@D@__crt_stdio_output@@@__crt_stdio_output@@IEAA_NAEAD@Z 000000018002a8a0 f i libucrtd:output.obj
 0001:00029a60       ??$extract_argument_from_va_list@GD@?$standard_base@DV?$stream_output_adapter@D@__crt_stdio_output@@@__crt_stdio_output@@IEAA_NAEAD@Z 000000018002aa60 f i libucrtd:output.obj
 0001:00029a90       ??$extract_argument_from_va_list@GD@?$standard_base@DV?$string_output_adapter@D@__crt_stdio_output@@@__crt_stdio_output@@IEAA_NAEAD@Z 000000018002aa90 f i libucrtd:output.obj
 0001:00029ac0       ??$extract_argument_from_va_list@G_J@?$positional_parameter_base@DV?$stream_output_adapter@D@__crt_stdio_output@@@__crt_stdio_output@@IEAA_NAEA_J@Z 000000018002aac0 f i libucrtd:output.obj
 0001:00029c80       ??$extract_argument_from_va_list@G_J@?$positional_parameter_base@DV?$string_output_adapter@D@__crt_stdio_output@@@__crt_stdio_output@@IEAA_NAEA_J@Z 000000018002ac80 f i libucrtd:output.obj
 0001:00029e40       ??$extract_argument_from_va_list@G_J@?$positional_parameter_base@_WV?$stream_output_adapter@_W@__crt_stdio_output@@@__crt_stdio_output@@IEAA_NAEA_J@Z 000000018002ae40 f i libucrtd:output.obj
 0001:0002a000       ??$extract_argument_from_va_list@G_J@?$positional_parameter_base@_WV?$string_output_adapter@_W@__crt_stdio_output@@@__crt_stdio_output@@IEAA_NAEA_J@Z 000000018002b000 f i libucrtd:output.obj
 0001:0002a1c0       ??$extract_argument_from_va_list@G_J@?$standard_base@DV?$stream_output_adapter@D@__crt_stdio_output@@@__crt_stdio_output@@IEAA_NAEA_J@Z 000000018002b1c0 f i libucrtd:output.obj
 0001:0002a200       ??$extract_argument_from_va_list@G_J@?$standard_base@DV?$string_output_adapter@D@__crt_stdio_output@@@__crt_stdio_output@@IEAA_NAEA_J@Z 000000018002b200 f i libucrtd:output.obj
 0001:0002a240       ??$extract_argument_from_va_list@G_J@?$standard_base@_WV?$stream_output_adapter@_W@__crt_stdio_output@@@__crt_stdio_output@@IEAA_NAEA_J@Z 000000018002b240 f i libucrtd:output.obj
 0001:0002a280       ??$extract_argument_from_va_list@G_J@?$standard_base@_WV?$string_output_adapter@_W@__crt_stdio_output@@@__crt_stdio_output@@IEAA_NAEA_J@Z 000000018002b280 f i libucrtd:output.obj
 0001:0002a2c0       ??$extract_argument_from_va_list@H_J@?$positional_parameter_base@DV?$stream_output_adapter@D@__crt_stdio_output@@@__crt_stdio_output@@IEAA_NAEA_J@Z 000000018002b2c0 f i libucrtd:output.obj
 0001:0002a480       ??$extract_argument_from_va_list@H_J@?$positional_parameter_base@DV?$string_output_adapter@D@__crt_stdio_output@@@__crt_stdio_output@@IEAA_NAEA_J@Z 000000018002b480 f i libucrtd:output.obj
 0001:0002a640       ??$extract_argument_from_va_list@H_J@?$positional_parameter_base@_WV?$stream_output_adapter@_W@__crt_stdio_output@@@__crt_stdio_output@@IEAA_NAEA_J@Z 000000018002b640 f i libucrtd:output.obj
 0001:0002a800       ??$extract_argument_from_va_list@H_J@?$positional_parameter_base@_WV?$string_output_adapter@_W@__crt_stdio_output@@@__crt_stdio_output@@IEAA_NAEA_J@Z 000000018002b800 f i libucrtd:output.obj
 0001:0002a9c0       ??$extract_argument_from_va_list@H_J@?$standard_base@DV?$stream_output_adapter@D@__crt_stdio_output@@@__crt_stdio_output@@IEAA_NAEA_J@Z 000000018002b9c0 f i libucrtd:output.obj
 0001:0002a9f0       ??$extract_argument_from_va_list@H_J@?$standard_base@DV?$string_output_adapter@D@__crt_stdio_output@@@__crt_stdio_output@@IEAA_NAEA_J@Z 000000018002b9f0 f i libucrtd:output.obj
 0001:0002aa20       ??$extract_argument_from_va_list@H_J@?$standard_base@_WV?$stream_output_adapter@_W@__crt_stdio_output@@@__crt_stdio_output@@IEAA_NAEA_J@Z 000000018002ba20 f i libucrtd:output.obj
 0001:0002aa50       ??$extract_argument_from_va_list@H_J@?$standard_base@_WV?$string_output_adapter@_W@__crt_stdio_output@@@__crt_stdio_output@@IEAA_NAEA_J@Z 000000018002ba50 f i libucrtd:output.obj
 0001:0002aa80       ??$extract_argument_from_va_list@I_J@?$positional_parameter_base@DV?$stream_output_adapter@D@__crt_stdio_output@@@__crt_stdio_output@@IEAA_NAEA_J@Z 000000018002ba80 f i libucrtd:output.obj
 0001:0002ac40       ??$extract_argument_from_va_list@I_J@?$positional_parameter_base@DV?$string_output_adapter@D@__crt_stdio_output@@@__crt_stdio_output@@IEAA_NAEA_J@Z 000000018002bc40 f i libucrtd:output.obj
 0001:0002ae00       ??$extract_argument_from_va_list@I_J@?$positional_parameter_base@_WV?$stream_output_adapter@_W@__crt_stdio_output@@@__crt_stdio_output@@IEAA_NAEA_J@Z 000000018002be00 f i libucrtd:output.obj
 0001:0002afc0       ??$extract_argument_from_va_list@I_J@?$positional_parameter_base@_WV?$string_output_adapter@_W@__crt_stdio_output@@@__crt_stdio_output@@IEAA_NAEA_J@Z 000000018002bfc0 f i libucrtd:output.obj
 0001:0002b180       ??$extract_argument_from_va_list@I_J@?$standard_base@DV?$stream_output_adapter@D@__crt_stdio_output@@@__crt_stdio_output@@IEAA_NAEA_J@Z 000000018002c180 f i libucrtd:output.obj
 0001:0002b1b0       ??$extract_argument_from_va_list@I_J@?$standard_base@DV?$string_output_adapter@D@__crt_stdio_output@@@__crt_stdio_output@@IEAA_NAEA_J@Z 000000018002c1b0 f i libucrtd:output.obj
 0001:0002b1e0       ??$extract_argument_from_va_list@I_J@?$standard_base@_WV?$stream_output_adapter@_W@__crt_stdio_output@@@__crt_stdio_output@@IEAA_NAEA_J@Z 000000018002c1e0 f i libucrtd:output.obj
 0001:0002b210       ??$extract_argument_from_va_list@I_J@?$standard_base@_WV?$string_output_adapter@_W@__crt_stdio_output@@@__crt_stdio_output@@IEAA_NAEA_J@Z 000000018002c210 f i libucrtd:output.obj
 0001:0002b240       ??$extract_argument_from_va_list@PEADPEAD@?$positional_parameter_base@DV?$stream_output_adapter@D@__crt_stdio_output@@@__crt_stdio_output@@IEAA_NAEAPEAD@Z 000000018002c240 f i libucrtd:output.obj
 0001:0002b400       ??$extract_argument_from_va_list@PEADPEAD@?$positional_parameter_base@DV?$string_output_adapter@D@__crt_stdio_output@@@__crt_stdio_output@@IEAA_NAEAPEAD@Z 000000018002c400 f i libucrtd:output.obj
 0001:0002b5c0       ??$extract_argument_from_va_list@PEADPEAD@?$positional_parameter_base@_WV?$stream_output_adapter@_W@__crt_stdio_output@@@__crt_stdio_output@@IEAA_NAEAPEAD@Z 000000018002c5c0 f i libucrtd:output.obj
 0001:0002b780       ??$extract_argument_from_va_list@PEADPEAD@?$positional_parameter_base@_WV?$string_output_adapter@_W@__crt_stdio_output@@@__crt_stdio_output@@IEAA_NAEAPEAD@Z 000000018002c780 f i libucrtd:output.obj
 0001:0002b940       ??$extract_argument_from_va_list@PEADPEAD@?$standard_base@DV?$stream_output_adapter@D@__crt_stdio_output@@@__crt_stdio_output@@IEAA_NAEAPEAD@Z 000000018002c940 f i libucrtd:output.obj
 0001:0002b970       ??$extract_argument_from_va_list@PEADPEAD@?$standard_base@DV?$string_output_adapter@D@__crt_stdio_output@@@__crt_stdio_output@@IEAA_NAEAPEAD@Z 000000018002c970 f i libucrtd:output.obj
 0001:0002b9a0       ??$extract_argument_from_va_list@PEADPEAD@?$standard_base@_WV?$stream_output_adapter@_W@__crt_stdio_output@@@__crt_stdio_output@@IEAA_NAEAPEAD@Z 000000018002c9a0 f i libucrtd:output.obj
 0001:0002b9d0       ??$extract_argument_from_va_list@PEADPEAD@?$standard_base@_WV?$string_output_adapter@_W@__crt_stdio_output@@@__crt_stdio_output@@IEAA_NAEAPEAD@Z 000000018002c9d0 f i libucrtd:output.obj
 0001:0002ba00       ??$extract_argument_from_va_list@PEAUansi_string@?1??type_case_Z@?$output_processor@DV?$stream_output_adapter@D@__crt_stdio_output@@V?$format_validation_base@DV?$stream_output_adapter@D@__crt_stdio_output@@@2@@__crt_stdio_output@@AEAA_NXZ@PEAU1?1??234@AEAA_NXZ@@?$standard_base@DV?$stream_output_adapter@D@__crt_stdio_output@@@__crt_stdio_output@@IEAA_NAEAPEAUansi_string@?1??type_case_Z@?$output_processor@DV?$stream_output_adapter@D@__crt_stdio_output@@V?$format_validation_base@DV?$stream_output_adapter@D@__crt_stdio_output@@@2@@1@AEAA_NXZ@@Z 000000018002ca00 f i libucrtd:output.obj
 0001:0002ba30       ??$extract_argument_from_va_list@PEAUansi_string@?1??type_case_Z@?$output_processor@DV?$stream_output_adapter@D@__crt_stdio_output@@V?$positional_parameter_base@DV?$stream_output_adapter@D@__crt_stdio_output@@@2@@__crt_stdio_output@@AEAA_NXZ@PEAU1?1??234@AEAA_NXZ@@?$positional_parameter_base@DV?$stream_output_adapter@D@__crt_stdio_output@@@__crt_stdio_output@@IEAA_NAEAPEAUansi_string@?1??type_case_Z@?$output_processor@DV?$stream_output_adapter@D@__crt_stdio_output@@V?$positional_parameter_base@DV?$stream_output_adapter@D@__crt_stdio_output@@@2@@1@AEAA_NXZ@@Z 000000018002ca30 f i libucrtd:output.obj
 0001:0002bbf0       ??$extract_argument_from_va_list@PEAUansi_string@?1??type_case_Z@?$output_processor@DV?$stream_output_adapter@D@__crt_stdio_output@@V?$positional_parameter_base@DV?$stream_output_adapter@D@__crt_stdio_output@@@2@@__crt_stdio_output@@AEAA_NXZ@PEAU1?1??234@AEAA_NXZ@@?$standard_base@DV?$stream_output_adapter@D@__crt_stdio_output@@@__crt_stdio_output@@IEAA_NAEAPEAUansi_string@?1??type_case_Z@?$output_processor@DV?$stream_output_adapter@D@__crt_stdio_output@@V?$positional_parameter_base@DV?$stream_output_adapter@D@__crt_stdio_output@@@2@@1@AEAA_NXZ@@Z 000000018002cbf0 f i libucrtd:output.obj
 0001:0002bc20       ??$extract_argument_from_va_list@PEAUansi_string@?1??type_case_Z@?$output_processor@DV?$stream_output_adapter@D@__crt_stdio_output@@V?$standard_base@DV?$stream_output_adapter@D@__crt_stdio_output@@@2@@__crt_stdio_output@@AEAA_NXZ@PEAU1?1??234@AEAA_NXZ@@?$standard_base@DV?$stream_output_adapter@D@__crt_stdio_output@@@__crt_stdio_output@@IEAA_NAEAPEAUansi_string@?1??type_case_Z@?$output_processor@DV?$stream_output_adapter@D@__crt_stdio_output@@V?$standard_base@DV?$stream_output_adapter@D@__crt_stdio_output@@@2@@1@AEAA_NXZ@@Z 000000018002cc20 f i libucrtd:output.obj
 0001:0002bc50       ??$extract_argument_from_va_list@PEAUansi_string@?1??type_case_Z@?$output_processor@DV?$string_output_adapter@D@__crt_stdio_output@@V?$format_validation_base@DV?$string_output_adapter@D@__crt_stdio_output@@@2@@__crt_stdio_output@@AEAA_NXZ@PEAU1?1??234@AEAA_NXZ@@?$standard_base@DV?$string_output_adapter@D@__crt_stdio_output@@@__crt_stdio_output@@IEAA_NAEAPEAUansi_string@?1??type_case_Z@?$output_processor@DV?$string_output_adapter@D@__crt_stdio_output@@V?$format_validation_base@DV?$string_output_adapter@D@__crt_stdio_output@@@2@@1@AEAA_NXZ@@Z 000000018002cc50 f i libucrtd:output.obj
 0001:0002bc80       ??$extract_argument_from_va_list@PEAUansi_string@?1??type_case_Z@?$output_processor@DV?$string_output_adapter@D@__crt_stdio_output@@V?$positional_parameter_base@DV?$string_output_adapter@D@__crt_stdio_output@@@2@@__crt_stdio_output@@AEAA_NXZ@PEAU1?1??234@AEAA_NXZ@@?$positional_parameter_base@DV?$string_output_adapter@D@__crt_stdio_output@@@__crt_stdio_output@@IEAA_NAEAPEAUansi_string@?1??type_case_Z@?$output_processor@DV?$string_output_adapter@D@__crt_stdio_output@@V?$positional_parameter_base@DV?$string_output_adapter@D@__crt_stdio_output@@@2@@1@AEAA_NXZ@@Z 000000018002cc80 f i libucrtd:output.obj
 0001:0002be40       ??$extract_argument_from_va_list@PEAUansi_string@?1??type_case_Z@?$output_processor@DV?$string_output_adapter@D@__crt_stdio_output@@V?$positional_parameter_base@DV?$string_output_adapter@D@__crt_stdio_output@@@2@@__crt_stdio_output@@AEAA_NXZ@PEAU1?1??234@AEAA_NXZ@@?$standard_base@DV?$string_output_adapter@D@__crt_stdio_output@@@__crt_stdio_output@@IEAA_NAEAPEAUansi_string@?1??type_case_Z@?$output_processor@DV?$string_output_adapter@D@__crt_stdio_output@@V?$positional_parameter_base@DV?$string_output_adapter@D@__crt_stdio_output@@@2@@1@AEAA_NXZ@@Z 000000018002ce40 f i libucrtd:output.obj
 0001:0002be70       ??$extract_argument_from_va_list@PEAUansi_string@?1??type_case_Z@?$output_processor@DV?$string_output_adapter@D@__crt_stdio_output@@V?$standard_base@DV?$string_output_adapter@D@__crt_stdio_output@@@2@@__crt_stdio_output@@AEAA_NXZ@PEAU1?1??234@AEAA_NXZ@@?$standard_base@DV?$string_output_adapter@D@__crt_stdio_output@@@__crt_stdio_output@@IEAA_NAEAPEAUansi_string@?1??type_case_Z@?$output_processor@DV?$string_output_adapter@D@__crt_stdio_output@@V?$standard_base@DV?$string_output_adapter@D@__crt_stdio_output@@@2@@1@AEAA_NXZ@@Z 000000018002ce70 f i libucrtd:output.obj
 0001:0002bea0       ??$extract_argument_from_va_list@PEAUansi_string@?1??type_case_Z@?$output_processor@_WV?$stream_output_adapter@_W@__crt_stdio_output@@V?$format_validation_base@_WV?$stream_output_adapter@_W@__crt_stdio_output@@@2@@__crt_stdio_output@@AEAA_NXZ@PEAU1?1??234@AEAA_NXZ@@?$standard_base@_WV?$stream_output_adapter@_W@__crt_stdio_output@@@__crt_stdio_output@@IEAA_NAEAPEAUansi_string@?1??type_case_Z@?$output_processor@_WV?$stream_output_adapter@_W@__crt_stdio_output@@V?$format_validation_base@_WV?$stream_output_adapter@_W@__crt_stdio_output@@@2@@1@AEAA_NXZ@@Z 000000018002cea0 f i libucrtd:output.obj
 0001:0002bed0       ??$extract_argument_from_va_list@PEAUansi_string@?1??type_case_Z@?$output_processor@_WV?$stream_output_adapter@_W@__crt_stdio_output@@V?$positional_parameter_base@_WV?$stream_output_adapter@_W@__crt_stdio_output@@@2@@__crt_stdio_output@@AEAA_NXZ@PEAU1?1??234@AEAA_NXZ@@?$positional_parameter_base@_WV?$stream_output_adapter@_W@__crt_stdio_output@@@__crt_stdio_output@@IEAA_NAEAPEAUansi_string@?1??type_case_Z@?$output_processor@_WV?$stream_output_adapter@_W@__crt_stdio_output@@V?$positional_parameter_base@_WV?$stream_output_adapter@_W@__crt_stdio_output@@@2@@1@AEAA_NXZ@@Z 000000018002ced0 f i libucrtd:output.obj
 0001:0002c090       ??$extract_argument_from_va_list@PEAUansi_string@?1??type_case_Z@?$output_processor@_WV?$stream_output_adapter@_W@__crt_stdio_output@@V?$positional_parameter_base@_WV?$stream_output_adapter@_W@__crt_stdio_output@@@2@@__crt_stdio_output@@AEAA_NXZ@PEAU1?1??234@AEAA_NXZ@@?$standard_base@_WV?$stream_output_adapter@_W@__crt_stdio_output@@@__crt_stdio_output@@IEAA_NAEAPEAUansi_string@?1??type_case_Z@?$output_processor@_WV?$stream_output_adapter@_W@__crt_stdio_output@@V?$positional_parameter_base@_WV?$stream_output_adapter@_W@__crt_stdio_output@@@2@@1@AEAA_NXZ@@Z 000000018002d090 f i libucrtd:output.obj
 0001:0002c0c0       ??$extract_argument_from_va_list@PEAUansi_string@?1??type_case_Z@?$output_processor@_WV?$stream_output_adapter@_W@__crt_stdio_output@@V?$standard_base@_WV?$stream_output_adapter@_W@__crt_stdio_output@@@2@@__crt_stdio_output@@AEAA_NXZ@PEAU1?1??234@AEAA_NXZ@@?$standard_base@_WV?$stream_output_adapter@_W@__crt_stdio_output@@@__crt_stdio_output@@IEAA_NAEAPEAUansi_string@?1??type_case_Z@?$output_processor@_WV?$stream_output_adapter@_W@__crt_stdio_output@@V?$standard_base@_WV?$stream_output_adapter@_W@__crt_stdio_output@@@2@@1@AEAA_NXZ@@Z 000000018002d0c0 f i libucrtd:output.obj
 0001:0002c0f0       ??$extract_argument_from_va_list@PEAUansi_string@?1??type_case_Z@?$output_processor@_WV?$string_output_adapter@_W@__crt_stdio_output@@V?$format_validation_base@_WV?$string_output_adapter@_W@__crt_stdio_output@@@2@@__crt_stdio_output@@AEAA_NXZ@PEAU1?1??234@AEAA_NXZ@@?$standard_base@_WV?$string_output_adapter@_W@__crt_stdio_output@@@__crt_stdio_output@@IEAA_NAEAPEAUansi_string@?1??type_case_Z@?$output_processor@_WV?$string_output_adapter@_W@__crt_stdio_output@@V?$format_validation_base@_WV?$string_output_adapter@_W@__crt_stdio_output@@@2@@1@AEAA_NXZ@@Z 000000018002d0f0 f i libucrtd:output.obj
 0001:0002c120       ??$extract_argument_from_va_list@PEAUansi_string@?1??type_case_Z@?$output_processor@_WV?$string_output_adapter@_W@__crt_stdio_output@@V?$positional_parameter_base@_WV?$string_output_adapter@_W@__crt_stdio_output@@@2@@__crt_stdio_output@@AEAA_NXZ@PEAU1?1??234@AEAA_NXZ@@?$positional_parameter_base@_WV?$string_output_adapter@_W@__crt_stdio_output@@@__crt_stdio_output@@IEAA_NAEAPEAUansi_string@?1??type_case_Z@?$output_processor@_WV?$string_output_adapter@_W@__crt_stdio_output@@V?$positional_parameter_base@_WV?$string_output_adapter@_W@__crt_stdio_output@@@2@@1@AEAA_NXZ@@Z 000000018002d120 f i libucrtd:output.obj
 0001:0002c2e0       ??$extract_argument_from_va_list@PEAUansi_string@?1??type_case_Z@?$output_processor@_WV?$string_output_adapter@_W@__crt_stdio_output@@V?$positional_parameter_base@_WV?$string_output_adapter@_W@__crt_stdio_output@@@2@@__crt_stdio_output@@AEAA_NXZ@PEAU1?1??234@AEAA_NXZ@@?$standard_base@_WV?$string_output_adapter@_W@__crt_stdio_output@@@__crt_stdio_output@@IEAA_NAEAPEAUansi_string@?1??type_case_Z@?$output_processor@_WV?$string_output_adapter@_W@__crt_stdio_output@@V?$positional_parameter_base@_WV?$string_output_adapter@_W@__crt_stdio_output@@@2@@1@AEAA_NXZ@@Z 000000018002d2e0 f i libucrtd:output.obj
 0001:0002c310       ??$extract_argument_from_va_list@PEAUansi_string@?1??type_case_Z@?$output_processor@_WV?$string_output_adapter@_W@__crt_stdio_output@@V?$standard_base@_WV?$string_output_adapter@_W@__crt_stdio_output@@@2@@__crt_stdio_output@@AEAA_NXZ@PEAU1?1??234@AEAA_NXZ@@?$standard_base@_WV?$string_output_adapter@_W@__crt_stdio_output@@@__crt_stdio_output@@IEAA_NAEAPEAUansi_string@?1??type_case_Z@?$output_processor@_WV?$string_output_adapter@_W@__crt_stdio_output@@V?$standard_base@_WV?$string_output_adapter@_W@__crt_stdio_output@@@2@@1@AEAA_NXZ@@Z 000000018002d310 f i libucrtd:output.obj
 0001:0002c340       ??$extract_argument_from_va_list@PEAXPEAX@?$positional_parameter_base@DV?$stream_output_adapter@D@__crt_stdio_output@@@__crt_stdio_output@@IEAA_NAEAPEAX@Z 000000018002d340 f i libucrtd:output.obj
 0001:0002c500       ??$extract_argument_from_va_list@PEAXPEAX@?$positional_parameter_base@DV?$string_output_adapter@D@__crt_stdio_output@@@__crt_stdio_output@@IEAA_NAEAPEAX@Z 000000018002d500 f i libucrtd:output.obj
 0001:0002c6c0       ??$extract_argument_from_va_list@PEAXPEAX@?$positional_parameter_base@_WV?$stream_output_adapter@_W@__crt_stdio_output@@@__crt_stdio_output@@IEAA_NAEAPEAX@Z 000000018002d6c0 f i libucrtd:output.obj
 0001:0002c880       ??$extract_argument_from_va_list@PEAXPEAX@?$positional_parameter_base@_WV?$string_output_adapter@_W@__crt_stdio_output@@@__crt_stdio_output@@IEAA_NAEAPEAX@Z 000000018002d880 f i libucrtd:output.obj
 0001:0002ca40       ??$extract_argument_from_va_list@PEAXPEAX@?$standard_base@DV?$stream_output_adapter@D@__crt_stdio_output@@@__crt_stdio_output@@IEAA_NAEAPEAX@Z 000000018002da40 f i libucrtd:output.obj
 0001:0002ca70       ??$extract_argument_from_va_list@PEAXPEAX@?$standard_base@DV?$string_output_adapter@D@__crt_stdio_output@@@__crt_stdio_output@@IEAA_NAEAPEAX@Z 000000018002da70 f i libucrtd:output.obj
 0001:0002caa0       ??$extract_argument_from_va_list@PEAXPEAX@?$standard_base@_WV?$stream_output_adapter@_W@__crt_stdio_output@@@__crt_stdio_output@@IEAA_NAEAPEAX@Z 000000018002daa0 f i libucrtd:output.obj
 0001:0002cad0       ??$extract_argument_from_va_list@PEAXPEAX@?$standard_base@_WV?$string_output_adapter@_W@__crt_stdio_output@@@__crt_stdio_output@@IEAA_NAEAPEAX@Z 000000018002dad0 f i libucrtd:output.obj
 0001:0002cb00       ??$extract_argument_from_va_list@U_CRT_DOUBLE@@U1@@?$positional_parameter_base@DV?$stream_output_adapter@D@__crt_stdio_output@@@__crt_stdio_output@@IEAA_NAEAU_CRT_DOUBLE@@@Z 000000018002db00 f i libucrtd:output.obj
 0001:0002cd20       ??$extract_argument_from_va_list@U_CRT_DOUBLE@@U1@@?$positional_parameter_base@DV?$string_output_adapter@D@__crt_stdio_output@@@__crt_stdio_output@@IEAA_NAEAU_CRT_DOUBLE@@@Z 000000018002dd20 f i libucrtd:output.obj
 0001:0002cf40       ??$extract_argument_from_va_list@U_CRT_DOUBLE@@U1@@?$positional_parameter_base@_WV?$stream_output_adapter@_W@__crt_stdio_output@@@__crt_stdio_output@@IEAA_NAEAU_CRT_DOUBLE@@@Z 000000018002df40 f i libucrtd:output.obj
 0001:0002d160       ??$extract_argument_from_va_list@U_CRT_DOUBLE@@U1@@?$positional_parameter_base@_WV?$string_output_adapter@_W@__crt_stdio_output@@@__crt_stdio_output@@IEAA_NAEAU_CRT_DOUBLE@@@Z 000000018002e160 f i libucrtd:output.obj
 0001:0002d380       ??$extract_argument_from_va_list@U_CRT_DOUBLE@@U1@@?$standard_base@DV?$stream_output_adapter@D@__crt_stdio_output@@@__crt_stdio_output@@IEAA_NAEAU_CRT_DOUBLE@@@Z 000000018002e380 f i libucrtd:output.obj
 0001:0002d3d0       ??$extract_argument_from_va_list@U_CRT_DOUBLE@@U1@@?$standard_base@DV?$string_output_adapter@D@__crt_stdio_output@@@__crt_stdio_output@@IEAA_NAEAU_CRT_DOUBLE@@@Z 000000018002e3d0 f i libucrtd:output.obj
 0001:0002d420       ??$extract_argument_from_va_list@U_CRT_DOUBLE@@U1@@?$standard_base@_WV?$stream_output_adapter@_W@__crt_stdio_output@@@__crt_stdio_output@@IEAA_NAEAU_CRT_DOUBLE@@@Z 000000018002e420 f i libucrtd:output.obj
 0001:0002d470       ??$extract_argument_from_va_list@U_CRT_DOUBLE@@U1@@?$standard_base@_WV?$string_output_adapter@_W@__crt_stdio_output@@@__crt_stdio_output@@IEAA_NAEAU_CRT_DOUBLE@@@Z 000000018002e470 f i libucrtd:output.obj
 0001:0002d4c0       ??$extract_argument_from_va_list@_J_J@?$positional_parameter_base@DV?$stream_output_adapter@D@__crt_stdio_output@@@__crt_stdio_output@@IEAA_NAEA_J@Z 000000018002e4c0 f i libucrtd:output.obj
 0001:0002d680       ??$extract_argument_from_va_list@_J_J@?$positional_parameter_base@DV?$string_output_adapter@D@__crt_stdio_output@@@__crt_stdio_output@@IEAA_NAEA_J@Z 000000018002e680 f i libucrtd:output.obj
 0001:0002d840       ??$extract_argument_from_va_list@_J_J@?$positional_parameter_base@_WV?$stream_output_adapter@_W@__crt_stdio_output@@@__crt_stdio_output@@IEAA_NAEA_J@Z 000000018002e840 f i libucrtd:output.obj
 0001:0002da00       ??$extract_argument_from_va_list@_J_J@?$positional_parameter_base@_WV?$string_output_adapter@_W@__crt_stdio_output@@@__crt_stdio_output@@IEAA_NAEA_J@Z 000000018002ea00 f i libucrtd:output.obj
 0001:0002dbc0       ??$extract_argument_from_va_list@_J_J@?$standard_base@DV?$stream_output_adapter@D@__crt_stdio_output@@@__crt_stdio_output@@IEAA_NAEA_J@Z 000000018002ebc0 f i libucrtd:output.obj
 0001:0002dbf0       ??$extract_argument_from_va_list@_J_J@?$standard_base@DV?$string_output_adapter@D@__crt_stdio_output@@@__crt_stdio_output@@IEAA_NAEA_J@Z 000000018002ebf0 f i libucrtd:output.obj
 0001:0002dc20       ??$extract_argument_from_va_list@_J_J@?$standard_base@_WV?$stream_output_adapter@_W@__crt_stdio_output@@@__crt_stdio_output@@IEAA_NAEA_J@Z 000000018002ec20 f i libucrtd:output.obj
 0001:0002dc50       ??$extract_argument_from_va_list@_J_J@?$standard_base@_WV?$string_output_adapter@_W@__crt_stdio_output@@@__crt_stdio_output@@IEAA_NAEA_J@Z 000000018002ec50 f i libucrtd:output.obj
 0001:0002dc80       ??$extract_argument_from_va_list@_K_J@?$positional_parameter_base@DV?$stream_output_adapter@D@__crt_stdio_output@@@__crt_stdio_output@@IEAA_NAEA_J@Z 000000018002ec80 f i libucrtd:output.obj
 0001:0002de40       ??$extract_argument_from_va_list@_K_J@?$positional_parameter_base@DV?$string_output_adapter@D@__crt_stdio_output@@@__crt_stdio_output@@IEAA_NAEA_J@Z 000000018002ee40 f i libucrtd:output.obj
 0001:0002e000       ??$extract_argument_from_va_list@_K_J@?$positional_parameter_base@_WV?$stream_output_adapter@_W@__crt_stdio_output@@@__crt_stdio_output@@IEAA_NAEA_J@Z 000000018002f000 f i libucrtd:output.obj
 0001:0002e1c0       ??$extract_argument_from_va_list@_K_J@?$positional_parameter_base@_WV?$string_output_adapter@_W@__crt_stdio_output@@@__crt_stdio_output@@IEAA_NAEA_J@Z 000000018002f1c0 f i libucrtd:output.obj
 0001:0002e380       ??$extract_argument_from_va_list@_K_J@?$standard_base@DV?$stream_output_adapter@D@__crt_stdio_output@@@__crt_stdio_output@@IEAA_NAEA_J@Z 000000018002f380 f i libucrtd:output.obj
 0001:0002e3b0       ??$extract_argument_from_va_list@_K_J@?$standard_base@DV?$string_output_adapter@D@__crt_stdio_output@@@__crt_stdio_output@@IEAA_NAEA_J@Z 000000018002f3b0 f i libucrtd:output.obj
 0001:0002e3e0       ??$extract_argument_from_va_list@_K_J@?$standard_base@_WV?$stream_output_adapter@_W@__crt_stdio_output@@@__crt_stdio_output@@IEAA_NAEA_J@Z 000000018002f3e0 f i libucrtd:output.obj
 0001:0002e410       ??$extract_argument_from_va_list@_K_J@?$standard_base@_WV?$string_output_adapter@_W@__crt_stdio_output@@@__crt_stdio_output@@IEAA_NAEA_J@Z 000000018002f410 f i libucrtd:output.obj
 0001:0002e440       ??$extract_argument_from_va_list@_W_W@?$positional_parameter_base@DV?$stream_output_adapter@D@__crt_stdio_output@@@__crt_stdio_output@@IEAA_NAEA_W@Z 000000018002f440 f i libucrtd:output.obj
 0001:0002e600       ??$extract_argument_from_va_list@_W_W@?$positional_parameter_base@DV?$string_output_adapter@D@__crt_stdio_output@@@__crt_stdio_output@@IEAA_NAEA_W@Z 000000018002f600 f i libucrtd:output.obj
 0001:0002e7c0       ??$extract_argument_from_va_list@_W_W@?$positional_parameter_base@_WV?$stream_output_adapter@_W@__crt_stdio_output@@@__crt_stdio_output@@IEAA_NAEA_W@Z 000000018002f7c0 f i libucrtd:output.obj
 0001:0002e980       ??$extract_argument_from_va_list@_W_W@?$positional_parameter_base@_WV?$string_output_adapter@_W@__crt_stdio_output@@@__crt_stdio_output@@IEAA_NAEA_W@Z 000000018002f980 f i libucrtd:output.obj
 0001:0002eb40       ??$extract_argument_from_va_list@_W_W@?$standard_base@DV?$stream_output_adapter@D@__crt_stdio_output@@@__crt_stdio_output@@IEAA_NAEA_W@Z 000000018002fb40 f i libucrtd:output.obj
 0001:0002eb70       ??$extract_argument_from_va_list@_W_W@?$standard_base@DV?$string_output_adapter@D@__crt_stdio_output@@@__crt_stdio_output@@IEAA_NAEA_W@Z 000000018002fb70 f i libucrtd:output.obj
 0001:0002eba0       ??$extract_argument_from_va_list@_W_W@?$standard_base@_WV?$stream_output_adapter@_W@__crt_stdio_output@@@__crt_stdio_output@@IEAA_NAEA_W@Z 000000018002fba0 f i libucrtd:output.obj
 0001:0002ebd0       ??$extract_argument_from_va_list@_W_W@?$standard_base@_WV?$string_output_adapter@_W@__crt_stdio_output@@@__crt_stdio_output@@IEAA_NAEA_W@Z 000000018002fbd0 f i libucrtd:output.obj
 0001:0002ec00       ??$get_parameter_type@D@?$positional_parameter_base@DV?$stream_output_adapter@D@__crt_stdio_output@@@__crt_stdio_output@@CA?AW4parameter_type@01@PEAD@Z 000000018002fc00 f i libucrtd:output.obj
 0001:0002ec10       ??$get_parameter_type@D@?$positional_parameter_base@DV?$string_output_adapter@D@__crt_stdio_output@@@__crt_stdio_output@@CA?AW4parameter_type@01@PEAD@Z 000000018002fc10 f i libucrtd:output.obj
 0001:0002ec20       ??$get_parameter_type@D@?$positional_parameter_base@_WV?$stream_output_adapter@_W@__crt_stdio_output@@@__crt_stdio_output@@CA?AW4parameter_type@01@PEAD@Z 000000018002fc20 f i libucrtd:output.obj
 0001:0002ec30       ??$get_parameter_type@D@?$positional_parameter_base@_WV?$string_output_adapter@_W@__crt_stdio_output@@@__crt_stdio_output@@CA?AW4parameter_type@01@PEAD@Z 000000018002fc30 f i libucrtd:output.obj
 0001:0002ec40       ??$get_parameter_type@Uansi_string@?1??type_case_Z@?$output_processor@DV?$stream_output_adapter@D@__crt_stdio_output@@V?$positional_parameter_base@DV?$stream_output_adapter@D@__crt_stdio_output@@@2@@__crt_stdio_output@@AEAA_NXZ@@?$positional_parameter_base@DV?$stream_output_adapter@D@__crt_stdio_output@@@__crt_stdio_output@@CA?AW4parameter_type@01@PEAUansi_string@?1??type_case_Z@?$output_processor@DV?$stream_output_adapter@D@__crt_stdio_output@@V?$positional_parameter_base@DV?$stream_output_adapter@D@__crt_stdio_output@@@2@@1@AEAA_NXZ@@Z 000000018002fc40 f i libucrtd:output.obj
 0001:0002ec50       ??$get_parameter_type@Uansi_string@?1??type_case_Z@?$output_processor@DV?$string_output_adapter@D@__crt_stdio_output@@V?$positional_parameter_base@DV?$string_output_adapter@D@__crt_stdio_output@@@2@@__crt_stdio_output@@AEAA_NXZ@@?$positional_parameter_base@DV?$string_output_adapter@D@__crt_stdio_output@@@__crt_stdio_output@@CA?AW4parameter_type@01@PEAUansi_string@?1??type_case_Z@?$output_processor@DV?$string_output_adapter@D@__crt_stdio_output@@V?$positional_parameter_base@DV?$string_output_adapter@D@__crt_stdio_output@@@2@@1@AEAA_NXZ@@Z 000000018002fc50 f i libucrtd:output.obj
 0001:0002ec60       ??$get_parameter_type@Uansi_string@?1??type_case_Z@?$output_processor@_WV?$stream_output_adapter@_W@__crt_stdio_output@@V?$positional_parameter_base@_WV?$stream_output_adapter@_W@__crt_stdio_output@@@2@@__crt_stdio_output@@AEAA_NXZ@@?$positional_parameter_base@_WV?$stream_output_adapter@_W@__crt_stdio_output@@@__crt_stdio_output@@CA?AW4parameter_type@01@PEAUansi_string@?1??type_case_Z@?$output_processor@_WV?$stream_output_adapter@_W@__crt_stdio_output@@V?$positional_parameter_base@_WV?$stream_output_adapter@_W@__crt_stdio_output@@@2@@1@AEAA_NXZ@@Z 000000018002fc60 f i libucrtd:output.obj
 0001:0002ec70       ??$get_parameter_type@Uansi_string@?1??type_case_Z@?$output_processor@_WV?$string_output_adapter@_W@__crt_stdio_output@@V?$positional_parameter_base@_WV?$string_output_adapter@_W@__crt_stdio_output@@@2@@__crt_stdio_output@@AEAA_NXZ@@?$positional_parameter_base@_WV?$string_output_adapter@_W@__crt_stdio_output@@@__crt_stdio_output@@CA?AW4parameter_type@01@PEAUansi_string@?1??type_case_Z@?$output_processor@_WV?$string_output_adapter@_W@__crt_stdio_output@@V?$positional_parameter_base@_WV?$string_output_adapter@_W@__crt_stdio_output@@@2@@1@AEAA_NXZ@@Z 000000018002fc70 f i libucrtd:output.obj
 0001:0002ec80       ??$get_parameter_type@X@?$positional_parameter_base@DV?$stream_output_adapter@D@__crt_stdio_output@@@__crt_stdio_output@@CA?AW4parameter_type@01@PEAX@Z 000000018002fc80 f i libucrtd:output.obj
 0001:0002ec90       ??$get_parameter_type@X@?$positional_parameter_base@DV?$string_output_adapter@D@__crt_stdio_output@@@__crt_stdio_output@@CA?AW4parameter_type@01@PEAX@Z 000000018002fc90 f i libucrtd:output.obj
 0001:0002eca0       ??$get_parameter_type@X@?$positional_parameter_base@_WV?$stream_output_adapter@_W@__crt_stdio_output@@@__crt_stdio_output@@CA?AW4parameter_type@01@PEAX@Z 000000018002fca0 f i libucrtd:output.obj
 0001:0002ecb0       ??$get_parameter_type@X@?$positional_parameter_base@_WV?$string_output_adapter@_W@__crt_stdio_output@@@__crt_stdio_output@@CA?AW4parameter_type@01@PEAX@Z 000000018002fcb0 f i libucrtd:output.obj
 0001:0002ecc0       ??$is_character_specifier@D@?$positional_parameter_base@DV?$stream_output_adapter@D@__crt_stdio_output@@@__crt_stdio_output@@CA_ND@Z 000000018002fcc0 f i libucrtd:output.obj
 0001:0002ed00       ??$is_character_specifier@D@?$positional_parameter_base@DV?$string_output_adapter@D@__crt_stdio_output@@@__crt_stdio_output@@CA_ND@Z 000000018002fd00 f i libucrtd:output.obj
 0001:0002ed40       ??$is_character_specifier@_W@?$positional_parameter_base@_WV?$stream_output_adapter@_W@__crt_stdio_output@@@__crt_stdio_output@@CA_N_W@Z 000000018002fd40 f i libucrtd:output.obj
 0001:0002ed80       ??$is_character_specifier@_W@?$positional_parameter_base@_WV?$string_output_adapter@_W@__crt_stdio_output@@@__crt_stdio_output@@CA_N_W@Z 000000018002fd80 f i libucrtd:output.obj
 0001:0002edc0       ??$is_integral_specifier@D@?$positional_parameter_base@DV?$stream_output_adapter@D@__crt_stdio_output@@@__crt_stdio_output@@CA_ND@Z 000000018002fdc0 f i libucrtd:output.obj
 0001:0002ee30       ??$is_integral_specifier@D@?$positional_parameter_base@DV?$string_output_adapter@D@__crt_stdio_output@@@__crt_stdio_output@@CA_ND@Z 000000018002fe30 f i libucrtd:output.obj
 0001:0002eea0       ??$is_integral_specifier@_W@?$positional_parameter_base@_WV?$stream_output_adapter@_W@__crt_stdio_output@@@__crt_stdio_output@@CA_N_W@Z 000000018002fea0 f i libucrtd:output.obj
 0001:0002ef10       ??$is_integral_specifier@_W@?$positional_parameter_base@_WV?$string_output_adapter@_W@__crt_stdio_output@@@__crt_stdio_output@@CA_N_W@Z 000000018002ff10 f i libucrtd:output.obj
 0001:0002ef80       ??$is_overflow_condition@K@__crt_strtox@@YA_NIK@Z 000000018002ff80 f i libucrtd:output.obj
 0001:0002eff0       ??$is_pointer_specifier@D@?$positional_parameter_base@DV?$stream_output_adapter@D@__crt_stdio_output@@@__crt_stdio_output@@CA_ND@Z 000000018002fff0 f i libucrtd:output.obj
 0001:0002f020       ??$is_pointer_specifier@D@?$positional_parameter_base@DV?$string_output_adapter@D@__crt_stdio_output@@@__crt_stdio_output@@CA_ND@Z 0000000180030020 f i libucrtd:output.obj
 0001:0002f050       ??$is_pointer_specifier@_W@?$positional_parameter_base@_WV?$stream_output_adapter@_W@__crt_stdio_output@@@__crt_stdio_output@@CA_N_W@Z 0000000180030050 f i libucrtd:output.obj
 0001:0002f080       ??$is_pointer_specifier@_W@?$positional_parameter_base@_WV?$string_output_adapter@_W@__crt_stdio_output@@@__crt_stdio_output@@CA_N_W@Z 0000000180030080 f i libucrtd:output.obj
 0001:0002f0b0       ??$is_string_specifier@D@?$positional_parameter_base@DV?$stream_output_adapter@D@__crt_stdio_output@@@__crt_stdio_output@@CA_ND@Z 00000001800300b0 f i libucrtd:output.obj
 0001:0002f0f0       ??$is_string_specifier@D@?$positional_parameter_base@DV?$string_output_adapter@D@__crt_stdio_output@@@__crt_stdio_output@@CA_ND@Z 00000001800300f0 f i libucrtd:output.obj
 0001:0002f130       ??$is_string_specifier@_W@?$positional_parameter_base@_WV?$stream_output_adapter@_W@__crt_stdio_output@@@__crt_stdio_output@@CA_N_W@Z 0000000180030130 f i libucrtd:output.obj
 0001:0002f170       ??$is_string_specifier@_W@?$positional_parameter_base@_WV?$string_output_adapter@_W@__crt_stdio_output@@@__crt_stdio_output@@CA_N_W@Z 0000000180030170 f i libucrtd:output.obj
 0001:0002f1b0       ??$is_wide_character_specifier@D@__crt_stdio_output@@YA_N_KDW4length_modifier@0@@Z 00000001800301b0 f i libucrtd:output.obj
 0001:0002f250       ??$is_wide_character_specifier@_W@__crt_stdio_output@@YA_N_K_WW4length_modifier@0@@Z 0000000180030250 f i libucrtd:output.obj
 0001:0002f320       ??$make_c_string_character_source@DPEAPEAD@__crt_strtox@@YA?AV?$c_string_character_source@D@0@QEBDQEAPEAD@Z 0000000180030320 f i libucrtd:output.obj
 0001:0002f360       ??$make_c_string_character_source@_WPEAPEA_W@__crt_strtox@@YA?AV?$c_string_character_source@_W@0@QEB_WQEAPEA_W@Z 0000000180030360 f i libucrtd:output.obj
 0001:0002f3a0       ??$parse_integer@KV?$c_string_character_source@D@__crt_strtox@@$0A@@__crt_strtox@@YAKAEAV__crt_cached_ptd_host@@V?$c_string_character_source@D@0@H_N@Z 00000001800303a0 f i libucrtd:output.obj
 0001:0002f820       ??$parse_integer@KV?$c_string_character_source@_W@__crt_strtox@@$0A@@__crt_strtox@@YAKAEAV__crt_cached_ptd_host@@V?$c_string_character_source@_W@0@H_N@Z 0000000180030820 f i libucrtd:output.obj
 0001:0002fca0       ??$peek_va_arg@C@__crt_stdio_output@@YACPEAD@Z 0000000180030ca0 f i libucrtd:output.obj
 0001:0002fd00       ??$peek_va_arg@E@__crt_stdio_output@@YAEPEAD@Z 0000000180030d00 f i libucrtd:output.obj
 0001:0002fd60       ??$peek_va_arg@F@__crt_stdio_output@@YAFPEAD@Z 0000000180030d60 f i libucrtd:output.obj
 0001:0002fdc0       ??$peek_va_arg@G@__crt_stdio_output@@YAGPEAD@Z 0000000180030dc0 f i libucrtd:output.obj
 0001:0002fe20       ??$peek_va_arg@H@__crt_stdio_output@@YAHPEAD@Z 0000000180030e20 f i libucrtd:output.obj
 0001:0002fe70       ??$peek_va_arg@I@__crt_stdio_output@@YAIPEAD@Z 0000000180030e70 f i libucrtd:output.obj
 0001:0002fec0       ??$peek_va_arg@PEAD@__crt_stdio_output@@YAPEADPEAD@Z 0000000180030ec0 f i libucrtd:output.obj
 0001:0002ff20       ??$peek_va_arg@PEAUansi_string@?1??type_case_Z@?$output_processor@DV?$stream_output_adapter@D@__crt_stdio_output@@V?$positional_parameter_base@DV?$stream_output_adapter@D@__crt_stdio_output@@@2@@__crt_stdio_output@@AEAA_NXZ@@__crt_stdio_output@@YAPEAUansi_string@?1??type_case_Z@?$output_processor@DV?$stream_output_adapter@D@__crt_stdio_output@@V?$positional_parameter_base@DV?$stream_output_adapter@D@__crt_stdio_output@@@2@@0@AEAA_NXZ@PEAD@Z 0000000180030f20 f i libucrtd:output.obj
 0001:0002ff80       ??$peek_va_arg@PEAUansi_string@?1??type_case_Z@?$output_processor@DV?$string_output_adapter@D@__crt_stdio_output@@V?$positional_parameter_base@DV?$string_output_adapter@D@__crt_stdio_output@@@2@@__crt_stdio_output@@AEAA_NXZ@@__crt_stdio_output@@YAPEAUansi_string@?1??type_case_Z@?$output_processor@DV?$string_output_adapter@D@__crt_stdio_output@@V?$positional_parameter_base@DV?$string_output_adapter@D@__crt_stdio_output@@@2@@0@AEAA_NXZ@PEAD@Z 0000000180030f80 f i libucrtd:output.obj
 0001:0002ffe0       ??$peek_va_arg@PEAUansi_string@?1??type_case_Z@?$output_processor@_WV?$stream_output_adapter@_W@__crt_stdio_output@@V?$positional_parameter_base@_WV?$stream_output_adapter@_W@__crt_stdio_output@@@2@@__crt_stdio_output@@AEAA_NXZ@@__crt_stdio_output@@YAPEAUansi_string@?1??type_case_Z@?$output_processor@_WV?$stream_output_adapter@_W@__crt_stdio_output@@V?$positional_parameter_base@_WV?$stream_output_adapter@_W@__crt_stdio_output@@@2@@0@AEAA_NXZ@PEAD@Z 0000000180030fe0 f i libucrtd:output.obj
 0001:00030040       ??$peek_va_arg@PEAUansi_string@?1??type_case_Z@?$output_processor@_WV?$string_output_adapter@_W@__crt_stdio_output@@V?$positional_parameter_base@_WV?$string_output_adapter@_W@__crt_stdio_output@@@2@@__crt_stdio_output@@AEAA_NXZ@@__crt_stdio_output@@YAPEAUansi_string@?1??type_case_Z@?$output_processor@_WV?$string_output_adapter@_W@__crt_stdio_output@@V?$positional_parameter_base@_WV?$string_output_adapter@_W@__crt_stdio_output@@@2@@0@AEAA_NXZ@PEAD@Z 0000000180031040 f i libucrtd:output.obj
 0001:000300a0       ??$peek_va_arg@PEAX@__crt_stdio_output@@YAPEAXPEAD@Z 00000001800310a0 f i libucrtd:output.obj
 0001:00030100       ??$peek_va_arg@U_CRT_DOUBLE@@@__crt_stdio_output@@YA?AU_CRT_DOUBLE@@PEAD@Z 0000000180031100 f i libucrtd:output.obj
 0001:00030160       ??$peek_va_arg@_J@__crt_stdio_output@@YA_JPEAD@Z 0000000180031160 f i libucrtd:output.obj
 0001:000301c0       ??$peek_va_arg@_K@__crt_stdio_output@@YA_KPEAD@Z 00000001800311c0 f i libucrtd:output.obj
 0001:00030220       ??$peek_va_arg@_W@__crt_stdio_output@@YA_WPEAD@Z 0000000180031220 f i libucrtd:output.obj
 0001:00030280       ??$puttc_nolock_internal@AEBDPEAU_iobuf@@AEAV__crt_cached_ptd_host@@@?$__crt_char_traits@D@@SAHAEBD$$QEAPEAU_iobuf@@AEAV__crt_cached_ptd_host@@@Z 0000000180031280 f i libucrtd:output.obj
 0001:000302c0       ??$puttc_nolock_internal@AEB_WPEAU_iobuf@@AEAV__crt_cached_ptd_host@@@?$__crt_char_traits@_W@@SAGAEB_W$$QEAPEAU_iobuf@@AEAV__crt_cached_ptd_host@@@Z 00000001800312c0 f i libucrtd:output.obj
 0001:00030300       ??$read_va_arg@C@__crt_stdio_output@@YACAEAPEAD@Z 0000000180031300 f i libucrtd:output.obj
 0001:00030370       ??$read_va_arg@E@__crt_stdio_output@@YAEAEAPEAD@Z 0000000180031370 f i libucrtd:output.obj
 0001:000303e0       ??$read_va_arg@F@__crt_stdio_output@@YAFAEAPEAD@Z 00000001800313e0 f i libucrtd:output.obj
 0001:00030450       ??$read_va_arg@G@__crt_stdio_output@@YAGAEAPEAD@Z 0000000180031450 f i libucrtd:output.obj
 0001:000304c0       ??$read_va_arg@H@__crt_stdio_output@@YAHAEAPEAD@Z 00000001800314c0 f i libucrtd:output.obj
 0001:00030520       ??$read_va_arg@I@__crt_stdio_output@@YAIAEAPEAD@Z 0000000180031520 f i libucrtd:output.obj
 0001:00030580       ??$read_va_arg@PEAD@__crt_stdio_output@@YAPEADAEAPEAD@Z 0000000180031580 f i libucrtd:output.obj
 0001:000305f0       ??$read_va_arg@PEAUansi_string@?1??type_case_Z@?$output_processor@DV?$stream_output_adapter@D@__crt_stdio_output@@V?$format_validation_base@DV?$stream_output_adapter@D@__crt_stdio_output@@@2@@__crt_stdio_output@@AEAA_NXZ@@__crt_stdio_output@@YAPEAUansi_string@?1??type_case_Z@?$output_processor@DV?$stream_output_adapter@D@__crt_stdio_output@@V?$format_validation_base@DV?$stream_output_adapter@D@__crt_stdio_output@@@2@@0@AEAA_NXZ@AEAPEAD@Z 00000001800315f0 f i libucrtd:output.obj
 0001:00030660       ??$read_va_arg@PEAUansi_string@?1??type_case_Z@?$output_processor@DV?$stream_output_adapter@D@__crt_stdio_output@@V?$positional_parameter_base@DV?$stream_output_adapter@D@__crt_stdio_output@@@2@@__crt_stdio_output@@AEAA_NXZ@@__crt_stdio_output@@YAPEAUansi_string@?1??type_case_Z@?$output_processor@DV?$stream_output_adapter@D@__crt_stdio_output@@V?$positional_parameter_base@DV?$stream_output_adapter@D@__crt_stdio_output@@@2@@0@AEAA_NXZ@AEAPEAD@Z 0000000180031660 f i libucrtd:output.obj
 0001:000306d0       ??$read_va_arg@PEAUansi_string@?1??type_case_Z@?$output_processor@DV?$stream_output_adapter@D@__crt_stdio_output@@V?$standard_base@DV?$stream_output_adapter@D@__crt_stdio_output@@@2@@__crt_stdio_output@@AEAA_NXZ@@__crt_stdio_output@@YAPEAUansi_string@?1??type_case_Z@?$output_processor@DV?$stream_output_adapter@D@__crt_stdio_output@@V?$standard_base@DV?$stream_output_adapter@D@__crt_stdio_output@@@2@@0@AEAA_NXZ@AEAPEAD@Z 00000001800316d0 f i libucrtd:output.obj
 0001:00030740       ??$read_va_arg@PEAUansi_string@?1??type_case_Z@?$output_processor@DV?$string_output_adapter@D@__crt_stdio_output@@V?$format_validation_base@DV?$string_output_adapter@D@__crt_stdio_output@@@2@@__crt_stdio_output@@AEAA_NXZ@@__crt_stdio_output@@YAPEAUansi_string@?1??type_case_Z@?$output_processor@DV?$string_output_adapter@D@__crt_stdio_output@@V?$format_validation_base@DV?$string_output_adapter@D@__crt_stdio_output@@@2@@0@AEAA_NXZ@AEAPEAD@Z 0000000180031740 f i libucrtd:output.obj
 0001:000307b0       ??$read_va_arg@PEAUansi_string@?1??type_case_Z@?$output_processor@DV?$string_output_adapter@D@__crt_stdio_output@@V?$positional_parameter_base@DV?$string_output_adapter@D@__crt_stdio_output@@@2@@__crt_stdio_output@@AEAA_NXZ@@__crt_stdio_output@@YAPEAUansi_string@?1??type_case_Z@?$output_processor@DV?$string_output_adapter@D@__crt_stdio_output@@V?$positional_parameter_base@DV?$string_output_adapter@D@__crt_stdio_output@@@2@@0@AEAA_NXZ@AEAPEAD@Z 00000001800317b0 f i libucrtd:output.obj
 0001:00030820       ??$read_va_arg@PEAUansi_string@?1??type_case_Z@?$output_processor@DV?$string_output_adapter@D@__crt_stdio_output@@V?$standard_base@DV?$string_output_adapter@D@__crt_stdio_output@@@2@@__crt_stdio_output@@AEAA_NXZ@@__crt_stdio_output@@YAPEAUansi_string@?1??type_case_Z@?$output_processor@DV?$string_output_adapter@D@__crt_stdio_output@@V?$standard_base@DV?$string_output_adapter@D@__crt_stdio_output@@@2@@0@AEAA_NXZ@AEAPEAD@Z 0000000180031820 f i libucrtd:output.obj
 0001:00030890       ??$read_va_arg@PEAUansi_string@?1??type_case_Z@?$output_processor@_WV?$stream_output_adapter@_W@__crt_stdio_output@@V?$format_validation_base@_WV?$stream_output_adapter@_W@__crt_stdio_output@@@2@@__crt_stdio_output@@AEAA_NXZ@@__crt_stdio_output@@YAPEAUansi_string@?1??type_case_Z@?$output_processor@_WV?$stream_output_adapter@_W@__crt_stdio_output@@V?$format_validation_base@_WV?$stream_output_adapter@_W@__crt_stdio_output@@@2@@0@AEAA_NXZ@AEAPEAD@Z 0000000180031890 f i libucrtd:output.obj
 0001:00030900       ??$read_va_arg@PEAUansi_string@?1??type_case_Z@?$output_processor@_WV?$stream_output_adapter@_W@__crt_stdio_output@@V?$positional_parameter_base@_WV?$stream_output_adapter@_W@__crt_stdio_output@@@2@@__crt_stdio_output@@AEAA_NXZ@@__crt_stdio_output@@YAPEAUansi_string@?1??type_case_Z@?$output_processor@_WV?$stream_output_adapter@_W@__crt_stdio_output@@V?$positional_parameter_base@_WV?$stream_output_adapter@_W@__crt_stdio_output@@@2@@0@AEAA_NXZ@AEAPEAD@Z 0000000180031900 f i libucrtd:output.obj
 0001:00030970       ??$read_va_arg@PEAUansi_string@?1??type_case_Z@?$output_processor@_WV?$stream_output_adapter@_W@__crt_stdio_output@@V?$standard_base@_WV?$stream_output_adapter@_W@__crt_stdio_output@@@2@@__crt_stdio_output@@AEAA_NXZ@@__crt_stdio_output@@YAPEAUansi_string@?1??type_case_Z@?$output_processor@_WV?$stream_output_adapter@_W@__crt_stdio_output@@V?$standard_base@_WV?$stream_output_adapter@_W@__crt_stdio_output@@@2@@0@AEAA_NXZ@AEAPEAD@Z 0000000180031970 f i libucrtd:output.obj
 0001:000309e0       ??$read_va_arg@PEAUansi_string@?1??type_case_Z@?$output_processor@_WV?$string_output_adapter@_W@__crt_stdio_output@@V?$format_validation_base@_WV?$string_output_adapter@_W@__crt_stdio_output@@@2@@__crt_stdio_output@@AEAA_NXZ@@__crt_stdio_output@@YAPEAUansi_string@?1??type_case_Z@?$output_processor@_WV?$string_output_adapter@_W@__crt_stdio_output@@V?$format_validation_base@_WV?$string_output_adapter@_W@__crt_stdio_output@@@2@@0@AEAA_NXZ@AEAPEAD@Z 00000001800319e0 f i libucrtd:output.obj
 0001:00030a50       ??$read_va_arg@PEAUansi_string@?1??type_case_Z@?$output_processor@_WV?$string_output_adapter@_W@__crt_stdio_output@@V?$positional_parameter_base@_WV?$string_output_adapter@_W@__crt_stdio_output@@@2@@__crt_stdio_output@@AEAA_NXZ@@__crt_stdio_output@@YAPEAUansi_string@?1??type_case_Z@?$output_processor@_WV?$string_output_adapter@_W@__crt_stdio_output@@V?$positional_parameter_base@_WV?$string_output_adapter@_W@__crt_stdio_output@@@2@@0@AEAA_NXZ@AEAPEAD@Z 0000000180031a50 f i libucrtd:output.obj
 0001:00030ac0       ??$read_va_arg@PEAUansi_string@?1??type_case_Z@?$output_processor@_WV?$string_output_adapter@_W@__crt_stdio_output@@V?$standard_base@_WV?$string_output_adapter@_W@__crt_stdio_output@@@2@@__crt_stdio_output@@AEAA_NXZ@@__crt_stdio_output@@YAPEAUansi_string@?1??type_case_Z@?$output_processor@_WV?$string_output_adapter@_W@__crt_stdio_output@@V?$standard_base@_WV?$string_output_adapter@_W@__crt_stdio_output@@@2@@0@AEAA_NXZ@AEAPEAD@Z 0000000180031ac0 f i libucrtd:output.obj
 0001:00030b30       ??$read_va_arg@PEAX@__crt_stdio_output@@YAPEAXAEAPEAD@Z 0000000180031b30 f i libucrtd:output.obj
 0001:00030ba0       ??$read_va_arg@U_CRT_DOUBLE@@@__crt_stdio_output@@YA?AU_CRT_DOUBLE@@AEAPEAD@Z 0000000180031ba0 f i libucrtd:output.obj
 0001:00030c10       ??$read_va_arg@_J@__crt_stdio_output@@YA_JAEAPEAD@Z 0000000180031c10 f i libucrtd:output.obj
 0001:00030c80       ??$read_va_arg@_K@__crt_stdio_output@@YA_KAEAPEAD@Z 0000000180031c80 f i libucrtd:output.obj
 0001:00030cf0       ??$read_va_arg@_W@__crt_stdio_output@@YA_WAEAPEAD@Z 0000000180031cf0 f i libucrtd:output.obj
 0001:00030d60       ??$scratch_count@D@formatting_buffer@__crt_stdio_output@@QEBA_KXZ 0000000180031d60 f i libucrtd:output.obj
 0001:00030d80       ??$scratch_data@D@formatting_buffer@__crt_stdio_output@@QEAAPEADXZ 0000000180031d80 f i libucrtd:output.obj
 0001:00030df0       ??$type_case_integer@$07@?$output_processor@DV?$stream_output_adapter@D@__crt_stdio_output@@V?$format_validation_base@DV?$stream_output_adapter@D@__crt_stdio_output@@@2@@__crt_stdio_output@@AEAA_N_N@Z 0000000180031df0 f i libucrtd:output.obj
 0001:00031270       ??$type_case_integer@$07@?$output_processor@DV?$stream_output_adapter@D@__crt_stdio_output@@V?$positional_parameter_base@DV?$stream_output_adapter@D@__crt_stdio_output@@@2@@__crt_stdio_output@@AEAA_N_N@Z 0000000180032270 f i libucrtd:output.obj
 0001:000316f0       ??$type_case_integer@$07@?$output_processor@DV?$stream_output_adapter@D@__crt_stdio_output@@V?$standard_base@DV?$stream_output_adapter@D@__crt_stdio_output@@@2@@__crt_stdio_output@@AEAA_N_N@Z 00000001800326f0 f i libucrtd:output.obj
 0001:00031b70       ??$type_case_integer@$07@?$output_processor@DV?$string_output_adapter@D@__crt_stdio_output@@V?$format_validation_base@DV?$string_output_adapter@D@__crt_stdio_output@@@2@@__crt_stdio_output@@AEAA_N_N@Z 0000000180032b70 f i libucrtd:output.obj
 0001:00031ff0       ??$type_case_integer@$07@?$output_processor@DV?$string_output_adapter@D@__crt_stdio_output@@V?$positional_parameter_base@DV?$string_output_adapter@D@__crt_stdio_output@@@2@@__crt_stdio_output@@AEAA_N_N@Z 0000000180032ff0 f i libucrtd:output.obj
 0001:00032470       ??$type_case_integer@$07@?$output_processor@DV?$string_output_adapter@D@__crt_stdio_output@@V?$standard_base@DV?$string_output_adapter@D@__crt_stdio_output@@@2@@__crt_stdio_output@@AEAA_N_N@Z 0000000180033470 f i libucrtd:output.obj
 0001:000328f0       ??$type_case_integer@$07@?$output_processor@_WV?$stream_output_adapter@_W@__crt_stdio_output@@V?$format_validation_base@_WV?$stream_output_adapter@_W@__crt_stdio_output@@@2@@__crt_stdio_output@@AEAA_N_N@Z 00000001800338f0 f i libucrtd:output.obj
 0001:00032d70       ??$type_case_integer@$07@?$output_processor@_WV?$stream_output_adapter@_W@__crt_stdio_output@@V?$positional_parameter_base@_WV?$stream_output_adapter@_W@__crt_stdio_output@@@2@@__crt_stdio_output@@AEAA_N_N@Z 0000000180033d70 f i libucrtd:output.obj
 0001:000331f0       ??$type_case_integer@$07@?$output_processor@_WV?$stream_output_adapter@_W@__crt_stdio_output@@V?$standard_base@_WV?$stream_output_adapter@_W@__crt_stdio_output@@@2@@__crt_stdio_output@@AEAA_N_N@Z 00000001800341f0 f i libucrtd:output.obj
 0001:00033670       ??$type_case_integer@$07@?$output_processor@_WV?$string_output_adapter@_W@__crt_stdio_output@@V?$format_validation_base@_WV?$string_output_adapter@_W@__crt_stdio_output@@@2@@__crt_stdio_output@@AEAA_N_N@Z 0000000180034670 f i libucrtd:output.obj
 0001:00033af0       ??$type_case_integer@$07@?$output_processor@_WV?$string_output_adapter@_W@__crt_stdio_output@@V?$positional_parameter_base@_WV?$string_output_adapter@_W@__crt_stdio_output@@@2@@__crt_stdio_output@@AEAA_N_N@Z 0000000180034af0 f i libucrtd:output.obj
 0001:00033f70       ??$type_case_integer@$07@?$output_processor@_WV?$string_output_adapter@_W@__crt_stdio_output@@V?$standard_base@_WV?$string_output_adapter@_W@__crt_stdio_output@@@2@@__crt_stdio_output@@AEAA_N_N@Z 0000000180034f70 f i libucrtd:output.obj
 0001:000343f0       ??$type_case_integer@$09@?$output_processor@DV?$stream_output_adapter@D@__crt_stdio_output@@V?$format_validation_base@DV?$stream_output_adapter@D@__crt_stdio_output@@@2@@__crt_stdio_output@@AEAA_N_N@Z 00000001800353f0 f i libucrtd:output.obj
 0001:00034870       ??$type_case_integer@$09@?$output_processor@DV?$stream_output_adapter@D@__crt_stdio_output@@V?$positional_parameter_base@DV?$stream_output_adapter@D@__crt_stdio_output@@@2@@__crt_stdio_output@@AEAA_N_N@Z 0000000180035870 f i libucrtd:output.obj
 0001:00034cf0       ??$type_case_integer@$09@?$output_processor@DV?$stream_output_adapter@D@__crt_stdio_output@@V?$standard_base@DV?$stream_output_adapter@D@__crt_stdio_output@@@2@@__crt_stdio_output@@AEAA_N_N@Z 0000000180035cf0 f i libucrtd:output.obj
 0001:00035170       ??$type_case_integer@$09@?$output_processor@DV?$string_output_adapter@D@__crt_stdio_output@@V?$format_validation_base@DV?$string_output_adapter@D@__crt_stdio_output@@@2@@__crt_stdio_output@@AEAA_N_N@Z 0000000180036170 f i libucrtd:output.obj
 0001:000355f0       ??$type_case_integer@$09@?$output_processor@DV?$string_output_adapter@D@__crt_stdio_output@@V?$positional_parameter_base@DV?$string_output_adapter@D@__crt_stdio_output@@@2@@__crt_stdio_output@@AEAA_N_N@Z 00000001800365f0 f i libucrtd:output.obj
 0001:00035a70       ??$type_case_integer@$09@?$output_processor@DV?$string_output_adapter@D@__crt_stdio_output@@V?$standard_base@DV?$string_output_adapter@D@__crt_stdio_output@@@2@@__crt_stdio_output@@AEAA_N_N@Z 0000000180036a70 f i libucrtd:output.obj
 0001:00035ef0       ??$type_case_integer@$09@?$output_processor@_WV?$stream_output_adapter@_W@__crt_stdio_output@@V?$format_validation_base@_WV?$stream_output_adapter@_W@__crt_stdio_output@@@2@@__crt_stdio_output@@AEAA_N_N@Z 0000000180036ef0 f i libucrtd:output.obj
 0001:00036370       ??$type_case_integer@$09@?$output_processor@_WV?$stream_output_adapter@_W@__crt_stdio_output@@V?$positional_parameter_base@_WV?$stream_output_adapter@_W@__crt_stdio_output@@@2@@__crt_stdio_output@@AEAA_N_N@Z 0000000180037370 f i libucrtd:output.obj
 0001:000367f0       ??$type_case_integer@$09@?$output_processor@_WV?$stream_output_adapter@_W@__crt_stdio_output@@V?$standard_base@_WV?$stream_output_adapter@_W@__crt_stdio_output@@@2@@__crt_stdio_output@@AEAA_N_N@Z 00000001800377f0 f i libucrtd:output.obj
 0001:00036c70       ??$type_case_integer@$09@?$output_processor@_WV?$string_output_adapter@_W@__crt_stdio_output@@V?$format_validation_base@_WV?$string_output_adapter@_W@__crt_stdio_output@@@2@@__crt_stdio_output@@AEAA_N_N@Z 0000000180037c70 f i libucrtd:output.obj
 0001:000370f0       ??$type_case_integer@$09@?$output_processor@_WV?$string_output_adapter@_W@__crt_stdio_output@@V?$positional_parameter_base@_WV?$string_output_adapter@_W@__crt_stdio_output@@@2@@__crt_stdio_output@@AEAA_N_N@Z 00000001800380f0 f i libucrtd:output.obj
 0001:00037570       ??$type_case_integer@$09@?$output_processor@_WV?$string_output_adapter@_W@__crt_stdio_output@@V?$standard_base@_WV?$string_output_adapter@_W@__crt_stdio_output@@@2@@__crt_stdio_output@@AEAA_N_N@Z 0000000180038570 f i libucrtd:output.obj
 0001:000379f0       ??$type_case_integer@$0BA@@?$output_processor@DV?$stream_output_adapter@D@__crt_stdio_output@@V?$format_validation_base@DV?$stream_output_adapter@D@__crt_stdio_output@@@2@@__crt_stdio_output@@AEAA_N_N@Z 00000001800389f0 f i libucrtd:output.obj
 0001:00037e70       ??$type_case_integer@$0BA@@?$output_processor@DV?$stream_output_adapter@D@__crt_stdio_output@@V?$positional_parameter_base@DV?$stream_output_adapter@D@__crt_stdio_output@@@2@@__crt_stdio_output@@AEAA_N_N@Z 0000000180038e70 f i libucrtd:output.obj
 0001:000382f0       ??$type_case_integer@$0BA@@?$output_processor@DV?$stream_output_adapter@D@__crt_stdio_output@@V?$standard_base@DV?$stream_output_adapter@D@__crt_stdio_output@@@2@@__crt_stdio_output@@AEAA_N_N@Z 00000001800392f0 f i libucrtd:output.obj
 0001:00038770       ??$type_case_integer@$0BA@@?$output_processor@DV?$string_output_adapter@D@__crt_stdio_output@@V?$format_validation_base@DV?$string_output_adapter@D@__crt_stdio_output@@@2@@__crt_stdio_output@@AEAA_N_N@Z 0000000180039770 f i libucrtd:output.obj
 0001:00038bf0       ??$type_case_integer@$0BA@@?$output_processor@DV?$string_output_adapter@D@__crt_stdio_output@@V?$positional_parameter_base@DV?$string_output_adapter@D@__crt_stdio_output@@@2@@__crt_stdio_output@@AEAA_N_N@Z 0000000180039bf0 f i libucrtd:output.obj
 0001:00039070       ??$type_case_integer@$0BA@@?$output_processor@DV?$string_output_adapter@D@__crt_stdio_output@@V?$standard_base@DV?$string_output_adapter@D@__crt_stdio_output@@@2@@__crt_stdio_output@@AEAA_N_N@Z 000000018003a070 f i libucrtd:output.obj
 0001:000394f0       ??$type_case_integer@$0BA@@?$output_processor@_WV?$stream_output_adapter@_W@__crt_stdio_output@@V?$format_validation_base@_WV?$stream_output_adapter@_W@__crt_stdio_output@@@2@@__crt_stdio_output@@AEAA_N_N@Z 000000018003a4f0 f i libucrtd:output.obj
 0001:00039970       ??$type_case_integer@$0BA@@?$output_processor@_WV?$stream_output_adapter@_W@__crt_stdio_output@@V?$positional_parameter_base@_WV?$stream_output_adapter@_W@__crt_stdio_output@@@2@@__crt_stdio_output@@AEAA_N_N@Z 000000018003a970 f i libucrtd:output.obj
 0001:00039df0       ??$type_case_integer@$0BA@@?$output_processor@_WV?$stream_output_adapter@_W@__crt_stdio_output@@V?$standard_base@_WV?$stream_output_adapter@_W@__crt_stdio_output@@@2@@__crt_stdio_output@@AEAA_N_N@Z 000000018003adf0 f i libucrtd:output.obj
 0001:0003a270       ??$type_case_integer@$0BA@@?$output_processor@_WV?$string_output_adapter@_W@__crt_stdio_output@@V?$format_validation_base@_WV?$string_output_adapter@_W@__crt_stdio_output@@@2@@__crt_stdio_output@@AEAA_N_N@Z 000000018003b270 f i libucrtd:output.obj
 0001:0003a6f0       ??$type_case_integer@$0BA@@?$output_processor@_WV?$string_output_adapter@_W@__crt_stdio_output@@V?$positional_parameter_base@_WV?$string_output_adapter@_W@__crt_stdio_output@@@2@@__crt_stdio_output@@AEAA_N_N@Z 000000018003b6f0 f i libucrtd:output.obj
 0001:0003ab70       ??$type_case_integer@$0BA@@?$output_processor@_WV?$string_output_adapter@_W@__crt_stdio_output@@V?$standard_base@_WV?$string_output_adapter@_W@__crt_stdio_output@@@2@@__crt_stdio_output@@AEAA_N_N@Z 000000018003bb70 f i libucrtd:output.obj
 0001:0003aff0       ??$type_case_integer_parse_into_buffer@I$07@?$output_processor@DV?$stream_output_adapter@D@__crt_stdio_output@@V?$format_validation_base@DV?$stream_output_adapter@D@__crt_stdio_output@@@2@@__crt_stdio_output@@AEAAXI_N@Z 000000018003bff0 f i libucrtd:output.obj
 0001:0003b120       ??$type_case_integer_parse_into_buffer@I$07@?$output_processor@DV?$stream_output_adapter@D@__crt_stdio_output@@V?$positional_parameter_base@DV?$stream_output_adapter@D@__crt_stdio_output@@@2@@__crt_stdio_output@@AEAAXI_N@Z 000000018003c120 f i libucrtd:output.obj
 0001:0003b250       ??$type_case_integer_parse_into_buffer@I$07@?$output_processor@DV?$stream_output_adapter@D@__crt_stdio_output@@V?$standard_base@DV?$stream_output_adapter@D@__crt_stdio_output@@@2@@__crt_stdio_output@@AEAAXI_N@Z 000000018003c250 f i libucrtd:output.obj
 0001:0003b380       ??$type_case_integer_parse_into_buffer@I$07@?$output_processor@DV?$string_output_adapter@D@__crt_stdio_output@@V?$format_validation_base@DV?$string_output_adapter@D@__crt_stdio_output@@@2@@__crt_stdio_output@@AEAAXI_N@Z 000000018003c380 f i libucrtd:output.obj
 0001:0003b4b0       ??$type_case_integer_parse_into_buffer@I$07@?$output_processor@DV?$string_output_adapter@D@__crt_stdio_output@@V?$positional_parameter_base@DV?$string_output_adapter@D@__crt_stdio_output@@@2@@__crt_stdio_output@@AEAAXI_N@Z 000000018003c4b0 f i libucrtd:output.obj
 0001:0003b5e0       ??$type_case_integer_parse_into_buffer@I$07@?$output_processor@DV?$string_output_adapter@D@__crt_stdio_output@@V?$standard_base@DV?$string_output_adapter@D@__crt_stdio_output@@@2@@__crt_stdio_output@@AEAAXI_N@Z 000000018003c5e0 f i libucrtd:output.obj
 0001:0003b710       ??$type_case_integer_parse_into_buffer@I$07@?$output_processor@_WV?$stream_output_adapter@_W@__crt_stdio_output@@V?$format_validation_base@_WV?$stream_output_adapter@_W@__crt_stdio_output@@@2@@__crt_stdio_output@@AEAAXI_N@Z 000000018003c710 f i libucrtd:output.obj
 0001:0003b850       ??$type_case_integer_parse_into_buffer@I$07@?$output_processor@_WV?$stream_output_adapter@_W@__crt_stdio_output@@V?$positional_parameter_base@_WV?$stream_output_adapter@_W@__crt_stdio_output@@@2@@__crt_stdio_output@@AEAAXI_N@Z 000000018003c850 f i libucrtd:output.obj
 0001:0003b990       ??$type_case_integer_parse_into_buffer@I$07@?$output_processor@_WV?$stream_output_adapter@_W@__crt_stdio_output@@V?$standard_base@_WV?$stream_output_adapter@_W@__crt_stdio_output@@@2@@__crt_stdio_output@@AEAAXI_N@Z 000000018003c990 f i libucrtd:output.obj
 0001:0003bad0       ??$type_case_integer_parse_into_buffer@I$07@?$output_processor@_WV?$string_output_adapter@_W@__crt_stdio_output@@V?$format_validation_base@_WV?$string_output_adapter@_W@__crt_stdio_output@@@2@@__crt_stdio_output@@AEAAXI_N@Z 000000018003cad0 f i libucrtd:output.obj
 0001:0003bc10       ??$type_case_integer_parse_into_buffer@I$07@?$output_processor@_WV?$string_output_adapter@_W@__crt_stdio_output@@V?$positional_parameter_base@_WV?$string_output_adapter@_W@__crt_stdio_output@@@2@@__crt_stdio_output@@AEAAXI_N@Z 000000018003cc10 f i libucrtd:output.obj
 0001:0003bd50       ??$type_case_integer_parse_into_buffer@I$07@?$output_processor@_WV?$string_output_adapter@_W@__crt_stdio_output@@V?$standard_base@_WV?$string_output_adapter@_W@__crt_stdio_output@@@2@@__crt_stdio_output@@AEAAXI_N@Z 000000018003cd50 f i libucrtd:output.obj
 0001:0003be90       ??$type_case_integer_parse_into_buffer@I$09@?$output_processor@DV?$stream_output_adapter@D@__crt_stdio_output@@V?$format_validation_base@DV?$stream_output_adapter@D@__crt_stdio_output@@@2@@__crt_stdio_output@@AEAAXI_N@Z 000000018003ce90 f i libucrtd:output.obj
 0001:0003bfc0       ??$type_case_integer_parse_into_buffer@I$09@?$output_processor@DV?$stream_output_adapter@D@__crt_stdio_output@@V?$positional_parameter_base@DV?$stream_output_adapter@D@__crt_stdio_output@@@2@@__crt_stdio_output@@AEAAXI_N@Z 000000018003cfc0 f i libucrtd:output.obj
 0001:0003c0f0       ??$type_case_integer_parse_into_buffer@I$09@?$output_processor@DV?$stream_output_adapter@D@__crt_stdio_output@@V?$standard_base@DV?$stream_output_adapter@D@__crt_stdio_output@@@2@@__crt_stdio_output@@AEAAXI_N@Z 000000018003d0f0 f i libucrtd:output.obj
 0001:0003c220       ??$type_case_integer_parse_into_buffer@I$09@?$output_processor@DV?$string_output_adapter@D@__crt_stdio_output@@V?$format_validation_base@DV?$string_output_adapter@D@__crt_stdio_output@@@2@@__crt_stdio_output@@AEAAXI_N@Z 000000018003d220 f i libucrtd:output.obj
 0001:0003c350       ??$type_case_integer_parse_into_buffer@I$09@?$output_processor@DV?$string_output_adapter@D@__crt_stdio_output@@V?$positional_parameter_base@DV?$string_output_adapter@D@__crt_stdio_output@@@2@@__crt_stdio_output@@AEAAXI_N@Z 000000018003d350 f i libucrtd:output.obj
 0001:0003c480       ??$type_case_integer_parse_into_buffer@I$09@?$output_processor@DV?$string_output_adapter@D@__crt_stdio_output@@V?$standard_base@DV?$string_output_adapter@D@__crt_stdio_output@@@2@@__crt_stdio_output@@AEAAXI_N@Z 000000018003d480 f i libucrtd:output.obj
 0001:0003c5b0       ??$type_case_integer_parse_into_buffer@I$09@?$output_processor@_WV?$stream_output_adapter@_W@__crt_stdio_output@@V?$format_validation_base@_WV?$stream_output_adapter@_W@__crt_stdio_output@@@2@@__crt_stdio_output@@AEAAXI_N@Z 000000018003d5b0 f i libucrtd:output.obj
 0001:0003c6f0       ??$type_case_integer_parse_into_buffer@I$09@?$output_processor@_WV?$stream_output_adapter@_W@__crt_stdio_output@@V?$positional_parameter_base@_WV?$stream_output_adapter@_W@__crt_stdio_output@@@2@@__crt_stdio_output@@AEAAXI_N@Z 000000018003d6f0 f i libucrtd:output.obj
 0001:0003c830       ??$type_case_integer_parse_into_buffer@I$09@?$output_processor@_WV?$stream_output_adapter@_W@__crt_stdio_output@@V?$standard_base@_WV?$stream_output_adapter@_W@__crt_stdio_output@@@2@@__crt_stdio_output@@AEAAXI_N@Z 000000018003d830 f i libucrtd:output.obj
 0001:0003c970       ??$type_case_integer_parse_into_buffer@I$09@?$output_processor@_WV?$string_output_adapter@_W@__crt_stdio_output@@V?$format_validation_base@_WV?$string_output_adapter@_W@__crt_stdio_output@@@2@@__crt_stdio_output@@AEAAXI_N@Z 000000018003d970 f i libucrtd:output.obj
 0001:0003cab0       ??$type_case_integer_parse_into_buffer@I$09@?$output_processor@_WV?$string_output_adapter@_W@__crt_stdio_output@@V?$positional_parameter_base@_WV?$string_output_adapter@_W@__crt_stdio_output@@@2@@__crt_stdio_output@@AEAAXI_N@Z 000000018003dab0 f i libucrtd:output.obj
 0001:0003cbf0       ??$type_case_integer_parse_into_buffer@I$09@?$output_processor@_WV?$string_output_adapter@_W@__crt_stdio_output@@V?$standard_base@_WV?$string_output_adapter@_W@__crt_stdio_output@@@2@@__crt_stdio_output@@AEAAXI_N@Z 000000018003dbf0 f i libucrtd:output.obj
 0001:0003cd30       ??$type_case_integer_parse_into_buffer@I$0BA@@?$output_processor@DV?$stream_output_adapter@D@__crt_stdio_output@@V?$format_validation_base@DV?$stream_output_adapter@D@__crt_stdio_output@@@2@@__crt_stdio_output@@AEAAXI_N@Z 000000018003dd30 f i libucrtd:output.obj
 0001:0003ce60       ??$type_case_integer_parse_into_buffer@I$0BA@@?$output_processor@DV?$stream_output_adapter@D@__crt_stdio_output@@V?$positional_parameter_base@DV?$stream_output_adapter@D@__crt_stdio_output@@@2@@__crt_stdio_output@@AEAAXI_N@Z 000000018003de60 f i libucrtd:output.obj
 0001:0003cf90       ??$type_case_integer_parse_into_buffer@I$0BA@@?$output_processor@DV?$stream_output_adapter@D@__crt_stdio_output@@V?$standard_base@DV?$stream_output_adapter@D@__crt_stdio_output@@@2@@__crt_stdio_output@@AEAAXI_N@Z 000000018003df90 f i libucrtd:output.obj
 0001:0003d0c0       ??$type_case_integer_parse_into_buffer@I$0BA@@?$output_processor@DV?$string_output_adapter@D@__crt_stdio_output@@V?$format_validation_base@DV?$string_output_adapter@D@__crt_stdio_output@@@2@@__crt_stdio_output@@AEAAXI_N@Z 000000018003e0c0 f i libucrtd:output.obj
 0001:0003d1f0       ??$type_case_integer_parse_into_buffer@I$0BA@@?$output_processor@DV?$string_output_adapter@D@__crt_stdio_output@@V?$positional_parameter_base@DV?$string_output_adapter@D@__crt_stdio_output@@@2@@__crt_stdio_output@@AEAAXI_N@Z 000000018003e1f0 f i libucrtd:output.obj
 0001:0003d320       ??$type_case_integer_parse_into_buffer@I$0BA@@?$output_processor@DV?$string_output_adapter@D@__crt_stdio_output@@V?$standard_base@DV?$string_output_adapter@D@__crt_stdio_output@@@2@@__crt_stdio_output@@AEAAXI_N@Z 000000018003e320 f i libucrtd:output.obj
 0001:0003d450       ??$type_case_integer_parse_into_buffer@I$0BA@@?$output_processor@_WV?$stream_output_adapter@_W@__crt_stdio_output@@V?$format_validation_base@_WV?$stream_output_adapter@_W@__crt_stdio_output@@@2@@__crt_stdio_output@@AEAAXI_N@Z 000000018003e450 f i libucrtd:output.obj
 0001:0003d590       ??$type_case_integer_parse_into_buffer@I$0BA@@?$output_processor@_WV?$stream_output_adapter@_W@__crt_stdio_output@@V?$positional_parameter_base@_WV?$stream_output_adapter@_W@__crt_stdio_output@@@2@@__crt_stdio_output@@AEAAXI_N@Z 000000018003e590 f i libucrtd:output.obj
 0001:0003d6d0       ??$type_case_integer_parse_into_buffer@I$0BA@@?$output_processor@_WV?$stream_output_adapter@_W@__crt_stdio_output@@V?$standard_base@_WV?$stream_output_adapter@_W@__crt_stdio_output@@@2@@__crt_stdio_output@@AEAAXI_N@Z 000000018003e6d0 f i libucrtd:output.obj
 0001:0003d810       ??$type_case_integer_parse_into_buffer@I$0BA@@?$output_processor@_WV?$string_output_adapter@_W@__crt_stdio_output@@V?$format_validation_base@_WV?$string_output_adapter@_W@__crt_stdio_output@@@2@@__crt_stdio_output@@AEAAXI_N@Z 000000018003e810 f i libucrtd:output.obj
 0001:0003d950       ??$type_case_integer_parse_into_buffer@I$0BA@@?$output_processor@_WV?$string_output_adapter@_W@__crt_stdio_output@@V?$positional_parameter_base@_WV?$string_output_adapter@_W@__crt_stdio_output@@@2@@__crt_stdio_output@@AEAAXI_N@Z 000000018003e950 f i libucrtd:output.obj
 0001:0003da90       ??$type_case_integer_parse_into_buffer@I$0BA@@?$output_processor@_WV?$string_output_adapter@_W@__crt_stdio_output@@V?$standard_base@_WV?$string_output_adapter@_W@__crt_stdio_output@@@2@@__crt_stdio_output@@AEAAXI_N@Z 000000018003ea90 f i libucrtd:output.obj
 0001:0003dbd0       ??$type_case_integer_parse_into_buffer@_K$07@?$output_processor@DV?$stream_output_adapter@D@__crt_stdio_output@@V?$format_validation_base@DV?$stream_output_adapter@D@__crt_stdio_output@@@2@@__crt_stdio_output@@AEAAX_K_N@Z 000000018003ebd0 f i libucrtd:output.obj
 0001:0003dd10       ??$type_case_integer_parse_into_buffer@_K$07@?$output_processor@DV?$stream_output_adapter@D@__crt_stdio_output@@V?$positional_parameter_base@DV?$stream_output_adapter@D@__crt_stdio_output@@@2@@__crt_stdio_output@@AEAAX_K_N@Z 000000018003ed10 f i libucrtd:output.obj
 0001:0003de50       ??$type_case_integer_parse_into_buffer@_K$07@?$output_processor@DV?$stream_output_adapter@D@__crt_stdio_output@@V?$standard_base@DV?$stream_output_adapter@D@__crt_stdio_output@@@2@@__crt_stdio_output@@AEAAX_K_N@Z 000000018003ee50 f i libucrtd:output.obj
 0001:0003df90       ??$type_case_integer_parse_into_buffer@_K$07@?$output_processor@DV?$string_output_adapter@D@__crt_stdio_output@@V?$format_validation_base@DV?$string_output_adapter@D@__crt_stdio_output@@@2@@__crt_stdio_output@@AEAAX_K_N@Z 000000018003ef90 f i libucrtd:output.obj
 0001:0003e0d0       ??$type_case_integer_parse_into_buffer@_K$07@?$output_processor@DV?$string_output_adapter@D@__crt_stdio_output@@V?$positional_parameter_base@DV?$string_output_adapter@D@__crt_stdio_output@@@2@@__crt_stdio_output@@AEAAX_K_N@Z 000000018003f0d0 f i libucrtd:output.obj
 0001:0003e210       ??$type_case_integer_parse_into_buffer@_K$07@?$output_processor@DV?$string_output_adapter@D@__crt_stdio_output@@V?$standard_base@DV?$string_output_adapter@D@__crt_stdio_output@@@2@@__crt_stdio_output@@AEAAX_K_N@Z 000000018003f210 f i libucrtd:output.obj
 0001:0003e350       ??$type_case_integer_parse_into_buffer@_K$07@?$output_processor@_WV?$stream_output_adapter@_W@__crt_stdio_output@@V?$format_validation_base@_WV?$stream_output_adapter@_W@__crt_stdio_output@@@2@@__crt_stdio_output@@AEAAX_K_N@Z 000000018003f350 f i libucrtd:output.obj
 0001:0003e490       ??$type_case_integer_parse_into_buffer@_K$07@?$output_processor@_WV?$stream_output_adapter@_W@__crt_stdio_output@@V?$positional_parameter_base@_WV?$stream_output_adapter@_W@__crt_stdio_output@@@2@@__crt_stdio_output@@AEAAX_K_N@Z 000000018003f490 f i libucrtd:output.obj
 0001:0003e5d0       ??$type_case_integer_parse_into_buffer@_K$07@?$output_processor@_WV?$stream_output_adapter@_W@__crt_stdio_output@@V?$standard_base@_WV?$stream_output_adapter@_W@__crt_stdio_output@@@2@@__crt_stdio_output@@AEAAX_K_N@Z 000000018003f5d0 f i libucrtd:output.obj
 0001:0003e710       ??$type_case_integer_parse_into_buffer@_K$07@?$output_processor@_WV?$string_output_adapter@_W@__crt_stdio_output@@V?$format_validation_base@_WV?$string_output_adapter@_W@__crt_stdio_output@@@2@@__crt_stdio_output@@AEAAX_K_N@Z 000000018003f710 f i libucrtd:output.obj
 0001:0003e850       ??$type_case_integer_parse_into_buffer@_K$07@?$output_processor@_WV?$string_output_adapter@_W@__crt_stdio_output@@V?$positional_parameter_base@_WV?$string_output_adapter@_W@__crt_stdio_output@@@2@@__crt_stdio_output@@AEAAX_K_N@Z 000000018003f850 f i libucrtd:output.obj
 0001:0003e990       ??$type_case_integer_parse_into_buffer@_K$07@?$output_processor@_WV?$string_output_adapter@_W@__crt_stdio_output@@V?$standard_base@_WV?$string_output_adapter@_W@__crt_stdio_output@@@2@@__crt_stdio_output@@AEAAX_K_N@Z 000000018003f990 f i libucrtd:output.obj
 0001:0003ead0       ??$type_case_integer_parse_into_buffer@_K$09@?$output_processor@DV?$stream_output_adapter@D@__crt_stdio_output@@V?$format_validation_base@DV?$stream_output_adapter@D@__crt_stdio_output@@@2@@__crt_stdio_output@@AEAAX_K_N@Z 000000018003fad0 f i libucrtd:output.obj
 0001:0003ec10       ??$type_case_integer_parse_into_buffer@_K$09@?$output_processor@DV?$stream_output_adapter@D@__crt_stdio_output@@V?$positional_parameter_base@DV?$stream_output_adapter@D@__crt_stdio_output@@@2@@__crt_stdio_output@@AEAAX_K_N@Z 000000018003fc10 f i libucrtd:output.obj
 0001:0003ed50       ??$type_case_integer_parse_into_buffer@_K$09@?$output_processor@DV?$stream_output_adapter@D@__crt_stdio_output@@V?$standard_base@DV?$stream_output_adapter@D@__crt_stdio_output@@@2@@__crt_stdio_output@@AEAAX_K_N@Z 000000018003fd50 f i libucrtd:output.obj
 0001:0003ee90       ??$type_case_integer_parse_into_buffer@_K$09@?$output_processor@DV?$string_output_adapter@D@__crt_stdio_output@@V?$format_validation_base@DV?$string_output_adapter@D@__crt_stdio_output@@@2@@__crt_stdio_output@@AEAAX_K_N@Z 000000018003fe90 f i libucrtd:output.obj
 0001:0003efd0       ??$type_case_integer_parse_into_buffer@_K$09@?$output_processor@DV?$string_output_adapter@D@__crt_stdio_output@@V?$positional_parameter_base@DV?$string_output_adapter@D@__crt_stdio_output@@@2@@__crt_stdio_output@@AEAAX_K_N@Z 000000018003ffd0 f i libucrtd:output.obj
 0001:0003f110       ??$type_case_integer_parse_into_buffer@_K$09@?$output_processor@DV?$string_output_adapter@D@__crt_stdio_output@@V?$standard_base@DV?$string_output_adapter@D@__crt_stdio_output@@@2@@__crt_stdio_output@@AEAAX_K_N@Z 0000000180040110 f i libucrtd:output.obj
 0001:0003f250       ??$type_case_integer_parse_into_buffer@_K$09@?$output_processor@_WV?$stream_output_adapter@_W@__crt_stdio_output@@V?$format_validation_base@_WV?$stream_output_adapter@_W@__crt_stdio_output@@@2@@__crt_stdio_output@@AEAAX_K_N@Z 0000000180040250 f i libucrtd:output.obj
 0001:0003f390       ??$type_case_integer_parse_into_buffer@_K$09@?$output_processor@_WV?$stream_output_adapter@_W@__crt_stdio_output@@V?$positional_parameter_base@_WV?$stream_output_adapter@_W@__crt_stdio_output@@@2@@__crt_stdio_output@@AEAAX_K_N@Z 0000000180040390 f i libucrtd:output.obj
 0001:0003f4d0       ??$type_case_integer_parse_into_buffer@_K$09@?$output_processor@_WV?$stream_output_adapter@_W@__crt_stdio_output@@V?$standard_base@_WV?$stream_output_adapter@_W@__crt_stdio_output@@@2@@__crt_stdio_output@@AEAAX_K_N@Z 00000001800404d0 f i libucrtd:output.obj
 0001:0003f610       ??$type_case_integer_parse_into_buffer@_K$09@?$output_processor@_WV?$string_output_adapter@_W@__crt_stdio_output@@V?$format_validation_base@_WV?$string_output_adapter@_W@__crt_stdio_output@@@2@@__crt_stdio_output@@AEAAX_K_N@Z 0000000180040610 f i libucrtd:output.obj
 0001:0003f750       ??$type_case_integer_parse_into_buffer@_K$09@?$output_processor@_WV?$string_output_adapter@_W@__crt_stdio_output@@V?$positional_parameter_base@_WV?$string_output_adapter@_W@__crt_stdio_output@@@2@@__crt_stdio_output@@AEAAX_K_N@Z 0000000180040750 f i libucrtd:output.obj
 0001:0003f890       ??$type_case_integer_parse_into_buffer@_K$09@?$output_processor@_WV?$string_output_adapter@_W@__crt_stdio_output@@V?$standard_base@_WV?$string_output_adapter@_W@__crt_stdio_output@@@2@@__crt_stdio_output@@AEAAX_K_N@Z 0000000180040890 f i libucrtd:output.obj
 0001:0003f9d0       ??$type_case_integer_parse_into_buffer@_K$0BA@@?$output_processor@DV?$stream_output_adapter@D@__crt_stdio_output@@V?$format_validation_base@DV?$stream_output_adapter@D@__crt_stdio_output@@@2@@__crt_stdio_output@@AEAAX_K_N@Z 00000001800409d0 f i libucrtd:output.obj
 0001:0003fb10       ??$type_case_integer_parse_into_buffer@_K$0BA@@?$output_processor@DV?$stream_output_adapter@D@__crt_stdio_output@@V?$positional_parameter_base@DV?$stream_output_adapter@D@__crt_stdio_output@@@2@@__crt_stdio_output@@AEAAX_K_N@Z 0000000180040b10 f i libucrtd:output.obj
 0001:0003fc50       ??$type_case_integer_parse_into_buffer@_K$0BA@@?$output_processor@DV?$stream_output_adapter@D@__crt_stdio_output@@V?$standard_base@DV?$stream_output_adapter@D@__crt_stdio_output@@@2@@__crt_stdio_output@@AEAAX_K_N@Z 0000000180040c50 f i libucrtd:output.obj
 0001:0003fd90       ??$type_case_integer_parse_into_buffer@_K$0BA@@?$output_processor@DV?$string_output_adapter@D@__crt_stdio_output@@V?$format_validation_base@DV?$string_output_adapter@D@__crt_stdio_output@@@2@@__crt_stdio_output@@AEAAX_K_N@Z 0000000180040d90 f i libucrtd:output.obj
 0001:0003fed0       ??$type_case_integer_parse_into_buffer@_K$0BA@@?$output_processor@DV?$string_output_adapter@D@__crt_stdio_output@@V?$positional_parameter_base@DV?$string_output_adapter@D@__crt_stdio_output@@@2@@__crt_stdio_output@@AEAAX_K_N@Z 0000000180040ed0 f i libucrtd:output.obj
 0001:00040010       ??$type_case_integer_parse_into_buffer@_K$0BA@@?$output_processor@DV?$string_output_adapter@D@__crt_stdio_output@@V?$standard_base@DV?$string_output_adapter@D@__crt_stdio_output@@@2@@__crt_stdio_output@@AEAAX_K_N@Z 0000000180041010 f i libucrtd:output.obj
 0001:00040150       ??$type_case_integer_parse_into_buffer@_K$0BA@@?$output_processor@_WV?$stream_output_adapter@_W@__crt_stdio_output@@V?$format_validation_base@_WV?$stream_output_adapter@_W@__crt_stdio_output@@@2@@__crt_stdio_output@@AEAAX_K_N@Z 0000000180041150 f i libucrtd:output.obj
 0001:00040290       ??$type_case_integer_parse_into_buffer@_K$0BA@@?$output_processor@_WV?$stream_output_adapter@_W@__crt_stdio_output@@V?$positional_parameter_base@_WV?$stream_output_adapter@_W@__crt_stdio_output@@@2@@__crt_stdio_output@@AEAAX_K_N@Z 0000000180041290 f i libucrtd:output.obj
 0001:000403d0       ??$type_case_integer_parse_into_buffer@_K$0BA@@?$output_processor@_WV?$stream_output_adapter@_W@__crt_stdio_output@@V?$standard_base@_WV?$stream_output_adapter@_W@__crt_stdio_output@@@2@@__crt_stdio_output@@AEAAX_K_N@Z 00000001800413d0 f i libucrtd:output.obj
 0001:00040510       ??$type_case_integer_parse_into_buffer@_K$0BA@@?$output_processor@_WV?$string_output_adapter@_W@__crt_stdio_output@@V?$format_validation_base@_WV?$string_output_adapter@_W@__crt_stdio_output@@@2@@__crt_stdio_output@@AEAAX_K_N@Z 0000000180041510 f i libucrtd:output.obj
 0001:00040650       ??$type_case_integer_parse_into_buffer@_K$0BA@@?$output_processor@_WV?$string_output_adapter@_W@__crt_stdio_output@@V?$positional_parameter_base@_WV?$string_output_adapter@_W@__crt_stdio_output@@@2@@__crt_stdio_output@@AEAAX_K_N@Z 0000000180041650 f i libucrtd:output.obj
 0001:00040790       ??$type_case_integer_parse_into_buffer@_K$0BA@@?$output_processor@_WV?$string_output_adapter@_W@__crt_stdio_output@@V?$standard_base@_WV?$string_output_adapter@_W@__crt_stdio_output@@@2@@__crt_stdio_output@@AEAAX_K_N@Z 0000000180041790 f i libucrtd:output.obj
 0001:000408d0       ??$write_multiple_characters@V?$stream_output_adapter@D@__crt_stdio_output@@D@__crt_stdio_output@@YAXAEBV?$stream_output_adapter@D@0@DHQEAHAEAV__crt_cached_ptd_host@@@Z 00000001800418d0 f i libucrtd:output.obj
 0001:00040940       ??$write_multiple_characters@V?$stream_output_adapter@_W@__crt_stdio_output@@D@__crt_stdio_output@@YAXAEBV?$stream_output_adapter@_W@0@DHQEAHAEAV__crt_cached_ptd_host@@@Z 0000000180041940 f i libucrtd:output.obj
 0001:000409b0       ??$write_multiple_characters@V?$string_output_adapter@D@__crt_stdio_output@@D@__crt_stdio_output@@YAXAEBV?$string_output_adapter@D@0@DHQEAHAEAV__crt_cached_ptd_host@@@Z 00000001800419b0 f i libucrtd:output.obj
 0001:00040a20       ??$write_multiple_characters@V?$string_output_adapter@_W@__crt_stdio_output@@D@__crt_stdio_output@@YAXAEBV?$string_output_adapter@_W@0@DHQEAHAEAV__crt_cached_ptd_host@@@Z 0000000180041a20 f i libucrtd:output.obj
 0001:00040e50       ??0?$c_string_character_source@D@__crt_strtox@@QEAA@QEBDQEAPEBD@Z 0000000180041e50 f i libucrtd:output.obj
 0001:00040ea0       ??0?$c_string_character_source@_W@__crt_strtox@@QEAA@QEB_WQEAPEB_W@Z 0000000180041ea0 f i libucrtd:output.obj
 0001:00040ef0       ??0?$cached@H@__crt_cached_ptd_host@@QEAA@XZ 0000000180041ef0 f i libucrtd:output.obj
 0001:00040f10       ??0?$cached@K@__crt_cached_ptd_host@@QEAA@XZ 0000000180041f10 f i libucrtd:output.obj
 0001:00040f30       ??0?$common_data@D@__crt_stdio_output@@IEAA@AEAV__crt_cached_ptd_host@@@Z 0000000180041f30 f i libucrtd:output.obj
 0001:00040ff0       ??0?$common_data@_W@__crt_stdio_output@@IEAA@AEAV__crt_cached_ptd_host@@@Z 0000000180041ff0 f i libucrtd:output.obj
 0001:000410b0       ??0?$output_adapter_data@DV?$stream_output_adapter@D@__crt_stdio_output@@@__crt_stdio_output@@IEAA@AEBV?$stream_output_adapter@D@1@_KQEBDAEAV__crt_cached_ptd_host@@QEAD@Z 00000001800420b0 f i libucrtd:output.obj
 0001:00041130       ??0?$output_adapter_data@DV?$string_output_adapter@D@__crt_stdio_output@@@__crt_stdio_output@@IEAA@AEBV?$string_output_adapter@D@1@_KQEBDAEAV__crt_cached_ptd_host@@QEAD@Z 0000000180042130 f i libucrtd:output.obj
 0001:000411b0       ??0?$output_adapter_data@_WV?$stream_output_adapter@_W@__crt_stdio_output@@@__crt_stdio_output@@IEAA@AEBV?$stream_output_adapter@_W@1@_KQEB_WAEAV__crt_cached_ptd_host@@QEAD@Z 00000001800421b0 f i libucrtd:output.obj
 0001:00041230       ??0?$output_adapter_data@_WV?$string_output_adapter@_W@__crt_stdio_output@@@__crt_stdio_output@@IEAA@AEBV?$string_output_adapter@_W@1@_KQEB_WAEAV__crt_cached_ptd_host@@QEAD@Z 0000000180042230 f i libucrtd:output.obj
 0001:000412b0       ??0?$output_processor@DV?$stream_output_adapter@D@__crt_stdio_output@@V?$format_validation_base@DV?$stream_output_adapter@D@__crt_stdio_output@@@2@@__crt_stdio_output@@QEAA@AEBV?$stream_output_adapter@D@1@_KQEBDAEAV__crt_cached_ptd_host@@QEAD@Z 00000001800422b0 f i libucrtd:output.obj
 0001:00041300       ??0?$output_processor@DV?$stream_output_adapter@D@__crt_stdio_output@@V?$positional_parameter_base@DV?$stream_output_adapter@D@__crt_stdio_output@@@2@@__crt_stdio_output@@QEAA@AEBV?$stream_output_adapter@D@1@_KQEBDAEAV__crt_cached_ptd_host@@QEAD@Z 0000000180042300 f i libucrtd:output.obj
 0001:00041350       ??0?$output_processor@DV?$stream_output_adapter@D@__crt_stdio_output@@V?$standard_base@DV?$stream_output_adapter@D@__crt_stdio_output@@@2@@__crt_stdio_output@@QEAA@AEBV?$stream_output_adapter@D@1@_KQEBDAEAV__crt_cached_ptd_host@@QEAD@Z 0000000180042350 f i libucrtd:output.obj
 0001:000413a0       ??0?$output_processor@DV?$string_output_adapter@D@__crt_stdio_output@@V?$format_validation_base@DV?$string_output_adapter@D@__crt_stdio_output@@@2@@__crt_stdio_output@@QEAA@AEBV?$string_output_adapter@D@1@_KQEBDAEAV__crt_cached_ptd_host@@QEAD@Z 00000001800423a0 f i libucrtd:output.obj
 0001:000413f0       ??0?$output_processor@DV?$string_output_adapter@D@__crt_stdio_output@@V?$positional_parameter_base@DV?$string_output_adapter@D@__crt_stdio_output@@@2@@__crt_stdio_output@@QEAA@AEBV?$string_output_adapter@D@1@_KQEBDAEAV__crt_cached_ptd_host@@QEAD@Z 00000001800423f0 f i libucrtd:output.obj
 0001:00041440       ??0?$output_processor@DV?$string_output_adapter@D@__crt_stdio_output@@V?$standard_base@DV?$string_output_adapter@D@__crt_stdio_output@@@2@@__crt_stdio_output@@QEAA@AEBV?$string_output_adapter@D@1@_KQEBDAEAV__crt_cached_ptd_host@@QEAD@Z 0000000180042440 f i libucrtd:output.obj
 0001:00041490       ??0?$output_processor@_WV?$stream_output_adapter@_W@__crt_stdio_output@@V?$format_validation_base@_WV?$stream_output_adapter@_W@__crt_stdio_output@@@2@@__crt_stdio_output@@QEAA@AEBV?$stream_output_adapter@_W@1@_KQEB_WAEAV__crt_cached_ptd_host@@QEAD@Z 0000000180042490 f i libucrtd:output.obj
 0001:000414e0       ??0?$output_processor@_WV?$stream_output_adapter@_W@__crt_stdio_output@@V?$positional_parameter_base@_WV?$stream_output_adapter@_W@__crt_stdio_output@@@2@@__crt_stdio_output@@QEAA@AEBV?$stream_output_adapter@_W@1@_KQEB_WAEAV__crt_cached_ptd_host@@QEAD@Z 00000001800424e0 f i libucrtd:output.obj
 0001:00041530       ??0?$output_processor@_WV?$stream_output_adapter@_W@__crt_stdio_output@@V?$standard_base@_WV?$stream_output_adapter@_W@__crt_stdio_output@@@2@@__crt_stdio_output@@QEAA@AEBV?$stream_output_adapter@_W@1@_KQEB_WAEAV__crt_cached_ptd_host@@QEAD@Z 0000000180042530 f i libucrtd:output.obj
 0001:00041580       ??0?$output_processor@_WV?$string_output_adapter@_W@__crt_stdio_output@@V?$format_validation_base@_WV?$string_output_adapter@_W@__crt_stdio_output@@@2@@__crt_stdio_output@@QEAA@AEBV?$string_output_adapter@_W@1@_KQEB_WAEAV__crt_cached_ptd_host@@QEAD@Z 0000000180042580 f i libucrtd:output.obj
 0001:000415d0       ??0?$output_processor@_WV?$string_output_adapter@_W@__crt_stdio_output@@V?$positional_parameter_base@_WV?$string_output_adapter@_W@__crt_stdio_output@@@2@@__crt_stdio_output@@QEAA@AEBV?$string_output_adapter@_W@1@_KQEB_WAEAV__crt_cached_ptd_host@@QEAD@Z 00000001800425d0 f i libucrtd:output.obj
 0001:00041620       ??0?$output_processor@_WV?$string_output_adapter@_W@__crt_stdio_output@@V?$standard_base@_WV?$string_output_adapter@_W@__crt_stdio_output@@@2@@__crt_stdio_output@@QEAA@AEBV?$string_output_adapter@_W@1@_KQEB_WAEAV__crt_cached_ptd_host@@QEAD@Z 0000000180042620 f i libucrtd:output.obj
 0001:00041670       ??0?$stream_output_adapter@D@__crt_stdio_output@@QEAA@QEAU_iobuf@@@Z 0000000180042670 f i libucrtd:output.obj
 0001:000416b0       ??0?$stream_output_adapter@_W@__crt_stdio_output@@QEAA@QEAU_iobuf@@@Z 00000001800426b0 f i libucrtd:output.obj
 0001:000416f0       ??0?$string_output_adapter@D@__crt_stdio_output@@QEAA@QEAU?$string_output_adapter_context@D@1@@Z 00000001800426f0 f i libucrtd:output.obj
 0001:00041710       ??0?$string_output_adapter@_W@__crt_stdio_output@@QEAA@QEAU?$string_output_adapter_context@_W@1@@Z 0000000180042710 f i libucrtd:output.obj
 0001:00041730       ??0__acrt_stdio_temporary_buffering_guard@@QEAA@QEAU_iobuf@@AEAV__crt_cached_ptd_host@@@Z 0000000180042730 f i libucrtd:output.obj
 0001:00041780       ??0__crt_cached_ptd_host@@QEAA@QEAU__crt_locale_pointers@@@Z 0000000180042780 f i libucrtd:output.obj
 0001:00041840       ??0__crt_scoped_get_last_error_reset@@QEAA@XZ 0000000180042840 f i libucrtd:output.obj
 0001:00041860       ??0__crt_stdio_stream@@QEAA@QEAU_iobuf@@@Z 0000000180042860 f i libucrtd:output.obj
 0001:00041880       ??0formatting_buffer@__crt_stdio_output@@QEAA@XZ 0000000180042880 f i libucrtd:output.obj
 0001:000418c0       ??0guard@?$cached@H@__crt_cached_ptd_host@@QEAA@AEAU12@@Z 00000001800428c0 f i libucrtd:output.obj
 0001:00041900       ??1?$c_string_character_source@D@__crt_strtox@@QEAA@XZ 0000000180042900 f i libucrtd:output.obj
 0001:00041930       ??1?$c_string_character_source@_W@__crt_strtox@@QEAA@XZ 0000000180042930 f i libucrtd:output.obj
 0001:00041960       ??1?$common_data@D@__crt_stdio_output@@QEAA@XZ 0000000180042960 f i libucrtd:output.obj
 0001:00041980       ??1?$common_data@_W@__crt_stdio_output@@QEAA@XZ 0000000180042980 f i libucrtd:output.obj
 0001:000419a0       ??1?$format_validation_base@DV?$stream_output_adapter@D@__crt_stdio_output@@@__crt_stdio_output@@QEAA@XZ 00000001800429a0 f i libucrtd:output.obj
 0001:000419c0       ??1?$format_validation_base@DV?$string_output_adapter@D@__crt_stdio_output@@@__crt_stdio_output@@QEAA@XZ 00000001800429c0 f i libucrtd:output.obj
 0001:000419e0       ??1?$format_validation_base@_WV?$stream_output_adapter@_W@__crt_stdio_output@@@__crt_stdio_output@@QEAA@XZ 00000001800429e0 f i libucrtd:output.obj
 0001:00041a00       ??1?$format_validation_base@_WV?$string_output_adapter@_W@__crt_stdio_output@@@__crt_stdio_output@@QEAA@XZ 0000000180042a00 f i libucrtd:output.obj
 0001:00041a20       ??1?$output_adapter_data@DV?$stream_output_adapter@D@__crt_stdio_output@@@__crt_stdio_output@@QEAA@XZ 0000000180042a20 f i libucrtd:output.obj
 0001:00041a40       ??1?$output_adapter_data@DV?$string_output_adapter@D@__crt_stdio_output@@@__crt_stdio_output@@QEAA@XZ 0000000180042a40 f i libucrtd:output.obj
 0001:00041a60       ??1?$output_adapter_data@_WV?$stream_output_adapter@_W@__crt_stdio_output@@@__crt_stdio_output@@QEAA@XZ 0000000180042a60 f i libucrtd:output.obj
 0001:00041a80       ??1?$output_adapter_data@_WV?$string_output_adapter@_W@__crt_stdio_output@@@__crt_stdio_output@@QEAA@XZ 0000000180042a80 f i libucrtd:output.obj
 0001:00041aa0       ??1?$output_processor@DV?$stream_output_adapter@D@__crt_stdio_output@@V?$format_validation_base@DV?$stream_output_adapter@D@__crt_stdio_output@@@2@@__crt_stdio_output@@QEAA@XZ 0000000180042aa0 f i libucrtd:output.obj
 0001:00041ac0       ??1?$output_processor@DV?$stream_output_adapter@D@__crt_stdio_output@@V?$positional_parameter_base@DV?$stream_output_adapter@D@__crt_stdio_output@@@2@@__crt_stdio_output@@QEAA@XZ 0000000180042ac0 f i libucrtd:output.obj
 0001:00041ae0       ??1?$output_processor@DV?$stream_output_adapter@D@__crt_stdio_output@@V?$standard_base@DV?$stream_output_adapter@D@__crt_stdio_output@@@2@@__crt_stdio_output@@QEAA@XZ 0000000180042ae0 f i libucrtd:output.obj
 0001:00041b00       ??1?$output_processor@DV?$string_output_adapter@D@__crt_stdio_output@@V?$format_validation_base@DV?$string_output_adapter@D@__crt_stdio_output@@@2@@__crt_stdio_output@@QEAA@XZ 0000000180042b00 f i libucrtd:output.obj
 0001:00041b20       ??1?$output_processor@DV?$string_output_adapter@D@__crt_stdio_output@@V?$positional_parameter_base@DV?$string_output_adapter@D@__crt_stdio_output@@@2@@__crt_stdio_output@@QEAA@XZ 0000000180042b20 f i libucrtd:output.obj
 0001:00041b40       ??1?$output_processor@DV?$string_output_adapter@D@__crt_stdio_output@@V?$standard_base@DV?$string_output_adapter@D@__crt_stdio_output@@@2@@__crt_stdio_output@@QEAA@XZ 0000000180042b40 f i libucrtd:output.obj
 0001:00041b60       ??1?$output_processor@_WV?$stream_output_adapter@_W@__crt_stdio_output@@V?$format_validation_base@_WV?$stream_output_adapter@_W@__crt_stdio_output@@@2@@__crt_stdio_output@@QEAA@XZ 0000000180042b60 f i libucrtd:output.obj
 0001:00041b80       ??1?$output_processor@_WV?$stream_output_adapter@_W@__crt_stdio_output@@V?$positional_parameter_base@_WV?$stream_output_adapter@_W@__crt_stdio_output@@@2@@__crt_stdio_output@@QEAA@XZ 0000000180042b80 f i libucrtd:output.obj
 0001:00041ba0       ??1?$output_processor@_WV?$stream_output_adapter@_W@__crt_stdio_output@@V?$standard_base@_WV?$stream_output_adapter@_W@__crt_stdio_output@@@2@@__crt_stdio_output@@QEAA@XZ 0000000180042ba0 f i libucrtd:output.obj
 0001:00041bc0       ??1?$output_processor@_WV?$string_output_adapter@_W@__crt_stdio_output@@V?$format_validation_base@_WV?$string_output_adapter@_W@__crt_stdio_output@@@2@@__crt_stdio_output@@QEAA@XZ 0000000180042bc0 f i libucrtd:output.obj
 0001:00041be0       ??1?$output_processor@_WV?$string_output_adapter@_W@__crt_stdio_output@@V?$positional_parameter_base@_WV?$string_output_adapter@_W@__crt_stdio_output@@@2@@__crt_stdio_output@@QEAA@XZ 0000000180042be0 f i libucrtd:output.obj
 0001:00041c00       ??1?$output_processor@_WV?$string_output_adapter@_W@__crt_stdio_output@@V?$standard_base@_WV?$string_output_adapter@_W@__crt_stdio_output@@@2@@__crt_stdio_output@@QEAA@XZ 0000000180042c00 f i libucrtd:output.obj
 0001:00041c20       ??1?$positional_parameter_base@DV?$stream_output_adapter@D@__crt_stdio_output@@@__crt_stdio_output@@QEAA@XZ 0000000180042c20 f i libucrtd:output.obj
 0001:00041c40       ??1?$positional_parameter_base@DV?$string_output_adapter@D@__crt_stdio_output@@@__crt_stdio_output@@QEAA@XZ 0000000180042c40 f i libucrtd:output.obj
 0001:00041c60       ??1?$positional_parameter_base@_WV?$stream_output_adapter@_W@__crt_stdio_output@@@__crt_stdio_output@@QEAA@XZ 0000000180042c60 f i libucrtd:output.obj
 0001:00041c80       ??1?$positional_parameter_base@_WV?$string_output_adapter@_W@__crt_stdio_output@@@__crt_stdio_output@@QEAA@XZ 0000000180042c80 f i libucrtd:output.obj
 0001:00041ca0       ??1?$standard_base@DV?$stream_output_adapter@D@__crt_stdio_output@@@__crt_stdio_output@@QEAA@XZ 0000000180042ca0 f i libucrtd:output.obj
 0001:00041cc0       ??1?$standard_base@DV?$string_output_adapter@D@__crt_stdio_output@@@__crt_stdio_output@@QEAA@XZ 0000000180042cc0 f i libucrtd:output.obj
 0001:00041ce0       ??1?$standard_base@_WV?$stream_output_adapter@_W@__crt_stdio_output@@@__crt_stdio_output@@QEAA@XZ 0000000180042ce0 f i libucrtd:output.obj
 0001:00041d00       ??1?$standard_base@_WV?$string_output_adapter@_W@__crt_stdio_output@@@__crt_stdio_output@@QEAA@XZ 0000000180042d00 f i libucrtd:output.obj
 0001:00041d20       ??1__acrt_stdio_temporary_buffering_guard@@QEAA@XZ 0000000180042d20 f i libucrtd:output.obj
 0001:00041d50       ??1__crt_cached_ptd_host@@QEAA@XZ 0000000180042d50 f i libucrtd:output.obj
 0001:00041e00       ??1__crt_scoped_get_last_error_reset@@QEAA@XZ 0000000180042e00 f i libucrtd:output.obj
 0001:00041e20       ??1formatting_buffer@__crt_stdio_output@@QEAA@XZ 0000000180042e20 f i libucrtd:output.obj
 0001:00041e50       ??1guard@?$cached@H@__crt_cached_ptd_host@@QEAA@XZ 0000000180042e50 f i libucrtd:output.obj
 0001:00041e80       ??4?$__crt_unique_heap_ptr@DU__crt_internal_free_policy@@@@QEAAAEAV0@$$QEAV0@@Z 0000000180042e80 f i libucrtd:output.obj
 0001:00041ec0       ??A?$spectre_mitigated_lookup_table@Ustate_transition_pair@__crt_stdio_output@@$0IA@@__crt_stdio_output@@QEBAAEBUstate_transition_pair@1@_K@Z 0000000180042ec0 f i libucrtd:output.obj
 0001:00041ee0       ??C__crt_stdio_stream@@QEBAPEAU__crt_stdio_stream_data@@XZ 0000000180042ee0 f i libucrtd:output.obj
 0001:00042730       ?__crt_interlocked_read_32@@YAHPEDH@Z 0000000180043730 f i libucrtd:output.obj
 0001:00042750       ?adjust_hexit@?$output_processor@DV?$stream_output_adapter@D@__crt_stdio_output@@V?$format_validation_base@DV?$stream_output_adapter@D@__crt_stdio_output@@@2@@__crt_stdio_output@@CADH_N@Z 0000000180043750 f i libucrtd:output.obj
 0001:000427a0       ?adjust_hexit@?$output_processor@DV?$stream_output_adapter@D@__crt_stdio_output@@V?$positional_parameter_base@DV?$stream_output_adapter@D@__crt_stdio_output@@@2@@__crt_stdio_output@@CADH_N@Z 00000001800437a0 f i libucrtd:output.obj
 0001:000427f0       ?adjust_hexit@?$output_processor@DV?$stream_output_adapter@D@__crt_stdio_output@@V?$standard_base@DV?$stream_output_adapter@D@__crt_stdio_output@@@2@@__crt_stdio_output@@CADH_N@Z 00000001800437f0 f i libucrtd:output.obj
 0001:00042840       ?adjust_hexit@?$output_processor@DV?$string_output_adapter@D@__crt_stdio_output@@V?$format_validation_base@DV?$string_output_adapter@D@__crt_stdio_output@@@2@@__crt_stdio_output@@CADH_N@Z 0000000180043840 f i libucrtd:output.obj
 0001:00042890       ?adjust_hexit@?$output_processor@DV?$string_output_adapter@D@__crt_stdio_output@@V?$positional_parameter_base@DV?$string_output_adapter@D@__crt_stdio_output@@@2@@__crt_stdio_output@@CADH_N@Z 0000000180043890 f i libucrtd:output.obj
 0001:000428e0       ?adjust_hexit@?$output_processor@DV?$string_output_adapter@D@__crt_stdio_output@@V?$standard_base@DV?$string_output_adapter@D@__crt_stdio_output@@@2@@__crt_stdio_output@@CADH_N@Z 00000001800438e0 f i libucrtd:output.obj
 0001:00042930       ?adjust_hexit@?$output_processor@_WV?$stream_output_adapter@_W@__crt_stdio_output@@V?$format_validation_base@_WV?$stream_output_adapter@_W@__crt_stdio_output@@@2@@__crt_stdio_output@@CADH_N@Z 0000000180043930 f i libucrtd:output.obj
 0001:00042980       ?adjust_hexit@?$output_processor@_WV?$stream_output_adapter@_W@__crt_stdio_output@@V?$positional_parameter_base@_WV?$stream_output_adapter@_W@__crt_stdio_output@@@2@@__crt_stdio_output@@CADH_N@Z 0000000180043980 f i libucrtd:output.obj
 0001:000429d0       ?adjust_hexit@?$output_processor@_WV?$stream_output_adapter@_W@__crt_stdio_output@@V?$standard_base@_WV?$stream_output_adapter@_W@__crt_stdio_output@@@2@@__crt_stdio_output@@CADH_N@Z 00000001800439d0 f i libucrtd:output.obj
 0001:00042a20       ?adjust_hexit@?$output_processor@_WV?$string_output_adapter@_W@__crt_stdio_output@@V?$format_validation_base@_WV?$string_output_adapter@_W@__crt_stdio_output@@@2@@__crt_stdio_output@@CADH_N@Z 0000000180043a20 f i libucrtd:output.obj
 0001:00042a70       ?adjust_hexit@?$output_processor@_WV?$string_output_adapter@_W@__crt_stdio_output@@V?$positional_parameter_base@_WV?$string_output_adapter@_W@__crt_stdio_output@@@2@@__crt_stdio_output@@CADH_N@Z 0000000180043a70 f i libucrtd:output.obj
 0001:00042ac0       ?adjust_hexit@?$output_processor@_WV?$string_output_adapter@_W@__crt_stdio_output@@V?$standard_base@_WV?$string_output_adapter@_W@__crt_stdio_output@@@2@@__crt_stdio_output@@CADH_N@Z 0000000180043ac0 f i libucrtd:output.obj
 0001:00042b10       ?advance_to_next_pass@?$positional_parameter_base@DV?$stream_output_adapter@D@__crt_stdio_output@@@__crt_stdio_output@@IEAA_NXZ 0000000180043b10 f i libucrtd:output.obj
 0001:00042bc0       ?advance_to_next_pass@?$positional_parameter_base@DV?$string_output_adapter@D@__crt_stdio_output@@@__crt_stdio_output@@IEAA_NXZ 0000000180043bc0 f i libucrtd:output.obj
 0001:00042c70       ?advance_to_next_pass@?$positional_parameter_base@_WV?$stream_output_adapter@_W@__crt_stdio_output@@@__crt_stdio_output@@IEAA_NXZ 0000000180043c70 f i libucrtd:output.obj
 0001:00042d20       ?advance_to_next_pass@?$positional_parameter_base@_WV?$string_output_adapter@_W@__crt_stdio_output@@@__crt_stdio_output@@IEAA_NXZ 0000000180043d20 f i libucrtd:output.obj
 0001:00042dd0       ?advance_to_next_pass@?$standard_base@DV?$stream_output_adapter@D@__crt_stdio_output@@@__crt_stdio_output@@IEAA_NXZ 0000000180043dd0 f i libucrtd:output.obj
 0001:00042e20       ?advance_to_next_pass@?$standard_base@DV?$string_output_adapter@D@__crt_stdio_output@@@__crt_stdio_output@@IEAA_NXZ 0000000180043e20 f i libucrtd:output.obj
 0001:00042e70       ?advance_to_next_pass@?$standard_base@_WV?$stream_output_adapter@_W@__crt_stdio_output@@@__crt_stdio_output@@IEAA_NXZ 0000000180043e70 f i libucrtd:output.obj
 0001:00042ec0       ?advance_to_next_pass@?$standard_base@_WV?$string_output_adapter@_W@__crt_stdio_output@@@__crt_stdio_output@@IEAA_NXZ 0000000180043ec0 f i libucrtd:output.obj
 0001:00042f10       ?check@?$cached@H@__crt_cached_ptd_host@@QEBA_NH@Z 0000000180043f10 f i libucrtd:output.obj
 0001:00042f50       ?check_synchronize_global_state_index@__crt_cached_ptd_host@@AEAA_KAEBV__crt_scoped_get_last_error_reset@@@Z 0000000180043f50 f i libucrtd:output.obj
 0001:00042f90       ?check_synchronize_per_thread_data@__crt_cached_ptd_host@@AEAAPEAU__acrt_ptd@@XZ 0000000180043f90 f i libucrtd:output.obj
 0001:00042fd0       ?create_guard@?$cached@H@__crt_cached_ptd_host@@QEAA?AVguard@12@XZ 0000000180043fd0 f i libucrtd:output.obj
 0001:00043000       ?crop_zeroes@__crt_stdio_output@@YAXPEADQEAU__crt_locale_pointers@@@Z 0000000180044000 f i libucrtd:output.obj
 0001:00043150       ?disable@guard@?$cached@H@__crt_cached_ptd_host@@QEAAXXZ 0000000180044150 f i libucrtd:output.obj
 0001:00043160       ?enable@guard@?$cached@H@__crt_cached_ptd_host@@QEAAXXZ 0000000180044160 f i libucrtd:output.obj
 0001:00043170       ?find_next_state@?$output_processor@DV?$stream_output_adapter@D@__crt_stdio_output@@V?$format_validation_base@DV?$stream_output_adapter@D@__crt_stdio_output@@@2@@__crt_stdio_output@@AEBA?AW4state@2@DW432@@Z 0000000180044170 f i libucrtd:output.obj
 0001:00043210       ?find_next_state@?$output_processor@DV?$stream_output_adapter@D@__crt_stdio_output@@V?$positional_parameter_base@DV?$stream_output_adapter@D@__crt_stdio_output@@@2@@__crt_stdio_output@@AEBA?AW4state@2@DW432@@Z 0000000180044210 f i libucrtd:output.obj
 0001:000432b0       ?find_next_state@?$output_processor@DV?$stream_output_adapter@D@__crt_stdio_output@@V?$standard_base@DV?$stream_output_adapter@D@__crt_stdio_output@@@2@@__crt_stdio_output@@AEBA?AW4state@2@DW432@@Z 00000001800442b0 f i libucrtd:output.obj
 0001:00043350       ?find_next_state@?$output_processor@DV?$string_output_adapter@D@__crt_stdio_output@@V?$format_validation_base@DV?$string_output_adapter@D@__crt_stdio_output@@@2@@__crt_stdio_output@@AEBA?AW4state@2@DW432@@Z 0000000180044350 f i libucrtd:output.obj
 0001:000433f0       ?find_next_state@?$output_processor@DV?$string_output_adapter@D@__crt_stdio_output@@V?$positional_parameter_base@DV?$string_output_adapter@D@__crt_stdio_output@@@2@@__crt_stdio_output@@AEBA?AW4state@2@DW432@@Z 00000001800443f0 f i libucrtd:output.obj
 0001:00043490       ?find_next_state@?$output_processor@DV?$string_output_adapter@D@__crt_stdio_output@@V?$standard_base@DV?$string_output_adapter@D@__crt_stdio_output@@@2@@__crt_stdio_output@@AEBA?AW4state@2@DW432@@Z 0000000180044490 f i libucrtd:output.obj
 0001:00043530       ?find_next_state@?$output_processor@_WV?$stream_output_adapter@_W@__crt_stdio_output@@V?$format_validation_base@_WV?$stream_output_adapter@_W@__crt_stdio_output@@@2@@__crt_stdio_output@@AEBA?AW4state@2@_WW432@@Z 0000000180044530 f i libucrtd:output.obj
 0001:000435d0       ?find_next_state@?$output_processor@_WV?$stream_output_adapter@_W@__crt_stdio_output@@V?$positional_parameter_base@_WV?$stream_output_adapter@_W@__crt_stdio_output@@@2@@__crt_stdio_output@@AEBA?AW4state@2@_WW432@@Z 00000001800445d0 f i libucrtd:output.obj
 0001:00043670       ?find_next_state@?$output_processor@_WV?$stream_output_adapter@_W@__crt_stdio_output@@V?$standard_base@_WV?$stream_output_adapter@_W@__crt_stdio_output@@@2@@__crt_stdio_output@@AEBA?AW4state@2@_WW432@@Z 0000000180044670 f i libucrtd:output.obj
 0001:00043710       ?find_next_state@?$output_processor@_WV?$string_output_adapter@_W@__crt_stdio_output@@V?$format_validation_base@_WV?$string_output_adapter@_W@__crt_stdio_output@@@2@@__crt_stdio_output@@AEBA?AW4state@2@_WW432@@Z 0000000180044710 f i libucrtd:output.obj
 0001:000437b0       ?find_next_state@?$output_processor@_WV?$string_output_adapter@_W@__crt_stdio_output@@V?$positional_parameter_base@_WV?$string_output_adapter@_W@__crt_stdio_output@@@2@@__crt_stdio_output@@AEBA?AW4state@2@_WW432@@Z 00000001800447b0 f i libucrtd:output.obj
 0001:00043850       ?find_next_state@?$output_processor@_WV?$string_output_adapter@_W@__crt_stdio_output@@V?$standard_base@_WV?$string_output_adapter@_W@__crt_stdio_output@@@2@@__crt_stdio_output@@AEBA?AW4state@2@_WW432@@Z 0000000180044850 f i libucrtd:output.obj
 0001:000438f0       ?force_decimal_point@__crt_stdio_output@@YAXPEADQEAU__crt_locale_pointers@@@Z 00000001800448f0 f i libucrtd:output.obj
 0001:000439f0       ?force_synchronize_global_state_index@__crt_cached_ptd_host@@AEAA_KAEBV__crt_scoped_get_last_error_reset@@@Z 00000001800449f0 f i libucrtd:output.obj
 0001:00043a30       ?force_synchronize_per_thread_data@__crt_cached_ptd_host@@AEAAPEAU__acrt_ptd@@XZ 0000000180044a30 f i libucrtd:output.obj
 0001:00043a90       ?get@?$c_string_character_source@D@__crt_strtox@@QEAADXZ 0000000180044a90 f i libucrtd:output.obj
 0001:00043ad0       ?get@?$c_string_character_source@_W@__crt_strtox@@QEAA_WXZ 0000000180044ad0 f i libucrtd:output.obj
 0001:00043b10       ?get_current_state_index@__crt_state_management@@YA_KAEBV__crt_scoped_get_last_error_reset@@@Z 0000000180044b10 f i libucrtd:output.obj
 0001:00043b20       ?get_errno@__crt_cached_ptd_host@@QEAA@XZ 0000000180044b20 f i libucrtd:output.obj
 0001:00043b30       ?get_flags@__crt_stdio_stream@@QEBAJXZ 0000000180044b30 f i libucrtd:output.obj
 0001:00043b60       ?get_locale@__crt_cached_ptd_host@@QEAAPEAU__crt_locale_pointers@@XZ 0000000180044b60 f i libucrtd:output.obj
 0001:00043b90       ?get_parameter_type@?$positional_parameter_base@DV?$stream_output_adapter@D@__crt_stdio_output@@@__crt_stdio_output@@CA?AW4parameter_type@12@F@Z 0000000180044b90 f i libucrtd:output.obj
 0001:00043ba0       ?get_parameter_type@?$positional_parameter_base@DV?$stream_output_adapter@D@__crt_stdio_output@@@__crt_stdio_output@@CA?AW4parameter_type@12@G@Z 0000000180044ba0 f i libucrtd:output.obj
 0001:00043bb0       ?get_parameter_type@?$positional_parameter_base@DV?$stream_output_adapter@D@__crt_stdio_output@@@__crt_stdio_output@@CA?AW4parameter_type@12@H@Z 0000000180044bb0 f i libucrtd:output.obj
 0001:00043bc0       ?get_parameter_type@?$positional_parameter_base@DV?$stream_output_adapter@D@__crt_stdio_output@@@__crt_stdio_output@@CA?AW4parameter_type@12@I@Z 0000000180044bc0 f i libucrtd:output.obj
 0001:00043bd0       ?get_parameter_type@?$positional_parameter_base@DV?$stream_output_adapter@D@__crt_stdio_output@@@__crt_stdio_output@@CA?AW4parameter_type@12@U_CRT_DOUBLE@@@Z 0000000180044bd0 f i libucrtd:output.obj
 0001:00043be0       ?get_parameter_type@?$positional_parameter_base@DV?$stream_output_adapter@D@__crt_stdio_output@@@__crt_stdio_output@@CA?AW4parameter_type@12@_J@Z 0000000180044be0 f i libucrtd:output.obj
 0001:00043bf0       ?get_parameter_type@?$positional_parameter_base@DV?$stream_output_adapter@D@__crt_stdio_output@@@__crt_stdio_output@@CA?AW4parameter_type@12@_K@Z 0000000180044bf0 f i libucrtd:output.obj
 0001:00043c00       ?get_parameter_type@?$positional_parameter_base@DV?$stream_output_adapter@D@__crt_stdio_output@@@__crt_stdio_output@@CA?AW4parameter_type@12@_W@Z 0000000180044c00 f i libucrtd:output.obj
 0001:00043c10       ?get_parameter_type@?$positional_parameter_base@DV?$string_output_adapter@D@__crt_stdio_output@@@__crt_stdio_output@@CA?AW4parameter_type@12@F@Z 0000000180044c10 f i libucrtd:output.obj
 0001:00043c20       ?get_parameter_type@?$positional_parameter_base@DV?$string_output_adapter@D@__crt_stdio_output@@@__crt_stdio_output@@CA?AW4parameter_type@12@G@Z 0000000180044c20 f i libucrtd:output.obj
 0001:00043c30       ?get_parameter_type@?$positional_parameter_base@DV?$string_output_adapter@D@__crt_stdio_output@@@__crt_stdio_output@@CA?AW4parameter_type@12@H@Z 0000000180044c30 f i libucrtd:output.obj
 0001:00043c40       ?get_parameter_type@?$positional_parameter_base@DV?$string_output_adapter@D@__crt_stdio_output@@@__crt_stdio_output@@CA?AW4parameter_type@12@I@Z 0000000180044c40 f i libucrtd:output.obj
 0001:00043c50       ?get_parameter_type@?$positional_parameter_base@DV?$string_output_adapter@D@__crt_stdio_output@@@__crt_stdio_output@@CA?AW4parameter_type@12@U_CRT_DOUBLE@@@Z 0000000180044c50 f i libucrtd:output.obj
 0001:00043c60       ?get_parameter_type@?$positional_parameter_base@DV?$string_output_adapter@D@__crt_stdio_output@@@__crt_stdio_output@@CA?AW4parameter_type@12@_J@Z 0000000180044c60 f i libucrtd:output.obj
 0001:00043c70       ?get_parameter_type@?$positional_parameter_base@DV?$string_output_adapter@D@__crt_stdio_output@@@__crt_stdio_output@@CA?AW4parameter_type@12@_K@Z 0000000180044c70 f i libucrtd:output.obj
 0001:00043c80       ?get_parameter_type@?$positional_parameter_base@DV?$string_output_adapter@D@__crt_stdio_output@@@__crt_stdio_output@@CA?AW4parameter_type@12@_W@Z 0000000180044c80 f i libucrtd:output.obj
 0001:00043c90       ?get_parameter_type@?$positional_parameter_base@_WV?$stream_output_adapter@_W@__crt_stdio_output@@@__crt_stdio_output@@CA?AW4parameter_type@12@F@Z 0000000180044c90 f i libucrtd:output.obj
 0001:00043ca0       ?get_parameter_type@?$positional_parameter_base@_WV?$stream_output_adapter@_W@__crt_stdio_output@@@__crt_stdio_output@@CA?AW4parameter_type@12@G@Z 0000000180044ca0 f i libucrtd:output.obj
 0001:00043cb0       ?get_parameter_type@?$positional_parameter_base@_WV?$stream_output_adapter@_W@__crt_stdio_output@@@__crt_stdio_output@@CA?AW4parameter_type@12@H@Z 0000000180044cb0 f i libucrtd:output.obj
 0001:00043cc0       ?get_parameter_type@?$positional_parameter_base@_WV?$stream_output_adapter@_W@__crt_stdio_output@@@__crt_stdio_output@@CA?AW4parameter_type@12@I@Z 0000000180044cc0 f i libucrtd:output.obj
 0001:00043cd0       ?get_parameter_type@?$positional_parameter_base@_WV?$stream_output_adapter@_W@__crt_stdio_output@@@__crt_stdio_output@@CA?AW4parameter_type@12@U_CRT_DOUBLE@@@Z 0000000180044cd0 f i libucrtd:output.obj
 0001:00043ce0       ?get_parameter_type@?$positional_parameter_base@_WV?$stream_output_adapter@_W@__crt_stdio_output@@@__crt_stdio_output@@CA?AW4parameter_type@12@_J@Z 0000000180044ce0 f i libucrtd:output.obj
 0001:00043cf0       ?get_parameter_type@?$positional_parameter_base@_WV?$stream_output_adapter@_W@__crt_stdio_output@@@__crt_stdio_output@@CA?AW4parameter_type@12@_K@Z 0000000180044cf0 f i libucrtd:output.obj
 0001:00043d00       ?get_parameter_type@?$positional_parameter_base@_WV?$stream_output_adapter@_W@__crt_stdio_output@@@__crt_stdio_output@@CA?AW4parameter_type@12@_W@Z 0000000180044d00 f i libucrtd:output.obj
 0001:00043d10       ?get_parameter_type@?$positional_parameter_base@_WV?$string_output_adapter@_W@__crt_stdio_output@@@__crt_stdio_output@@CA?AW4parameter_type@12@F@Z 0000000180044d10 f i libucrtd:output.obj
 0001:00043d20       ?get_parameter_type@?$positional_parameter_base@_WV?$string_output_adapter@_W@__crt_stdio_output@@@__crt_stdio_output@@CA?AW4parameter_type@12@G@Z 0000000180044d20 f i libucrtd:output.obj
 0001:00043d30       ?get_parameter_type@?$positional_parameter_base@_WV?$string_output_adapter@_W@__crt_stdio_output@@@__crt_stdio_output@@CA?AW4parameter_type@12@H@Z 0000000180044d30 f i libucrtd:output.obj
 0001:00043d40       ?get_parameter_type@?$positional_parameter_base@_WV?$string_output_adapter@_W@__crt_stdio_output@@@__crt_stdio_output@@CA?AW4parameter_type@12@I@Z 0000000180044d40 f i libucrtd:output.obj
 0001:00043d50       ?get_parameter_type@?$positional_parameter_base@_WV?$string_output_adapter@_W@__crt_stdio_output@@@__crt_stdio_output@@CA?AW4parameter_type@12@U_CRT_DOUBLE@@@Z 0000000180044d50 f i libucrtd:output.obj
 0001:00043d60       ?get_parameter_type@?$positional_parameter_base@_WV?$string_output_adapter@_W@__crt_stdio_output@@@__crt_stdio_output@@CA?AW4parameter_type@12@_J@Z 0000000180044d60 f i libucrtd:output.obj
 0001:00043d70       ?get_parameter_type@?$positional_parameter_base@_WV?$string_output_adapter@_W@__crt_stdio_output@@@__crt_stdio_output@@CA?AW4parameter_type@12@_K@Z 0000000180044d70 f i libucrtd:output.obj
 0001:00043d80       ?get_parameter_type@?$positional_parameter_base@_WV?$string_output_adapter@_W@__crt_stdio_output@@@__crt_stdio_output@@CA?AW4parameter_type@12@_W@Z 0000000180044d80 f i libucrtd:output.obj
 0001:00043d90       ?get_raw_ptd@__crt_cached_ptd_host@@QEAAPEAU__acrt_ptd@@XZ 0000000180044d90 f i libucrtd:output.obj
 0001:00043db0       ?has_flag@?$output_processor@DV?$stream_output_adapter@D@__crt_stdio_output@@V?$format_validation_base@DV?$stream_output_adapter@D@__crt_stdio_output@@@2@@__crt_stdio_output@@AEBA_NI@Z 0000000180044db0 f i libucrtd:output.obj
 0001:00043df0       ?has_flag@?$output_processor@DV?$stream_output_adapter@D@__crt_stdio_output@@V?$positional_parameter_base@DV?$stream_output_adapter@D@__crt_stdio_output@@@2@@__crt_stdio_output@@AEBA_NI@Z 0000000180044df0 f i libucrtd:output.obj
 0001:00043e30       ?has_flag@?$output_processor@DV?$stream_output_adapter@D@__crt_stdio_output@@V?$standard_base@DV?$stream_output_adapter@D@__crt_stdio_output@@@2@@__crt_stdio_output@@AEBA_NI@Z 0000000180044e30 f i libucrtd:output.obj
 0001:00043e70       ?has_flag@?$output_processor@DV?$string_output_adapter@D@__crt_stdio_output@@V?$format_validation_base@DV?$string_output_adapter@D@__crt_stdio_output@@@2@@__crt_stdio_output@@AEBA_NI@Z 0000000180044e70 f i libucrtd:output.obj
 0001:00043eb0       ?has_flag@?$output_processor@DV?$string_output_adapter@D@__crt_stdio_output@@V?$positional_parameter_base@DV?$string_output_adapter@D@__crt_stdio_output@@@2@@__crt_stdio_output@@AEBA_NI@Z 0000000180044eb0 f i libucrtd:output.obj
 0001:00043ef0       ?has_flag@?$output_processor@DV?$string_output_adapter@D@__crt_stdio_output@@V?$standard_base@DV?$string_output_adapter@D@__crt_stdio_output@@@2@@__crt_stdio_output@@AEBA_NI@Z 0000000180044ef0 f i libucrtd:output.obj
 0001:00043f30       ?has_flag@?$output_processor@_WV?$stream_output_adapter@_W@__crt_stdio_output@@V?$format_validation_base@_WV?$stream_output_adapter@_W@__crt_stdio_output@@@2@@__crt_stdio_output@@AEBA_NI@Z 0000000180044f30 f i libucrtd:output.obj
 0001:00043f70       ?has_flag@?$output_processor@_WV?$stream_output_adapter@_W@__crt_stdio_output@@V?$positional_parameter_base@_WV?$stream_output_adapter@_W@__crt_stdio_output@@@2@@__crt_stdio_output@@AEBA_NI@Z 0000000180044f70 f i libucrtd:output.obj
 0001:00043fb0       ?has_flag@?$output_processor@_WV?$stream_output_adapter@_W@__crt_stdio_output@@V?$standard_base@_WV?$stream_output_adapter@_W@__crt_stdio_output@@@2@@__crt_stdio_output@@AEBA_NI@Z 0000000180044fb0 f i libucrtd:output.obj
 0001:00043ff0       ?has_flag@?$output_processor@_WV?$string_output_adapter@_W@__crt_stdio_output@@V?$format_validation_base@_WV?$string_output_adapter@_W@__crt_stdio_output@@@2@@__crt_stdio_output@@AEBA_NI@Z 0000000180044ff0 f i libucrtd:output.obj
 0001:00044030       ?has_flag@?$output_processor@_WV?$string_output_adapter@_W@__crt_stdio_output@@V?$positional_parameter_base@_WV?$string_output_adapter@_W@__crt_stdio_output@@@2@@__crt_stdio_output@@AEBA_NI@Z 0000000180045030 f i libucrtd:output.obj
 0001:00044070       ?has_flag@?$output_processor@_WV?$string_output_adapter@_W@__crt_stdio_output@@V?$standard_base@_WV?$string_output_adapter@_W@__crt_stdio_output@@@2@@__crt_stdio_output@@AEBA_NI@Z 0000000180045070 f i libucrtd:output.obj
 0001:000440b0       ?is_positional_parameter_reappearance_consistent@?$positional_parameter_base@DV?$stream_output_adapter@D@__crt_stdio_output@@@__crt_stdio_output@@AEAA_NAEBUparameter_data@12@W4parameter_type@12@DW4length_modifier@2@@Z 00000001800450b0 f i libucrtd:output.obj
 0001:00044310       ?is_positional_parameter_reappearance_consistent@?$positional_parameter_base@DV?$string_output_adapter@D@__crt_stdio_output@@@__crt_stdio_output@@AEAA_NAEBUparameter_data@12@W4parameter_type@12@DW4length_modifier@2@@Z 0000000180045310 f i libucrtd:output.obj
 0001:00044570       ?is_positional_parameter_reappearance_consistent@?$positional_parameter_base@_WV?$stream_output_adapter@_W@__crt_stdio_output@@@__crt_stdio_output@@AEAA_NAEBUparameter_data@12@W4parameter_type@12@_WW4length_modifier@2@@Z 0000000180045570 f i libucrtd:output.obj
 0001:000447d0       ?is_positional_parameter_reappearance_consistent@?$positional_parameter_base@_WV?$string_output_adapter@_W@__crt_stdio_output@@@__crt_stdio_output@@AEAA_NAEBUparameter_data@12@W4parameter_type@12@_WW4length_modifier@2@@Z 00000001800457d0 f i libucrtd:output.obj
 0001:00044a30       ?is_string_backed@__crt_stdio_stream@@QEBA_NXZ 0000000180045a30 f i libucrtd:output.obj
 0001:00044a70       ?maximum_signed_value@__crt_strtox@@YAJK@Z 0000000180045a70 f i libucrtd:output.obj
 0001:00044a80       ?minimum_signed_value@__crt_strtox@@YAJK@Z 0000000180045a80 f i libucrtd:output.obj
 0001:00044a90       ?narrow_null_string@?$output_processor@DV?$stream_output_adapter@D@__crt_stdio_output@@V?$format_validation_base@DV?$stream_output_adapter@D@__crt_stdio_output@@@2@@__crt_stdio_output@@CAPEADXZ 0000000180045a90 f i libucrtd:output.obj
 0001:00044aa0       ?narrow_null_string@?$output_processor@DV?$stream_output_adapter@D@__crt_stdio_output@@V?$positional_parameter_base@DV?$stream_output_adapter@D@__crt_stdio_output@@@2@@__crt_stdio_output@@CAPEADXZ 0000000180045aa0 f i libucrtd:output.obj
 0001:00044ab0       ?narrow_null_string@?$output_processor@DV?$stream_output_adapter@D@__crt_stdio_output@@V?$standard_base@DV?$stream_output_adapter@D@__crt_stdio_output@@@2@@__crt_stdio_output@@CAPEADXZ 0000000180045ab0 f i libucrtd:output.obj
 0001:00044ac0       ?narrow_null_string@?$output_processor@DV?$string_output_adapter@D@__crt_stdio_output@@V?$format_validation_base@DV?$string_output_adapter@D@__crt_stdio_output@@@2@@__crt_stdio_output@@CAPEADXZ 0000000180045ac0 f i libucrtd:output.obj
 0001:00044ad0       ?narrow_null_string@?$output_processor@DV?$string_output_adapter@D@__crt_stdio_output@@V?$positional_parameter_base@DV?$string_output_adapter@D@__crt_stdio_output@@@2@@__crt_stdio_output@@CAPEADXZ 0000000180045ad0 f i libucrtd:output.obj
 0001:00044ae0       ?narrow_null_string@?$output_processor@DV?$string_output_adapter@D@__crt_stdio_output@@V?$standard_base@DV?$string_output_adapter@D@__crt_stdio_output@@@2@@__crt_stdio_output@@CAPEADXZ 0000000180045ae0 f i libucrtd:output.obj
 0001:00044af0       ?narrow_null_string@?$output_processor@_WV?$stream_output_adapter@_W@__crt_stdio_output@@V?$format_validation_base@_WV?$stream_output_adapter@_W@__crt_stdio_output@@@2@@__crt_stdio_output@@CAPEADXZ 0000000180045af0 f i libucrtd:output.obj
 0001:00044b00       ?narrow_null_string@?$output_processor@_WV?$stream_output_adapter@_W@__crt_stdio_output@@V?$positional_parameter_base@_WV?$stream_output_adapter@_W@__crt_stdio_output@@@2@@__crt_stdio_output@@CAPEADXZ 0000000180045b00 f i libucrtd:output.obj
 0001:00044b10       ?narrow_null_string@?$output_processor@_WV?$stream_output_adapter@_W@__crt_stdio_output@@V?$standard_base@_WV?$stream_output_adapter@_W@__crt_stdio_output@@@2@@__crt_stdio_output@@CAPEADXZ 0000000180045b10 f i libucrtd:output.obj
 0001:00044b20       ?narrow_null_string@?$output_processor@_WV?$string_output_adapter@_W@__crt_stdio_output@@V?$format_validation_base@_WV?$string_output_adapter@_W@__crt_stdio_output@@@2@@__crt_stdio_output@@CAPEADXZ 0000000180045b20 f i libucrtd:output.obj
 0001:00044b30       ?narrow_null_string@?$output_processor@_WV?$string_output_adapter@_W@__crt_stdio_output@@V?$positional_parameter_base@_WV?$string_output_adapter@_W@__crt_stdio_output@@@2@@__crt_stdio_output@@CAPEADXZ 0000000180045b30 f i libucrtd:output.obj
 0001:00044b40       ?narrow_null_string@?$output_processor@_WV?$string_output_adapter@_W@__crt_stdio_output@@V?$standard_base@_WV?$string_output_adapter@_W@__crt_stdio_output@@@2@@__crt_stdio_output@@CAPEADXZ 0000000180045b40 f i libucrtd:output.obj
 0001:00044b50       ?parse_digit@__crt_strtox@@YAID@Z 0000000180045b50 f i libucrtd:output.obj
 0001:00044bc0       ?parse_digit@__crt_strtox@@YAI_W@Z 0000000180045bc0 f i libucrtd:output.obj
 0001:00044c10       ?parse_int_from_format_string@?$output_processor@DV?$stream_output_adapter@D@__crt_stdio_output@@V?$format_validation_base@DV?$stream_output_adapter@D@__crt_stdio_output@@@2@@__crt_stdio_output@@AEAA_NQEAH@Z 0000000180045c10 f i libucrtd:output.obj
 0001:00044d10       ?parse_int_from_format_string@?$output_processor@DV?$stream_output_adapter@D@__crt_stdio_output@@V?$positional_parameter_base@DV?$stream_output_adapter@D@__crt_stdio_output@@@2@@__crt_stdio_output@@AEAA_NQEAH@Z 0000000180045d10 f i libucrtd:output.obj
 0001:00044e10       ?parse_int_from_format_string@?$output_processor@DV?$stream_output_adapter@D@__crt_stdio_output@@V?$standard_base@DV?$stream_output_adapter@D@__crt_stdio_output@@@2@@__crt_stdio_output@@AEAA_NQEAH@Z 0000000180045e10 f i libucrtd:output.obj
 0001:00044f10       ?parse_int_from_format_string@?$output_processor@DV?$string_output_adapter@D@__crt_stdio_output@@V?$format_validation_base@DV?$string_output_adapter@D@__crt_stdio_output@@@2@@__crt_stdio_output@@AEAA_NQEAH@Z 0000000180045f10 f i libucrtd:output.obj
 0001:00045010       ?parse_int_from_format_string@?$output_processor@DV?$string_output_adapter@D@__crt_stdio_output@@V?$positional_parameter_base@DV?$string_output_adapter@D@__crt_stdio_output@@@2@@__crt_stdio_output@@AEAA_NQEAH@Z 0000000180046010 f i libucrtd:output.obj
 0001:00045110       ?parse_int_from_format_string@?$output_processor@DV?$string_output_adapter@D@__crt_stdio_output@@V?$standard_base@DV?$string_output_adapter@D@__crt_stdio_output@@@2@@__crt_stdio_output@@AEAA_NQEAH@Z 0000000180046110 f i libucrtd:output.obj
 0001:00045210       ?parse_int_from_format_string@?$output_processor@_WV?$stream_output_adapter@_W@__crt_stdio_output@@V?$format_validation_base@_WV?$stream_output_adapter@_W@__crt_stdio_output@@@2@@__crt_stdio_output@@AEAA_NQEAH@Z 0000000180046210 f i libucrtd:output.obj
 0001:00045310       ?parse_int_from_format_string@?$output_processor@_WV?$stream_output_adapter@_W@__crt_stdio_output@@V?$positional_parameter_base@_WV?$stream_output_adapter@_W@__crt_stdio_output@@@2@@__crt_stdio_output@@AEAA_NQEAH@Z 0000000180046310 f i libucrtd:output.obj
 0001:00045410       ?parse_int_from_format_string@?$output_processor@_WV?$stream_output_adapter@_W@__crt_stdio_output@@V?$standard_base@_WV?$stream_output_adapter@_W@__crt_stdio_output@@@2@@__crt_stdio_output@@AEAA_NQEAH@Z 0000000180046410 f i libucrtd:output.obj
 0001:00045510       ?parse_int_from_format_string@?$output_processor@_WV?$string_output_adapter@_W@__crt_stdio_output@@V?$format_validation_base@_WV?$string_output_adapter@_W@__crt_stdio_output@@@2@@__crt_stdio_output@@AEAA_NQEAH@Z 0000000180046510 f i libucrtd:output.obj
 0001:00045610       ?parse_int_from_format_string@?$output_processor@_WV?$string_output_adapter@_W@__crt_stdio_output@@V?$positional_parameter_base@_WV?$string_output_adapter@_W@__crt_stdio_output@@@2@@__crt_stdio_output@@AEAA_NQEAH@Z 0000000180046610 f i libucrtd:output.obj
 0001:00045710       ?parse_int_from_format_string@?$output_processor@_WV?$string_output_adapter@_W@__crt_stdio_output@@V?$standard_base@_WV?$string_output_adapter@_W@__crt_stdio_output@@@2@@__crt_stdio_output@@AEAA_NQEAH@Z 0000000180046710 f i libucrtd:output.obj
 0001:00045810       ?process@?$output_processor@DV?$stream_output_adapter@D@__crt_stdio_output@@V?$format_validation_base@DV?$stream_output_adapter@D@__crt_stdio_output@@@2@@__crt_stdio_output@@QEAAHXZ 0000000180046810 f i libucrtd:output.obj
 0001:00045bd0       ?process@?$output_processor@DV?$stream_output_adapter@D@__crt_stdio_output@@V?$positional_parameter_base@DV?$stream_output_adapter@D@__crt_stdio_output@@@2@@__crt_stdio_output@@QEAAHXZ 0000000180046bd0 f i libucrtd:output.obj
 0001:00045f90       ?process@?$output_processor@DV?$stream_output_adapter@D@__crt_stdio_output@@V?$standard_base@DV?$stream_output_adapter@D@__crt_stdio_output@@@2@@__crt_stdio_output@@QEAAHXZ 0000000180046f90 f i libucrtd:output.obj
 0001:00046350       ?process@?$output_processor@DV?$string_output_adapter@D@__crt_stdio_output@@V?$format_validation_base@DV?$string_output_adapter@D@__crt_stdio_output@@@2@@__crt_stdio_output@@QEAAHXZ 0000000180047350 f i libucrtd:output.obj
 0001:00046710       ?process@?$output_processor@DV?$string_output_adapter@D@__crt_stdio_output@@V?$positional_parameter_base@DV?$string_output_adapter@D@__crt_stdio_output@@@2@@__crt_stdio_output@@QEAAHXZ 0000000180047710 f i libucrtd:output.obj
 0001:00046ad0       ?process@?$output_processor@DV?$string_output_adapter@D@__crt_stdio_output@@V?$standard_base@DV?$string_output_adapter@D@__crt_stdio_output@@@2@@__crt_stdio_output@@QEAAHXZ 0000000180047ad0 f i libucrtd:output.obj
 0001:00046e90       ?process@?$output_processor@_WV?$stream_output_adapter@_W@__crt_stdio_output@@V?$format_validation_base@_WV?$stream_output_adapter@_W@__crt_stdio_output@@@2@@__crt_stdio_output@@QEAAHXZ 0000000180047e90 f i libucrtd:output.obj
 0001:00047250       ?process@?$output_processor@_WV?$stream_output_adapter@_W@__crt_stdio_output@@V?$positional_parameter_base@_WV?$stream_output_adapter@_W@__crt_stdio_output@@@2@@__crt_stdio_output@@QEAAHXZ 0000000180048250 f i libucrtd:output.obj
 0001:00047610       ?process@?$output_processor@_WV?$stream_output_adapter@_W@__crt_stdio_output@@V?$standard_base@_WV?$stream_output_adapter@_W@__crt_stdio_output@@@2@@__crt_stdio_output@@QEAAHXZ 0000000180048610 f i libucrtd:output.obj
 0001:000479d0       ?process@?$output_processor@_WV?$string_output_adapter@_W@__crt_stdio_output@@V?$format_validation_base@_WV?$string_output_adapter@_W@__crt_stdio_output@@@2@@__crt_stdio_output@@QEAAHXZ 00000001800489d0 f i libucrtd:output.obj
 0001:00047d90       ?process@?$output_processor@_WV?$string_output_adapter@_W@__crt_stdio_output@@V?$positional_parameter_base@_WV?$string_output_adapter@_W@__crt_stdio_output@@@2@@__crt_stdio_output@@QEAAHXZ 0000000180048d90 f i libucrtd:output.obj
 0001:00048150       ?process@?$output_processor@_WV?$string_output_adapter@_W@__crt_stdio_output@@V?$standard_base@_WV?$string_output_adapter@_W@__crt_stdio_output@@@2@@__crt_stdio_output@@QEAAHXZ 0000000180049150 f i libucrtd:output.obj
 0001:00048510       ?public_stream@__crt_stdio_stream@@QEBAPEAU_iobuf@@XZ 0000000180049510 f i libucrtd:output.obj
 0001:00048520       ?restore_state@?$c_string_character_source@D@__crt_strtox@@QEAA_NQEBD@Z 0000000180049520 f i libucrtd:output.obj
 0001:00048540       ?restore_state@?$c_string_character_source@_W@__crt_strtox@@QEAA_NQEB_W@Z 0000000180049540 f i libucrtd:output.obj
 0001:00048560       ?save_state@?$c_string_character_source@D@__crt_strtox@@QEBAPEBDXZ 0000000180049560 f i libucrtd:output.obj
 0001:00048570       ?save_state@?$c_string_character_source@_W@__crt_strtox@@QEBAPEB_WXZ 0000000180049570 f i libucrtd:output.obj
 0001:00048580       ?set@?$cached@H@__crt_cached_ptd_host@@QEAAHH@Z 0000000180049580 f i libucrtd:output.obj
 0001:000485b0       ?set_flag@?$output_processor@DV?$stream_output_adapter@D@__crt_stdio_output@@V?$format_validation_base@DV?$stream_output_adapter@D@__crt_stdio_output@@@2@@__crt_stdio_output@@AEAAXI@Z 00000001800495b0 f i libucrtd:output.obj
 0001:000485d0       ?set_flag@?$output_processor@DV?$stream_output_adapter@D@__crt_stdio_output@@V?$positional_parameter_base@DV?$stream_output_adapter@D@__crt_stdio_output@@@2@@__crt_stdio_output@@AEAAXI@Z 00000001800495d0 f i libucrtd:output.obj
 0001:000485f0       ?set_flag@?$output_processor@DV?$stream_output_adapter@D@__crt_stdio_output@@V?$standard_base@DV?$stream_output_adapter@D@__crt_stdio_output@@@2@@__crt_stdio_output@@AEAAXI@Z 00000001800495f0 f i libucrtd:output.obj
 0001:00048610       ?set_flag@?$output_processor@DV?$string_output_adapter@D@__crt_stdio_output@@V?$format_validation_base@DV?$string_output_adapter@D@__crt_stdio_output@@@2@@__crt_stdio_output@@AEAAXI@Z 0000000180049610 f i libucrtd:output.obj
 0001:00048630       ?set_flag@?$output_processor@DV?$string_output_adapter@D@__crt_stdio_output@@V?$positional_parameter_base@DV?$string_output_adapter@D@__crt_stdio_output@@@2@@__crt_stdio_output@@AEAAXI@Z 0000000180049630 f i libucrtd:output.obj
 0001:00048650       ?set_flag@?$output_processor@DV?$string_output_adapter@D@__crt_stdio_output@@V?$standard_base@DV?$string_output_adapter@D@__crt_stdio_output@@@2@@__crt_stdio_output@@AEAAXI@Z 0000000180049650 f i libucrtd:output.obj
 0001:00048670       ?set_flag@?$output_processor@_WV?$stream_output_adapter@_W@__crt_stdio_output@@V?$format_validation_base@_WV?$stream_output_adapter@_W@__crt_stdio_output@@@2@@__crt_stdio_output@@AEAAXI@Z 0000000180049670 f i libucrtd:output.obj
 0001:00048690       ?set_flag@?$output_processor@_WV?$stream_output_adapter@_W@__crt_stdio_output@@V?$positional_parameter_base@_WV?$stream_output_adapter@_W@__crt_stdio_output@@@2@@__crt_stdio_output@@AEAAXI@Z 0000000180049690 f i libucrtd:output.obj
 0001:000486b0       ?set_flag@?$output_processor@_WV?$stream_output_adapter@_W@__crt_stdio_output@@V?$standard_base@_WV?$stream_output_adapter@_W@__crt_stdio_output@@@2@@__crt_stdio_output@@AEAAXI@Z 00000001800496b0 f i libucrtd:output.obj
 0001:000486d0       ?set_flag@?$output_processor@_WV?$string_output_adapter@_W@__crt_stdio_output@@V?$format_validation_base@_WV?$string_output_adapter@_W@__crt_stdio_output@@@2@@__crt_stdio_output@@AEAAXI@Z 00000001800496d0 f i libucrtd:output.obj
 0001:000486f0       ?set_flag@?$output_processor@_WV?$string_output_adapter@_W@__crt_stdio_output@@V?$positional_parameter_base@_WV?$string_output_adapter@_W@__crt_stdio_output@@@2@@__crt_stdio_output@@AEAAXI@Z 00000001800496f0 f i libucrtd:output.obj
 0001:00048710       ?set_flag@?$output_processor@_WV?$string_output_adapter@_W@__crt_stdio_output@@V?$standard_base@_WV?$string_output_adapter@_W@__crt_stdio_output@@@2@@__crt_stdio_output@@AEAAXI@Z 0000000180049710 f i libucrtd:output.obj
 0001:00048730       ?should_format@?$positional_parameter_base@DV?$stream_output_adapter@D@__crt_stdio_output@@@__crt_stdio_output@@IEAA_NXZ 0000000180049730 f i libucrtd:output.obj
 0001:00048770       ?should_format@?$positional_parameter_base@DV?$string_output_adapter@D@__crt_stdio_output@@@__crt_stdio_output@@IEAA_NXZ 0000000180049770 f i libucrtd:output.obj
 0001:000487b0       ?should_format@?$positional_parameter_base@_WV?$stream_output_adapter@_W@__crt_stdio_output@@@__crt_stdio_output@@IEAA_NXZ 00000001800497b0 f i libucrtd:output.obj
 0001:000487f0       ?should_format@?$positional_parameter_base@_WV?$string_output_adapter@_W@__crt_stdio_output@@@__crt_stdio_output@@IEAA_NXZ 00000001800497f0 f i libucrtd:output.obj
 0001:00048830       ?should_format@?$standard_base@DV?$stream_output_adapter@D@__crt_stdio_output@@@__crt_stdio_output@@IEAA_NXZ 0000000180049830 f i libucrtd:output.obj
 0001:00048840       ?should_format@?$standard_base@DV?$string_output_adapter@D@__crt_stdio_output@@@__crt_stdio_output@@IEAA_NXZ 0000000180049840 f i libucrtd:output.obj
 0001:00048850       ?should_format@?$standard_base@_WV?$stream_output_adapter@_W@__crt_stdio_output@@@__crt_stdio_output@@IEAA_NXZ 0000000180049850 f i libucrtd:output.obj
 0001:00048860       ?should_format@?$standard_base@_WV?$string_output_adapter@_W@__crt_stdio_output@@@__crt_stdio_output@@IEAA_NXZ 0000000180049860 f i libucrtd:output.obj
 0001:00048870       ?should_skip_normal_state_processing@?$positional_parameter_base@DV?$stream_output_adapter@D@__crt_stdio_output@@@__crt_stdio_output@@IEAA_NXZ 0000000180049870 f i libucrtd:output.obj
 0001:000488c0       ?should_skip_normal_state_processing@?$positional_parameter_base@DV?$string_output_adapter@D@__crt_stdio_output@@@__crt_stdio_output@@IEAA_NXZ 00000001800498c0 f i libucrtd:output.obj
 0001:00048910       ?should_skip_normal_state_processing@?$positional_parameter_base@_WV?$stream_output_adapter@_W@__crt_stdio_output@@@__crt_stdio_output@@IEAA_NXZ 0000000180049910 f i libucrtd:output.obj
 0001:00048960       ?should_skip_normal_state_processing@?$positional_parameter_base@_WV?$string_output_adapter@_W@__crt_stdio_output@@@__crt_stdio_output@@IEAA_NXZ 0000000180049960 f i libucrtd:output.obj
 0001:000489b0       ?should_skip_normal_state_processing@?$standard_base@DV?$stream_output_adapter@D@__crt_stdio_output@@@__crt_stdio_output@@IEAA_NXZ 00000001800499b0 f i libucrtd:output.obj
 0001:000489c0       ?should_skip_normal_state_processing@?$standard_base@DV?$string_output_adapter@D@__crt_stdio_output@@@__crt_stdio_output@@IEAA_NXZ 00000001800499c0 f i libucrtd:output.obj
 0001:000489d0       ?should_skip_normal_state_processing@?$standard_base@_WV?$stream_output_adapter@_W@__crt_stdio_output@@@__crt_stdio_output@@IEAA_NXZ 00000001800499d0 f i libucrtd:output.obj
 0001:000489e0       ?should_skip_normal_state_processing@?$standard_base@_WV?$string_output_adapter@_W@__crt_stdio_output@@@__crt_stdio_output@@IEAA_NXZ 00000001800499e0 f i libucrtd:output.obj
 0001:000489f0       ?should_skip_type_state_output@?$positional_parameter_base@DV?$stream_output_adapter@D@__crt_stdio_output@@@__crt_stdio_output@@IEBA_NXZ 00000001800499f0 f i libucrtd:output.obj
 0001:00048a30       ?should_skip_type_state_output@?$positional_parameter_base@DV?$string_output_adapter@D@__crt_stdio_output@@@__crt_stdio_output@@IEBA_NXZ 0000000180049a30 f i libucrtd:output.obj
 0001:00048a70       ?should_skip_type_state_output@?$positional_parameter_base@_WV?$stream_output_adapter@_W@__crt_stdio_output@@@__crt_stdio_output@@IEBA_NXZ 0000000180049a70 f i libucrtd:output.obj
 0001:00048ab0       ?should_skip_type_state_output@?$positional_parameter_base@_WV?$string_output_adapter@_W@__crt_stdio_output@@@__crt_stdio_output@@IEBA_NXZ 0000000180049ab0 f i libucrtd:output.obj
 0001:00048af0       ?should_skip_type_state_output@?$standard_base@DV?$stream_output_adapter@D@__crt_stdio_output@@@__crt_stdio_output@@IEBA_NXZ 0000000180049af0 f i libucrtd:output.obj
 0001:00048b00       ?should_skip_type_state_output@?$standard_base@DV?$string_output_adapter@D@__crt_stdio_output@@@__crt_stdio_output@@IEBA_NXZ 0000000180049b00 f i libucrtd:output.obj
 0001:00048b10       ?should_skip_type_state_output@?$standard_base@_WV?$stream_output_adapter@_W@__crt_stdio_output@@@__crt_stdio_output@@IEBA_NXZ 0000000180049b10 f i libucrtd:output.obj
 0001:00048b20       ?should_skip_type_state_output@?$standard_base@_WV?$string_output_adapter@_W@__crt_stdio_output@@@__crt_stdio_output@@IEBA_NXZ 0000000180049b20 f i libucrtd:output.obj
 0001:00048b30       ?state_case_dot@?$output_processor@DV?$stream_output_adapter@D@__crt_stdio_output@@V?$format_validation_base@DV?$stream_output_adapter@D@__crt_stdio_output@@@2@@__crt_stdio_output@@AEAA_NXZ 0000000180049b30 f i libucrtd:output.obj
 0001:00048b50       ?state_case_dot@?$output_processor@DV?$stream_output_adapter@D@__crt_stdio_output@@V?$positional_parameter_base@DV?$stream_output_adapter@D@__crt_stdio_output@@@2@@__crt_stdio_output@@AEAA_NXZ 0000000180049b50 f i libucrtd:output.obj
 0001:00048b70       ?state_case_dot@?$output_processor@DV?$stream_output_adapter@D@__crt_stdio_output@@V?$standard_base@DV?$stream_output_adapter@D@__crt_stdio_output@@@2@@__crt_stdio_output@@AEAA_NXZ 0000000180049b70 f i libucrtd:output.obj
 0001:00048b90       ?state_case_dot@?$output_processor@DV?$string_output_adapter@D@__crt_stdio_output@@V?$format_validation_base@DV?$string_output_adapter@D@__crt_stdio_output@@@2@@__crt_stdio_output@@AEAA_NXZ 0000000180049b90 f i libucrtd:output.obj
 0001:00048bb0       ?state_case_dot@?$output_processor@DV?$string_output_adapter@D@__crt_stdio_output@@V?$positional_parameter_base@DV?$string_output_adapter@D@__crt_stdio_output@@@2@@__crt_stdio_output@@AEAA_NXZ 0000000180049bb0 f i libucrtd:output.obj
 0001:00048bd0       ?state_case_dot@?$output_processor@DV?$string_output_adapter@D@__crt_stdio_output@@V?$standard_base@DV?$string_output_adapter@D@__crt_stdio_output@@@2@@__crt_stdio_output@@AEAA_NXZ 0000000180049bd0 f i libucrtd:output.obj
 0001:00048bf0       ?state_case_dot@?$output_processor@_WV?$stream_output_adapter@_W@__crt_stdio_output@@V?$format_validation_base@_WV?$stream_output_adapter@_W@__crt_stdio_output@@@2@@__crt_stdio_output@@AEAA_NXZ 0000000180049bf0 f i libucrtd:output.obj
 0001:00048c10       ?state_case_dot@?$output_processor@_WV?$stream_output_adapter@_W@__crt_stdio_output@@V?$positional_parameter_base@_WV?$stream_output_adapter@_W@__crt_stdio_output@@@2@@__crt_stdio_output@@AEAA_NXZ 0000000180049c10 f i libucrtd:output.obj
 0001:00048c30       ?state_case_dot@?$output_processor@_WV?$stream_output_adapter@_W@__crt_stdio_output@@V?$standard_base@_WV?$stream_output_adapter@_W@__crt_stdio_output@@@2@@__crt_stdio_output@@AEAA_NXZ 0000000180049c30 f i libucrtd:output.obj
 0001:00048c50       ?state_case_dot@?$output_processor@_WV?$string_output_adapter@_W@__crt_stdio_output@@V?$format_validation_base@_WV?$string_output_adapter@_W@__crt_stdio_output@@@2@@__crt_stdio_output@@AEAA_NXZ 0000000180049c50 f i libucrtd:output.obj
 0001:00048c70       ?state_case_dot@?$output_processor@_WV?$string_output_adapter@_W@__crt_stdio_output@@V?$positional_parameter_base@_WV?$string_output_adapter@_W@__crt_stdio_output@@@2@@__crt_stdio_output@@AEAA_NXZ 0000000180049c70 f i libucrtd:output.obj
 0001:00048c90       ?state_case_dot@?$output_processor@_WV?$string_output_adapter@_W@__crt_stdio_output@@V?$standard_base@_WV?$string_output_adapter@_W@__crt_stdio_output@@@2@@__crt_stdio_output@@AEAA_NXZ 0000000180049c90 f i libucrtd:output.obj
 0001:00048cb0       ?state_case_flag@?$output_processor@DV?$stream_output_adapter@D@__crt_stdio_output@@V?$format_validation_base@DV?$stream_output_adapter@D@__crt_stdio_output@@@2@@__crt_stdio_output@@AEAA_NXZ 0000000180049cb0 f i libucrtd:output.obj
 0001:00048d50       ?state_case_flag@?$output_processor@DV?$stream_output_adapter@D@__crt_stdio_output@@V?$positional_parameter_base@DV?$stream_output_adapter@D@__crt_stdio_output@@@2@@__crt_stdio_output@@AEAA_NXZ 0000000180049d50 f i libucrtd:output.obj
 0001:00048df0       ?state_case_flag@?$output_processor@DV?$stream_output_adapter@D@__crt_stdio_output@@V?$standard_base@DV?$stream_output_adapter@D@__crt_stdio_output@@@2@@__crt_stdio_output@@AEAA_NXZ 0000000180049df0 f i libucrtd:output.obj
 0001:00048e90       ?state_case_flag@?$output_processor@DV?$string_output_adapter@D@__crt_stdio_output@@V?$format_validation_base@DV?$string_output_adapter@D@__crt_stdio_output@@@2@@__crt_stdio_output@@AEAA_NXZ 0000000180049e90 f i libucrtd:output.obj
 0001:00048f30       ?state_case_flag@?$output_processor@DV?$string_output_adapter@D@__crt_stdio_output@@V?$positional_parameter_base@DV?$string_output_adapter@D@__crt_stdio_output@@@2@@__crt_stdio_output@@AEAA_NXZ 0000000180049f30 f i libucrtd:output.obj
 0001:00048fd0       ?state_case_flag@?$output_processor@DV?$string_output_adapter@D@__crt_stdio_output@@V?$standard_base@DV?$string_output_adapter@D@__crt_stdio_output@@@2@@__crt_stdio_output@@AEAA_NXZ 0000000180049fd0 f i libucrtd:output.obj
 0001:00049070       ?state_case_flag@?$output_processor@_WV?$stream_output_adapter@_W@__crt_stdio_output@@V?$format_validation_base@_WV?$stream_output_adapter@_W@__crt_stdio_output@@@2@@__crt_stdio_output@@AEAA_NXZ 000000018004a070 f i libucrtd:output.obj
 0001:00049110       ?state_case_flag@?$output_processor@_WV?$stream_output_adapter@_W@__crt_stdio_output@@V?$positional_parameter_base@_WV?$stream_output_adapter@_W@__crt_stdio_output@@@2@@__crt_stdio_output@@AEAA_NXZ 000000018004a110 f i libucrtd:output.obj
 0001:000491b0       ?state_case_flag@?$output_processor@_WV?$stream_output_adapter@_W@__crt_stdio_output@@V?$standard_base@_WV?$stream_output_adapter@_W@__crt_stdio_output@@@2@@__crt_stdio_output@@AEAA_NXZ 000000018004a1b0 f i libucrtd:output.obj
 0001:00049250       ?state_case_flag@?$output_processor@_WV?$string_output_adapter@_W@__crt_stdio_output@@V?$format_validation_base@_WV?$string_output_adapter@_W@__crt_stdio_output@@@2@@__crt_stdio_output@@AEAA_NXZ 000000018004a250 f i libucrtd:output.obj
 0001:000492f0       ?state_case_flag@?$output_processor@_WV?$string_output_adapter@_W@__crt_stdio_output@@V?$positional_parameter_base@_WV?$string_output_adapter@_W@__crt_stdio_output@@@2@@__crt_stdio_output@@AEAA_NXZ 000000018004a2f0 f i libucrtd:output.obj
 0001:00049390       ?state_case_flag@?$output_processor@_WV?$string_output_adapter@_W@__crt_stdio_output@@V?$standard_base@_WV?$string_output_adapter@_W@__crt_stdio_output@@@2@@__crt_stdio_output@@AEAA_NXZ 000000018004a390 f i libucrtd:output.obj
 0001:00049430       ?state_case_normal@?$output_processor@DV?$stream_output_adapter@D@__crt_stdio_output@@V?$format_validation_base@DV?$stream_output_adapter@D@__crt_stdio_output@@@2@@__crt_stdio_output@@AEAA_NXZ 000000018004a430 f i libucrtd:output.obj
 0001:00049530       ?state_case_normal@?$output_processor@DV?$stream_output_adapter@D@__crt_stdio_output@@V?$positional_parameter_base@DV?$stream_output_adapter@D@__crt_stdio_output@@@2@@__crt_stdio_output@@AEAA_NXZ 000000018004a530 f i libucrtd:output.obj
 0001:00049630       ?state_case_normal@?$output_processor@DV?$stream_output_adapter@D@__crt_stdio_output@@V?$standard_base@DV?$stream_output_adapter@D@__crt_stdio_output@@@2@@__crt_stdio_output@@AEAA_NXZ 000000018004a630 f i libucrtd:output.obj
 0001:00049730       ?state_case_normal@?$output_processor@DV?$string_output_adapter@D@__crt_stdio_output@@V?$format_validation_base@DV?$string_output_adapter@D@__crt_stdio_output@@@2@@__crt_stdio_output@@AEAA_NXZ 000000018004a730 f i libucrtd:output.obj
 0001:00049830       ?state_case_normal@?$output_processor@DV?$string_output_adapter@D@__crt_stdio_output@@V?$positional_parameter_base@DV?$string_output_adapter@D@__crt_stdio_output@@@2@@__crt_stdio_output@@AEAA_NXZ 000000018004a830 f i libucrtd:output.obj
 0001:00049930       ?state_case_normal@?$output_processor@DV?$string_output_adapter@D@__crt_stdio_output@@V?$standard_base@DV?$string_output_adapter@D@__crt_stdio_output@@@2@@__crt_stdio_output@@AEAA_NXZ 000000018004a930 f i libucrtd:output.obj
 0001:00049a30       ?state_case_normal@?$output_processor@_WV?$stream_output_adapter@_W@__crt_stdio_output@@V?$format_validation_base@_WV?$stream_output_adapter@_W@__crt_stdio_output@@@2@@__crt_stdio_output@@AEAA_NXZ 000000018004aa30 f i libucrtd:output.obj
 0001:00049b30       ?state_case_normal@?$output_processor@_WV?$stream_output_adapter@_W@__crt_stdio_output@@V?$positional_parameter_base@_WV?$stream_output_adapter@_W@__crt_stdio_output@@@2@@__crt_stdio_output@@AEAA_NXZ 000000018004ab30 f i libucrtd:output.obj
 0001:00049c30       ?state_case_normal@?$output_processor@_WV?$stream_output_adapter@_W@__crt_stdio_output@@V?$standard_base@_WV?$stream_output_adapter@_W@__crt_stdio_output@@@2@@__crt_stdio_output@@AEAA_NXZ 000000018004ac30 f i libucrtd:output.obj
 0001:00049d30       ?state_case_normal@?$output_processor@_WV?$string_output_adapter@_W@__crt_stdio_output@@V?$format_validation_base@_WV?$string_output_adapter@_W@__crt_stdio_output@@@2@@__crt_stdio_output@@AEAA_NXZ 000000018004ad30 f i libucrtd:output.obj
 0001:00049e30       ?state_case_normal@?$output_processor@_WV?$string_output_adapter@_W@__crt_stdio_output@@V?$positional_parameter_base@_WV?$string_output_adapter@_W@__crt_stdio_output@@@2@@__crt_stdio_output@@AEAA_NXZ 000000018004ae30 f i libucrtd:output.obj
 0001:00049f30       ?state_case_normal@?$output_processor@_WV?$string_output_adapter@_W@__crt_stdio_output@@V?$standard_base@_WV?$string_output_adapter@_W@__crt_stdio_output@@@2@@__crt_stdio_output@@AEAA_NXZ 000000018004af30 f i libucrtd:output.obj
 0001:0004a030       ?state_case_normal_common@?$output_processor@DV?$stream_output_adapter@D@__crt_stdio_output@@V?$format_validation_base@DV?$stream_output_adapter@D@__crt_stdio_output@@@2@@__crt_stdio_output@@AEAA_NXZ 000000018004b030 f i libucrtd:output.obj
 0001:0004a090       ?state_case_normal_common@?$output_processor@DV?$stream_output_adapter@D@__crt_stdio_output@@V?$positional_parameter_base@DV?$stream_output_adapter@D@__crt_stdio_output@@@2@@__crt_stdio_output@@AEAA_NXZ 000000018004b090 f i libucrtd:output.obj
 0001:0004a0f0       ?state_case_normal_common@?$output_processor@DV?$stream_output_adapter@D@__crt_stdio_output@@V?$standard_base@DV?$stream_output_adapter@D@__crt_stdio_output@@@2@@__crt_stdio_output@@AEAA_NXZ 000000018004b0f0 f i libucrtd:output.obj
 0001:0004a150       ?state_case_normal_common@?$output_processor@DV?$string_output_adapter@D@__crt_stdio_output@@V?$format_validation_base@DV?$string_output_adapter@D@__crt_stdio_output@@@2@@__crt_stdio_output@@AEAA_NXZ 000000018004b150 f i libucrtd:output.obj
 0001:0004a1b0       ?state_case_normal_common@?$output_processor@DV?$string_output_adapter@D@__crt_stdio_output@@V?$positional_parameter_base@DV?$string_output_adapter@D@__crt_stdio_output@@@2@@__crt_stdio_output@@AEAA_NXZ 000000018004b1b0 f i libucrtd:output.obj
 0001:0004a210       ?state_case_normal_common@?$output_processor@DV?$string_output_adapter@D@__crt_stdio_output@@V?$standard_base@DV?$string_output_adapter@D@__crt_stdio_output@@@2@@__crt_stdio_output@@AEAA_NXZ 000000018004b210 f i libucrtd:output.obj
 0001:0004a270       ?state_case_normal_common@?$output_processor@_WV?$stream_output_adapter@_W@__crt_stdio_output@@V?$format_validation_base@_WV?$stream_output_adapter@_W@__crt_stdio_output@@@2@@__crt_stdio_output@@AEAA_NXZ 000000018004b270 f i libucrtd:output.obj
 0001:0004a2d0       ?state_case_normal_common@?$output_processor@_WV?$stream_output_adapter@_W@__crt_stdio_output@@V?$positional_parameter_base@_WV?$stream_output_adapter@_W@__crt_stdio_output@@@2@@__crt_stdio_output@@AEAA_NXZ 000000018004b2d0 f i libucrtd:output.obj
 0001:0004a330       ?state_case_normal_common@?$output_processor@_WV?$stream_output_adapter@_W@__crt_stdio_output@@V?$standard_base@_WV?$stream_output_adapter@_W@__crt_stdio_output@@@2@@__crt_stdio_output@@AEAA_NXZ 000000018004b330 f i libucrtd:output.obj
 0001:0004a390       ?state_case_normal_common@?$output_processor@_WV?$string_output_adapter@_W@__crt_stdio_output@@V?$format_validation_base@_WV?$string_output_adapter@_W@__crt_stdio_output@@@2@@__crt_stdio_output@@AEAA_NXZ 000000018004b390 f i libucrtd:output.obj
 0001:0004a3f0       ?state_case_normal_common@?$output_processor@_WV?$string_output_adapter@_W@__crt_stdio_output@@V?$positional_parameter_base@_WV?$string_output_adapter@_W@__crt_stdio_output@@@2@@__crt_stdio_output@@AEAA_NXZ 000000018004b3f0 f i libucrtd:output.obj
 0001:0004a450       ?state_case_normal_common@?$output_processor@_WV?$string_output_adapter@_W@__crt_stdio_output@@V?$standard_base@_WV?$string_output_adapter@_W@__crt_stdio_output@@@2@@__crt_stdio_output@@AEAA_NXZ 000000018004b450 f i libucrtd:output.obj
 0001:0004a4b0       ?state_case_normal_tchar@?$output_processor@DV?$stream_output_adapter@D@__crt_stdio_output@@V?$format_validation_base@DV?$stream_output_adapter@D@__crt_stdio_output@@@2@@__crt_stdio_output@@AEAA_ND@Z 000000018004b4b0 f i libucrtd:output.obj
 0001:0004a640       ?state_case_normal_tchar@?$output_processor@DV?$stream_output_adapter@D@__crt_stdio_output@@V?$positional_parameter_base@DV?$stream_output_adapter@D@__crt_stdio_output@@@2@@__crt_stdio_output@@AEAA_ND@Z 000000018004b640 f i libucrtd:output.obj
 0001:0004a7d0       ?state_case_normal_tchar@?$output_processor@DV?$stream_output_adapter@D@__crt_stdio_output@@V?$standard_base@DV?$stream_output_adapter@D@__crt_stdio_output@@@2@@__crt_stdio_output@@AEAA_ND@Z 000000018004b7d0 f i libucrtd:output.obj
 0001:0004a960       ?state_case_normal_tchar@?$output_processor@DV?$string_output_adapter@D@__crt_stdio_output@@V?$format_validation_base@DV?$string_output_adapter@D@__crt_stdio_output@@@2@@__crt_stdio_output@@AEAA_ND@Z 000000018004b960 f i libucrtd:output.obj
 0001:0004aaf0       ?state_case_normal_tchar@?$output_processor@DV?$string_output_adapter@D@__crt_stdio_output@@V?$positional_parameter_base@DV?$string_output_adapter@D@__crt_stdio_output@@@2@@__crt_stdio_output@@AEAA_ND@Z 000000018004baf0 f i libucrtd:output.obj
 0001:0004ac80       ?state_case_normal_tchar@?$output_processor@DV?$string_output_adapter@D@__crt_stdio_output@@V?$standard_base@DV?$string_output_adapter@D@__crt_stdio_output@@@2@@__crt_stdio_output@@AEAA_ND@Z 000000018004bc80 f i libucrtd:output.obj
 0001:0004ae10       ?state_case_normal_tchar@?$output_processor@_WV?$stream_output_adapter@_W@__crt_stdio_output@@V?$format_validation_base@_WV?$stream_output_adapter@_W@__crt_stdio_output@@@2@@__crt_stdio_output@@AEAA_N_W@Z 000000018004be10 f i libucrtd:output.obj
 0001:0004ae30       ?state_case_normal_tchar@?$output_processor@_WV?$stream_output_adapter@_W@__crt_stdio_output@@V?$positional_parameter_base@_WV?$stream_output_adapter@_W@__crt_stdio_output@@@2@@__crt_stdio_output@@AEAA_N_W@Z 000000018004be30 f i libucrtd:output.obj
 0001:0004ae50       ?state_case_normal_tchar@?$output_processor@_WV?$stream_output_adapter@_W@__crt_stdio_output@@V?$standard_base@_WV?$stream_output_adapter@_W@__crt_stdio_output@@@2@@__crt_stdio_output@@AEAA_N_W@Z 000000018004be50 f i libucrtd:output.obj
 0001:0004ae70       ?state_case_normal_tchar@?$output_processor@_WV?$string_output_adapter@_W@__crt_stdio_output@@V?$format_validation_base@_WV?$string_output_adapter@_W@__crt_stdio_output@@@2@@__crt_stdio_output@@AEAA_N_W@Z 000000018004be70 f i libucrtd:output.obj
 0001:0004ae90       ?state_case_normal_tchar@?$output_processor@_WV?$string_output_adapter@_W@__crt_stdio_output@@V?$positional_parameter_base@_WV?$string_output_adapter@_W@__crt_stdio_output@@@2@@__crt_stdio_output@@AEAA_N_W@Z 000000018004be90 f i libucrtd:output.obj
 0001:0004aeb0       ?state_case_normal_tchar@?$output_processor@_WV?$string_output_adapter@_W@__crt_stdio_output@@V?$standard_base@_WV?$string_output_adapter@_W@__crt_stdio_output@@@2@@__crt_stdio_output@@AEAA_N_W@Z 000000018004beb0 f i libucrtd:output.obj
 0001:0004aed0       ?state_case_percent@?$output_processor@DV?$stream_output_adapter@D@__crt_stdio_output@@V?$format_validation_base@DV?$stream_output_adapter@D@__crt_stdio_output@@@2@@__crt_stdio_output@@AEAA_NXZ 000000018004bed0 f i libucrtd:output.obj
 0001:0004af20       ?state_case_percent@?$output_processor@DV?$stream_output_adapter@D@__crt_stdio_output@@V?$positional_parameter_base@DV?$stream_output_adapter@D@__crt_stdio_output@@@2@@__crt_stdio_output@@AEAA_NXZ 000000018004bf20 f i libucrtd:output.obj
 0001:0004af70       ?state_case_percent@?$output_processor@DV?$stream_output_adapter@D@__crt_stdio_output@@V?$standard_base@DV?$stream_output_adapter@D@__crt_stdio_output@@@2@@__crt_stdio_output@@AEAA_NXZ 000000018004bf70 f i libucrtd:output.obj
 0001:0004afc0       ?state_case_percent@?$output_processor@DV?$string_output_adapter@D@__crt_stdio_output@@V?$format_validation_base@DV?$string_output_adapter@D@__crt_stdio_output@@@2@@__crt_stdio_output@@AEAA_NXZ 000000018004bfc0 f i libucrtd:output.obj
 0001:0004b010       ?state_case_percent@?$output_processor@DV?$string_output_adapter@D@__crt_stdio_output@@V?$positional_parameter_base@DV?$string_output_adapter@D@__crt_stdio_output@@@2@@__crt_stdio_output@@AEAA_NXZ 000000018004c010 f i libucrtd:output.obj
 0001:0004b060       ?state_case_percent@?$output_processor@DV?$string_output_adapter@D@__crt_stdio_output@@V?$standard_base@DV?$string_output_adapter@D@__crt_stdio_output@@@2@@__crt_stdio_output@@AEAA_NXZ 000000018004c060 f i libucrtd:output.obj
 0001:0004b0b0       ?state_case_percent@?$output_processor@_WV?$stream_output_adapter@_W@__crt_stdio_output@@V?$format_validation_base@_WV?$stream_output_adapter@_W@__crt_stdio_output@@@2@@__crt_stdio_output@@AEAA_NXZ 000000018004c0b0 f i libucrtd:output.obj
 0001:0004b100       ?state_case_percent@?$output_processor@_WV?$stream_output_adapter@_W@__crt_stdio_output@@V?$positional_parameter_base@_WV?$stream_output_adapter@_W@__crt_stdio_output@@@2@@__crt_stdio_output@@AEAA_NXZ 000000018004c100 f i libucrtd:output.obj
 0001:0004b150       ?state_case_percent@?$output_processor@_WV?$stream_output_adapter@_W@__crt_stdio_output@@V?$standard_base@_WV?$stream_output_adapter@_W@__crt_stdio_output@@@2@@__crt_stdio_output@@AEAA_NXZ 000000018004c150 f i libucrtd:output.obj
 0001:0004b1a0       ?state_case_percent@?$output_processor@_WV?$string_output_adapter@_W@__crt_stdio_output@@V?$format_validation_base@_WV?$string_output_adapter@_W@__crt_stdio_output@@@2@@__crt_stdio_output@@AEAA_NXZ 000000018004c1a0 f i libucrtd:output.obj
 0001:0004b1f0       ?state_case_percent@?$output_processor@_WV?$string_output_adapter@_W@__crt_stdio_output@@V?$positional_parameter_base@_WV?$string_output_adapter@_W@__crt_stdio_output@@@2@@__crt_stdio_output@@AEAA_NXZ 000000018004c1f0 f i libucrtd:output.obj
 0001:0004b240       ?state_case_percent@?$output_processor@_WV?$string_output_adapter@_W@__crt_stdio_output@@V?$standard_base@_WV?$string_output_adapter@_W@__crt_stdio_output@@@2@@__crt_stdio_output@@AEAA_NXZ 000000018004c240 f i libucrtd:output.obj
 0001:0004b290       ?state_case_precision@?$output_processor@DV?$stream_output_adapter@D@__crt_stdio_output@@V?$format_validation_base@DV?$stream_output_adapter@D@__crt_stdio_output@@@2@@__crt_stdio_output@@AEAA_NXZ 000000018004c290 f i libucrtd:output.obj
 0001:0004b310       ?state_case_precision@?$output_processor@DV?$stream_output_adapter@D@__crt_stdio_output@@V?$positional_parameter_base@DV?$stream_output_adapter@D@__crt_stdio_output@@@2@@__crt_stdio_output@@AEAA_NXZ 000000018004c310 f i libucrtd:output.obj
 0001:0004b390       ?state_case_precision@?$output_processor@DV?$stream_output_adapter@D@__crt_stdio_output@@V?$standard_base@DV?$stream_output_adapter@D@__crt_stdio_output@@@2@@__crt_stdio_output@@AEAA_NXZ 000000018004c390 f i libucrtd:output.obj
 0001:0004b410       ?state_case_precision@?$output_processor@DV?$string_output_adapter@D@__crt_stdio_output@@V?$format_validation_base@DV?$string_output_adapter@D@__crt_stdio_output@@@2@@__crt_stdio_output@@AEAA_NXZ 000000018004c410 f i libucrtd:output.obj
 0001:0004b490       ?state_case_precision@?$output_processor@DV?$string_output_adapter@D@__crt_stdio_output@@V?$positional_parameter_base@DV?$string_output_adapter@D@__crt_stdio_output@@@2@@__crt_stdio_output@@AEAA_NXZ 000000018004c490 f i libucrtd:output.obj
 0001:0004b510       ?state_case_precision@?$output_processor@DV?$string_output_adapter@D@__crt_stdio_output@@V?$standard_base@DV?$string_output_adapter@D@__crt_stdio_output@@@2@@__crt_stdio_output@@AEAA_NXZ 000000018004c510 f i libucrtd:output.obj
 0001:0004b590       ?state_case_precision@?$output_processor@_WV?$stream_output_adapter@_W@__crt_stdio_output@@V?$format_validation_base@_WV?$stream_output_adapter@_W@__crt_stdio_output@@@2@@__crt_stdio_output@@AEAA_NXZ 000000018004c590 f i libucrtd:output.obj
 0001:0004b610       ?state_case_precision@?$output_processor@_WV?$stream_output_adapter@_W@__crt_stdio_output@@V?$positional_parameter_base@_WV?$stream_output_adapter@_W@__crt_stdio_output@@@2@@__crt_stdio_output@@AEAA_NXZ 000000018004c610 f i libucrtd:output.obj
 0001:0004b690       ?state_case_precision@?$output_processor@_WV?$stream_output_adapter@_W@__crt_stdio_output@@V?$standard_base@_WV?$stream_output_adapter@_W@__crt_stdio_output@@@2@@__crt_stdio_output@@AEAA_NXZ 000000018004c690 f i libucrtd:output.obj
 0001:0004b710       ?state_case_precision@?$output_processor@_WV?$string_output_adapter@_W@__crt_stdio_output@@V?$format_validation_base@_WV?$string_output_adapter@_W@__crt_stdio_output@@@2@@__crt_stdio_output@@AEAA_NXZ 000000018004c710 f i libucrtd:output.obj
 0001:0004b790       ?state_case_precision@?$output_processor@_WV?$string_output_adapter@_W@__crt_stdio_output@@V?$positional_parameter_base@_WV?$string_output_adapter@_W@__crt_stdio_output@@@2@@__crt_stdio_output@@AEAA_NXZ 000000018004c790 f i libucrtd:output.obj
 0001:0004b810       ?state_case_precision@?$output_processor@_WV?$string_output_adapter@_W@__crt_stdio_output@@V?$standard_base@_WV?$string_output_adapter@_W@__crt_stdio_output@@@2@@__crt_stdio_output@@AEAA_NXZ 000000018004c810 f i libucrtd:output.obj
 0001:0004b890       ?state_case_size@?$output_processor@DV?$stream_output_adapter@D@__crt_stdio_output@@V?$format_validation_base@DV?$stream_output_adapter@D@__crt_stdio_output@@@2@@__crt_stdio_output@@AEAA_NXZ 000000018004c890 f i libucrtd:output.obj
 0001:0004bd50       ?state_case_size@?$output_processor@DV?$stream_output_adapter@D@__crt_stdio_output@@V?$positional_parameter_base@DV?$stream_output_adapter@D@__crt_stdio_output@@@2@@__crt_stdio_output@@AEAA_NXZ 000000018004cd50 f i libucrtd:output.obj
 0001:0004c210       ?state_case_size@?$output_processor@DV?$stream_output_adapter@D@__crt_stdio_output@@V?$standard_base@DV?$stream_output_adapter@D@__crt_stdio_output@@@2@@__crt_stdio_output@@AEAA_NXZ 000000018004d210 f i libucrtd:output.obj
 0001:0004c6d0       ?state_case_size@?$output_processor@DV?$string_output_adapter@D@__crt_stdio_output@@V?$format_validation_base@DV?$string_output_adapter@D@__crt_stdio_output@@@2@@__crt_stdio_output@@AEAA_NXZ 000000018004d6d0 f i libucrtd:output.obj
 0001:0004cb90       ?state_case_size@?$output_processor@DV?$string_output_adapter@D@__crt_stdio_output@@V?$positional_parameter_base@DV?$string_output_adapter@D@__crt_stdio_output@@@2@@__crt_stdio_output@@AEAA_NXZ 000000018004db90 f i libucrtd:output.obj
 0001:0004d050       ?state_case_size@?$output_processor@DV?$string_output_adapter@D@__crt_stdio_output@@V?$standard_base@DV?$string_output_adapter@D@__crt_stdio_output@@@2@@__crt_stdio_output@@AEAA_NXZ 000000018004e050 f i libucrtd:output.obj
 0001:0004d510       ?state_case_size@?$output_processor@_WV?$stream_output_adapter@_W@__crt_stdio_output@@V?$format_validation_base@_WV?$stream_output_adapter@_W@__crt_stdio_output@@@2@@__crt_stdio_output@@AEAA_NXZ 000000018004e510 f i libucrtd:output.obj
 0001:0004d9d0       ?state_case_size@?$output_processor@_WV?$stream_output_adapter@_W@__crt_stdio_output@@V?$positional_parameter_base@_WV?$stream_output_adapter@_W@__crt_stdio_output@@@2@@__crt_stdio_output@@AEAA_NXZ 000000018004e9d0 f i libucrtd:output.obj
 0001:0004de90       ?state_case_size@?$output_processor@_WV?$stream_output_adapter@_W@__crt_stdio_output@@V?$standard_base@_WV?$stream_output_adapter@_W@__crt_stdio_output@@@2@@__crt_stdio_output@@AEAA_NXZ 000000018004ee90 f i libucrtd:output.obj
 0001:0004e350       ?state_case_size@?$output_processor@_WV?$string_output_adapter@_W@__crt_stdio_output@@V?$format_validation_base@_WV?$string_output_adapter@_W@__crt_stdio_output@@@2@@__crt_stdio_output@@AEAA_NXZ 000000018004f350 f i libucrtd:output.obj
 0001:0004e810       ?state_case_size@?$output_processor@_WV?$string_output_adapter@_W@__crt_stdio_output@@V?$positional_parameter_base@_WV?$string_output_adapter@_W@__crt_stdio_output@@@2@@__crt_stdio_output@@AEAA_NXZ 000000018004f810 f i libucrtd:output.obj
 0001:0004ecd0       ?state_case_size@?$output_processor@_WV?$string_output_adapter@_W@__crt_stdio_output@@V?$standard_base@_WV?$string_output_adapter@_W@__crt_stdio_output@@@2@@__crt_stdio_output@@AEAA_NXZ 000000018004fcd0 f i libucrtd:output.obj
 0001:0004f190       ?state_case_type@?$output_processor@DV?$stream_output_adapter@D@__crt_stdio_output@@V?$format_validation_base@DV?$stream_output_adapter@D@__crt_stdio_output@@@2@@__crt_stdio_output@@AEAA_NXZ 0000000180050190 f i libucrtd:output.obj
 0001:0004f650       ?state_case_type@?$output_processor@DV?$stream_output_adapter@D@__crt_stdio_output@@V?$positional_parameter_base@DV?$stream_output_adapter@D@__crt_stdio_output@@@2@@__crt_stdio_output@@AEAA_NXZ 0000000180050650 f i libucrtd:output.obj
 0001:0004fb10       ?state_case_type@?$output_processor@DV?$stream_output_adapter@D@__crt_stdio_output@@V?$standard_base@DV?$stream_output_adapter@D@__crt_stdio_output@@@2@@__crt_stdio_output@@AEAA_NXZ 0000000180050b10 f i libucrtd:output.obj
 0001:0004ffd0       ?state_case_type@?$output_processor@DV?$string_output_adapter@D@__crt_stdio_output@@V?$format_validation_base@DV?$string_output_adapter@D@__crt_stdio_output@@@2@@__crt_stdio_output@@AEAA_NXZ 0000000180050fd0 f i libucrtd:output.obj
 0001:00050490       ?state_case_type@?$output_processor@DV?$string_output_adapter@D@__crt_stdio_output@@V?$positional_parameter_base@DV?$string_output_adapter@D@__crt_stdio_output@@@2@@__crt_stdio_output@@AEAA_NXZ 0000000180051490 f i libucrtd:output.obj
 0001:00050950       ?state_case_type@?$output_processor@DV?$string_output_adapter@D@__crt_stdio_output@@V?$standard_base@DV?$string_output_adapter@D@__crt_stdio_output@@@2@@__crt_stdio_output@@AEAA_NXZ 0000000180051950 f i libucrtd:output.obj
 0001:00050e10       ?state_case_type@?$output_processor@_WV?$stream_output_adapter@_W@__crt_stdio_output@@V?$format_validation_base@_WV?$stream_output_adapter@_W@__crt_stdio_output@@@2@@__crt_stdio_output@@AEAA_NXZ 0000000180051e10 f i libucrtd:output.obj
 0001:000513a0       ?state_case_type@?$output_processor@_WV?$stream_output_adapter@_W@__crt_stdio_output@@V?$positional_parameter_base@_WV?$stream_output_adapter@_W@__crt_stdio_output@@@2@@__crt_stdio_output@@AEAA_NXZ 00000001800523a0 f i libucrtd:output.obj
 0001:00051930       ?state_case_type@?$output_processor@_WV?$stream_output_adapter@_W@__crt_stdio_output@@V?$standard_base@_WV?$stream_output_adapter@_W@__crt_stdio_output@@@2@@__crt_stdio_output@@AEAA_NXZ 0000000180052930 f i libucrtd:output.obj
 0001:00051ec0       ?state_case_type@?$output_processor@_WV?$string_output_adapter@_W@__crt_stdio_output@@V?$format_validation_base@_WV?$string_output_adapter@_W@__crt_stdio_output@@@2@@__crt_stdio_output@@AEAA_NXZ 0000000180052ec0 f i libucrtd:output.obj
 0001:00052450       ?state_case_type@?$output_processor@_WV?$string_output_adapter@_W@__crt_stdio_output@@V?$positional_parameter_base@_WV?$string_output_adapter@_W@__crt_stdio_output@@@2@@__crt_stdio_output@@AEAA_NXZ 0000000180053450 f i libucrtd:output.obj
 0001:000529e0       ?state_case_type@?$output_processor@_WV?$string_output_adapter@_W@__crt_stdio_output@@V?$standard_base@_WV?$string_output_adapter@_W@__crt_stdio_output@@@2@@__crt_stdio_output@@AEAA_NXZ 00000001800539e0 f i libucrtd:output.obj
 0001:00052f70       ?state_case_width@?$output_processor@DV?$stream_output_adapter@D@__crt_stdio_output@@V?$format_validation_base@DV?$stream_output_adapter@D@__crt_stdio_output@@@2@@__crt_stdio_output@@AEAA_NXZ 0000000180053f70 f i libucrtd:output.obj
 0001:00053000       ?state_case_width@?$output_processor@DV?$stream_output_adapter@D@__crt_stdio_output@@V?$positional_parameter_base@DV?$stream_output_adapter@D@__crt_stdio_output@@@2@@__crt_stdio_output@@AEAA_NXZ 0000000180054000 f i libucrtd:output.obj
 0001:00053090       ?state_case_width@?$output_processor@DV?$stream_output_adapter@D@__crt_stdio_output@@V?$standard_base@DV?$stream_output_adapter@D@__crt_stdio_output@@@2@@__crt_stdio_output@@AEAA_NXZ 0000000180054090 f i libucrtd:output.obj
 0001:00053120       ?state_case_width@?$output_processor@DV?$string_output_adapter@D@__crt_stdio_output@@V?$format_validation_base@DV?$string_output_adapter@D@__crt_stdio_output@@@2@@__crt_stdio_output@@AEAA_NXZ 0000000180054120 f i libucrtd:output.obj
 0001:000531b0       ?state_case_width@?$output_processor@DV?$string_output_adapter@D@__crt_stdio_output@@V?$positional_parameter_base@DV?$string_output_adapter@D@__crt_stdio_output@@@2@@__crt_stdio_output@@AEAA_NXZ 00000001800541b0 f i libucrtd:output.obj
 0001:00053240       ?state_case_width@?$output_processor@DV?$string_output_adapter@D@__crt_stdio_output@@V?$standard_base@DV?$string_output_adapter@D@__crt_stdio_output@@@2@@__crt_stdio_output@@AEAA_NXZ 0000000180054240 f i libucrtd:output.obj
 0001:000532d0       ?state_case_width@?$output_processor@_WV?$stream_output_adapter@_W@__crt_stdio_output@@V?$format_validation_base@_WV?$stream_output_adapter@_W@__crt_stdio_output@@@2@@__crt_stdio_output@@AEAA_NXZ 00000001800542d0 f i libucrtd:output.obj
 0001:00053360       ?state_case_width@?$output_processor@_WV?$stream_output_adapter@_W@__crt_stdio_output@@V?$positional_parameter_base@_WV?$stream_output_adapter@_W@__crt_stdio_output@@@2@@__crt_stdio_output@@AEAA_NXZ 0000000180054360 f i libucrtd:output.obj
 0001:000533f0       ?state_case_width@?$output_processor@_WV?$stream_output_adapter@_W@__crt_stdio_output@@V?$standard_base@_WV?$stream_output_adapter@_W@__crt_stdio_output@@@2@@__crt_stdio_output@@AEAA_NXZ 00000001800543f0 f i libucrtd:output.obj
 0001:00053480       ?state_case_width@?$output_processor@_WV?$string_output_adapter@_W@__crt_stdio_output@@V?$format_validation_base@_WV?$string_output_adapter@_W@__crt_stdio_output@@@2@@__crt_stdio_output@@AEAA_NXZ 0000000180054480 f i libucrtd:output.obj
 0001:00053510       ?state_case_width@?$output_processor@_WV?$string_output_adapter@_W@__crt_stdio_output@@V?$positional_parameter_base@_WV?$string_output_adapter@_W@__crt_stdio_output@@@2@@__crt_stdio_output@@AEAA_NXZ 0000000180054510 f i libucrtd:output.obj
 0001:000535a0       ?state_case_width@?$output_processor@_WV?$string_output_adapter@_W@__crt_stdio_output@@V?$standard_base@_WV?$string_output_adapter@_W@__crt_stdio_output@@@2@@__crt_stdio_output@@AEAA_NXZ 00000001800545a0 f i libucrtd:output.obj
 0001:00053630       ?state_count@?$format_validation_base@DV?$stream_output_adapter@D@__crt_stdio_output@@@__crt_stdio_output@@KAIXZ 0000000180054630 f i libucrtd:output.obj
 0001:00053640       ?state_count@?$format_validation_base@DV?$string_output_adapter@D@__crt_stdio_output@@@__crt_stdio_output@@KAIXZ 0000000180054640 f i libucrtd:output.obj
 0001:00053650       ?state_count@?$format_validation_base@_WV?$stream_output_adapter@_W@__crt_stdio_output@@@__crt_stdio_output@@KAIXZ 0000000180054650 f i libucrtd:output.obj
 0001:00053660       ?state_count@?$format_validation_base@_WV?$string_output_adapter@_W@__crt_stdio_output@@@__crt_stdio_output@@KAIXZ 0000000180054660 f i libucrtd:output.obj
 0001:00053670       ?state_count@?$standard_base@DV?$stream_output_adapter@D@__crt_stdio_output@@@__crt_stdio_output@@KAIXZ 0000000180054670 f i libucrtd:output.obj
 0001:00053680       ?state_count@?$standard_base@DV?$string_output_adapter@D@__crt_stdio_output@@@__crt_stdio_output@@KAIXZ 0000000180054680 f i libucrtd:output.obj
 0001:00053690       ?state_count@?$standard_base@_WV?$stream_output_adapter@_W@__crt_stdio_output@@@__crt_stdio_output@@KAIXZ 0000000180054690 f i libucrtd:output.obj
 0001:000536a0       ?state_count@?$standard_base@_WV?$string_output_adapter@_W@__crt_stdio_output@@@__crt_stdio_output@@KAIXZ 00000001800546a0 f i libucrtd:output.obj
 0001:000536b0       ?state_transition_table@?$format_validation_base@DV?$stream_output_adapter@D@__crt_stdio_output@@@__crt_stdio_output@@KAAEBV?$spectre_mitigated_lookup_table@Ustate_transition_pair@__crt_stdio_output@@$0IA@@2@XZ 00000001800546b0 f i libucrtd:output.obj
 0001:000536c0       ?state_transition_table@?$format_validation_base@DV?$string_output_adapter@D@__crt_stdio_output@@@__crt_stdio_output@@KAAEBV?$spectre_mitigated_lookup_table@Ustate_transition_pair@__crt_stdio_output@@$0IA@@2@XZ 00000001800546c0 f i libucrtd:output.obj
 0001:000536d0       ?state_transition_table@?$format_validation_base@_WV?$stream_output_adapter@_W@__crt_stdio_output@@@__crt_stdio_output@@KAAEBV?$spectre_mitigated_lookup_table@Ustate_transition_pair@__crt_stdio_output@@$0IA@@2@XZ 00000001800546d0 f i libucrtd:output.obj
 0001:000536e0       ?state_transition_table@?$format_validation_base@_WV?$string_output_adapter@_W@__crt_stdio_output@@@__crt_stdio_output@@KAAEBV?$spectre_mitigated_lookup_table@Ustate_transition_pair@__crt_stdio_output@@$0IA@@2@XZ 00000001800546e0 f i libucrtd:output.obj
 0001:000536f0       ?state_transition_table@?$standard_base@DV?$stream_output_adapter@D@__crt_stdio_output@@@__crt_stdio_output@@KAAEBV?$spectre_mitigated_lookup_table@Ustate_transition_pair@__crt_stdio_output@@$0IA@@2@XZ 00000001800546f0 f i libucrtd:output.obj
 0001:00053700       ?state_transition_table@?$standard_base@DV?$string_output_adapter@D@__crt_stdio_output@@@__crt_stdio_output@@KAAEBV?$spectre_mitigated_lookup_table@Ustate_transition_pair@__crt_stdio_output@@$0IA@@2@XZ 0000000180054700 f i libucrtd:output.obj
 0001:00053710       ?state_transition_table@?$standard_base@_WV?$stream_output_adapter@_W@__crt_stdio_output@@@__crt_stdio_output@@KAAEBV?$spectre_mitigated_lookup_table@Ustate_transition_pair@__crt_stdio_output@@$0IA@@2@XZ 0000000180054710 f i libucrtd:output.obj
 0001:00053720       ?state_transition_table@?$standard_base@_WV?$string_output_adapter@_W@__crt_stdio_output@@@__crt_stdio_output@@KAAEBV?$spectre_mitigated_lookup_table@Ustate_transition_pair@__crt_stdio_output@@$0IA@@2@XZ 0000000180054720 f i libucrtd:output.obj
 0001:00053730       ?tchar_string@?$common_data@D@__crt_stdio_output@@IEAAAEAPEADD@Z 0000000180054730 f i libucrtd:output.obj
 0001:00053750       ?tchar_string@?$common_data@D@__crt_stdio_output@@IEAAAEAPEADXZ 0000000180054750 f i libucrtd:output.obj
 0001:00053770       ?tchar_string@?$common_data@_W@__crt_stdio_output@@IEAAAEAPEA_WXZ 0000000180054770 f i libucrtd:output.obj
 0001:00053790       ?tchar_string@?$common_data@_W@__crt_stdio_output@@IEAAAEAPEA_W_W@Z 0000000180054790 f i libucrtd:output.obj
 0001:000537b0       ?to_integer_size@__crt_stdio_output@@YA_KW4length_modifier@1@@Z 00000001800547b0 f i libucrtd:output.obj
 0001:00053860       ?type_case_X@?$output_processor@DV?$stream_output_adapter@D@__crt_stdio_output@@V?$format_validation_base@DV?$stream_output_adapter@D@__crt_stdio_output@@@2@@__crt_stdio_output@@AEAA_NXZ 0000000180054860 f i libucrtd:output.obj
 0001:00053880       ?type_case_X@?$output_processor@DV?$stream_output_adapter@D@__crt_stdio_output@@V?$positional_parameter_base@DV?$stream_output_adapter@D@__crt_stdio_output@@@2@@__crt_stdio_output@@AEAA_NXZ 0000000180054880 f i libucrtd:output.obj
 0001:000538a0       ?type_case_X@?$output_processor@DV?$stream_output_adapter@D@__crt_stdio_output@@V?$standard_base@DV?$stream_output_adapter@D@__crt_stdio_output@@@2@@__crt_stdio_output@@AEAA_NXZ 00000001800548a0 f i libucrtd:output.obj
 0001:000538c0       ?type_case_X@?$output_processor@DV?$string_output_adapter@D@__crt_stdio_output@@V?$format_validation_base@DV?$string_output_adapter@D@__crt_stdio_output@@@2@@__crt_stdio_output@@AEAA_NXZ 00000001800548c0 f i libucrtd:output.obj
 0001:000538e0       ?type_case_X@?$output_processor@DV?$string_output_adapter@D@__crt_stdio_output@@V?$positional_parameter_base@DV?$string_output_adapter@D@__crt_stdio_output@@@2@@__crt_stdio_output@@AEAA_NXZ 00000001800548e0 f i libucrtd:output.obj
 0001:00053900       ?type_case_X@?$output_processor@DV?$string_output_adapter@D@__crt_stdio_output@@V?$standard_base@DV?$string_output_adapter@D@__crt_stdio_output@@@2@@__crt_stdio_output@@AEAA_NXZ 0000000180054900 f i libucrtd:output.obj
 0001:00053920       ?type_case_X@?$output_processor@_WV?$stream_output_adapter@_W@__crt_stdio_output@@V?$format_validation_base@_WV?$stream_output_adapter@_W@__crt_stdio_output@@@2@@__crt_stdio_output@@AEAA_NXZ 0000000180054920 f i libucrtd:output.obj
 0001:00053940       ?type_case_X@?$output_processor@_WV?$stream_output_adapter@_W@__crt_stdio_output@@V?$positional_parameter_base@_WV?$stream_output_adapter@_W@__crt_stdio_output@@@2@@__crt_stdio_output@@AEAA_NXZ 0000000180054940 f i libucrtd:output.obj
 0001:00053960       ?type_case_X@?$output_processor@_WV?$stream_output_adapter@_W@__crt_stdio_output@@V?$standard_base@_WV?$stream_output_adapter@_W@__crt_stdio_output@@@2@@__crt_stdio_output@@AEAA_NXZ 0000000180054960 f i libucrtd:output.obj
 0001:00053980       ?type_case_X@?$output_processor@_WV?$string_output_adapter@_W@__crt_stdio_output@@V?$format_validation_base@_WV?$string_output_adapter@_W@__crt_stdio_output@@@2@@__crt_stdio_output@@AEAA_NXZ 0000000180054980 f i libucrtd:output.obj
 0001:000539a0       ?type_case_X@?$output_processor@_WV?$string_output_adapter@_W@__crt_stdio_output@@V?$positional_parameter_base@_WV?$string_output_adapter@_W@__crt_stdio_output@@@2@@__crt_stdio_output@@AEAA_NXZ 00000001800549a0 f i libucrtd:output.obj
 0001:000539c0       ?type_case_X@?$output_processor@_WV?$string_output_adapter@_W@__crt_stdio_output@@V?$standard_base@_WV?$string_output_adapter@_W@__crt_stdio_output@@@2@@__crt_stdio_output@@AEAA_NXZ 00000001800549c0 f i libucrtd:output.obj
 0001:000539e0       ?type_case_Z@?$output_processor@DV?$stream_output_adapter@D@__crt_stdio_output@@V?$format_validation_base@DV?$stream_output_adapter@D@__crt_stdio_output@@@2@@__crt_stdio_output@@AEAA_NXZ 00000001800549e0 f i libucrtd:output.obj
 0001:00053b00       ?type_case_Z@?$output_processor@DV?$stream_output_adapter@D@__crt_stdio_output@@V?$positional_parameter_base@DV?$stream_output_adapter@D@__crt_stdio_output@@@2@@__crt_stdio_output@@AEAA_NXZ 0000000180054b00 f i libucrtd:output.obj
 0001:00053c20       ?type_case_Z@?$output_processor@DV?$stream_output_adapter@D@__crt_stdio_output@@V?$standard_base@DV?$stream_output_adapter@D@__crt_stdio_output@@@2@@__crt_stdio_output@@AEAA_NXZ 0000000180054c20 f i libucrtd:output.obj
 0001:00053d40       ?type_case_Z@?$output_processor@DV?$string_output_adapter@D@__crt_stdio_output@@V?$format_validation_base@DV?$string_output_adapter@D@__crt_stdio_output@@@2@@__crt_stdio_output@@AEAA_NXZ 0000000180054d40 f i libucrtd:output.obj
 0001:00053e60       ?type_case_Z@?$output_processor@DV?$string_output_adapter@D@__crt_stdio_output@@V?$positional_parameter_base@DV?$string_output_adapter@D@__crt_stdio_output@@@2@@__crt_stdio_output@@AEAA_NXZ 0000000180054e60 f i libucrtd:output.obj
 0001:00053f80       ?type_case_Z@?$output_processor@DV?$string_output_adapter@D@__crt_stdio_output@@V?$standard_base@DV?$string_output_adapter@D@__crt_stdio_output@@@2@@__crt_stdio_output@@AEAA_NXZ 0000000180054f80 f i libucrtd:output.obj
 0001:000540a0       ?type_case_Z@?$output_processor@_WV?$stream_output_adapter@_W@__crt_stdio_output@@V?$format_validation_base@_WV?$stream_output_adapter@_W@__crt_stdio_output@@@2@@__crt_stdio_output@@AEAA_NXZ 00000001800550a0 f i libucrtd:output.obj
 0001:000541c0       ?type_case_Z@?$output_processor@_WV?$stream_output_adapter@_W@__crt_stdio_output@@V?$positional_parameter_base@_WV?$stream_output_adapter@_W@__crt_stdio_output@@@2@@__crt_stdio_output@@AEAA_NXZ 00000001800551c0 f i libucrtd:output.obj
 0001:000542e0       ?type_case_Z@?$output_processor@_WV?$stream_output_adapter@_W@__crt_stdio_output@@V?$standard_base@_WV?$stream_output_adapter@_W@__crt_stdio_output@@@2@@__crt_stdio_output@@AEAA_NXZ 00000001800552e0 f i libucrtd:output.obj
 0001:00054400       ?type_case_Z@?$output_processor@_WV?$string_output_adapter@_W@__crt_stdio_output@@V?$format_validation_base@_WV?$string_output_adapter@_W@__crt_stdio_output@@@2@@__crt_stdio_output@@AEAA_NXZ 0000000180055400 f i libucrtd:output.obj
 0001:00054520       ?type_case_Z@?$output_processor@_WV?$string_output_adapter@_W@__crt_stdio_output@@V?$positional_parameter_base@_WV?$string_output_adapter@_W@__crt_stdio_output@@@2@@__crt_stdio_output@@AEAA_NXZ 0000000180055520 f i libucrtd:output.obj
 0001:00054640       ?type_case_Z@?$output_processor@_WV?$string_output_adapter@_W@__crt_stdio_output@@V?$standard_base@_WV?$string_output_adapter@_W@__crt_stdio_output@@@2@@__crt_stdio_output@@AEAA_NXZ 0000000180055640 f i libucrtd:output.obj
 0001:00054760       ?type_case_a@?$output_processor@DV?$stream_output_adapter@D@__crt_stdio_output@@V?$format_validation_base@DV?$stream_output_adapter@D@__crt_stdio_output@@@2@@__crt_stdio_output@@AEAA_NXZ 0000000180055760 f i libucrtd:output.obj
 0001:00054bc0       ?type_case_a@?$output_processor@DV?$stream_output_adapter@D@__crt_stdio_output@@V?$positional_parameter_base@DV?$stream_output_adapter@D@__crt_stdio_output@@@2@@__crt_stdio_output@@AEAA_NXZ 0000000180055bc0 f i libucrtd:output.obj
 0001:00055020       ?type_case_a@?$output_processor@DV?$stream_output_adapter@D@__crt_stdio_output@@V?$standard_base@DV?$stream_output_adapter@D@__crt_stdio_output@@@2@@__crt_stdio_output@@AEAA_NXZ 0000000180056020 f i libucrtd:output.obj
 0001:00055480       ?type_case_a@?$output_processor@DV?$string_output_adapter@D@__crt_stdio_output@@V?$format_validation_base@DV?$string_output_adapter@D@__crt_stdio_output@@@2@@__crt_stdio_output@@AEAA_NXZ 0000000180056480 f i libucrtd:output.obj
 0001:000558e0       ?type_case_a@?$output_processor@DV?$string_output_adapter@D@__crt_stdio_output@@V?$positional_parameter_base@DV?$string_output_adapter@D@__crt_stdio_output@@@2@@__crt_stdio_output@@AEAA_NXZ 00000001800568e0 f i libucrtd:output.obj
 0001:00055d40       ?type_case_a@?$output_processor@DV?$string_output_adapter@D@__crt_stdio_output@@V?$standard_base@DV?$string_output_adapter@D@__crt_stdio_output@@@2@@__crt_stdio_output@@AEAA_NXZ 0000000180056d40 f i libucrtd:output.obj
 0001:000561a0       ?type_case_a@?$output_processor@_WV?$stream_output_adapter@_W@__crt_stdio_output@@V?$format_validation_base@_WV?$stream_output_adapter@_W@__crt_stdio_output@@@2@@__crt_stdio_output@@AEAA_NXZ 00000001800571a0 f i libucrtd:output.obj
 0001:00056610       ?type_case_a@?$output_processor@_WV?$stream_output_adapter@_W@__crt_stdio_output@@V?$positional_parameter_base@_WV?$stream_output_adapter@_W@__crt_stdio_output@@@2@@__crt_stdio_output@@AEAA_NXZ 0000000180057610 f i libucrtd:output.obj
 0001:00056a80       ?type_case_a@?$output_processor@_WV?$stream_output_adapter@_W@__crt_stdio_output@@V?$standard_base@_WV?$stream_output_adapter@_W@__crt_stdio_output@@@2@@__crt_stdio_output@@AEAA_NXZ 0000000180057a80 f i libucrtd:output.obj
 0001:00056ef0       ?type_case_a@?$output_processor@_WV?$string_output_adapter@_W@__crt_stdio_output@@V?$format_validation_base@_WV?$string_output_adapter@_W@__crt_stdio_output@@@2@@__crt_stdio_output@@AEAA_NXZ 0000000180057ef0 f i libucrtd:output.obj
 0001:00057360       ?type_case_a@?$output_processor@_WV?$string_output_adapter@_W@__crt_stdio_output@@V?$positional_parameter_base@_WV?$string_output_adapter@_W@__crt_stdio_output@@@2@@__crt_stdio_output@@AEAA_NXZ 0000000180058360 f i libucrtd:output.obj
 0001:000577d0       ?type_case_a@?$output_processor@_WV?$string_output_adapter@_W@__crt_stdio_output@@V?$standard_base@_WV?$string_output_adapter@_W@__crt_stdio_output@@@2@@__crt_stdio_output@@AEAA_NXZ 00000001800587d0 f i libucrtd:output.obj
 0001:00057c40       ?type_case_c@?$output_processor@DV?$stream_output_adapter@D@__crt_stdio_output@@V?$format_validation_base@DV?$stream_output_adapter@D@__crt_stdio_output@@@2@@__crt_stdio_output@@AEAA_NXZ 0000000180058c40 f i libucrtd:output.obj
 0001:00057c60       ?type_case_c@?$output_processor@DV?$stream_output_adapter@D@__crt_stdio_output@@V?$positional_parameter_base@DV?$stream_output_adapter@D@__crt_stdio_output@@@2@@__crt_stdio_output@@AEAA_NXZ 0000000180058c60 f i libucrtd:output.obj
 0001:00057c80       ?type_case_c@?$output_processor@DV?$stream_output_adapter@D@__crt_stdio_output@@V?$standard_base@DV?$stream_output_adapter@D@__crt_stdio_output@@@2@@__crt_stdio_output@@AEAA_NXZ 0000000180058c80 f i libucrtd:output.obj
 0001:00057ca0       ?type_case_c@?$output_processor@DV?$string_output_adapter@D@__crt_stdio_output@@V?$format_validation_base@DV?$string_output_adapter@D@__crt_stdio_output@@@2@@__crt_stdio_output@@AEAA_NXZ 0000000180058ca0 f i libucrtd:output.obj
 0001:00057cc0       ?type_case_c@?$output_processor@DV?$string_output_adapter@D@__crt_stdio_output@@V?$positional_parameter_base@DV?$string_output_adapter@D@__crt_stdio_output@@@2@@__crt_stdio_output@@AEAA_NXZ 0000000180058cc0 f i libucrtd:output.obj
 0001:00057ce0       ?type_case_c@?$output_processor@DV?$string_output_adapter@D@__crt_stdio_output@@V?$standard_base@DV?$string_output_adapter@D@__crt_stdio_output@@@2@@__crt_stdio_output@@AEAA_NXZ 0000000180058ce0 f i libucrtd:output.obj
 0001:00057d00       ?type_case_c@?$output_processor@_WV?$stream_output_adapter@_W@__crt_stdio_output@@V?$format_validation_base@_WV?$stream_output_adapter@_W@__crt_stdio_output@@@2@@__crt_stdio_output@@AEAA_NXZ 0000000180058d00 f i libucrtd:output.obj
 0001:00057d20       ?type_case_c@?$output_processor@_WV?$stream_output_adapter@_W@__crt_stdio_output@@V?$positional_parameter_base@_WV?$stream_output_adapter@_W@__crt_stdio_output@@@2@@__crt_stdio_output@@AEAA_NXZ 0000000180058d20 f i libucrtd:output.obj
 0001:00057d40       ?type_case_c@?$output_processor@_WV?$stream_output_adapter@_W@__crt_stdio_output@@V?$standard_base@_WV?$stream_output_adapter@_W@__crt_stdio_output@@@2@@__crt_stdio_output@@AEAA_NXZ 0000000180058d40 f i libucrtd:output.obj
 0001:00057d60       ?type_case_c@?$output_processor@_WV?$string_output_adapter@_W@__crt_stdio_output@@V?$format_validation_base@_WV?$string_output_adapter@_W@__crt_stdio_output@@@2@@__crt_stdio_output@@AEAA_NXZ 0000000180058d60 f i libucrtd:output.obj
 0001:00057d80       ?type_case_c@?$output_processor@_WV?$string_output_adapter@_W@__crt_stdio_output@@V?$positional_parameter_base@_WV?$string_output_adapter@_W@__crt_stdio_output@@@2@@__crt_stdio_output@@AEAA_NXZ 0000000180058d80 f i libucrtd:output.obj
 0001:00057da0       ?type_case_c@?$output_processor@_WV?$string_output_adapter@_W@__crt_stdio_output@@V?$standard_base@_WV?$string_output_adapter@_W@__crt_stdio_output@@@2@@__crt_stdio_output@@AEAA_NXZ 0000000180058da0 f i libucrtd:output.obj
 0001:00057dc0       ?type_case_c_tchar@?$output_processor@DV?$stream_output_adapter@D@__crt_stdio_output@@V?$format_validation_base@DV?$stream_output_adapter@D@__crt_stdio_output@@@2@@__crt_stdio_output@@AEAA_ND@Z 0000000180058dc0 f i libucrtd:output.obj
 0001:00057f30       ?type_case_c_tchar@?$output_processor@DV?$stream_output_adapter@D@__crt_stdio_output@@V?$positional_parameter_base@DV?$stream_output_adapter@D@__crt_stdio_output@@@2@@__crt_stdio_output@@AEAA_ND@Z 0000000180058f30 f i libucrtd:output.obj
 0001:000580a0       ?type_case_c_tchar@?$output_processor@DV?$stream_output_adapter@D@__crt_stdio_output@@V?$standard_base@DV?$stream_output_adapter@D@__crt_stdio_output@@@2@@__crt_stdio_output@@AEAA_ND@Z 00000001800590a0 f i libucrtd:output.obj
 0001:00058210       ?type_case_c_tchar@?$output_processor@DV?$string_output_adapter@D@__crt_stdio_output@@V?$format_validation_base@DV?$string_output_adapter@D@__crt_stdio_output@@@2@@__crt_stdio_output@@AEAA_ND@Z 0000000180059210 f i libucrtd:output.obj
 0001:00058380       ?type_case_c_tchar@?$output_processor@DV?$string_output_adapter@D@__crt_stdio_output@@V?$positional_parameter_base@DV?$string_output_adapter@D@__crt_stdio_output@@@2@@__crt_stdio_output@@AEAA_ND@Z 0000000180059380 f i libucrtd:output.obj
 0001:000584f0       ?type_case_c_tchar@?$output_processor@DV?$string_output_adapter@D@__crt_stdio_output@@V?$standard_base@DV?$string_output_adapter@D@__crt_stdio_output@@@2@@__crt_stdio_output@@AEAA_ND@Z 00000001800594f0 f i libucrtd:output.obj
 0001:00058660       ?type_case_c_tchar@?$output_processor@_WV?$stream_output_adapter@_W@__crt_stdio_output@@V?$format_validation_base@_WV?$stream_output_adapter@_W@__crt_stdio_output@@@2@@__crt_stdio_output@@AEAA_N_W@Z 0000000180059660 f i libucrtd:output.obj
 0001:000587c0       ?type_case_c_tchar@?$output_processor@_WV?$stream_output_adapter@_W@__crt_stdio_output@@V?$positional_parameter_base@_WV?$stream_output_adapter@_W@__crt_stdio_output@@@2@@__crt_stdio_output@@AEAA_N_W@Z 00000001800597c0 f i libucrtd:output.obj
 0001:00058920       ?type_case_c_tchar@?$output_processor@_WV?$stream_output_adapter@_W@__crt_stdio_output@@V?$standard_base@_WV?$stream_output_adapter@_W@__crt_stdio_output@@@2@@__crt_stdio_output@@AEAA_N_W@Z 0000000180059920 f i libucrtd:output.obj
 0001:00058a80       ?type_case_c_tchar@?$output_processor@_WV?$string_output_adapter@_W@__crt_stdio_output@@V?$format_validation_base@_WV?$string_output_adapter@_W@__crt_stdio_output@@@2@@__crt_stdio_output@@AEAA_N_W@Z 0000000180059a80 f i libucrtd:output.obj
 0001:00058be0       ?type_case_c_tchar@?$output_processor@_WV?$string_output_adapter@_W@__crt_stdio_output@@V?$positional_parameter_base@_WV?$string_output_adapter@_W@__crt_stdio_output@@@2@@__crt_stdio_output@@AEAA_N_W@Z 0000000180059be0 f i libucrtd:output.obj
 0001:00058d40       ?type_case_c_tchar@?$output_processor@_WV?$string_output_adapter@_W@__crt_stdio_output@@V?$standard_base@_WV?$string_output_adapter@_W@__crt_stdio_output@@@2@@__crt_stdio_output@@AEAA_N_W@Z 0000000180059d40 f i libucrtd:output.obj
 0001:00058ea0       ?type_case_d@?$output_processor@DV?$stream_output_adapter@D@__crt_stdio_output@@V?$format_validation_base@DV?$stream_output_adapter@D@__crt_stdio_output@@@2@@__crt_stdio_output@@AEAA_NXZ 0000000180059ea0 f i libucrtd:output.obj
 0001:00058ed0       ?type_case_d@?$output_processor@DV?$stream_output_adapter@D@__crt_stdio_output@@V?$positional_parameter_base@DV?$stream_output_adapter@D@__crt_stdio_output@@@2@@__crt_stdio_output@@AEAA_NXZ 0000000180059ed0 f i libucrtd:output.obj
 0001:00058f00       ?type_case_d@?$output_processor@DV?$stream_output_adapter@D@__crt_stdio_output@@V?$standard_base@DV?$stream_output_adapter@D@__crt_stdio_output@@@2@@__crt_stdio_output@@AEAA_NXZ 0000000180059f00 f i libucrtd:output.obj
 0001:00058f30       ?type_case_d@?$output_processor@DV?$string_output_adapter@D@__crt_stdio_output@@V?$format_validation_base@DV?$string_output_adapter@D@__crt_stdio_output@@@2@@__crt_stdio_output@@AEAA_NXZ 0000000180059f30 f i libucrtd:output.obj
 0001:00058f60       ?type_case_d@?$output_processor@DV?$string_output_adapter@D@__crt_stdio_output@@V?$positional_parameter_base@DV?$string_output_adapter@D@__crt_stdio_output@@@2@@__crt_stdio_output@@AEAA_NXZ 0000000180059f60 f i libucrtd:output.obj
 0001:00058f90       ?type_case_d@?$output_processor@DV?$string_output_adapter@D@__crt_stdio_output@@V?$standard_base@DV?$string_output_adapter@D@__crt_stdio_output@@@2@@__crt_stdio_output@@AEAA_NXZ 0000000180059f90 f i libucrtd:output.obj
 0001:00058fc0       ?type_case_d@?$output_processor@_WV?$stream_output_adapter@_W@__crt_stdio_output@@V?$format_validation_base@_WV?$stream_output_adapter@_W@__crt_stdio_output@@@2@@__crt_stdio_output@@AEAA_NXZ 0000000180059fc0 f i libucrtd:output.obj
 0001:00058ff0       ?type_case_d@?$output_processor@_WV?$stream_output_adapter@_W@__crt_stdio_output@@V?$positional_parameter_base@_WV?$stream_output_adapter@_W@__crt_stdio_output@@@2@@__crt_stdio_output@@AEAA_NXZ 0000000180059ff0 f i libucrtd:output.obj
 0001:00059020       ?type_case_d@?$output_processor@_WV?$stream_output_adapter@_W@__crt_stdio_output@@V?$standard_base@_WV?$stream_output_adapter@_W@__crt_stdio_output@@@2@@__crt_stdio_output@@AEAA_NXZ 000000018005a020 f i libucrtd:output.obj
 0001:00059050       ?type_case_d@?$output_processor@_WV?$string_output_adapter@_W@__crt_stdio_output@@V?$format_validation_base@_WV?$string_output_adapter@_W@__crt_stdio_output@@@2@@__crt_stdio_output@@AEAA_NXZ 000000018005a050 f i libucrtd:output.obj
 0001:00059080       ?type_case_d@?$output_processor@_WV?$string_output_adapter@_W@__crt_stdio_output@@V?$positional_parameter_base@_WV?$string_output_adapter@_W@__crt_stdio_output@@@2@@__crt_stdio_output@@AEAA_NXZ 000000018005a080 f i libucrtd:output.obj
 0001:000590b0       ?type_case_d@?$output_processor@_WV?$string_output_adapter@_W@__crt_stdio_output@@V?$standard_base@_WV?$string_output_adapter@_W@__crt_stdio_output@@@2@@__crt_stdio_output@@AEAA_NXZ 000000018005a0b0 f i libucrtd:output.obj
 0001:000590e0       ?type_case_n@?$output_processor@DV?$stream_output_adapter@D@__crt_stdio_output@@V?$format_validation_base@DV?$stream_output_adapter@D@__crt_stdio_output@@@2@@__crt_stdio_output@@AEAA_NXZ 000000018005a0e0 f i libucrtd:output.obj
 0001:00059370       ?type_case_n@?$output_processor@DV?$stream_output_adapter@D@__crt_stdio_output@@V?$positional_parameter_base@DV?$stream_output_adapter@D@__crt_stdio_output@@@2@@__crt_stdio_output@@AEAA_NXZ 000000018005a370 f i libucrtd:output.obj
 0001:00059600       ?type_case_n@?$output_processor@DV?$stream_output_adapter@D@__crt_stdio_output@@V?$standard_base@DV?$stream_output_adapter@D@__crt_stdio_output@@@2@@__crt_stdio_output@@AEAA_NXZ 000000018005a600 f i libucrtd:output.obj
 0001:00059890       ?type_case_n@?$output_processor@DV?$string_output_adapter@D@__crt_stdio_output@@V?$format_validation_base@DV?$string_output_adapter@D@__crt_stdio_output@@@2@@__crt_stdio_output@@AEAA_NXZ 000000018005a890 f i libucrtd:output.obj
 0001:00059b20       ?type_case_n@?$output_processor@DV?$string_output_adapter@D@__crt_stdio_output@@V?$positional_parameter_base@DV?$string_output_adapter@D@__crt_stdio_output@@@2@@__crt_stdio_output@@AEAA_NXZ 000000018005ab20 f i libucrtd:output.obj
 0001:00059db0       ?type_case_n@?$output_processor@DV?$string_output_adapter@D@__crt_stdio_output@@V?$standard_base@DV?$string_output_adapter@D@__crt_stdio_output@@@2@@__crt_stdio_output@@AEAA_NXZ 000000018005adb0 f i libucrtd:output.obj
 0001:0005a040       ?type_case_n@?$output_processor@_WV?$stream_output_adapter@_W@__crt_stdio_output@@V?$format_validation_base@_WV?$stream_output_adapter@_W@__crt_stdio_output@@@2@@__crt_stdio_output@@AEAA_NXZ 000000018005b040 f i libucrtd:output.obj
 0001:0005a2d0       ?type_case_n@?$output_processor@_WV?$stream_output_adapter@_W@__crt_stdio_output@@V?$positional_parameter_base@_WV?$stream_output_adapter@_W@__crt_stdio_output@@@2@@__crt_stdio_output@@AEAA_NXZ 000000018005b2d0 f i libucrtd:output.obj
 0001:0005a560       ?type_case_n@?$output_processor@_WV?$stream_output_adapter@_W@__crt_stdio_output@@V?$standard_base@_WV?$stream_output_adapter@_W@__crt_stdio_output@@@2@@__crt_stdio_output@@AEAA_NXZ 000000018005b560 f i libucrtd:output.obj
 0001:0005a7f0       ?type_case_n@?$output_processor@_WV?$string_output_adapter@_W@__crt_stdio_output@@V?$format_validation_base@_WV?$string_output_adapter@_W@__crt_stdio_output@@@2@@__crt_stdio_output@@AEAA_NXZ 000000018005b7f0 f i libucrtd:output.obj
 0001:0005aa80       ?type_case_n@?$output_processor@_WV?$string_output_adapter@_W@__crt_stdio_output@@V?$positional_parameter_base@_WV?$string_output_adapter@_W@__crt_stdio_output@@@2@@__crt_stdio_output@@AEAA_NXZ 000000018005ba80 f i libucrtd:output.obj
 0001:0005ad10       ?type_case_n@?$output_processor@_WV?$string_output_adapter@_W@__crt_stdio_output@@V?$standard_base@_WV?$string_output_adapter@_W@__crt_stdio_output@@@2@@__crt_stdio_output@@AEAA_NXZ 000000018005bd10 f i libucrtd:output.obj
 0001:0005afa0       ?type_case_o@?$output_processor@DV?$stream_output_adapter@D@__crt_stdio_output@@V?$format_validation_base@DV?$stream_output_adapter@D@__crt_stdio_output@@@2@@__crt_stdio_output@@AEAA_NXZ 000000018005bfa0 f i libucrtd:output.obj
 0001:0005afe0       ?type_case_o@?$output_processor@DV?$stream_output_adapter@D@__crt_stdio_output@@V?$positional_parameter_base@DV?$stream_output_adapter@D@__crt_stdio_output@@@2@@__crt_stdio_output@@AEAA_NXZ 000000018005bfe0 f i libucrtd:output.obj
 0001:0005b020       ?type_case_o@?$output_processor@DV?$stream_output_adapter@D@__crt_stdio_output@@V?$standard_base@DV?$stream_output_adapter@D@__crt_stdio_output@@@2@@__crt_stdio_output@@AEAA_NXZ 000000018005c020 f i libucrtd:output.obj
 0001:0005b060       ?type_case_o@?$output_processor@DV?$string_output_adapter@D@__crt_stdio_output@@V?$format_validation_base@DV?$string_output_adapter@D@__crt_stdio_output@@@2@@__crt_stdio_output@@AEAA_NXZ 000000018005c060 f i libucrtd:output.obj
 0001:0005b0a0       ?type_case_o@?$output_processor@DV?$string_output_adapter@D@__crt_stdio_output@@V?$positional_parameter_base@DV?$string_output_adapter@D@__crt_stdio_output@@@2@@__crt_stdio_output@@AEAA_NXZ 000000018005c0a0 f i libucrtd:output.obj
 0001:0005b0e0       ?type_case_o@?$output_processor@DV?$string_output_adapter@D@__crt_stdio_output@@V?$standard_base@DV?$string_output_adapter@D@__crt_stdio_output@@@2@@__crt_stdio_output@@AEAA_NXZ 000000018005c0e0 f i libucrtd:output.obj
 0001:0005b120       ?type_case_o@?$output_processor@_WV?$stream_output_adapter@_W@__crt_stdio_output@@V?$format_validation_base@_WV?$stream_output_adapter@_W@__crt_stdio_output@@@2@@__crt_stdio_output@@AEAA_NXZ 000000018005c120 f i libucrtd:output.obj
 0001:0005b160       ?type_case_o@?$output_processor@_WV?$stream_output_adapter@_W@__crt_stdio_output@@V?$positional_parameter_base@_WV?$stream_output_adapter@_W@__crt_stdio_output@@@2@@__crt_stdio_output@@AEAA_NXZ 000000018005c160 f i libucrtd:output.obj
 0001:0005b1a0       ?type_case_o@?$output_processor@_WV?$stream_output_adapter@_W@__crt_stdio_output@@V?$standard_base@_WV?$stream_output_adapter@_W@__crt_stdio_output@@@2@@__crt_stdio_output@@AEAA_NXZ 000000018005c1a0 f i libucrtd:output.obj
 0001:0005b1e0       ?type_case_o@?$output_processor@_WV?$string_output_adapter@_W@__crt_stdio_output@@V?$format_validation_base@_WV?$string_output_adapter@_W@__crt_stdio_output@@@2@@__crt_stdio_output@@AEAA_NXZ 000000018005c1e0 f i libucrtd:output.obj
 0001:0005b220       ?type_case_o@?$output_processor@_WV?$string_output_adapter@_W@__crt_stdio_output@@V?$positional_parameter_base@_WV?$string_output_adapter@_W@__crt_stdio_output@@@2@@__crt_stdio_output@@AEAA_NXZ 000000018005c220 f i libucrtd:output.obj
 0001:0005b260       ?type_case_o@?$output_processor@_WV?$string_output_adapter@_W@__crt_stdio_output@@V?$standard_base@_WV?$string_output_adapter@_W@__crt_stdio_output@@@2@@__crt_stdio_output@@AEAA_NXZ 000000018005c260 f i libucrtd:output.obj
 0001:0005b2a0       ?type_case_p@?$output_processor@DV?$stream_output_adapter@D@__crt_stdio_output@@V?$format_validation_base@DV?$stream_output_adapter@D@__crt_stdio_output@@@2@@__crt_stdio_output@@AEAA_NXZ 000000018005c2a0 f i libucrtd:output.obj
 0001:0005b2e0       ?type_case_p@?$output_processor@DV?$stream_output_adapter@D@__crt_stdio_output@@V?$positional_parameter_base@DV?$stream_output_adapter@D@__crt_stdio_output@@@2@@__crt_stdio_output@@AEAA_NXZ 000000018005c2e0 f i libucrtd:output.obj
 0001:0005b320       ?type_case_p@?$output_processor@DV?$stream_output_adapter@D@__crt_stdio_output@@V?$standard_base@DV?$stream_output_adapter@D@__crt_stdio_output@@@2@@__crt_stdio_output@@AEAA_NXZ 000000018005c320 f i libucrtd:output.obj
 0001:0005b360       ?type_case_p@?$output_processor@DV?$string_output_adapter@D@__crt_stdio_output@@V?$format_validation_base@DV?$string_output_adapter@D@__crt_stdio_output@@@2@@__crt_stdio_output@@AEAA_NXZ 000000018005c360 f i libucrtd:output.obj
 0001:0005b3a0       ?type_case_p@?$output_processor@DV?$string_output_adapter@D@__crt_stdio_output@@V?$positional_parameter_base@DV?$string_output_adapter@D@__crt_stdio_output@@@2@@__crt_stdio_output@@AEAA_NXZ 000000018005c3a0 f i libucrtd:output.obj
 0001:0005b3e0       ?type_case_p@?$output_processor@DV?$string_output_adapter@D@__crt_stdio_output@@V?$standard_base@DV?$string_output_adapter@D@__crt_stdio_output@@@2@@__crt_stdio_output@@AEAA_NXZ 000000018005c3e0 f i libucrtd:output.obj
 0001:0005b420       ?type_case_p@?$output_processor@_WV?$stream_output_adapter@_W@__crt_stdio_output@@V?$format_validation_base@_WV?$stream_output_adapter@_W@__crt_stdio_output@@@2@@__crt_stdio_output@@AEAA_NXZ 000000018005c420 f i libucrtd:output.obj
 0001:0005b460       ?type_case_p@?$output_processor@_WV?$stream_output_adapter@_W@__crt_stdio_output@@V?$positional_parameter_base@_WV?$stream_output_adapter@_W@__crt_stdio_output@@@2@@__crt_stdio_output@@AEAA_NXZ 000000018005c460 f i libucrtd:output.obj
 0001:0005b4a0       ?type_case_p@?$output_processor@_WV?$stream_output_adapter@_W@__crt_stdio_output@@V?$standard_base@_WV?$stream_output_adapter@_W@__crt_stdio_output@@@2@@__crt_stdio_output@@AEAA_NXZ 000000018005c4a0 f i libucrtd:output.obj
 0001:0005b4e0       ?type_case_p@?$output_processor@_WV?$string_output_adapter@_W@__crt_stdio_output@@V?$format_validation_base@_WV?$string_output_adapter@_W@__crt_stdio_output@@@2@@__crt_stdio_output@@AEAA_NXZ 000000018005c4e0 f i libucrtd:output.obj
 0001:0005b520       ?type_case_p@?$output_processor@_WV?$string_output_adapter@_W@__crt_stdio_output@@V?$positional_parameter_base@_WV?$string_output_adapter@_W@__crt_stdio_output@@@2@@__crt_stdio_output@@AEAA_NXZ 000000018005c520 f i libucrtd:output.obj
 0001:0005b560       ?type_case_p@?$output_processor@_WV?$string_output_adapter@_W@__crt_stdio_output@@V?$standard_base@_WV?$string_output_adapter@_W@__crt_stdio_output@@@2@@__crt_stdio_output@@AEAA_NXZ 000000018005c560 f i libucrtd:output.obj
 0001:0005b5a0       ?type_case_s@?$output_processor@DV?$stream_output_adapter@D@__crt_stdio_output@@V?$format_validation_base@DV?$stream_output_adapter@D@__crt_stdio_output@@@2@@__crt_stdio_output@@AEAA_NXZ 000000018005c5a0 f i libucrtd:output.obj
 0001:0005b6c0       ?type_case_s@?$output_processor@DV?$stream_output_adapter@D@__crt_stdio_output@@V?$positional_parameter_base@DV?$stream_output_adapter@D@__crt_stdio_output@@@2@@__crt_stdio_output@@AEAA_NXZ 000000018005c6c0 f i libucrtd:output.obj
 0001:0005b7e0       ?type_case_s@?$output_processor@DV?$stream_output_adapter@D@__crt_stdio_output@@V?$standard_base@DV?$stream_output_adapter@D@__crt_stdio_output@@@2@@__crt_stdio_output@@AEAA_NXZ 000000018005c7e0 f i libucrtd:output.obj
 0001:0005b900       ?type_case_s@?$output_processor@DV?$string_output_adapter@D@__crt_stdio_output@@V?$format_validation_base@DV?$string_output_adapter@D@__crt_stdio_output@@@2@@__crt_stdio_output@@AEAA_NXZ 000000018005c900 f i libucrtd:output.obj
 0001:0005ba20       ?type_case_s@?$output_processor@DV?$string_output_adapter@D@__crt_stdio_output@@V?$positional_parameter_base@DV?$string_output_adapter@D@__crt_stdio_output@@@2@@__crt_stdio_output@@AEAA_NXZ 000000018005ca20 f i libucrtd:output.obj
 0001:0005bb40       ?type_case_s@?$output_processor@DV?$string_output_adapter@D@__crt_stdio_output@@V?$standard_base@DV?$string_output_adapter@D@__crt_stdio_output@@@2@@__crt_stdio_output@@AEAA_NXZ 000000018005cb40 f i libucrtd:output.obj
 0001:0005bc60       ?type_case_s@?$output_processor@_WV?$stream_output_adapter@_W@__crt_stdio_output@@V?$format_validation_base@_WV?$stream_output_adapter@_W@__crt_stdio_output@@@2@@__crt_stdio_output@@AEAA_NXZ 000000018005cc60 f i libucrtd:output.obj
 0001:0005bd80       ?type_case_s@?$output_processor@_WV?$stream_output_adapter@_W@__crt_stdio_output@@V?$positional_parameter_base@_WV?$stream_output_adapter@_W@__crt_stdio_output@@@2@@__crt_stdio_output@@AEAA_NXZ 000000018005cd80 f i libucrtd:output.obj
 0001:0005bea0       ?type_case_s@?$output_processor@_WV?$stream_output_adapter@_W@__crt_stdio_output@@V?$standard_base@_WV?$stream_output_adapter@_W@__crt_stdio_output@@@2@@__crt_stdio_output@@AEAA_NXZ 000000018005cea0 f i libucrtd:output.obj
 0001:0005bfc0       ?type_case_s@?$output_processor@_WV?$string_output_adapter@_W@__crt_stdio_output@@V?$format_validation_base@_WV?$string_output_adapter@_W@__crt_stdio_output@@@2@@__crt_stdio_output@@AEAA_NXZ 000000018005cfc0 f i libucrtd:output.obj
 0001:0005c0e0       ?type_case_s@?$output_processor@_WV?$string_output_adapter@_W@__crt_stdio_output@@V?$positional_parameter_base@_WV?$string_output_adapter@_W@__crt_stdio_output@@@2@@__crt_stdio_output@@AEAA_NXZ 000000018005d0e0 f i libucrtd:output.obj
 0001:0005c200       ?type_case_s@?$output_processor@_WV?$string_output_adapter@_W@__crt_stdio_output@@V?$standard_base@_WV?$string_output_adapter@_W@__crt_stdio_output@@@2@@__crt_stdio_output@@AEAA_NXZ 000000018005d200 f i libucrtd:output.obj
 0001:0005c320       ?type_case_s_compute_narrow_string_length@?$output_processor@DV?$stream_output_adapter@D@__crt_stdio_output@@V?$format_validation_base@DV?$stream_output_adapter@D@__crt_stdio_output@@@2@@__crt_stdio_output@@AEAAHHD@Z 000000018005d320 f i libucrtd:output.obj
 0001:0005c350       ?type_case_s_compute_narrow_string_length@?$output_processor@DV?$stream_output_adapter@D@__crt_stdio_output@@V?$positional_parameter_base@DV?$stream_output_adapter@D@__crt_stdio_output@@@2@@__crt_stdio_output@@AEAAHHD@Z 000000018005d350 f i libucrtd:output.obj
 0001:0005c380       ?type_case_s_compute_narrow_string_length@?$output_processor@DV?$stream_output_adapter@D@__crt_stdio_output@@V?$standard_base@DV?$stream_output_adapter@D@__crt_stdio_output@@@2@@__crt_stdio_output@@AEAAHHD@Z 000000018005d380 f i libucrtd:output.obj
 0001:0005c3b0       ?type_case_s_compute_narrow_string_length@?$output_processor@DV?$string_output_adapter@D@__crt_stdio_output@@V?$format_validation_base@DV?$string_output_adapter@D@__crt_stdio_output@@@2@@__crt_stdio_output@@AEAAHHD@Z 000000018005d3b0 f i libucrtd:output.obj
 0001:0005c3e0       ?type_case_s_compute_narrow_string_length@?$output_processor@DV?$string_output_adapter@D@__crt_stdio_output@@V?$positional_parameter_base@DV?$string_output_adapter@D@__crt_stdio_output@@@2@@__crt_stdio_output@@AEAAHHD@Z 000000018005d3e0 f i libucrtd:output.obj
 0001:0005c410       ?type_case_s_compute_narrow_string_length@?$output_processor@DV?$string_output_adapter@D@__crt_stdio_output@@V?$standard_base@DV?$string_output_adapter@D@__crt_stdio_output@@@2@@__crt_stdio_output@@AEAAHHD@Z 000000018005d410 f i libucrtd:output.obj
 0001:0005c440       ?type_case_s_compute_narrow_string_length@?$output_processor@_WV?$stream_output_adapter@_W@__crt_stdio_output@@V?$format_validation_base@_WV?$stream_output_adapter@_W@__crt_stdio_output@@@2@@__crt_stdio_output@@AEAAHH_W@Z 000000018005d440 f i libucrtd:output.obj
 0001:0005c4e0       ?type_case_s_compute_narrow_string_length@?$output_processor@_WV?$stream_output_adapter@_W@__crt_stdio_output@@V?$positional_parameter_base@_WV?$stream_output_adapter@_W@__crt_stdio_output@@@2@@__crt_stdio_output@@AEAAHH_W@Z 000000018005d4e0 f i libucrtd:output.obj
 0001:0005c580       ?type_case_s_compute_narrow_string_length@?$output_processor@_WV?$stream_output_adapter@_W@__crt_stdio_output@@V?$standard_base@_WV?$stream_output_adapter@_W@__crt_stdio_output@@@2@@__crt_stdio_output@@AEAAHH_W@Z 000000018005d580 f i libucrtd:output.obj
 0001:0005c620       ?type_case_s_compute_narrow_string_length@?$output_processor@_WV?$string_output_adapter@_W@__crt_stdio_output@@V?$format_validation_base@_WV?$string_output_adapter@_W@__crt_stdio_output@@@2@@__crt_stdio_output@@AEAAHH_W@Z 000000018005d620 f i libucrtd:output.obj
 0001:0005c6c0       ?type_case_s_compute_narrow_string_length@?$output_processor@_WV?$string_output_adapter@_W@__crt_stdio_output@@V?$positional_parameter_base@_WV?$string_output_adapter@_W@__crt_stdio_output@@@2@@__crt_stdio_output@@AEAAHH_W@Z 000000018005d6c0 f i libucrtd:output.obj
 0001:0005c760       ?type_case_s_compute_narrow_string_length@?$output_processor@_WV?$string_output_adapter@_W@__crt_stdio_output@@V?$standard_base@_WV?$string_output_adapter@_W@__crt_stdio_output@@@2@@__crt_stdio_output@@AEAAHH_W@Z 000000018005d760 f i libucrtd:output.obj
 0001:0005c800       ?type_case_u@?$output_processor@DV?$stream_output_adapter@D@__crt_stdio_output@@V?$format_validation_base@DV?$stream_output_adapter@D@__crt_stdio_output@@@2@@__crt_stdio_output@@AEAA_NXZ 000000018005d800 f i libucrtd:output.obj
 0001:0005c820       ?type_case_u@?$output_processor@DV?$stream_output_adapter@D@__crt_stdio_output@@V?$positional_parameter_base@DV?$stream_output_adapter@D@__crt_stdio_output@@@2@@__crt_stdio_output@@AEAA_NXZ 000000018005d820 f i libucrtd:output.obj
 0001:0005c840       ?type_case_u@?$output_processor@DV?$stream_output_adapter@D@__crt_stdio_output@@V?$standard_base@DV?$stream_output_adapter@D@__crt_stdio_output@@@2@@__crt_stdio_output@@AEAA_NXZ 000000018005d840 f i libucrtd:output.obj
 0001:0005c860       ?type_case_u@?$output_processor@DV?$string_output_adapter@D@__crt_stdio_output@@V?$format_validation_base@DV?$string_output_adapter@D@__crt_stdio_output@@@2@@__crt_stdio_output@@AEAA_NXZ 000000018005d860 f i libucrtd:output.obj
 0001:0005c880       ?type_case_u@?$output_processor@DV?$string_output_adapter@D@__crt_stdio_output@@V?$positional_parameter_base@DV?$string_output_adapter@D@__crt_stdio_output@@@2@@__crt_stdio_output@@AEAA_NXZ 000000018005d880 f i libucrtd:output.obj
 0001:0005c8a0       ?type_case_u@?$output_processor@DV?$string_output_adapter@D@__crt_stdio_output@@V?$standard_base@DV?$string_output_adapter@D@__crt_stdio_output@@@2@@__crt_stdio_output@@AEAA_NXZ 000000018005d8a0 f i libucrtd:output.obj
 0001:0005c8c0       ?type_case_u@?$output_processor@_WV?$stream_output_adapter@_W@__crt_stdio_output@@V?$format_validation_base@_WV?$stream_output_adapter@_W@__crt_stdio_output@@@2@@__crt_stdio_output@@AEAA_NXZ 000000018005d8c0 f i libucrtd:output.obj
 0001:0005c8e0       ?type_case_u@?$output_processor@_WV?$stream_output_adapter@_W@__crt_stdio_output@@V?$positional_parameter_base@_WV?$stream_output_adapter@_W@__crt_stdio_output@@@2@@__crt_stdio_output@@AEAA_NXZ 000000018005d8e0 f i libucrtd:output.obj
 0001:0005c900       ?type_case_u@?$output_processor@_WV?$stream_output_adapter@_W@__crt_stdio_output@@V?$standard_base@_WV?$stream_output_adapter@_W@__crt_stdio_output@@@2@@__crt_stdio_output@@AEAA_NXZ 000000018005d900 f i libucrtd:output.obj
 0001:0005c920       ?type_case_u@?$output_processor@_WV?$string_output_adapter@_W@__crt_stdio_output@@V?$format_validation_base@_WV?$string_output_adapter@_W@__crt_stdio_output@@@2@@__crt_stdio_output@@AEAA_NXZ 000000018005d920 f i libucrtd:output.obj
 0001:0005c940       ?type_case_u@?$output_processor@_WV?$string_output_adapter@_W@__crt_stdio_output@@V?$positional_parameter_base@_WV?$string_output_adapter@_W@__crt_stdio_output@@@2@@__crt_stdio_output@@AEAA_NXZ 000000018005d940 f i libucrtd:output.obj
 0001:0005c960       ?type_case_u@?$output_processor@_WV?$string_output_adapter@_W@__crt_stdio_output@@V?$standard_base@_WV?$string_output_adapter@_W@__crt_stdio_output@@@2@@__crt_stdio_output@@AEAA_NXZ 000000018005d960 f i libucrtd:output.obj
 0001:0005c980       ?type_case_x@?$output_processor@DV?$stream_output_adapter@D@__crt_stdio_output@@V?$format_validation_base@DV?$stream_output_adapter@D@__crt_stdio_output@@@2@@__crt_stdio_output@@AEAA_NXZ 000000018005d980 f i libucrtd:output.obj
 0001:0005c9a0       ?type_case_x@?$output_processor@DV?$stream_output_adapter@D@__crt_stdio_output@@V?$positional_parameter_base@DV?$stream_output_adapter@D@__crt_stdio_output@@@2@@__crt_stdio_output@@AEAA_NXZ 000000018005d9a0 f i libucrtd:output.obj
 0001:0005c9c0       ?type_case_x@?$output_processor@DV?$stream_output_adapter@D@__crt_stdio_output@@V?$standard_base@DV?$stream_output_adapter@D@__crt_stdio_output@@@2@@__crt_stdio_output@@AEAA_NXZ 000000018005d9c0 f i libucrtd:output.obj
 0001:0005c9e0       ?type_case_x@?$output_processor@DV?$string_output_adapter@D@__crt_stdio_output@@V?$format_validation_base@DV?$string_output_adapter@D@__crt_stdio_output@@@2@@__crt_stdio_output@@AEAA_NXZ 000000018005d9e0 f i libucrtd:output.obj
 0001:0005ca00       ?type_case_x@?$output_processor@DV?$string_output_adapter@D@__crt_stdio_output@@V?$positional_parameter_base@DV?$string_output_adapter@D@__crt_stdio_output@@@2@@__crt_stdio_output@@AEAA_NXZ 000000018005da00 f i libucrtd:output.obj
 0001:0005ca20       ?type_case_x@?$output_processor@DV?$string_output_adapter@D@__crt_stdio_output@@V?$standard_base@DV?$string_output_adapter@D@__crt_stdio_output@@@2@@__crt_stdio_output@@AEAA_NXZ 000000018005da20 f i libucrtd:output.obj
 0001:0005ca40       ?type_case_x@?$output_processor@_WV?$stream_output_adapter@_W@__crt_stdio_output@@V?$format_validation_base@_WV?$stream_output_adapter@_W@__crt_stdio_output@@@2@@__crt_stdio_output@@AEAA_NXZ 000000018005da40 f i libucrtd:output.obj
 0001:0005ca60       ?type_case_x@?$output_processor@_WV?$stream_output_adapter@_W@__crt_stdio_output@@V?$positional_parameter_base@_WV?$stream_output_adapter@_W@__crt_stdio_output@@@2@@__crt_stdio_output@@AEAA_NXZ 000000018005da60 f i libucrtd:output.obj
 0001:0005ca80       ?type_case_x@?$output_processor@_WV?$stream_output_adapter@_W@__crt_stdio_output@@V?$standard_base@_WV?$stream_output_adapter@_W@__crt_stdio_output@@@2@@__crt_stdio_output@@AEAA_NXZ 000000018005da80 f i libucrtd:output.obj
 0001:0005caa0       ?type_case_x@?$output_processor@_WV?$string_output_adapter@_W@__crt_stdio_output@@V?$format_validation_base@_WV?$string_output_adapter@_W@__crt_stdio_output@@@2@@__crt_stdio_output@@AEAA_NXZ 000000018005daa0 f i libucrtd:output.obj
 0001:0005cac0       ?type_case_x@?$output_processor@_WV?$string_output_adapter@_W@__crt_stdio_output@@V?$positional_parameter_base@_WV?$string_output_adapter@_W@__crt_stdio_output@@@2@@__crt_stdio_output@@AEAA_NXZ 000000018005dac0 f i libucrtd:output.obj
 0001:0005cae0       ?type_case_x@?$output_processor@_WV?$string_output_adapter@_W@__crt_stdio_output@@V?$standard_base@_WV?$string_output_adapter@_W@__crt_stdio_output@@@2@@__crt_stdio_output@@AEAA_NXZ 000000018005dae0 f i libucrtd:output.obj
 0001:0005cb00       ?unget@?$c_string_character_source@D@__crt_strtox@@QEAAXD@Z 000000018005db00 f i libucrtd:output.obj
 0001:0005cbe0       ?unget@?$c_string_character_source@_W@__crt_strtox@@QEAAX_W@Z 000000018005dbe0 f i libucrtd:output.obj
 0001:0005ccc0       ?unsafe_value@?$cached@H@__crt_cached_ptd_host@@QEAAHXZ 000000018005dcc0 f i libucrtd:output.obj
 0001:0005ccd0       ?unsafe_value@?$cached@K@__crt_cached_ptd_host@@QEAAKXZ 000000018005dcd0 f i libucrtd:output.obj
 0001:0005cce0       ?unset_flag@?$output_processor@DV?$stream_output_adapter@D@__crt_stdio_output@@V?$format_validation_base@DV?$stream_output_adapter@D@__crt_stdio_output@@@2@@__crt_stdio_output@@AEAAXI@Z 000000018005dce0 f i libucrtd:output.obj
 0001:0005cd10       ?unset_flag@?$output_processor@DV?$stream_output_adapter@D@__crt_stdio_output@@V?$positional_parameter_base@DV?$stream_output_adapter@D@__crt_stdio_output@@@2@@__crt_stdio_output@@AEAAXI@Z 000000018005dd10 f i libucrtd:output.obj
 0001:0005cd40       ?unset_flag@?$output_processor@DV?$stream_output_adapter@D@__crt_stdio_output@@V?$standard_base@DV?$stream_output_adapter@D@__crt_stdio_output@@@2@@__crt_stdio_output@@AEAAXI@Z 000000018005dd40 f i libucrtd:output.obj
 0001:0005cd70       ?unset_flag@?$output_processor@DV?$string_output_adapter@D@__crt_stdio_output@@V?$format_validation_base@DV?$string_output_adapter@D@__crt_stdio_output@@@2@@__crt_stdio_output@@AEAAXI@Z 000000018005dd70 f i libucrtd:output.obj
 0001:0005cda0       ?unset_flag@?$output_processor@DV?$string_output_adapter@D@__crt_stdio_output@@V?$positional_parameter_base@DV?$string_output_adapter@D@__crt_stdio_output@@@2@@__crt_stdio_output@@AEAAXI@Z 000000018005dda0 f i libucrtd:output.obj
 0001:0005cdd0       ?unset_flag@?$output_processor@DV?$string_output_adapter@D@__crt_stdio_output@@V?$standard_base@DV?$string_output_adapter@D@__crt_stdio_output@@@2@@__crt_stdio_output@@AEAAXI@Z 000000018005ddd0 f i libucrtd:output.obj
 0001:0005ce00       ?unset_flag@?$output_processor@_WV?$stream_output_adapter@_W@__crt_stdio_output@@V?$format_validation_base@_WV?$stream_output_adapter@_W@__crt_stdio_output@@@2@@__crt_stdio_output@@AEAAXI@Z 000000018005de00 f i libucrtd:output.obj
 0001:0005ce30       ?unset_flag@?$output_processor@_WV?$stream_output_adapter@_W@__crt_stdio_output@@V?$positional_parameter_base@_WV?$stream_output_adapter@_W@__crt_stdio_output@@@2@@__crt_stdio_output@@AEAAXI@Z 000000018005de30 f i libucrtd:output.obj
 0001:0005ce60       ?unset_flag@?$output_processor@_WV?$stream_output_adapter@_W@__crt_stdio_output@@V?$standard_base@_WV?$stream_output_adapter@_W@__crt_stdio_output@@@2@@__crt_stdio_output@@AEAAXI@Z 000000018005de60 f i libucrtd:output.obj
 0001:0005ce90       ?unset_flag@?$output_processor@_WV?$string_output_adapter@_W@__crt_stdio_output@@V?$format_validation_base@_WV?$string_output_adapter@_W@__crt_stdio_output@@@2@@__crt_stdio_output@@AEAAXI@Z 000000018005de90 f i libucrtd:output.obj
 0001:0005cec0       ?unset_flag@?$output_processor@_WV?$string_output_adapter@_W@__crt_stdio_output@@V?$positional_parameter_base@_WV?$string_output_adapter@_W@__crt_stdio_output@@@2@@__crt_stdio_output@@AEAAXI@Z 000000018005dec0 f i libucrtd:output.obj
 0001:0005cef0       ?unset_flag@?$output_processor@_WV?$string_output_adapter@_W@__crt_stdio_output@@V?$standard_base@_WV?$string_output_adapter@_W@__crt_stdio_output@@@2@@__crt_stdio_output@@AEAAXI@Z 000000018005def0 f i libucrtd:output.obj
 0001:0005cf20       ?update_field_width@?$positional_parameter_base@DV?$stream_output_adapter@D@__crt_stdio_output@@@__crt_stdio_output@@IEAA_NXZ 000000018005df20 f i libucrtd:output.obj
 0001:0005d120       ?update_field_width@?$positional_parameter_base@DV?$string_output_adapter@D@__crt_stdio_output@@@__crt_stdio_output@@IEAA_NXZ 000000018005e120 f i libucrtd:output.obj
 0001:0005d320       ?update_field_width@?$positional_parameter_base@_WV?$stream_output_adapter@_W@__crt_stdio_output@@@__crt_stdio_output@@IEAA_NXZ 000000018005e320 f i libucrtd:output.obj
 0001:0005d520       ?update_field_width@?$positional_parameter_base@_WV?$string_output_adapter@_W@__crt_stdio_output@@@__crt_stdio_output@@IEAA_NXZ 000000018005e520 f i libucrtd:output.obj
 0001:0005d720       ?update_field_width@?$standard_base@DV?$stream_output_adapter@D@__crt_stdio_output@@@__crt_stdio_output@@IEAA_NXZ 000000018005e720 f i libucrtd:output.obj
 0001:0005d750       ?update_field_width@?$standard_base@DV?$string_output_adapter@D@__crt_stdio_output@@@__crt_stdio_output@@IEAA_NXZ 000000018005e750 f i libucrtd:output.obj
 0001:0005d780       ?update_field_width@?$standard_base@_WV?$stream_output_adapter@_W@__crt_stdio_output@@@__crt_stdio_output@@IEAA_NXZ 000000018005e780 f i libucrtd:output.obj
 0001:0005d7b0       ?update_field_width@?$standard_base@_WV?$string_output_adapter@_W@__crt_stdio_output@@@__crt_stdio_output@@IEAA_NXZ 000000018005e7b0 f i libucrtd:output.obj
 0001:0005d7e0       ?update_locale@__crt_cached_ptd_host@@AEAAXXZ 000000018005e7e0 f i libucrtd:output.obj
 0001:0005d810       ?update_locale_slow@__crt_cached_ptd_host@@AEAAXXZ 000000018005e810 f i libucrtd:output.obj
 0001:0005d8c0       ?update_precision@?$positional_parameter_base@DV?$stream_output_adapter@D@__crt_stdio_output@@@__crt_stdio_output@@IEAA_NXZ 000000018005e8c0 f i libucrtd:output.obj
 0001:0005dac0       ?update_precision@?$positional_parameter_base@DV?$string_output_adapter@D@__crt_stdio_output@@@__crt_stdio_output@@IEAA_NXZ 000000018005eac0 f i libucrtd:output.obj
 0001:0005dcc0       ?update_precision@?$positional_parameter_base@_WV?$stream_output_adapter@_W@__crt_stdio_output@@@__crt_stdio_output@@IEAA_NXZ 000000018005ecc0 f i libucrtd:output.obj
 0001:0005dec0       ?update_precision@?$positional_parameter_base@_WV?$string_output_adapter@_W@__crt_stdio_output@@@__crt_stdio_output@@IEAA_NXZ 000000018005eec0 f i libucrtd:output.obj
 0001:0005e0c0       ?update_precision@?$standard_base@DV?$stream_output_adapter@D@__crt_stdio_output@@@__crt_stdio_output@@IEAA_NXZ 000000018005f0c0 f i libucrtd:output.obj
 0001:0005e0f0       ?update_precision@?$standard_base@DV?$string_output_adapter@D@__crt_stdio_output@@@__crt_stdio_output@@IEAA_NXZ 000000018005f0f0 f i libucrtd:output.obj
 0001:0005e120       ?update_precision@?$standard_base@_WV?$stream_output_adapter@_W@__crt_stdio_output@@@__crt_stdio_output@@IEAA_NXZ 000000018005f120 f i libucrtd:output.obj
 0001:0005e150       ?update_precision@?$standard_base@_WV?$string_output_adapter@_W@__crt_stdio_output@@@__crt_stdio_output@@IEAA_NXZ 000000018005f150 f i libucrtd:output.obj
 0001:0005e180       ?valid@?$cached@H@__crt_cached_ptd_host@@QEBA_NXZ 000000018005f180 f i libucrtd:output.obj
 0001:0005e190       ?valid@?$cached@K@__crt_cached_ptd_host@@QEBA_NXZ 000000018005f190 f i libucrtd:output.obj
 0001:0005e1a0       ?valid@__crt_stdio_stream@@QEBA_NXZ 000000018005f1a0 f i libucrtd:output.obj
 0001:0005e1d0       ?validate@?$c_string_character_source@D@__crt_strtox@@QEBA_NXZ 000000018005f1d0 f i libucrtd:output.obj
 0001:0005e290       ?validate@?$c_string_character_source@_W@__crt_strtox@@QEBA_NXZ 000000018005f290 f i libucrtd:output.obj
 0001:0005e350       ?validate@?$stream_output_adapter@D@__crt_stdio_output@@QEBA_NAEAV__crt_cached_ptd_host@@@Z 000000018005f350 f i libucrtd:output.obj
 0001:0005e450       ?validate@?$stream_output_adapter@_W@__crt_stdio_output@@QEBA_NAEAV__crt_cached_ptd_host@@@Z 000000018005f450 f i libucrtd:output.obj
 0001:0005e550       ?validate@?$string_output_adapter@D@__crt_stdio_output@@QEBA_NAEAV__crt_cached_ptd_host@@@Z 000000018005f550 f i libucrtd:output.obj
 0001:0005e630       ?validate@?$string_output_adapter@_W@__crt_stdio_output@@QEBA_NAEAV__crt_cached_ptd_host@@@Z 000000018005f630 f i libucrtd:output.obj
 0001:0005e710       ?validate_and_store_parameter_data@?$positional_parameter_base@DV?$stream_output_adapter@D@__crt_stdio_output@@@__crt_stdio_output@@AEAA_NAEAUparameter_data@12@W4parameter_type@12@DW4length_modifier@2@@Z 000000018005f710 f i libucrtd:output.obj
 0001:0005e850       ?validate_and_store_parameter_data@?$positional_parameter_base@DV?$string_output_adapter@D@__crt_stdio_output@@@__crt_stdio_output@@AEAA_NAEAUparameter_data@12@W4parameter_type@12@DW4length_modifier@2@@Z 000000018005f850 f i libucrtd:output.obj
 0001:0005e990       ?validate_and_store_parameter_data@?$positional_parameter_base@_WV?$stream_output_adapter@_W@__crt_stdio_output@@@__crt_stdio_output@@AEAA_NAEAUparameter_data@12@W4parameter_type@12@_WW4length_modifier@2@@Z 000000018005f990 f i libucrtd:output.obj
 0001:0005ead0       ?validate_and_store_parameter_data@?$positional_parameter_base@_WV?$string_output_adapter@_W@__crt_stdio_output@@@__crt_stdio_output@@AEAA_NAEAUparameter_data@12@W4parameter_type@12@_WW4length_modifier@2@@Z 000000018005fad0 f i libucrtd:output.obj
 0001:0005ec10       ?validate_and_update_state_at_beginning_of_format_character@?$positional_parameter_base@DV?$stream_output_adapter@D@__crt_stdio_output@@@__crt_stdio_output@@IEAA_NXZ 000000018005fc10 f i libucrtd:output.obj
 0001:0005eeb0       ?validate_and_update_state_at_beginning_of_format_character@?$positional_parameter_base@DV?$string_output_adapter@D@__crt_stdio_output@@@__crt_stdio_output@@IEAA_NXZ 000000018005feb0 f i libucrtd:output.obj
 0001:0005f150       ?validate_and_update_state_at_beginning_of_format_character@?$positional_parameter_base@_WV?$stream_output_adapter@_W@__crt_stdio_output@@@__crt_stdio_output@@IEAA_NXZ 0000000180060150 f i libucrtd:output.obj
 0001:0005f3f0       ?validate_and_update_state_at_beginning_of_format_character@?$positional_parameter_base@_WV?$string_output_adapter@_W@__crt_stdio_output@@@__crt_stdio_output@@IEAA_NXZ 00000001800603f0 f i libucrtd:output.obj
 0001:0005f690       ?validate_and_update_state_at_beginning_of_format_character@?$standard_base@DV?$stream_output_adapter@D@__crt_stdio_output@@@__crt_stdio_output@@IEAA_NXZ 0000000180060690 f i libucrtd:output.obj
 0001:0005f6a0       ?validate_and_update_state_at_beginning_of_format_character@?$standard_base@DV?$string_output_adapter@D@__crt_stdio_output@@@__crt_stdio_output@@IEAA_NXZ 00000001800606a0 f i libucrtd:output.obj
 0001:0005f6b0       ?validate_and_update_state_at_beginning_of_format_character@?$standard_base@_WV?$stream_output_adapter@_W@__crt_stdio_output@@@__crt_stdio_output@@IEAA_NXZ 00000001800606b0 f i libucrtd:output.obj
 0001:0005f6c0       ?validate_and_update_state_at_beginning_of_format_character@?$standard_base@_WV?$string_output_adapter@_W@__crt_stdio_output@@@__crt_stdio_output@@IEAA_NXZ 00000001800606c0 f i libucrtd:output.obj
 0001:0005f6d0       ?validate_and_update_state_at_end_of_format_string@?$format_validation_base@DV?$stream_output_adapter@D@__crt_stdio_output@@@__crt_stdio_output@@IEAA_NXZ 00000001800606d0 f i libucrtd:output.obj
 0001:0005f7c0       ?validate_and_update_state_at_end_of_format_string@?$format_validation_base@DV?$string_output_adapter@D@__crt_stdio_output@@@__crt_stdio_output@@IEAA_NXZ 00000001800607c0 f i libucrtd:output.obj
 0001:0005f8b0       ?validate_and_update_state_at_end_of_format_string@?$format_validation_base@_WV?$stream_output_adapter@_W@__crt_stdio_output@@@__crt_stdio_output@@IEAA_NXZ 00000001800608b0 f i libucrtd:output.obj
 0001:0005f9a0       ?validate_and_update_state_at_end_of_format_string@?$format_validation_base@_WV?$string_output_adapter@_W@__crt_stdio_output@@@__crt_stdio_output@@IEAA_NXZ 00000001800609a0 f i libucrtd:output.obj
 0001:0005fa90       ?validate_and_update_state_at_end_of_format_string@?$positional_parameter_base@DV?$stream_output_adapter@D@__crt_stdio_output@@@__crt_stdio_output@@IEAA_NXZ 0000000180060a90 f i libucrtd:output.obj
 0001:0005fcc0       ?validate_and_update_state_at_end_of_format_string@?$positional_parameter_base@DV?$string_output_adapter@D@__crt_stdio_output@@@__crt_stdio_output@@IEAA_NXZ 0000000180060cc0 f i libucrtd:output.obj
 0001:0005fef0       ?validate_and_update_state_at_end_of_format_string@?$positional_parameter_base@_WV?$stream_output_adapter@_W@__crt_stdio_output@@@__crt_stdio_output@@IEAA_NXZ 0000000180060ef0 f i libucrtd:output.obj
 0001:00060120       ?validate_and_update_state_at_end_of_format_string@?$positional_parameter_base@_WV?$string_output_adapter@_W@__crt_stdio_output@@@__crt_stdio_output@@IEAA_NXZ 0000000180061120 f i libucrtd:output.obj
 0001:00060350       ?validate_and_update_state_at_end_of_format_string@?$standard_base@DV?$stream_output_adapter@D@__crt_stdio_output@@@__crt_stdio_output@@IEBA_NXZ 0000000180061350 f i libucrtd:output.obj
 0001:00060360       ?validate_and_update_state_at_end_of_format_string@?$standard_base@DV?$string_output_adapter@D@__crt_stdio_output@@@__crt_stdio_output@@IEBA_NXZ 0000000180061360 f i libucrtd:output.obj
 0001:00060370       ?validate_and_update_state_at_end_of_format_string@?$standard_base@_WV?$stream_output_adapter@_W@__crt_stdio_output@@@__crt_stdio_output@@IEBA_NXZ 0000000180061370 f i libucrtd:output.obj
 0001:00060380       ?validate_and_update_state_at_end_of_format_string@?$standard_base@_WV?$string_output_adapter@_W@__crt_stdio_output@@@__crt_stdio_output@@IEBA_NXZ 0000000180061380 f i libucrtd:output.obj
 0001:00060390       ?validate_state_for_type_case_a@?$positional_parameter_base@DV?$stream_output_adapter@D@__crt_stdio_output@@@__crt_stdio_output@@IEAA_NXZ 0000000180061390 f i libucrtd:output.obj
 0001:000604f0       ?validate_state_for_type_case_a@?$positional_parameter_base@DV?$string_output_adapter@D@__crt_stdio_output@@@__crt_stdio_output@@IEAA_NXZ 00000001800614f0 f i libucrtd:output.obj
 0001:00060650       ?validate_state_for_type_case_a@?$positional_parameter_base@_WV?$stream_output_adapter@_W@__crt_stdio_output@@@__crt_stdio_output@@IEAA_NXZ 0000000180061650 f i libucrtd:output.obj
 0001:000607b0       ?validate_state_for_type_case_a@?$positional_parameter_base@_WV?$string_output_adapter@_W@__crt_stdio_output@@@__crt_stdio_output@@IEAA_NXZ 00000001800617b0 f i libucrtd:output.obj
 0001:00060910       ?validate_state_for_type_case_a@?$standard_base@DV?$stream_output_adapter@D@__crt_stdio_output@@@__crt_stdio_output@@IEBA_NXZ 0000000180061910 f i libucrtd:output.obj
 0001:00060920       ?validate_state_for_type_case_a@?$standard_base@DV?$string_output_adapter@D@__crt_stdio_output@@@__crt_stdio_output@@IEBA_NXZ 0000000180061920 f i libucrtd:output.obj
 0001:00060930       ?validate_state_for_type_case_a@?$standard_base@_WV?$stream_output_adapter@_W@__crt_stdio_output@@@__crt_stdio_output@@IEBA_NXZ 0000000180061930 f i libucrtd:output.obj
 0001:00060940       ?validate_state_for_type_case_a@?$standard_base@_WV?$string_output_adapter@_W@__crt_stdio_output@@@__crt_stdio_output@@IEBA_NXZ 0000000180061940 f i libucrtd:output.obj
 0001:00060950       ?validate_stream_is_ansi_if_required@?$__acrt_stdio_char_traits@D@@SA_NQEAU_iobuf@@@Z 0000000180061950 f i libucrtd:output.obj
 0001:00060ae0       ?validate_stream_is_ansi_if_required@?$__acrt_stdio_char_traits@_W@@SA_NQEAU_iobuf@@@Z 0000000180061ae0 f i libucrtd:output.obj
 0001:00060af0       ?wide_character_to_digit@__crt_strtox@@YAH_W@Z 0000000180061af0 f i libucrtd:output.obj
 0001:00060e60       ?wide_null_string@?$output_processor@DV?$stream_output_adapter@D@__crt_stdio_output@@V?$format_validation_base@DV?$stream_output_adapter@D@__crt_stdio_output@@@2@@__crt_stdio_output@@CAPEA_WXZ 0000000180061e60 f i libucrtd:output.obj
 0001:00060e70       ?wide_null_string@?$output_processor@DV?$stream_output_adapter@D@__crt_stdio_output@@V?$positional_parameter_base@DV?$stream_output_adapter@D@__crt_stdio_output@@@2@@__crt_stdio_output@@CAPEA_WXZ 0000000180061e70 f i libucrtd:output.obj
 0001:00060e80       ?wide_null_string@?$output_processor@DV?$stream_output_adapter@D@__crt_stdio_output@@V?$standard_base@DV?$stream_output_adapter@D@__crt_stdio_output@@@2@@__crt_stdio_output@@CAPEA_WXZ 0000000180061e80 f i libucrtd:output.obj
 0001:00060e90       ?wide_null_string@?$output_processor@DV?$string_output_adapter@D@__crt_stdio_output@@V?$format_validation_base@DV?$string_output_adapter@D@__crt_stdio_output@@@2@@__crt_stdio_output@@CAPEA_WXZ 0000000180061e90 f i libucrtd:output.obj
 0001:00060ea0       ?wide_null_string@?$output_processor@DV?$string_output_adapter@D@__crt_stdio_output@@V?$positional_parameter_base@DV?$string_output_adapter@D@__crt_stdio_output@@@2@@__crt_stdio_output@@CAPEA_WXZ 0000000180061ea0 f i libucrtd:output.obj
 0001:00060eb0       ?wide_null_string@?$output_processor@DV?$string_output_adapter@D@__crt_stdio_output@@V?$standard_base@DV?$string_output_adapter@D@__crt_stdio_output@@@2@@__crt_stdio_output@@CAPEA_WXZ 0000000180061eb0 f i libucrtd:output.obj
 0001:00060ec0       ?wide_null_string@?$output_processor@_WV?$stream_output_adapter@_W@__crt_stdio_output@@V?$format_validation_base@_WV?$stream_output_adapter@_W@__crt_stdio_output@@@2@@__crt_stdio_output@@CAPEA_WXZ 0000000180061ec0 f i libucrtd:output.obj
 0001:00060ed0       ?wide_null_string@?$output_processor@_WV?$stream_output_adapter@_W@__crt_stdio_output@@V?$positional_parameter_base@_WV?$stream_output_adapter@_W@__crt_stdio_output@@@2@@__crt_stdio_output@@CAPEA_WXZ 0000000180061ed0 f i libucrtd:output.obj
 0001:00060ee0       ?wide_null_string@?$output_processor@_WV?$stream_output_adapter@_W@__crt_stdio_output@@V?$standard_base@_WV?$stream_output_adapter@_W@__crt_stdio_output@@@2@@__crt_stdio_output@@CAPEA_WXZ 0000000180061ee0 f i libucrtd:output.obj
 0001:00060ef0       ?wide_null_string@?$output_processor@_WV?$string_output_adapter@_W@__crt_stdio_output@@V?$format_validation_base@_WV?$string_output_adapter@_W@__crt_stdio_output@@@2@@__crt_stdio_output@@CAPEA_WXZ 0000000180061ef0 f i libucrtd:output.obj
 0001:00060f00       ?wide_null_string@?$output_processor@_WV?$string_output_adapter@_W@__crt_stdio_output@@V?$positional_parameter_base@_WV?$string_output_adapter@_W@__crt_stdio_output@@@2@@__crt_stdio_output@@CAPEA_WXZ 0000000180061f00 f i libucrtd:output.obj
 0001:00060f10       ?wide_null_string@?$output_processor@_WV?$string_output_adapter@_W@__crt_stdio_output@@V?$standard_base@_WV?$string_output_adapter@_W@__crt_stdio_output@@@2@@__crt_stdio_output@@CAPEA_WXZ 0000000180061f10 f i libucrtd:output.obj
 0001:00060f20       ?write_character@?$output_adapter_common@DV?$stream_output_adapter@D@__crt_stdio_output@@@__crt_stdio_output@@QEBAXDQEAHAEAV__crt_cached_ptd_host@@@Z 0000000180061f20 f i libucrtd:output.obj
 0001:00060f80       ?write_character@?$output_adapter_common@_WV?$stream_output_adapter@_W@__crt_stdio_output@@@__crt_stdio_output@@QEBAX_WQEAHAEAV__crt_cached_ptd_host@@@Z 0000000180061f80 f i libucrtd:output.obj
 0001:00060fe0       ?write_character@?$string_output_adapter@D@__crt_stdio_output@@QEBA_NDQEAHAEAV__crt_cached_ptd_host@@@Z 0000000180061fe0 f i libucrtd:output.obj
 0001:000610b0       ?write_character@?$string_output_adapter@_W@__crt_stdio_output@@QEBA_N_WQEAHAEAV__crt_cached_ptd_host@@@Z 00000001800620b0 f i libucrtd:output.obj
 0001:00061180       ?write_character_without_count_update@?$stream_output_adapter@D@__crt_stdio_output@@QEBA_NDAEAV__crt_cached_ptd_host@@@Z 0000000180062180 f i libucrtd:output.obj
 0001:00061210       ?write_character_without_count_update@?$stream_output_adapter@_W@__crt_stdio_output@@QEBA_N_WAEAV__crt_cached_ptd_host@@@Z 0000000180062210 f i libucrtd:output.obj
 0001:000612a0       ?write_stored_string_tchar@?$output_processor@DV?$stream_output_adapter@D@__crt_stdio_output@@V?$format_validation_base@DV?$stream_output_adapter@D@__crt_stdio_output@@@2@@__crt_stdio_output@@AEAA_ND@Z 00000001800622a0 f i libucrtd:output.obj
 0001:00061450       ?write_stored_string_tchar@?$output_processor@DV?$stream_output_adapter@D@__crt_stdio_output@@V?$positional_parameter_base@DV?$stream_output_adapter@D@__crt_stdio_output@@@2@@__crt_stdio_output@@AEAA_ND@Z 0000000180062450 f i libucrtd:output.obj
 0001:00061600       ?write_stored_string_tchar@?$output_processor@DV?$stream_output_adapter@D@__crt_stdio_output@@V?$standard_base@DV?$stream_output_adapter@D@__crt_stdio_output@@@2@@__crt_stdio_output@@AEAA_ND@Z 0000000180062600 f i libucrtd:output.obj
 0001:000617b0       ?write_stored_string_tchar@?$output_processor@DV?$string_output_adapter@D@__crt_stdio_output@@V?$format_validation_base@DV?$string_output_adapter@D@__crt_stdio_output@@@2@@__crt_stdio_output@@AEAA_ND@Z 00000001800627b0 f i libucrtd:output.obj
 0001:00061960       ?write_stored_string_tchar@?$output_processor@DV?$string_output_adapter@D@__crt_stdio_output@@V?$positional_parameter_base@DV?$string_output_adapter@D@__crt_stdio_output@@@2@@__crt_stdio_output@@AEAA_ND@Z 0000000180062960 f i libucrtd:output.obj
 0001:00061b10       ?write_stored_string_tchar@?$output_processor@DV?$string_output_adapter@D@__crt_stdio_output@@V?$standard_base@DV?$string_output_adapter@D@__crt_stdio_output@@@2@@__crt_stdio_output@@AEAA_ND@Z 0000000180062b10 f i libucrtd:output.obj
 0001:00061cc0       ?write_stored_string_tchar@?$output_processor@_WV?$stream_output_adapter@_W@__crt_stdio_output@@V?$format_validation_base@_WV?$stream_output_adapter@_W@__crt_stdio_output@@@2@@__crt_stdio_output@@AEAA_N_W@Z 0000000180062cc0 f i libucrtd:output.obj
 0001:00061e20       ?write_stored_string_tchar@?$output_processor@_WV?$stream_output_adapter@_W@__crt_stdio_output@@V?$positional_parameter_base@_WV?$stream_output_adapter@_W@__crt_stdio_output@@@2@@__crt_stdio_output@@AEAA_N_W@Z 0000000180062e20 f i libucrtd:output.obj
 0001:00061f80       ?write_stored_string_tchar@?$output_processor@_WV?$stream_output_adapter@_W@__crt_stdio_output@@V?$standard_base@_WV?$stream_output_adapter@_W@__crt_stdio_output@@@2@@__crt_stdio_output@@AEAA_N_W@Z 0000000180062f80 f i libucrtd:output.obj
 0001:000620e0       ?write_stored_string_tchar@?$output_processor@_WV?$string_output_adapter@_W@__crt_stdio_output@@V?$format_validation_base@_WV?$string_output_adapter@_W@__crt_stdio_output@@@2@@__crt_stdio_output@@AEAA_N_W@Z 00000001800630e0 f i libucrtd:output.obj
 0001:00062240       ?write_stored_string_tchar@?$output_processor@_WV?$string_output_adapter@_W@__crt_stdio_output@@V?$positional_parameter_base@_WV?$string_output_adapter@_W@__crt_stdio_output@@@2@@__crt_stdio_output@@AEAA_N_W@Z 0000000180063240 f i libucrtd:output.obj
 0001:000623a0       ?write_stored_string_tchar@?$output_processor@_WV?$string_output_adapter@_W@__crt_stdio_output@@V?$standard_base@_WV?$string_output_adapter@_W@__crt_stdio_output@@@2@@__crt_stdio_output@@AEAA_N_W@Z 00000001800633a0 f i libucrtd:output.obj
 0001:00062500       ?write_string@?$stream_output_adapter@D@__crt_stdio_output@@QEBAXQEBDHQEAHAEAV__crt_cached_ptd_host@@@Z 0000000180063500 f i libucrtd:output.obj
 0001:00062580       ?write_string@?$stream_output_adapter@_W@__crt_stdio_output@@QEBAXQEB_WHQEAHAEAV__crt_cached_ptd_host@@@Z 0000000180063580 f i libucrtd:output.obj
 0001:00062600       ?write_string@?$string_output_adapter@D@__crt_stdio_output@@QEBAXQEBDHQEAHAEAV__crt_cached_ptd_host@@@Z 0000000180063600 f i libucrtd:output.obj
 0001:00062770       ?write_string@?$string_output_adapter@_W@__crt_stdio_output@@QEBAXQEB_WHQEAHAEAV__crt_cached_ptd_host@@@Z 0000000180063770 f i libucrtd:output.obj
 0001:000628e0       ?write_string_impl@?$output_adapter_common@DV?$stream_output_adapter@D@__crt_stdio_output@@@__crt_stdio_output@@IEBAXQEBDHQEAHAEAV__crt_cached_ptd_host@@@Z 00000001800638e0 f i libucrtd:output.obj
 0001:00062a00       ?write_string_impl@?$output_adapter_common@_WV?$stream_output_adapter@_W@__crt_stdio_output@@@__crt_stdio_output@@IEBAXQEB_WHQEAHAEAV__crt_cached_ptd_host@@@Z 0000000180063a00 f i libucrtd:output.obj
 0001:00062b20       __acrt_disable_global_locale_sync 0000000180063b20 f i libucrtd:output.obj
 0001:00062b50       __acrt_enable_global_locale_sync 0000000180063b50 f i libucrtd:output.obj
 0001:00062b80       __acrt_isleadbyte_l_noupdate 0000000180063b80 f i libucrtd:output.obj
 0001:00062bb0       __acrt_locale_changed      0000000180063bb0 f i libucrtd:output.obj
 0001:00062be0       __acrt_locale_get_ctype_array_value 0000000180063be0 f i libucrtd:output.obj
 0001:00062c20       __ascii_iswalpha           0000000180063c20 f i libucrtd:output.obj
 0001:00062c60       __ascii_toupper            0000000180063c60 f i libucrtd:output.obj
 0001:00062c80       __ascii_towupper           0000000180063c80 f i libucrtd:output.obj
 0001:00062ca0       __stdio_common_vfprintf    0000000180063ca0 f   libucrtd:output.obj
 0001:00062d20       __stdio_common_vfprintf_p  0000000180063d20 f   libucrtd:output.obj
 0001:00062da0       __stdio_common_vfprintf_s  0000000180063da0 f   libucrtd:output.obj
 0001:00062e20       __stdio_common_vfwprintf   0000000180063e20 f   libucrtd:output.obj
 0001:00062ea0       __stdio_common_vfwprintf_p 0000000180063ea0 f   libucrtd:output.obj
 0001:00062f20       __stdio_common_vfwprintf_s 0000000180063f20 f   libucrtd:output.obj
 0001:00062fa0       __stdio_common_vsnprintf_s 0000000180063fa0 f   libucrtd:output.obj
 0001:00063030       __stdio_common_vsnwprintf_s 0000000180064030 f   libucrtd:output.obj
 0001:000630c0       __stdio_common_vsprintf    00000001800640c0 f   libucrtd:output.obj
 0001:00063150       __stdio_common_vsprintf_p  0000000180064150 f   libucrtd:output.obj
 0001:000631e0       __stdio_common_vsprintf_s  00000001800641e0 f   libucrtd:output.obj
 0001:00063270       __stdio_common_vswprintf   0000000180064270 f   libucrtd:output.obj
 0001:00063300       __stdio_common_vswprintf_p 0000000180064300 f   libucrtd:output.obj
 0001:00063390       __stdio_common_vswprintf_s 0000000180064390 f   libucrtd:output.obj
 0001:00063420       _ctype_fast_check_internal 0000000180064420 f i libucrtd:output.obj
 0001:00063450       _isdigit_fast_internal     0000000180064450 f i libucrtd:output.obj
 0001:00063480       _tolower_fast_internal     0000000180064480 f i libucrtd:output.obj
 0001:000634b0       ??$__crt_fast_decode_pointer@P6AXPEB_W00I_K@Z@@YAP6AXPEB_W00I_K@ZQ6AX000I1@Z@Z 00000001800644b0 f i libucrtd:invalid_parameter.obj
 0001:000634f0       ??$__crt_fast_encode_pointer@P6AXPEB_W00I_K@Z@@YAP6AXPEB_W00I_K@ZQ6AX000I1@Z@Z 00000001800644f0 f i libucrtd:invalid_parameter.obj
 0001:00063530       ??$initialize_from_array@$$BY00Q6AXPEB_W00I_K@Z@?$dual_state_global@P6AXPEB_W00I_K@Z@__crt_state_management@@QEAAXAEAY00Q6AXPEB_W00I_K@Z@Z 0000000180064530 f i libucrtd:invalid_parameter.obj
 0001:00063590       ?__crt_rotate_pointer_value@@YA_K_KH@Z 0000000180064590 f i libucrtd:invalid_parameter.obj
 0001:00063650       ?check_synchronize_global_state_index@__crt_cached_ptd_host@@AEAA_KXZ 0000000180064650 f i libucrtd:invalid_parameter.obj
 0001:000636b0       ?dangerous_get_state_array@?$dual_state_global@P6AXPEB_W00I_K@Z@__crt_state_management@@QEAAPEAP6AXPEB_W00I_K@ZXZ 00000001800646b0 f i libucrtd:invalid_parameter.obj
 0001:000636c0       ?get_current_global_state_index@__crt_cached_ptd_host@@QEAA_KXZ 00000001800646c0 f i libucrtd:invalid_parameter.obj
 0001:000636e0       ?get_current_state_index@__crt_state_management@@YA_KXZ 00000001800646e0 f i libucrtd:invalid_parameter.obj
 0001:000636f0       ?get_raw_ptd_noexit@__crt_cached_ptd_host@@QEAAPEAU__acrt_ptd@@XZ 00000001800646f0 f i libucrtd:invalid_parameter.obj
 0001:00063710       ?try_synchronize_per_thread_data@__crt_cached_ptd_host@@AEAAPEAU__acrt_ptd@@XZ 0000000180064710 f i libucrtd:invalid_parameter.obj
 0001:00063740       ?value@?$dual_state_global@P6AXPEB_W00I_K@Z@__crt_state_management@@QEAAAEAP6AXPEB_W00I_K@ZAEAV__crt_cached_ptd_host@@@Z 0000000180064740 f i libucrtd:invalid_parameter.obj
 0001:00063770       ?value@?$dual_state_global@P6AXPEB_W00I_K@Z@__crt_state_management@@QEAAAEAP6AXPEB_W00I_K@ZXZ 0000000180064770 f i libucrtd:invalid_parameter.obj
 0001:00063790       __acrt_call_reportfault    0000000180064790 f   libucrtd:invalid_parameter.obj
 0001:000638c0       __acrt_initialize_invalid_parameter_handler 00000001800648c0 f   libucrtd:invalid_parameter.obj
 0001:000638f0       _get_invalid_parameter_handler 00000001800648f0 f   libucrtd:invalid_parameter.obj
 0001:00063910       _get_thread_local_invalid_parameter_handler 0000000180064910 f   libucrtd:invalid_parameter.obj
 0001:00063940       _invalid_parameter         0000000180064940 f   libucrtd:invalid_parameter.obj
 0001:000639b0       _invalid_parameter_internal 00000001800649b0 f   libucrtd:invalid_parameter.obj
 0001:00063b00       _invalid_parameter_noinfo  0000000180064b00 f   libucrtd:invalid_parameter.obj
 0001:00063b30       _invalid_parameter_noinfo_noreturn 0000000180064b30 f   libucrtd:invalid_parameter.obj
 0001:00063b70       _invoke_watson             0000000180064b70 f   libucrtd:invalid_parameter.obj
 0001:00063bd0       _set_invalid_parameter_handler 0000000180064bd0 f   libucrtd:invalid_parameter.obj
 0001:00063c20       _set_thread_local_invalid_parameter_handler 0000000180064c20 f   libucrtd:invalid_parameter.obj
 0001:00063c60       wcscmp                     0000000180064c60 f   libucrtd:wcscmp.obj
 0001:00063d00       ??$?RU?$__crt_report_hook_node@D@@@__crt_internal_free_policy@@QEBAXQEBU?$__crt_report_hook_node@D@@@Z 0000000180064d00 f i libucrtd:dbgrpt.obj
 0001:00063d30       ??$?RU?$__crt_report_hook_node@_W@@@__crt_internal_free_policy@@QEBAXQEBU?$__crt_report_hook_node@_W@@@Z 0000000180064d30 f i libucrtd:dbgrpt.obj
 0001:00064fb0       ??$get_module_file_name@AEAPEAUHINSTANCE__@@AEAY0BAF@DK@?$__crt_char_traits@D@@SAKAEAPEAUHINSTANCE__@@AEAY0BAF@D$$QEAK@Z 0000000180065fb0 f i libucrtd:dbgrpt.obj
 0001:00064ff0       ??$get_module_file_name@AEAPEAUHINSTANCE__@@AEAY0BAF@_WK@?$__crt_char_traits@_W@@SAKAEAPEAUHINSTANCE__@@AEAY0BAF@_W$$QEAK@Z 0000000180065ff0 f i libucrtd:dbgrpt.obj
 0001:00065030       ??$tcscpy_s@AEAY0BAF@D_KPEBD@?$__crt_char_traits@D@@SAHAEAY0BAF@D$$QEA_K$$QEAPEBD@Z 0000000180066030 f i libucrtd:dbgrpt.obj
 0001:00065070       ??$tcscpy_s@AEAY0BAF@_W_KPEB_W@?$__crt_char_traits@_W@@SAHAEAY0BAF@_W$$QEA_K$$QEAPEB_W@Z 0000000180066070 f i libucrtd:dbgrpt.obj
 0001:000650b0       ??$tcslen@AEAY0BAF@D@?$__crt_char_traits@D@@SA_KAEAY0BAF@D@Z 00000001800660b0 f i libucrtd:dbgrpt.obj
 0001:000650d0       ??$tcslen@AEAY0BAF@_W@?$__crt_char_traits@_W@@SA_KAEAY0BAF@_W@Z 00000001800660d0 f i libucrtd:dbgrpt.obj
 0001:000650f0       ??$tcslen@AEBQEBD@?$__crt_char_traits@D@@SA_KAEBQEBD@Z 00000001800660f0 f i libucrtd:dbgrpt.obj
 0001:00065110       ??$tcslen@AEBQEB_W@?$__crt_char_traits@_W@@SA_KAEBQEB_W@Z 0000000180066110 f i libucrtd:dbgrpt.obj
 0001:00065210       ??0?$__crt_unique_heap_ptr@U?$__crt_report_hook_node@D@@U__crt_internal_free_policy@@@@QEAA@QEAU?$__crt_report_hook_node@D@@@Z 0000000180066210 f i libucrtd:dbgrpt.obj
 0001:00065230       ??0?$__crt_unique_heap_ptr@U?$__crt_report_hook_node@_W@@U__crt_internal_free_policy@@@@QEAA@QEAU?$__crt_report_hook_node@_W@@@Z 0000000180066230 f i libucrtd:dbgrpt.obj
 0001:00065250       ??1?$__crt_unique_heap_ptr@U?$__crt_report_hook_node@D@@U__crt_internal_free_policy@@@@QEAA@XZ 0000000180066250 f i libucrtd:dbgrpt.obj
 0001:00065270       ??1?$__crt_unique_heap_ptr@U?$__crt_report_hook_node@_W@@U__crt_internal_free_policy@@@@QEAA@XZ 0000000180066270 f i libucrtd:dbgrpt.obj
 0001:00065290       ??B?$__crt_unique_heap_ptr@U?$__crt_report_hook_node@D@@U__crt_internal_free_policy@@@@QEBA_NXZ 0000000180066290 f i libucrtd:dbgrpt.obj
 0001:000652b0       ??B?$__crt_unique_heap_ptr@U?$__crt_report_hook_node@_W@@U__crt_internal_free_policy@@@@QEBA_NXZ 00000001800662b0 f i libucrtd:dbgrpt.obj
 0001:000659d0       ?detach@?$__crt_unique_heap_ptr@U?$__crt_report_hook_node@D@@U__crt_internal_free_policy@@@@QEAAPEAU?$__crt_report_hook_node@D@@XZ 00000001800669d0 f i libucrtd:dbgrpt.obj
 0001:00065a00       ?detach@?$__crt_unique_heap_ptr@U?$__crt_report_hook_node@_W@@U__crt_internal_free_policy@@@@QEAAPEAU?$__crt_report_hook_node@_W@@XZ 0000000180066a00 f i libucrtd:dbgrpt.obj
 0001:00065a30       ?get@?$__crt_unique_heap_ptr@U?$__crt_report_hook_node@D@@U__crt_internal_free_policy@@@@QEBAPEAU?$__crt_report_hook_node@D@@XZ 0000000180066a30 f i libucrtd:dbgrpt.obj
 0001:00065a40       ?get@?$__crt_unique_heap_ptr@U?$__crt_report_hook_node@_W@@U__crt_internal_free_policy@@@@QEBAPEAU?$__crt_report_hook_node@_W@@XZ 0000000180066a40 f i libucrtd:dbgrpt.obj
 0001:00065ab0       ?is_valid@?$__crt_unique_heap_ptr@U?$__crt_report_hook_node@D@@U__crt_internal_free_policy@@@@QEBA_NXZ 0000000180066ab0 f i libucrtd:dbgrpt.obj
 0001:00065ae0       ?is_valid@?$__crt_unique_heap_ptr@U?$__crt_report_hook_node@_W@@U__crt_internal_free_policy@@@@QEBA_NXZ 0000000180066ae0 f i libucrtd:dbgrpt.obj
 0001:00065b10       ?release@?$__crt_unique_heap_ptr@U?$__crt_report_hook_node@D@@U__crt_internal_free_policy@@@@QEAAXXZ 0000000180066b10 f i libucrtd:dbgrpt.obj
 0001:00065b40       ?release@?$__crt_unique_heap_ptr@U?$__crt_report_hook_node@_W@@U__crt_internal_free_policy@@@@QEAAXXZ 0000000180066b40 f i libucrtd:dbgrpt.obj
 0001:00065b70       _CrtDbgReport              0000000180066b70 f   libucrtd:dbgrpt.obj
 0001:00065bf0       _CrtDbgReportW             0000000180066bf0 f   libucrtd:dbgrpt.obj
 0001:00065c70       _CrtSetReportHook2         0000000180066c70 f   libucrtd:dbgrpt.obj
 0001:00065c90       _CrtSetReportHookW2        0000000180066c90 f   libucrtd:dbgrpt.obj
 0001:00065cb0       __acrt_MessageWindowA      0000000180066cb0 f   libucrtd:dbgrpt.obj
 0001:00065d00       __acrt_MessageWindowW      0000000180066d00 f   libucrtd:dbgrpt.obj
 0001:00065d50       _invoke_watson_if_error    0000000180066d50 f i libucrtd:dbgrpt.obj
 0001:00065da0       _invoke_watson_if_oneof    0000000180066da0 f i libucrtd:dbgrpt.obj
 0001:00065e00       _snwprintf_s               0000000180066e00 f i libucrtd:dbgrpt.obj
 0001:00065e70       _vsnwprintf_s_l            0000000180066e70 f i libucrtd:dbgrpt.obj
 0001:00068060       ??$ftprintf@PEAU_iobuf@@PEBDAEBQEBDAEBQEBDAEBI@?$__crt_char_traits@D@@SAH$$QEAPEAU_iobuf@@$$QEAPEBDAEBQEBD2AEBI@Z 0000000180069060 f i libucrtd:assert.obj
 0001:000680b0       ??$ftprintf@PEAU_iobuf@@PEB_WAEBQEB_WAEBQEB_WAEBI@?$__crt_char_traits@_W@@SAH$$QEAPEAU_iobuf@@$$QEAPEB_WAEBQEB_W2AEBI@Z 00000001800690b0 f i libucrtd:assert.obj
 0001:00068100       ??$itot_s@AEBIPEAD_KH@?$__crt_char_traits@D@@SAHAEBI$$QEAPEAD$$QEA_K$$QEAH@Z 0000000180069100 f i libucrtd:assert.obj
 0001:00068150       ??$itot_s@AEBIPEA_W_KH@?$__crt_char_traits@_W@@SAHAEBI$$QEAPEA_W$$QEA_K$$QEAH@Z 0000000180069150 f i libucrtd:assert.obj
 0001:000681a0       ??$show_message_box@AEAY0CEA@DPEBDJ@?$__crt_char_traits@D@@SAHAEAY0CEA@D$$QEAPEBD$$QEAJ@Z 00000001800691a0 f i libucrtd:assert.obj
 0001:000681e0       ??$show_message_box@AEAY0CEA@_WPEB_WJ@?$__crt_char_traits@_W@@SAHAEAY0CEA@_W$$QEAPEB_W$$QEAJ@Z 00000001800691e0 f i libucrtd:assert.obj
 0001:00068220       ??$tcscat_s@AEBQEADAEB_KAEAPEAD@?$__crt_char_traits@D@@SAHAEBQEADAEB_KAEAPEAD@Z 0000000180069220 f i libucrtd:assert.obj
 0001:00068260       ??$tcscat_s@AEBQEADAEB_KAEBQEBD@?$__crt_char_traits@D@@SAHAEBQEADAEB_KAEBQEBD@Z 0000000180069260 f i libucrtd:assert.obj
 0001:000682a0       ??$tcscat_s@AEBQEADAEB_KPEBD@?$__crt_char_traits@D@@SAHAEBQEADAEB_K$$QEAPEBD@Z 00000001800692a0 f i libucrtd:assert.obj
 0001:000682e0       ??$tcscat_s@AEBQEA_WAEB_KAEAPEA_W@?$__crt_char_traits@_W@@SAHAEBQEA_WAEB_KAEAPEA_W@Z 00000001800692e0 f i libucrtd:assert.obj
 0001:00068320       ??$tcscat_s@AEBQEA_WAEB_KAEBQEB_W@?$__crt_char_traits@_W@@SAHAEBQEA_WAEB_KAEBQEB_W@Z 0000000180069320 f i libucrtd:assert.obj
 0001:00068360       ??$tcscat_s@AEBQEA_WAEB_KPEB_W@?$__crt_char_traits@_W@@SAHAEBQEA_WAEB_K$$QEAPEB_W@Z 0000000180069360 f i libucrtd:assert.obj
 0001:000683a0       ??$tcscpy_s@AEBQEADAEB_KPEBD@?$__crt_char_traits@D@@SAHAEBQEADAEB_K$$QEAPEBD@Z 00000001800693a0 f i libucrtd:assert.obj
 0001:000683e0       ??$tcscpy_s@AEBQEA_WAEB_KPEB_W@?$__crt_char_traits@_W@@SAHAEBQEA_WAEB_K$$QEAPEB_W@Z 00000001800693e0 f i libucrtd:assert.obj
 0001:00068420       ??$tcslen@AEBQEAD@?$__crt_char_traits@D@@SA_KAEBQEAD@Z 0000000180069420 f i libucrtd:assert.obj
 0001:00068440       ??$tcslen@AEBQEA_W@?$__crt_char_traits@_W@@SA_KAEBQEA_W@Z 0000000180069440 f i libucrtd:assert.obj
 0001:00068460       ??$tcsncat_s@AEBQEADAEB_KAEAPEBD_K@?$__crt_char_traits@D@@SAHAEBQEADAEB_KAEAPEBD$$QEA_K@Z 0000000180069460 f i libucrtd:assert.obj
 0001:000684b0       ??$tcsncat_s@AEBQEADAEB_KAEBQEBDAEB_K@?$__crt_char_traits@D@@SAHAEBQEADAEB_KAEBQEBD1@Z 00000001800694b0 f i libucrtd:assert.obj
 0001:00068500       ??$tcsncat_s@AEBQEADAEB_KPEBD_K@?$__crt_char_traits@D@@SAHAEBQEADAEB_K$$QEAPEBD$$QEA_K@Z 0000000180069500 f i libucrtd:assert.obj
 0001:00068550       ??$tcsncat_s@AEBQEA_WAEB_KAEAPEB_W_K@?$__crt_char_traits@_W@@SAHAEBQEA_WAEB_KAEAPEB_W$$QEA_K@Z 0000000180069550 f i libucrtd:assert.obj
 0001:000685a0       ??$tcsncat_s@AEBQEA_WAEB_KAEBQEB_WAEB_K@?$__crt_char_traits@_W@@SAHAEBQEA_WAEB_KAEBQEB_W1@Z 00000001800695a0 f i libucrtd:assert.obj
 0001:000685f0       ??$tcsncat_s@AEBQEA_WAEB_KPEB_W_K@?$__crt_char_traits@_W@@SAHAEBQEA_WAEB_K$$QEAPEB_W$$QEA_K@Z 00000001800695f0 f i libucrtd:assert.obj
 0001:000688f0       ?has_any_buffer@__crt_stdio_stream@@QEBA_NXZ 00000001800698f0 f i libucrtd:assert.obj
 0001:00068910       ?has_any_of@__crt_stdio_stream@@QEBA_NJ@Z 0000000180069910 f i libucrtd:assert.obj
 0001:00068950       _assert                    0000000180069950 f   libucrtd:assert.obj
 0001:00068990       _vfprintf_l                0000000180069990 f i libucrtd:assert.obj
 0001:000689e0       _vfwprintf_l               00000001800699e0 f i libucrtd:assert.obj
 0001:00068a30       _wassert                   0000000180069a30 f   libucrtd:assert.obj
 0001:00068a70       fprintf                    0000000180069a70 f i libucrtd:assert.obj
 0001:00068ac0       fwprintf                   0000000180069ac0 f i libucrtd:assert.obj
 0001:00068c50       swprintf                   0000000180069c50 f i libucrtd:assert.obj
 0001:00068cb0       wcscat                     0000000180069cb0 f   libucrtd:wcscat.obj
 0001:00068d40       wcscpy                     0000000180069d40 f   libucrtd:wcscpy.obj
 0001:00068df0       _get_terminate             0000000180069df0 f   libucrtd:terminate.obj
 0001:00068e10       set_terminate              0000000180069e10 f   libucrtd:terminate.obj
 0001:00068e50       terminate                  0000000180069e50 f   libucrtd:terminate.obj
 0001:00068ea0       ??$?B$$A6AH_K@Z@__crt_fast_encoded_nullptr_t@@QEBAP6AH_K@ZXZ 0000000180069ea0 f i libucrtd:new_handler.obj
 0001:00068ec0       ??$__crt_fast_decode_pointer@P6AH_K@Z@@YAP6AH_K@ZQ6AH0@Z@Z 0000000180069ec0 f i libucrtd:new_handler.obj
 0001:00068f00       ??$__crt_fast_encode_pointer@P6AH_K@Z@@YAP6AH_K@ZQ6AH0@Z@Z 0000000180069f00 f i libucrtd:new_handler.obj
 0001:00068f40       ?__crt_fast_encode_pointer@@YA?AU__crt_fast_encoded_nullptr_t@@$$T@Z 0000000180069f40 f i libucrtd:new_handler.obj
 0001:00068f60       ?_set_new_handler@@YAP6AH_K@ZH@Z 0000000180069f60 f   libucrtd:new_handler.obj
 0001:00068fd0       ?initialize@?$dual_state_global@P6AH_K@Z@__crt_state_management@@QEAAXQ6AH_K@Z@Z 0000000180069fd0 f i libucrtd:new_handler.obj
 0001:00069020       ?value@?$dual_state_global@P6AH_K@Z@__crt_state_management@@QEAAAEAP6AH_K@ZXZ 000000018006a020 f i libucrtd:new_handler.obj
 0001:00069040       __acrt_initialize_new_handler 000000018006a040 f   libucrtd:new_handler.obj
 0001:00069060       _callnewh                  000000018006a060 f   libucrtd:new_handler.obj
 0001:000690c0       _query_new_handler         000000018006a0c0 f   libucrtd:new_handler.obj
 0001:00069100       _set_new_handler           000000018006a100 f   libucrtd:new_handler.obj
 0001:00069170       malloc                     000000018006a170 f   libucrtd:malloc.obj
 0001:00069210       _seh_filter_dll            000000018006a210 f   libucrtd:exception_filter.obj
 0001:00069240       _seh_filter_exe            000000018006a240 f   libucrtd:exception_filter.obj
 0001:00069510       ??$?B$$A6AXPEAXK0@Z@__crt_fast_encoded_nullptr_t@@QEBAP6AXPEAXK0@ZXZ 000000018006a510 f i libucrtd:exit.obj
 0001:000695d0       ??$__crt_fast_decode_pointer@P6AXPEAXK0@Z@@YAP6AXPEAXK0@ZQ6AX0K0@Z@Z 000000018006a5d0 f i libucrtd:exit.obj
 0001:00069610       ??$__crt_fast_encode_pointer@P6AXPEAXK0@Z@@YAP6AXPEAXK0@ZQ6AX0K0@Z@Z 000000018006a610 f i libucrtd:exit.obj
 0001:00069650       ??$__crt_get_proc_address@P6AXI@Z@@YAP6AXI@ZQEAUHINSTANCE__@@QEBD@Z 000000018006a650 f i libucrtd:exit.obj
 0001:00069710       ??0?$__crt_unique_handle_t@U__crt_hmodule_traits@@@@QEAA@QEAUHINSTANCE__@@@Z 000000018006a710 f i libucrtd:exit.obj
 0001:00069730       ??1?$__crt_unique_handle_t@U__crt_hmodule_traits@@@@QEAA@XZ 000000018006a730 f i libucrtd:exit.obj
 0001:000698b0       ?__acrt_select_exit_lock@@YA?AW4__acrt_lock_id@@XZ 000000018006a8b0 f i libucrtd:exit.obj
 0001:000698e0       ?close@?$__crt_unique_handle_t@U__crt_hmodule_traits@@@@QEAAXXZ 000000018006a8e0 f i libucrtd:exit.obj
 0001:00069920       ?close@__crt_hmodule_traits@@SA_NPEAUHINSTANCE__@@@Z 000000018006a920 f i libucrtd:exit.obj
 0001:00069a40       ?get@?$__crt_unique_handle_t@U__crt_hmodule_traits@@@@QEBAPEAUHINSTANCE__@@XZ 000000018006aa40 f i libucrtd:exit.obj
 0001:00069a50       ?get_address_of@?$__crt_unique_handle_t@U__crt_hmodule_traits@@@@QEAAPEAPEAUHINSTANCE__@@XZ 000000018006aa50 f i libucrtd:exit.obj
 0001:00069a60       ?get_invalid_value@__crt_hmodule_traits@@SAPEAUHINSTANCE__@@XZ 000000018006aa60 f i libucrtd:exit.obj
 0001:00069c10       _Exit                      000000018006ac10 f   libucrtd:exit.obj
 0001:00069c30       __acrt_initialize_thread_local_exit_callback 000000018006ac30 f   libucrtd:exit.obj
 0001:00069c50       _c_exit                    000000018006ac50 f   libucrtd:exit.obj
 0001:00069c70       _cexit                     000000018006ac70 f   libucrtd:exit.obj
 0001:00069c90       _exit                      000000018006ac90 f   libucrtd:exit.obj
 0001:00069cb0       _is_c_termination_complete 000000018006acb0 f   libucrtd:exit.obj
 0001:00069cd0       _register_thread_local_exe_atexit_callback 000000018006acd0 f   libucrtd:exit.obj
 0001:00069d20       exit                       000000018006ad20 f   libucrtd:exit.obj
 0001:00069d40       quick_exit                 000000018006ad40 f   libucrtd:exit.obj
 0001:00069d60       ??$?RE@__crt_internal_free_policy@@QEBAXQEBE@Z 000000018006ad60 f i libucrtd:argv_parsing.obj
 0001:00069d90       ??$?RPEAD@__crt_internal_free_policy@@QEBAXQEBQEAD@Z 000000018006ad90 f i libucrtd:argv_parsing.obj
 0001:00069dc0       ??$?RPEA_W@__crt_internal_free_policy@@QEBAXQEBQEA_W@Z 000000018006adc0 f i libucrtd:argv_parsing.obj
 0001:0006a510       ??$get_module_file_name@$$TAEAY0BAF@DH@?$__crt_char_traits@D@@SAK$$QEA$$TAEAY0BAF@D$$QEAH@Z 000000018006b510 f i libucrtd:argv_parsing.obj
 0001:0006a550       ??$get_module_file_name@$$TAEAY0BAF@_WH@?$__crt_char_traits@_W@@SAK$$QEA$$TAEAY0BAF@_W$$QEAH@Z 000000018006b550 f i libucrtd:argv_parsing.obj
 0001:0006af50       ??$set_program_name@PEAD@?$__crt_char_traits@D@@SAX$$QEAPEAD@Z 000000018006bf50 f i libucrtd:argv_parsing.obj
 0001:0006af70       ??$set_program_name@PEA_W@?$__crt_char_traits@_W@@SAX$$QEAPEA_W@Z 000000018006bf70 f i libucrtd:argv_parsing.obj
 0001:0006afd0       ??0?$__crt_unique_heap_ptr@EU__crt_internal_free_policy@@@@QEAA@QEAE@Z 000000018006bfd0 f i libucrtd:argv_parsing.obj
 0001:0006aff0       ??0?$__crt_unique_heap_ptr@PEADU__crt_internal_free_policy@@@@QEAA@QEAPEAD@Z 000000018006bff0 f i libucrtd:argv_parsing.obj
 0001:0006b010       ??0?$__crt_unique_heap_ptr@PEA_WU__crt_internal_free_policy@@@@QEAA@QEAPEA_W@Z 000000018006c010 f i libucrtd:argv_parsing.obj
 0001:0006b030       ??1?$__crt_unique_heap_ptr@EU__crt_internal_free_policy@@@@QEAA@XZ 000000018006c030 f i libucrtd:argv_parsing.obj
 0001:0006b050       ??1?$__crt_unique_heap_ptr@PEADU__crt_internal_free_policy@@@@QEAA@XZ 000000018006c050 f i libucrtd:argv_parsing.obj
 0001:0006b070       ??1?$__crt_unique_heap_ptr@PEA_WU__crt_internal_free_policy@@@@QEAA@XZ 000000018006c070 f i libucrtd:argv_parsing.obj
 0001:0006b090       ??B?$__crt_unique_heap_ptr@EU__crt_internal_free_policy@@@@QEBA_NXZ 000000018006c090 f i libucrtd:argv_parsing.obj
 0001:0006b170       ?detach@?$__crt_unique_heap_ptr@EU__crt_internal_free_policy@@@@QEAAPEAEXZ 000000018006c170 f i libucrtd:argv_parsing.obj
 0001:0006b1a0       ?detach@?$__crt_unique_heap_ptr@PEADU__crt_internal_free_policy@@@@QEAAPEAPEADXZ 000000018006c1a0 f i libucrtd:argv_parsing.obj
 0001:0006b1d0       ?detach@?$__crt_unique_heap_ptr@PEA_WU__crt_internal_free_policy@@@@QEAAPEAPEA_WXZ 000000018006c1d0 f i libucrtd:argv_parsing.obj
 0001:0006b290       ?get@?$__crt_unique_heap_ptr@EU__crt_internal_free_policy@@@@QEBAPEAEXZ 000000018006c290 f i libucrtd:argv_parsing.obj
 0001:0006b2a0       ?get@?$__crt_unique_heap_ptr@PEADU__crt_internal_free_policy@@@@QEBAPEAPEADXZ 000000018006c2a0 f i libucrtd:argv_parsing.obj
 0001:0006b2b0       ?get@?$__crt_unique_heap_ptr@PEA_WU__crt_internal_free_policy@@@@QEBAPEAPEA_WXZ 000000018006c2b0 f i libucrtd:argv_parsing.obj
 0001:0006b2c0       ?get_address_of@?$__crt_unique_heap_ptr@PEADU__crt_internal_free_policy@@@@QEAAPEAPEAPEADXZ 000000018006c2c0 f i libucrtd:argv_parsing.obj
 0001:0006b2d0       ?get_address_of@?$__crt_unique_heap_ptr@PEA_WU__crt_internal_free_policy@@@@QEAAPEAPEAPEA_WXZ 000000018006c2d0 f i libucrtd:argv_parsing.obj
 0001:0006b320       ?is_valid@?$__crt_unique_heap_ptr@EU__crt_internal_free_policy@@@@QEBA_NXZ 000000018006c320 f i libucrtd:argv_parsing.obj
 0001:0006b350       ?release@?$__crt_unique_heap_ptr@EU__crt_internal_free_policy@@@@QEAAXXZ 000000018006c350 f i libucrtd:argv_parsing.obj
 0001:0006b380       ?release@?$__crt_unique_heap_ptr@PEADU__crt_internal_free_policy@@@@QEAAXXZ 000000018006c380 f i libucrtd:argv_parsing.obj
 0001:0006b3b0       ?release@?$__crt_unique_heap_ptr@PEA_WU__crt_internal_free_policy@@@@QEAAXXZ 000000018006c3b0 f i libucrtd:argv_parsing.obj
 0001:0006b430       __acrt_allocate_buffer_for_argv 000000018006c430 f   libucrtd:argv_parsing.obj
 0001:0006b550       _configure_narrow_argv     000000018006c550 f   libucrtd:argv_parsing.obj
 0001:0006b570       _configure_wide_argv       000000018006c570 f   libucrtd:argv_parsing.obj
 0001:0006b590       _set_pgmptr                000000018006c590 f i libucrtd:argv_parsing.obj
 0001:0006b5b0       _set_wpgmptr               000000018006c5b0 f i libucrtd:argv_parsing.obj
 0001:0006b5d0       ??$?R_W@__crt_internal_free_policy@@QEBAXQEB_W@Z 000000018006c5d0 f i libucrtd:environment_initialization.obj
 0001:0006bf90       ??$get_environment_from_os@$$V@?$__crt_char_traits@D@@SAPEADXZ 000000018006cf90 f i libucrtd:environment_initialization.obj
 0001:0006bfa0       ??$get_environment_from_os@$$V@?$__crt_char_traits@_W@@SAPEA_WXZ 000000018006cfa0 f i libucrtd:environment_initialization.obj
 0001:0006c2b0       ??$set_variable_in_environment_nolock@PEADH@?$__crt_char_traits@D@@SAH$$QEAPEAD$$QEAH@Z 000000018006d2b0 f i libucrtd:environment_initialization.obj
 0001:0006c2e0       ??$set_variable_in_environment_nolock@PEA_WH@?$__crt_char_traits@_W@@SAH$$QEAPEA_W$$QEAH@Z 000000018006d2e0 f i libucrtd:environment_initialization.obj
 0001:0006c310       ??$tcscpy_s@PEADAEB_KAEAPEAD@?$__crt_char_traits@D@@SAH$$QEAPEADAEB_KAEAPEAD@Z 000000018006d310 f i libucrtd:environment_initialization.obj
 0001:0006c350       ??$tcscpy_s@PEA_WAEB_KAEAPEA_W@?$__crt_char_traits@_W@@SAH$$QEAPEA_WAEB_KAEAPEA_W@Z 000000018006d350 f i libucrtd:environment_initialization.obj
 0001:0006c390       ??$tcslen@AEAPEAD@?$__crt_char_traits@D@@SA_KAEAPEAD@Z 000000018006d390 f i libucrtd:environment_initialization.obj
 0001:0006c3b0       ??$tcslen@AEAPEA_W@?$__crt_char_traits@_W@@SA_KAEAPEA_W@Z 000000018006d3b0 f i libucrtd:environment_initialization.obj
 0001:0006c3d0       ??$uninitialize@A6AXAEAPEAPEAD@_E@?$dual_state_global@PEAPEAD@__crt_state_management@@QEAAXA6AXAEAPEAPEAD@_E@Z 000000018006d3d0 f i libucrtd:environment_initialization.obj
 0001:0006c450       ??$uninitialize@A6AXAEAPEAPEA_W@_E@?$dual_state_global@PEAPEA_W@__crt_state_management@@QEAAXA6AXAEAPEAPEA_W@_E@Z 000000018006d450 f i libucrtd:environment_initialization.obj
 0001:0006c550       ??0?$__crt_unique_heap_ptr@_WU__crt_internal_free_policy@@@@QEAA@QEA_W@Z 000000018006d550 f i libucrtd:environment_initialization.obj
 0001:0006c570       ??1?$__crt_unique_heap_ptr@_WU__crt_internal_free_policy@@@@QEAA@XZ 000000018006d570 f i libucrtd:environment_initialization.obj
 0001:0006c590       ??B?$__crt_unique_heap_ptr@PEADU__crt_internal_free_policy@@@@QEBA_NXZ 000000018006d590 f i libucrtd:environment_initialization.obj
 0001:0006c5b0       ??B?$__crt_unique_heap_ptr@PEA_WU__crt_internal_free_policy@@@@QEBA_NXZ 000000018006d5b0 f i libucrtd:environment_initialization.obj
 0001:0006c5d0       ??B?$__crt_unique_heap_ptr@_WU__crt_internal_free_policy@@@@QEBA_NXZ 000000018006d5d0 f i libucrtd:environment_initialization.obj
 0001:0006c5f0       ?__crt_compute_required_transform_buffer_count@@YA_KIQEBD@Z 000000018006d5f0 f i libucrtd:environment_initialization.obj
 0001:0006c630       ?__crt_compute_required_transform_buffer_count@@YA_KIQEB_W@Z 000000018006d630 f i libucrtd:environment_initialization.obj
 0001:0006c680       ?__crt_transform_string@@YA_KIQEBDQEA_W_K@Z 000000018006d680 f i libucrtd:environment_initialization.obj
 0001:0006c6d0       ?__crt_transform_string@@YA_KIQEB_WQEAD_K@Z 000000018006d6d0 f i libucrtd:environment_initialization.obj
 0001:0006c730       ?detach@?$__crt_unique_heap_ptr@DU__crt_internal_free_policy@@@@QEAAPEADXZ 000000018006d730 f i libucrtd:environment_initialization.obj
 0001:0006c760       ?detach@?$__crt_unique_heap_ptr@_WU__crt_internal_free_policy@@@@QEAAPEA_WXZ 000000018006d760 f i libucrtd:environment_initialization.obj
 0001:0006c790       ?get@?$__crt_unique_heap_ptr@_WU__crt_internal_free_policy@@@@QEBAPEA_WXZ 000000018006d790 f i libucrtd:environment_initialization.obj
 0001:0006c820       ?initialize@?$dual_state_global@PEAPEAD@__crt_state_management@@QEAAXQEAPEAD@Z 000000018006d820 f i libucrtd:environment_initialization.obj
 0001:0006c870       ?initialize@?$dual_state_global@PEAPEA_W@__crt_state_management@@QEAAXQEAPEA_W@Z 000000018006d870 f i libucrtd:environment_initialization.obj
 0001:0006c8c0       ?is_valid@?$__crt_unique_heap_ptr@PEADU__crt_internal_free_policy@@@@QEBA_NXZ 000000018006d8c0 f i libucrtd:environment_initialization.obj
 0001:0006c8f0       ?is_valid@?$__crt_unique_heap_ptr@PEA_WU__crt_internal_free_policy@@@@QEBA_NXZ 000000018006d8f0 f i libucrtd:environment_initialization.obj
 0001:0006c920       ?is_valid@?$__crt_unique_heap_ptr@_WU__crt_internal_free_policy@@@@QEBA_NXZ 000000018006d920 f i libucrtd:environment_initialization.obj
 0001:0006c980       ?release@?$__crt_unique_heap_ptr@_WU__crt_internal_free_policy@@@@QEAAXXZ 000000018006d980 f i libucrtd:environment_initialization.obj
 0001:0006c9b0       ?value@?$dual_state_global@PEAPEAD@__crt_state_management@@QEAAAEAPEAPEADXZ 000000018006d9b0 f i libucrtd:environment_initialization.obj
 0001:0006c9d0       ?value@?$dual_state_global@PEAPEA_W@__crt_state_management@@QEAAAEAPEAPEA_WXZ 000000018006d9d0 f i libucrtd:environment_initialization.obj
 0001:0006c9f0       __dcrt_get_or_create_narrow_environment_nolock 000000018006d9f0 f   libucrtd:environment_initialization.obj
 0001:0006ca00       __dcrt_get_or_create_wide_environment_nolock 000000018006da00 f   libucrtd:environment_initialization.obj
 0001:0006ca10       __dcrt_uninitialize_environments_nolock 000000018006da10 f   libucrtd:environment_initialization.obj
 0001:0006ca60       __p__environ               000000018006da60 f   libucrtd:environment_initialization.obj
 0001:0006ca80       __p__wenviron              000000018006da80 f   libucrtd:environment_initialization.obj
 0001:0006caa0       _get_initial_narrow_environment 000000018006daa0 f   libucrtd:environment_initialization.obj
 0001:0006cab0       _get_initial_wide_environment 000000018006dab0 f   libucrtd:environment_initialization.obj
 0001:0006cac0       _initialize_narrow_environment 000000018006dac0 f   libucrtd:environment_initialization.obj
 0001:0006cad0       _initialize_wide_environment 000000018006dad0 f   libucrtd:environment_initialization.obj
 0001:0006cae0       ??$?B$$A6AXXZ@__crt_fast_encoded_nullptr_t@@QEBAP6AXXZXZ 000000018006dae0 f i libucrtd:onexit.obj
 0001:0006cb00       ??$?BP6AXXZ@__crt_fast_encoded_nullptr_t@@QEBAPEAP6AXXZXZ 000000018006db00 f i libucrtd:onexit.obj
 0001:0006cb20       ??$?RP6AXXZ@__crt_internal_free_policy@@QEBAXQEBQ6AXXZ@Z 000000018006db20 f i libucrtd:onexit.obj
 0001:0006ccb0       ??$__crt_fast_decode_pointer@P6AXXZ@@YAP6AXXZQ6AXXZ@Z 000000018006dcb0 f i libucrtd:onexit.obj
 0001:0006ccf0       ??$__crt_fast_decode_pointer@PEAP6AXXZ@@YAPEAP6AXXZQEAP6AXXZ@Z 000000018006dcf0 f i libucrtd:onexit.obj
 0001:0006cd30       ??$__crt_fast_encode_pointer@P6AHXZ@@YAP6AHXZQ6AHXZ@Z 000000018006dd30 f i libucrtd:onexit.obj
 0001:0006cd70       ??$__crt_fast_encode_pointer@P6AXXZ@@YAP6AXXZQ6AXXZ@Z 000000018006dd70 f i libucrtd:onexit.obj
 0001:0006cdb0       ??$__crt_fast_encode_pointer@PEAP6AXXZ@@YAPEAP6AXXZQEAP6AXXZ@Z 000000018006ddb0 f i libucrtd:onexit.obj
 0001:0006cec0       ??0?$__crt_unique_heap_ptr@P6AXXZU__crt_internal_free_policy@@@@QEAA@QEAP6AXXZ@Z 000000018006dec0 f i libucrtd:onexit.obj
 0001:0006cee0       ??1?$__crt_unique_heap_ptr@P6AXXZU__crt_internal_free_policy@@@@QEAA@XZ 000000018006dee0 f i libucrtd:onexit.obj
 0001:0006cf00       ??1scoped_global_state_reset@__crt_state_management@@QEAA@XZ 000000018006df00 f i libucrtd:onexit.obj
 0001:0006d500       ?detach@?$__crt_unique_heap_ptr@P6AXXZU__crt_internal_free_policy@@@@QEAAPEAP6AXXZXZ 000000018006e500 f i libucrtd:onexit.obj
 0001:0006d530       ?release@?$__crt_unique_heap_ptr@P6AXXZU__crt_internal_free_policy@@@@QEAAXXZ 000000018006e530 f i libucrtd:onexit.obj
 0001:0006d560       _crt_at_quick_exit         000000018006e560 f   libucrtd:onexit.obj
 0001:0006d580       _crt_atexit                000000018006e580 f   libucrtd:onexit.obj
 0001:0006d5a0       _execute_onexit_table      000000018006e5a0 f   libucrtd:onexit.obj
 0001:0006d5e0       _initialize_onexit_table   000000018006e5e0 f   libucrtd:onexit.obj
 0001:0006d660       _register_onexit_function  000000018006e660 f   libucrtd:onexit.obj
 0001:0006d8e0       ??$?BX@__crt_fast_encoded_nullptr_t@@QEBAPEAXXZ 000000018006e8e0 f i libucrtd:initialization.obj
 0001:0006d900       ??$__crt_fast_encode_pointer@PEAX@@YAPEAXQEAX@Z 000000018006e900 f i libucrtd:initialization.obj
 0001:0006da00       ?initialize@?$dual_state_global@PEAU__crt_locale_data@@@__crt_state_management@@QEAAXQEAU__crt_locale_data@@@Z 000000018006ea00 f i libucrtd:initialization.obj
 0001:0006da50       __acrt_initialize          000000018006ea50 f   libucrtd:initialization.obj
 0001:0006da80       __acrt_thread_attach       000000018006ea80 f   libucrtd:initialization.obj
 0001:0006daa0       __acrt_thread_detach       000000018006eaa0 f   libucrtd:initialization.obj
 0001:0006dab0       __acrt_uninitialize        000000018006eab0 f   libucrtd:initialization.obj
 0001:0006dae0       __acrt_uninitialize_critical 000000018006eae0 f   libucrtd:initialization.obj
 0001:0006db00       _initterm                  000000018006eb00 f   libucrtd:initterm.obj
 0001:0006db70       _initterm_e                000000018006eb70 f   libucrtd:initterm.obj
 0001:0006dbf0       ??0_LocaleUpdate@@QEAA@QEAU__crt_locale_pointers@@@Z 000000018006ebf0 f i libucrtd:debug_heap.obj
 0001:0006dd10       ??1_LocaleUpdate@@QEAA@XZ  000000018006ed10 f i libucrtd:debug_heap.obj
 0001:0006dd40       ?GetLocaleT@_LocaleUpdate@@QEAAPEAU__crt_locale_pointers@@XZ 000000018006ed40 f i libucrtd:debug_heap.obj
 0001:000700f0       _CrtCheckMemory            00000001800710f0 f   libucrtd:debug_heap.obj
 0001:00070280       _CrtDoForAllClientObjects  0000000180071280 f   libucrtd:debug_heap.obj
 0001:000703d0       _CrtDumpMemoryLeaks        00000001800713d0 f   libucrtd:debug_heap.obj
 0001:00070490       _CrtGetAllocHook           0000000180071490 f   libucrtd:debug_heap.obj
 0001:000704a0       _CrtGetDumpClient          00000001800714a0 f   libucrtd:debug_heap.obj
 0001:000704b0       _CrtIsMemoryBlock          00000001800714b0 f   libucrtd:debug_heap.obj
 0001:000705f0       _CrtIsValidHeapPointer     00000001800715f0 f   libucrtd:debug_heap.obj
 0001:00070640       _CrtIsValidPointer         0000000180071640 f   libucrtd:debug_heap.obj
 0001:00070680       _CrtMemCheckpoint          0000000180071680 f   libucrtd:debug_heap.obj
 0001:00070900       _CrtMemDifference          0000000180071900 f   libucrtd:debug_heap.obj
 0001:00070c60       _CrtMemDumpAllObjectsSince 0000000180071c60 f   libucrtd:debug_heap.obj
 0001:00070cc0       _CrtMemDumpStatistics      0000000180071cc0 f   libucrtd:debug_heap.obj
 0001:00070e60       _CrtReportBlockType        0000000180071e60 f   libucrtd:debug_heap.obj
 0001:00070e90       _CrtSetAllocHook           0000000180071e90 f   libucrtd:debug_heap.obj
 0001:00070ec0       _CrtSetBreakAlloc          0000000180071ec0 f   libucrtd:debug_heap.obj
 0001:00070ef0       _CrtSetDbgBlockType        0000000180071ef0 f   libucrtd:debug_heap.obj
 0001:00070f90       _CrtSetDbgFlag             0000000180071f90 f   libucrtd:debug_heap.obj
 0001:000710f0       _CrtSetDumpClient          00000001800720f0 f   libucrtd:debug_heap.obj
 0001:00071120       __acrt_get_locale_data_prefix 0000000180072120 f i libucrtd:debug_heap.obj
 0001:00071140       __p__crtBreakAlloc         0000000180072140 f   libucrtd:debug_heap.obj
 0001:00071150       __p__crtDbgFlag            0000000180072150 f   libucrtd:debug_heap.obj
 0001:00071160       _aligned_free_dbg          0000000180072160 f   libucrtd:debug_heap.obj
 0001:00071250       _aligned_malloc_dbg        0000000180072250 f   libucrtd:debug_heap.obj
 0001:00071290       _aligned_msize_dbg         0000000180072290 f   libucrtd:debug_heap.obj
 0001:00071460       _aligned_offset_malloc_dbg 0000000180072460 f   libucrtd:debug_heap.obj
 0001:00071750       _aligned_offset_realloc_dbg 0000000180072750 f   libucrtd:debug_heap.obj
 0001:00071c00       _aligned_offset_recalloc_dbg 0000000180072c00 f   libucrtd:debug_heap.obj
 0001:00071d20       _aligned_realloc_dbg       0000000180072d20 f   libucrtd:debug_heap.obj
 0001:00071d70       _aligned_recalloc_dbg      0000000180072d70 f   libucrtd:debug_heap.obj
 0001:00071dd0       _calloc_dbg                0000000180072dd0 f   libucrtd:debug_heap.obj
 0001:00071e70       _chvalidchk_l              0000000180072e70 f i libucrtd:debug_heap.obj
 0001:00071ea0       _expand_dbg                0000000180072ea0 f   libucrtd:debug_heap.obj
 0001:00071fd0       _free_dbg                  0000000180072fd0 f   libucrtd:debug_heap.obj
 0001:00072040       _ischartype_l              0000000180073040 f i libucrtd:debug_heap.obj
 0001:000720d0       _malloc_dbg                00000001800730d0 f   libucrtd:debug_heap.obj
 0001:00072110       _msize_dbg                 0000000180073110 f   libucrtd:debug_heap.obj
 0001:000722b0       _realloc_dbg               00000001800732b0 f   libucrtd:debug_heap.obj
 0001:00072320       _recalloc_dbg              0000000180073320 f   libucrtd:debug_heap.obj
 0001:00072420       __acrt_initialize_locks    0000000180073420 f   libucrtd:locks.obj
 0001:00072490       __acrt_lock                0000000180073490 f   libucrtd:locks.obj
 0001:000724c0       __acrt_uninitialize_locks  00000001800734c0 f   libucrtd:locks.obj
 0001:00072520       __acrt_unlock              0000000180073520 f   libucrtd:locks.obj
 0001:00072550       _lock_locales              0000000180073550 f   libucrtd:locks.obj
 0001:00072570       _unlock_locales            0000000180073570 f   libucrtd:locks.obj
 0001:00072590       _set_abort_behavior        0000000180073590 f   libucrtd:abort.obj
 0001:000725d0       abort                      00000001800735d0 f   libucrtd:abort.obj
 0001:00072650       free                       0000000180073650 f   libucrtd:free.obj
 0001:00072b60       strcpy_s                   0000000180073b60 f   libucrtd:strcpy_s.obj
 0001:00072ba0       strlen                     0000000180073ba0 f   libucrtd:strlen.obj
 0001:00072c60       strcmp                     0000000180073c60 f   libucrtd:strcmp.obj
 0001:00072cd0       ??$is_overflow_condition@_K@__crt_strtox@@YA_NI_K@Z 0000000180073cd0 f i libucrtd:atox.obj
 0001:00072d40       ??$make_c_string_character_source@D$$T@__crt_strtox@@YA?AV?$c_string_character_source@D@0@QEBD$$T@Z 0000000180073d40 f i libucrtd:atox.obj
 0001:00072d80       ??$make_c_string_character_source@_W$$T@__crt_strtox@@YA?AV?$c_string_character_source@_W@0@QEB_W$$T@Z 0000000180073d80 f i libucrtd:atox.obj
 0001:00072dc0       ??$parse_integer@KV?$c_string_character_source@D@__crt_strtox@@$00@__crt_strtox@@YAKAEAV__crt_cached_ptd_host@@V?$c_string_character_source@D@0@H_N@Z 0000000180073dc0 f i libucrtd:atox.obj
 0001:00073280       ??$parse_integer@KV?$c_string_character_source@_W@__crt_strtox@@$00@__crt_strtox@@YAKAEAV__crt_cached_ptd_host@@V?$c_string_character_source@_W@0@H_N@Z 0000000180074280 f i libucrtd:atox.obj
 0001:00073750       ??$parse_integer@_KV?$c_string_character_source@D@__crt_strtox@@$00@__crt_strtox@@YA_KAEAV__crt_cached_ptd_host@@V?$c_string_character_source@D@0@H_N@Z 0000000180074750 f i libucrtd:atox.obj
 0001:00073c60       ??$parse_integer@_KV?$c_string_character_source@_W@__crt_strtox@@$00@__crt_strtox@@YA_KAEAV__crt_cached_ptd_host@@V?$c_string_character_source@_W@0@H_N@Z 0000000180074c60 f i libucrtd:atox.obj
 0001:00074180       ??$parse_integer_from_string@JD$$T@__crt_strtox@@YAJQEBD$$THQEAU__crt_locale_pointers@@@Z 0000000180075180 f i libucrtd:atox.obj
 0001:00074210       ??$parse_integer_from_string@J_W$$T@__crt_strtox@@YAJQEB_W$$THQEAU__crt_locale_pointers@@@Z 0000000180075210 f i libucrtd:atox.obj
 0001:000742a0       ??$parse_integer_from_string@_JD$$T@__crt_strtox@@YA_JQEBD$$THQEAU__crt_locale_pointers@@@Z 00000001800752a0 f i libucrtd:atox.obj
 0001:00074330       ??$parse_integer_from_string@_J_W$$T@__crt_strtox@@YA_JQEB_W$$THQEAU__crt_locale_pointers@@@Z 0000000180075330 f i libucrtd:atox.obj
 0001:000743c0       ?is_space@__crt_strtox@@YA_NDQEAU__crt_locale_pointers@@@Z 00000001800753c0 f i libucrtd:atox.obj
 0001:00074410       ?is_space@__crt_strtox@@YA_N_WPEAU__crt_locale_pointers@@@Z 0000000180075410 f i libucrtd:atox.obj
 0001:00074450       ?maximum_signed_value@__crt_strtox@@YA_J_K@Z 0000000180075450 f i libucrtd:atox.obj
 0001:00074460       ?minimum_signed_value@__crt_strtox@@YA_J_K@Z 0000000180075460 f i libucrtd:atox.obj
 0001:00074470       _atoi64                    0000000180075470 f   libucrtd:atox.obj
 0001:000744a0       _atoi64_l                  00000001800754a0 f   libucrtd:atox.obj
 0001:000744d0       _atoi_l                    00000001800754d0 f   libucrtd:atox.obj
 0001:00074500       _atol_l                    0000000180075500 f   libucrtd:atox.obj
 0001:00074530       _atoll_l                   0000000180075530 f   libucrtd:atox.obj
 0001:00074560       _wtoi                      0000000180075560 f   libucrtd:atox.obj
 0001:00074590       _wtoi64                    0000000180075590 f   libucrtd:atox.obj
 0001:000745c0       _wtoi64_l                  00000001800755c0 f   libucrtd:atox.obj
 0001:000745f0       _wtoi_l                    00000001800755f0 f   libucrtd:atox.obj
 0001:00074620       _wtol                      0000000180075620 f   libucrtd:atox.obj
 0001:00074650       _wtol_l                    0000000180075650 f   libucrtd:atox.obj
 0001:00074680       _wtoll                     0000000180075680 f   libucrtd:atox.obj
 0001:000746b0       _wtoll_l                   00000001800756b0 f   libucrtd:atox.obj
 0001:000746e0       atoi                       00000001800756e0 f   libucrtd:atox.obj
 0001:00074710       atol                       0000000180075710 f   libucrtd:atox.obj
 0001:00074740       atoll                      0000000180075740 f   libucrtd:atox.obj
 0001:00074780       strncmp                    0000000180075780 f   libucrtd:strncmp.obj
 0001:00074800       wcsncmp                    0000000180075800 f   libucrtd:wcsncmp.obj
 0001:00074890       _CrtGetDebugFillThreshold  0000000180075890 f   libucrtd:debug_fill_threshold.obj
 0001:000748a0       _CrtSetDebugFillThreshold  00000001800758a0 f   libucrtd:debug_fill_threshold.obj
 0001:000748d0       ?get_doserrno@__crt_cached_ptd_host@@QEAA@XZ 00000001800758d0 f i libucrtd:errno.obj
 0001:000748e0       ?set@?$cached@K@__crt_cached_ptd_host@@QEAAKK@Z 00000001800758e0 f i libucrtd:errno.obj
 0001:00074910       __acrt_errno_from_os_error 0000000180075910 f   libucrtd:errno.obj
 0001:000749a0       __acrt_errno_map_os_error  00000001800759a0 f   libucrtd:errno.obj
 0001:000749d0       __acrt_errno_map_os_error_ptd 00000001800759d0 f   libucrtd:errno.obj
 0001:00074a30       __doserrno                 0000000180075a30 f   libucrtd:errno.obj
 0001:00074a60       _errno                     0000000180075a60 f   libucrtd:errno.obj
 0001:00074a90       _get_doserrno              0000000180075a90 f   libucrtd:errno.obj
 0001:00074b50       _get_errno                 0000000180075b50 f   libucrtd:errno.obj
 0001:00074c10       _set_doserrno              0000000180075c10 f   libucrtd:errno.obj
 0001:00074c50       _set_errno                 0000000180075c50 f   libucrtd:errno.obj
 0001:00075f90       ??1?$__crt_simd_cleanup_guard@$00@@QEAA@XZ 0000000180076f90 f i libucrtd:strnlen.obj
 0001:00075fa0       ??1?$__crt_simd_cleanup_guard@$0A@@@QEAA@XZ 0000000180076fa0 f i libucrtd:strnlen.obj
 0001:00075fb0       ?compare_equals@?$__crt_simd_traits@$00E@@SA?AT__m256i@@T2@0@Z 0000000180076fb0 f i libucrtd:strnlen.obj
 0001:00075ff0       ?compare_equals@?$__crt_simd_traits@$00G@@SA?AT__m256i@@T2@0@Z 0000000180076ff0 f i libucrtd:strnlen.obj
 0001:00076030       ?compare_equals@?$__crt_simd_traits@$0A@E@@SA?AT__m128i@@T2@0@Z 0000000180077030 f i libucrtd:strnlen.obj
 0001:00076060       ?compare_equals@?$__crt_simd_traits@$0A@G@@SA?AT__m128i@@T2@0@Z 0000000180077060 f i libucrtd:strnlen.obj
 0001:00076090       ?compute_byte_mask@?$__crt_simd_pack_traits@$00@@SAHT__m256i@@@Z 0000000180077090 f i libucrtd:strnlen.obj
 0001:000760b0       ?compute_byte_mask@?$__crt_simd_pack_traits@$0A@@@SAHT__m128i@@@Z 00000001800770b0 f i libucrtd:strnlen.obj
 0001:000760d0       ?get_zero_pack@?$__crt_simd_pack_traits@$00@@SA?AT__m256i@@XZ 00000001800770d0 f i libucrtd:strnlen.obj
 0001:00076100       ?get_zero_pack@?$__crt_simd_pack_traits@$0A@@@SA?AT__m128i@@XZ 0000000180077100 f i libucrtd:strnlen.obj
 0001:00076120       strnlen                    0000000180077120 f   libucrtd:strnlen.obj
 0001:00076150       wcslen                     0000000180077150 f   libucrtd:strnlen.obj
 0001:00076170       wcsnlen                    0000000180077170 f   libucrtd:strnlen.obj
 0001:000761a0       ?value@?$dual_state_global@PEAU__crt_locale_data@@@__crt_state_management@@QEAAAEAPEAU__crt_locale_data@@XZ 00000001800771a0 f i libucrtd:locale_update.obj
 0001:000761c0       ?value@?$dual_state_global@PEAU__crt_multibyte_data@@@__crt_state_management@@QEAAAEAPEAU__crt_multibyte_data@@XZ 00000001800771c0 f i libucrtd:locale_update.obj
 0001:000761e0       ?value_explicit@?$dual_state_global@PEAU__crt_locale_data@@@__crt_state_management@@QEAAAEAPEAU__crt_locale_data@@_K@Z 00000001800771e0 f i libucrtd:locale_update.obj
 0001:00076200       ?value_explicit@?$dual_state_global@PEAU__crt_multibyte_data@@@__crt_state_management@@QEAAAEAPEAU__crt_multibyte_data@@_K@Z 0000000180077200 f i libucrtd:locale_update.obj
 0001:00076220       __acrt_should_sync_with_global_locale 0000000180077220 f i libucrtd:locale_update.obj
 0001:00076260       __acrt_update_locale_info  0000000180077260 f   libucrtd:locale_update.obj
 0001:000762b0       __acrt_update_locale_info_explicit 00000001800772b0 f   libucrtd:locale_update.obj
 0001:00076310       __acrt_update_multibyte_info 0000000180077310 f   libucrtd:locale_update.obj
 0001:00076360       __acrt_update_multibyte_info_explicit 0000000180077360 f   libucrtd:locale_update.obj
 0001:000763c0       ?__acrt_fp_classify@@YA?AW4__acrt_fp_class@@AEBN@Z 00000001800773c0 f i libucrtd:cvt.obj
 0001:000764c0       ?__acrt_fp_is_negative@@YA_NAEBN@Z 00000001800774c0 f i libucrtd:cvt.obj
 0001:00077de0       ?strrchr@@YAPEADQEADH@Z    0000000180078de0 f i libucrtd:cvt.obj
 0001:00077e00       __acrt_fp_format           0000000180078e00 f   libucrtd:cvt.obj
 0001:000784d0       ?value_or@?$cached@H@__crt_cached_ptd_host@@QEBAHH@Z 00000001800794d0 f i libucrtd:wctomb.obj
 0001:00078500       _wctomb_internal           0000000180079500 f   libucrtd:wctomb.obj
 0001:00078a60       _wctomb_l                  0000000180079a60 f   libucrtd:wctomb.obj
 0001:00078b10       _wctomb_s_l                0000000180079b10 f   libucrtd:wctomb.obj
 0001:00078b90       wctomb                     0000000180079b90 f   libucrtd:wctomb.obj
 0001:00078c30       wctomb_s                   0000000180079c30 f   libucrtd:wctomb.obj
 0001:00078cb0       _isleadbyte_fast_internal  0000000180079cb0 f i libucrtd:mbtowc.obj
 0001:00078ce0       _mbtowc_internal           0000000180079ce0 f   libucrtd:mbtowc.obj
 0001:00079070       _mbtowc_l                  000000018007a070 f   libucrtd:mbtowc.obj
 0001:000790e0       mbtowc                     000000018007a0e0 f   libucrtd:mbtowc.obj
 0001:00079140       ?lowio_handle@__crt_stdio_stream@@QEBAHXZ 000000018007a140 f i libucrtd:fileno.obj
 0001:00079170       _fileno                    000000018007a170 f   libucrtd:fileno.obj
 0001:00079250       ??$?RPEAU__crt_stdio_stream_data@@@__crt_internal_free_policy@@QEBAXQEBQEAU__crt_stdio_stream_data@@@Z 000000018007a250 f i libucrtd:_file.obj
 0001:00079280       ??0?$__crt_unique_heap_ptr@PEAU__crt_stdio_stream_data@@U__crt_internal_free_policy@@@@QEAA@QEAPEAU__crt_stdio_stream_data@@@Z 000000018007a280 f i libucrtd:_file.obj
 0001:000792a0       ??1?$__crt_unique_heap_ptr@PEAU__crt_stdio_stream_data@@U__crt_internal_free_policy@@@@QEAA@XZ 000000018007a2a0 f i libucrtd:_file.obj
 0001:000792c0       ?detach@?$__crt_unique_heap_ptr@PEAU__crt_stdio_stream_data@@U__crt_internal_free_policy@@@@QEAAPEAPEAU__crt_stdio_stream_data@@XZ 000000018007a2c0 f i libucrtd:_file.obj
 0001:000792f0       ?release@?$__crt_unique_heap_ptr@PEAU__crt_stdio_stream_data@@U__crt_internal_free_policy@@@@QEAAXXZ 000000018007a2f0 f i libucrtd:_file.obj
 0001:00079320       __acrt_initialize_stdio    000000018007a320 f   libucrtd:_file.obj
 0001:00079510       __acrt_iob_func            000000018007a510 f   libucrtd:_file.obj
 0001:00079530       __acrt_uninitialize_stdio  000000018007a530 f   libucrtd:_file.obj
 0001:000795c0       _get_stream_buffer_pointers 000000018007a5c0 f   libucrtd:_file.obj
 0001:000796f0       _lock_file                 000000018007a6f0 f   libucrtd:_file.obj
 0001:00079730       _unlock_file               000000018007a730 f   libucrtd:_file.obj
 0001:00079770       _get_printf_count_output   000000018007a770 f   libucrtd:printf_count_output.obj
 0001:000797a0       _set_printf_count_output   000000018007a7a0 f   libucrtd:printf_count_output.obj
 0001:000799e0       _fputwc_nolock             000000018007a9e0 f   libucrtd:fputwc.obj
 0001:00079a30       _fputwc_nolock_internal    000000018007aa30 f   libucrtd:fputwc.obj
 0001:00079cf0       _fputwchar                 000000018007acf0 f   libucrtd:fputwc.obj
 0001:00079d20       _putwc_nolock              000000018007ad20 f   libucrtd:fputwc.obj
 0001:00079d50       fputwc                     000000018007ad50 f   libucrtd:fputwc.obj
 0001:00079da0       putwc                      000000018007ada0 f   libucrtd:fputwc.obj
 0001:00079dd0       putwchar                   000000018007add0 f   libucrtd:fputwc.obj
 0001:0007a0f0       _fputc_nolock              000000018007b0f0 f   libucrtd:fputc.obj
 0001:0007a140       _fputc_nolock_internal     000000018007b140 f   libucrtd:fputc.obj
 0001:0007a200       _fputchar                  000000018007b200 f   libucrtd:fputc.obj
 0001:0007a230       _putc_nolock               000000018007b230 f   libucrtd:fputc.obj
 0001:0007a250       fputc                      000000018007b250 f   libucrtd:fputc.obj
 0001:0007a2a0       putc                       000000018007b2a0 f   libucrtd:fputc.obj
 0001:0007a2c0       putchar                    000000018007b2c0 f   libucrtd:fputc.obj
 0001:0007a2e0       ?has_temporary_buffer@__crt_stdio_stream@@QEBA_NXZ 000000018007b2e0 f i libucrtd:_sftbuf.obj
 0001:0007a300       ?set_flags@__crt_stdio_stream@@QEBA_NJ@Z 000000018007b300 f i libucrtd:_sftbuf.obj
 0001:0007a370       ?unset_flags@__crt_stdio_stream@@QEBA_NJ@Z 000000018007b370 f i libucrtd:_sftbuf.obj
 0001:0007a3d0       __acrt_should_use_temporary_buffer 000000018007b3d0 f   libucrtd:_sftbuf.obj
 0001:0007a420       __acrt_stdio_begin_temporary_buffering_nolock 000000018007b420 f   libucrtd:_sftbuf.obj
 0001:0007a680       __acrt_stdio_end_temporary_buffering_nolock 000000018007b680 f   libucrtd:_sftbuf.obj
 0001:0007a720       ??$?RU__acrt_ptd@@@__crt_internal_free_policy@@QEBAXQEBU__acrt_ptd@@@Z 000000018007b720 f i libucrtd:per_thread_data.obj
 0001:0007ab60       ??0?$__crt_unique_heap_ptr@U__acrt_ptd@@U__crt_internal_free_policy@@@@QEAA@QEAU__acrt_ptd@@@Z 000000018007bb60 f i libucrtd:per_thread_data.obj
 0001:0007ab80       ??1?$__crt_unique_heap_ptr@U__acrt_ptd@@U__crt_internal_free_policy@@@@QEAA@XZ 000000018007bb80 f i libucrtd:per_thread_data.obj
 0001:0007aba0       ??B?$__crt_unique_heap_ptr@U__acrt_ptd@@U__crt_internal_free_policy@@@@QEBA_NXZ 000000018007bba0 f i libucrtd:per_thread_data.obj
 0001:0007aef0       ?dangerous_get_state_array@?$dual_state_global@PEAU__crt_locale_data@@@__crt_state_management@@QEAAPEAPEAU__crt_locale_data@@XZ 000000018007bef0 f i libucrtd:per_thread_data.obj
 0001:0007b0c0       ?detach@?$__crt_unique_heap_ptr@U__acrt_ptd@@U__crt_internal_free_policy@@@@QEAAPEAU__acrt_ptd@@XZ 000000018007c0c0 f i libucrtd:per_thread_data.obj
 0001:0007b0f0       ?get@?$__crt_unique_heap_ptr@U__acrt_ptd@@U__crt_internal_free_policy@@@@QEBAPEAU__acrt_ptd@@XZ 000000018007c0f0 f i libucrtd:per_thread_data.obj
 0001:0007b2d0       ?is_valid@?$__crt_unique_heap_ptr@U__acrt_ptd@@U__crt_internal_free_policy@@@@QEBA_NXZ 000000018007c2d0 f i libucrtd:per_thread_data.obj
 0001:0007b300       ?release@?$__crt_unique_heap_ptr@U__acrt_ptd@@U__crt_internal_free_policy@@@@QEAAXXZ 000000018007c300 f i libucrtd:per_thread_data.obj
 0001:0007b430       __acrt_freeptd             000000018007c430 f   libucrtd:per_thread_data.obj
 0001:0007b470       __acrt_getptd              000000018007c470 f   libucrtd:per_thread_data.obj
 0001:0007b4a0       __acrt_getptd_head         000000018007c4a0 f   libucrtd:per_thread_data.obj
 0001:0007b4d0       __acrt_getptd_noexit       000000018007c4d0 f   libucrtd:per_thread_data.obj
 0001:0007b4e0       __acrt_getptd_noexit_explicit 000000018007c4e0 f   libucrtd:per_thread_data.obj
 0001:0007b510       __acrt_initialize_ptd      000000018007c510 f   libucrtd:per_thread_data.obj
 0001:0007b550       __acrt_uninitialize_ptd    000000018007c550 f   libucrtd:per_thread_data.obj
 0001:0007b580       __threadhandle             000000018007c580 f   libucrtd:per_thread_data.obj
 0001:0007b590       __threadid                 000000018007c590 f   libucrtd:per_thread_data.obj
 0001:0007b5b0       ??$?RU__crt_locale_data@@@__crt_internal_free_policy@@QEBAXQEBU__crt_locale_data@@@Z 000000018007c5b0 f i libucrtd:wsetlocale.obj
 0001:0007b5e0       ??$?RU__crt_locale_pointers@@@__crt_internal_free_policy@@QEBAXQEBU__crt_locale_pointers@@@Z 000000018007c5e0 f i libucrtd:wsetlocale.obj
 0001:0007b610       ??$?RU__crt_multibyte_data@@@__crt_internal_free_policy@@QEBAXQEBU__crt_multibyte_data@@@Z 000000018007c610 f i libucrtd:wsetlocale.obj
 0001:0007bbc0       ??0?$__crt_unique_heap_ptr@U__crt_locale_data@@U__crt_internal_free_policy@@@@QEAA@QEAU__crt_locale_data@@@Z 000000018007cbc0 f i libucrtd:wsetlocale.obj
 0001:0007bbe0       ??0?$__crt_unique_heap_ptr@U__crt_locale_pointers@@U__crt_internal_free_policy@@@@QEAA@QEAU__crt_locale_pointers@@@Z 000000018007cbe0 f i libucrtd:wsetlocale.obj
 0001:0007bc00       ??0?$__crt_unique_heap_ptr@U__crt_multibyte_data@@U__crt_internal_free_policy@@@@QEAA@QEAU__crt_multibyte_data@@@Z 000000018007cc00 f i libucrtd:wsetlocale.obj
 0001:0007bc20       ??0_expandlocale_locale_name_cache@@QEAA@QEA_W_KQEAU__crt_qualified_locale_data@@@Z 000000018007cc20 f i libucrtd:wsetlocale.obj
 0001:0007bcd0       ??1?$__crt_unique_heap_ptr@U__crt_locale_data@@U__crt_internal_free_policy@@@@QEAA@XZ 000000018007ccd0 f i libucrtd:wsetlocale.obj
 0001:0007bcf0       ??1?$__crt_unique_heap_ptr@U__crt_locale_pointers@@U__crt_internal_free_policy@@@@QEAA@XZ 000000018007ccf0 f i libucrtd:wsetlocale.obj
 0001:0007bd10       ??1?$__crt_unique_heap_ptr@U__crt_multibyte_data@@U__crt_internal_free_policy@@@@QEAA@XZ 000000018007cd10 f i libucrtd:wsetlocale.obj
 0001:0007bd30       ??1_expandlocale_locale_name_cache@@QEAA@XZ 000000018007cd30 f i libucrtd:wsetlocale.obj
 0001:0007bdb0       ??B?$__crt_unique_heap_ptr@U__crt_locale_data@@U__crt_internal_free_policy@@@@QEBA_NXZ 000000018007cdb0 f i libucrtd:wsetlocale.obj
 0001:0007bdd0       ??B?$__crt_unique_heap_ptr@U__crt_locale_pointers@@U__crt_internal_free_policy@@@@QEBA_NXZ 000000018007cdd0 f i libucrtd:wsetlocale.obj
 0001:0007bdf0       ??B?$__crt_unique_heap_ptr@U__crt_multibyte_data@@U__crt_internal_free_policy@@@@QEBA_NXZ 000000018007cdf0 f i libucrtd:wsetlocale.obj
 0001:0007c2a0       ?commit_locale_name@_expandlocale_locale_name_cache@@QEAAXQEB_W_K@Z 000000018007d2a0 f i libucrtd:wsetlocale.obj
 0001:0007c320       ?commit_locale_name_cache_already_updated@_expandlocale_locale_name_cache@@QEAAXQEB_W_K@Z 000000018007d320 f i libucrtd:wsetlocale.obj
 0001:0007c390       ?detach@?$__crt_unique_heap_ptr@U__crt_locale_data@@U__crt_internal_free_policy@@@@QEAAPEAU__crt_locale_data@@XZ 000000018007d390 f i libucrtd:wsetlocale.obj
 0001:0007c3c0       ?detach@?$__crt_unique_heap_ptr@U__crt_locale_pointers@@U__crt_internal_free_policy@@@@QEAAPEAU__crt_locale_pointers@@XZ 000000018007d3c0 f i libucrtd:wsetlocale.obj
 0001:0007c3f0       ?detach@?$__crt_unique_heap_ptr@U__crt_multibyte_data@@U__crt_internal_free_policy@@@@QEAAPEAU__crt_multibyte_data@@XZ 000000018007d3f0 f i libucrtd:wsetlocale.obj
 0001:0007c420       ?get@?$__crt_unique_heap_ptr@U__crt_locale_data@@U__crt_internal_free_policy@@@@QEBAPEAU__crt_locale_data@@XZ 000000018007d420 f i libucrtd:wsetlocale.obj
 0001:0007c430       ?get@?$__crt_unique_heap_ptr@U__crt_locale_pointers@@U__crt_internal_free_policy@@@@QEBAPEAU__crt_locale_pointers@@XZ 000000018007d430 f i libucrtd:wsetlocale.obj
 0001:0007c440       ?get@?$__crt_unique_heap_ptr@U__crt_multibyte_data@@U__crt_internal_free_policy@@@@QEBAPEAU__crt_multibyte_data@@XZ 000000018007d440 f i libucrtd:wsetlocale.obj
 0001:0007c450       ?is_valid@?$__crt_unique_heap_ptr@U__crt_locale_data@@U__crt_internal_free_policy@@@@QEBA_NXZ 000000018007d450 f i libucrtd:wsetlocale.obj
 0001:0007c480       ?is_valid@?$__crt_unique_heap_ptr@U__crt_locale_pointers@@U__crt_internal_free_policy@@@@QEBA_NXZ 000000018007d480 f i libucrtd:wsetlocale.obj
 0001:0007c4b0       ?is_valid@?$__crt_unique_heap_ptr@U__crt_multibyte_data@@U__crt_internal_free_policy@@@@QEBA_NXZ 000000018007d4b0 f i libucrtd:wsetlocale.obj
 0001:0007c4e0       ?release@?$__crt_unique_heap_ptr@U__crt_locale_data@@U__crt_internal_free_policy@@@@QEAAXXZ 000000018007d4e0 f i libucrtd:wsetlocale.obj
 0001:0007c510       ?release@?$__crt_unique_heap_ptr@U__crt_locale_pointers@@U__crt_internal_free_policy@@@@QEAAXXZ 000000018007d510 f i libucrtd:wsetlocale.obj
 0001:0007c540       ?release@?$__crt_unique_heap_ptr@U__crt_multibyte_data@@U__crt_internal_free_policy@@@@QEAAXXZ 000000018007d540 f i libucrtd:wsetlocale.obj
 0001:0007c570       __acrt_copy_locale_name    000000018007d570 f   libucrtd:wsetlocale.obj
 0001:0007c640       __acrt_set_locale_changed  000000018007d640 f   libucrtd:wsetlocale.obj
 0001:0007c650       __acrt_uninitialize_locale 000000018007d650 f   libucrtd:wsetlocale.obj
 0001:0007c680       __ascii_tolower            000000018007d680 f i libucrtd:wsetlocale.obj
 0001:0007c6a0       __ascii_towlower           000000018007d6a0 f i libucrtd:wsetlocale.obj
 0001:0007c6c0       __lc_lctowcs               000000018007d6c0 f   libucrtd:wsetlocale.obj
 0001:0007c7b0       __lc_wcstolc               000000018007d7b0 f   libucrtd:wsetlocale.obj
 0001:0007ca70       _configthreadlocale        000000018007da70 f   libucrtd:wsetlocale.obj
 0001:0007cc30       _create_locale             000000018007dc30 f   libucrtd:wsetlocale.obj
 0001:0007d330       _free_locale               000000018007e330 f   libucrtd:wsetlocale.obj
 0001:0007d420       _get_current_locale        000000018007e420 f   libucrtd:wsetlocale.obj
 0001:0007d540       _wcreate_locale            000000018007e540 f   libucrtd:wsetlocale.obj
 0001:0007d840       _wcscats                   000000018007e840 f   libucrtd:wsetlocale.obj
 0001:0007d920       _wsetlocale                000000018007e920 f   libucrtd:wsetlocale.obj
 0001:0007f540       __p___mb_cur_max           0000000180080540 f   libucrtd:nlsdata.obj
 0001:0007f920       __acrt_initialize_lowio    0000000180080920 f   libucrtd:ioinit.obj
 0001:0007f970       __acrt_uninitialize_lowio  0000000180080970 f   libucrtd:ioinit.obj
 0001:0007f9f0       _CrtGetReportHook          00000001800809f0 f   libucrtd:dbgrptt.obj
 0001:0007fa00       _CrtSetReportFile          0000000180080a00 f   libucrtd:dbgrptt.obj
 0001:0007fb60       _CrtSetReportHook          0000000180080b60 f   libucrtd:dbgrptt.obj
 0001:0007fb90       _CrtSetReportMode          0000000180080b90 f   libucrtd:dbgrptt.obj
 0001:0007fd40       _VCrtDbgReportA            0000000180080d40 f   libucrtd:dbgrptt.obj
 0001:00080780       _VCrtDbgReportW            0000000180081780 f   libucrtd:dbgrptt.obj
 0001:00081390       _snprintf_s                0000000180082390 f i libucrtd:dbgrptt.obj
 0001:00081400       _vsnprintf_s               0000000180082400 f i libucrtd:dbgrptt.obj
 0001:00081450       _vsnprintf_s_l             0000000180082450 f i libucrtd:dbgrptt.obj
 0001:000819d0       wcscpy_s                   00000001800829d0 f   libucrtd:wcscpy_s.obj
 0001:00081a00       ??$__acrt_convert_wcs_mbs_cp@_WDV<lambda_f788ae46380686e8b737efdd8c720d07>@@U__crt_win32_buffer_no_resizing@@@@YAHQEB_WAEAV?$__crt_win32_buffer@DU__crt_win32_buffer_no_resizing@@@@AEBV<lambda_f788ae46380686e8b737efdd8c720d07>@@I@Z 0000000180082a00 f i libucrtd:getmodulefilenamea.obj
 0001:00081bb0       ??$__acrt_wcs_to_mbs_cp@U__crt_win32_buffer_no_resizing@@@@YAHQEB_WAEAV?$__crt_win32_buffer@DU__crt_win32_buffer_no_resizing@@@@I@Z 0000000180082bb0 f i libucrtd:getmodulefilenamea.obj
 0001:00081c00       ??0?$__crt_win32_buffer@DU__crt_win32_buffer_no_resizing@@@@QEAA@QEAD_K@Z 0000000180082c00 f i libucrtd:getmodulefilenamea.obj
 0001:00081c70       ??1?$__crt_win32_buffer@DU__crt_win32_buffer_no_resizing@@@@QEAA@XZ 0000000180082c70 f i libucrtd:getmodulefilenamea.obj
 0001:00081ca0       ??R<lambda_f788ae46380686e8b737efdd8c720d07>@@QEBA@IQEB_WQEAD_K@Z 0000000180082ca0 f i libucrtd:getmodulefilenamea.obj
 0001:00081d00       ?__acrt_get_utf8_acp_compatibility_codepage@@YAIXZ 0000000180082d00 f i libucrtd:getmodulefilenamea.obj
 0001:00081da0       ?_deallocate@?$__crt_win32_buffer@DU__crt_win32_buffer_no_resizing@@@@AEAAXXZ 0000000180082da0 f i libucrtd:getmodulefilenamea.obj
 0001:00081df0       ?allocate@?$__crt_win32_buffer@DU__crt_win32_buffer_no_resizing@@@@QEAAH_K@Z 0000000180082df0 f i libucrtd:getmodulefilenamea.obj
 0001:00081e70       ?allocate@__crt_win32_buffer_no_resizing@@SAHQEAPEAX_KAEBV__crt_win32_buffer_empty_debug_info@@@Z 0000000180082e70 f i libucrtd:getmodulefilenamea.obj
 0001:00081ea0       ?capacity@?$__crt_win32_buffer@DU__crt_win32_buffer_no_resizing@@@@QEBA_KXZ 0000000180082ea0 f i libucrtd:getmodulefilenamea.obj
 0001:00081eb0       ?data@?$__crt_win32_buffer@DU__crt_win32_buffer_no_resizing@@@@QEAAPEADXZ 0000000180082eb0 f i libucrtd:getmodulefilenamea.obj
 0001:00081ec0       ?deallocate@__crt_win32_buffer_no_resizing@@SAXQEAXAEBV__crt_win32_buffer_empty_debug_info@@@Z 0000000180082ec0 f i libucrtd:getmodulefilenamea.obj
 0001:00081ed0       ?debug_info@?$__crt_win32_buffer@DU__crt_win32_buffer_no_resizing@@@@QEBAAEBV__crt_win32_buffer_empty_debug_info@@XZ 0000000180082ed0 f i libucrtd:getmodulefilenamea.obj
 0001:00081ee0       ?set_to_nullptr@?$__crt_win32_buffer@DU__crt_win32_buffer_no_resizing@@@@QEAAXXZ 0000000180082ee0 f i libucrtd:getmodulefilenamea.obj
 0001:00081f20       ?size@?$__crt_win32_buffer@DU__crt_win32_buffer_no_resizing@@@@QEAAX_K@Z 0000000180082f20 f i libucrtd:getmodulefilenamea.obj
 0001:00081f40       ?size@?$__crt_win32_buffer@DU__crt_win32_buffer_no_resizing@@@@QEBA_KXZ 0000000180082f40 f i libucrtd:getmodulefilenamea.obj
 0001:00081f50       __acrt_GetModuleFileNameA  0000000180082f50 f   libucrtd:getmodulefilenamea.obj
 0001:000822b0       ??$message_box@$$TAEBQEBDAEBQEBDK@?$__crt_char_traits@D@@SAH$$QEA$$TAEBQEBD1$$QEAK@Z 00000001800832b0 f i libucrtd:crtmbox.obj
 0001:00082300       ??$message_box@$$TAEBQEB_WAEBQEB_WK@?$__crt_char_traits@_W@@SAH$$QEA$$TAEBQEB_W1$$QEAK@Z 0000000180083300 f i libucrtd:crtmbox.obj
 0001:00082350       ??$message_box@PEAUHWND__@@AEBQEBDAEBQEBDAEBI@?$__crt_char_traits@D@@SAH$$QEAPEAUHWND__@@AEBQEBD1AEBI@Z 0000000180083350 f i libucrtd:crtmbox.obj
 0001:000823a0       ??$message_box@PEAUHWND__@@AEBQEB_WAEBQEB_WAEBI@?$__crt_char_traits@_W@@SAH$$QEAPEAUHWND__@@AEBQEB_W1AEBI@Z 00000001800833a0 f i libucrtd:crtmbox.obj
 0001:000823f0       ??$output_debug_string@AEBQEBD@?$__crt_char_traits@D@@SAXAEBQEBD@Z 00000001800833f0 f i libucrtd:crtmbox.obj
 0001:00082410       ??$output_debug_string@AEBQEB_W@?$__crt_char_traits@_W@@SAXAEBQEB_W@Z 0000000180083410 f i libucrtd:crtmbox.obj
 0001:00082430       __acrt_show_narrow_message_box 0000000180083430 f   libucrtd:crtmbox.obj
 0001:00082460       __acrt_show_wide_message_box 0000000180083460 f   libucrtd:crtmbox.obj
 0001:00082490       ??$?B$$A6AXH@Z@__crt_fast_encoded_nullptr_t@@QEBAP6AXH@ZXZ 0000000180083490 f i libucrtd:signal.obj
 0001:00082560       ??$__crt_fast_decode_pointer@P6AXH@Z@@YAP6AXH@ZQ6AXH@Z@Z 0000000180083560 f i libucrtd:signal.obj
 0001:000825a0       ??$__crt_fast_encode_pointer@P6AXH@Z@@YAP6AXH@ZQ6AXH@Z@Z 00000001800835a0 f i libucrtd:signal.obj
 0001:00082830       ?initialize@?$dual_state_global@P6AXH@Z@__crt_state_management@@QEAAXQ6AXH@Z@Z 0000000180083830 f i libucrtd:signal.obj
 0001:000829b0       ?value@?$dual_state_global@P6AXH@Z@__crt_state_management@@QEAAAEAP6AXH@ZXZ 00000001800839b0 f i libucrtd:signal.obj
 0001:000829d0       __acrt_get_sigabrt_handler 00000001800839d0 f   libucrtd:signal.obj
 0001:00082a00       __acrt_initialize_signal_handlers 0000000180083a00 f   libucrtd:signal.obj
 0001:00082a60       __fpecode                  0000000180083a60 f   libucrtd:signal.obj
 0001:00082a80       __pxcptinfoptrs            0000000180083a80 f   libucrtd:signal.obj
 0001:00082aa0       raise                      0000000180083aa0 f   libucrtd:signal.obj
 0001:00082fb0       signal                     0000000180083fb0 f   libucrtd:signal.obj
 0001:00083450       __acrt_report_runtime_error 0000000180084450 f   libucrtd:report_runtime_error.obj
 0001:000836d0       _query_app_type            00000001800846d0 f   libucrtd:report_runtime_error.obj
 0001:000836e0       _set_app_type              00000001800846e0 f   libucrtd:report_runtime_error.obj
 0001:00084f30       _i64toa                    0000000180085f30 f   libucrtd:xtoa.obj
 0001:00084fa0       _i64toa_s                  0000000180085fa0 f   libucrtd:xtoa.obj
 0001:00085010       _i64tow                    0000000180086010 f   libucrtd:xtoa.obj
 0001:00085080       _i64tow_s                  0000000180086080 f   libucrtd:xtoa.obj
 0001:000850f0       _itoa                      00000001800860f0 f   libucrtd:xtoa.obj
 0001:00085160       _itoa_s                    0000000180086160 f   libucrtd:xtoa.obj
 0001:000851c0       _itow                      00000001800861c0 f   libucrtd:xtoa.obj
 0001:00085230       _itow_s                    0000000180086230 f   libucrtd:xtoa.obj
 0001:00085290       _ltoa                      0000000180086290 f   libucrtd:xtoa.obj
 0001:00085300       _ltoa_s                    0000000180086300 f   libucrtd:xtoa.obj
 0001:00085360       _ltow                      0000000180086360 f   libucrtd:xtoa.obj
 0001:000853d0       _ltow_s                    00000001800863d0 f   libucrtd:xtoa.obj
 0001:00085430       _ui64toa                   0000000180086430 f   libucrtd:xtoa.obj
 0001:00085470       _ui64toa_s                 0000000180086470 f   libucrtd:xtoa.obj
 0001:000854b0       _ui64tow                   00000001800864b0 f   libucrtd:xtoa.obj
 0001:000854f0       _ui64tow_s                 00000001800864f0 f   libucrtd:xtoa.obj
 0001:00085530       _ultoa                     0000000180086530 f   libucrtd:xtoa.obj
 0001:00085570       _ultoa_s                   0000000180086570 f   libucrtd:xtoa.obj
 0001:000855b0       _ultow                     00000001800865b0 f   libucrtd:xtoa.obj
 0001:000855f0       _ultow_s                   00000001800865f0 f   libucrtd:xtoa.obj
 0001:00085630       _set_error_mode            0000000180086630 f   libucrtd:set_error_mode.obj
 0001:00085dc0       wcscat_s                   0000000180086dc0 f   libucrtd:wcscat_s.obj
 0001:00086590       wcsncat_s                  0000000180087590 f   libucrtd:wcsncat_s.obj
 0001:00086c40       strcat_s                   0000000180087c40 f   libucrtd:strcat_s.obj
 0001:000873f0       strncat_s                  00000001800883f0 f   libucrtd:strncat_s.obj
 0001:000877b0       ??0__crt_stdio_stream@@QEAA@QEAU__crt_stdio_stream_data@@@Z 00000001800887b0 f i libucrtd:fflush.obj
 0001:00087a60       ?__acrt_stdio_reset_buffer@@YAXV__crt_stdio_stream@@@Z 0000000180088a60 f i libucrtd:fflush.obj
 0001:00087c30       ?has_all_of@__crt_stdio_stream@@QEBA_NJ@Z 0000000180088c30 f i libucrtd:fflush.obj
 0001:00087d10       __acrt_stdio_flush_nolock  0000000180088d10 f   libucrtd:fflush.obj
 0001:00087e30       _fflush_nolock             0000000180088e30 f   libucrtd:fflush.obj
 0001:00087e70       _flushall                  0000000180088e70 f   libucrtd:fflush.obj
 0001:00087e80       fflush                     0000000180088e80 f   libucrtd:fflush.obj
 0001:00088640       setvbuf                    0000000180089640 f   libucrtd:setvbuf.obj
 0001:000886b0       __acrt_app_verifier_enabled 00000001800896b0 f   libucrtd:peb_access.obj
 0001:000886f0       __acrt_is_secure_process   00000001800896f0 f   libucrtd:peb_access.obj
 0001:00088ae0       __acrt_get_begin_thread_init_policy 0000000180089ae0 f   libucrtd:win_policies.obj
 0001:00088af0       __acrt_get_developer_information_policy 0000000180089af0 f   libucrtd:win_policies.obj
 0001:00088b10       __acrt_get_process_end_policy 0000000180089b10 f   libucrtd:win_policies.obj
 0001:00088b20       __acrt_get_windowing_model_policy 0000000180089b20 f   libucrtd:win_policies.obj
 0001:00088ba0       ??$__acrt_convert_wcs_mbs_cp@D_WV<lambda_7c9dea7b4ca7285d2cdb541a38da6275>@@U__crt_win32_buffer_internal_dynamic_resizing@@@@YAHQEBDAEAV?$__crt_win32_buffer@_WU__crt_win32_buffer_internal_dynamic_resizing@@@@AEBV<lambda_7c9dea7b4ca7285d2cdb541a38da6275>@@I@Z 0000000180089ba0 f i libucrtd:argv_wildcards.obj
 0001:00088d50       ??$__acrt_convert_wcs_mbs_cp@_WDV<lambda_d8593a27d1aa8c02be35c86a17d324c4>@@U__crt_win32_buffer_internal_dynamic_resizing@@@@YAHQEB_WAEAV?$__crt_win32_buffer@DU__crt_win32_buffer_internal_dynamic_resizing@@@@AEBV<lambda_d8593a27d1aa8c02be35c86a17d324c4>@@I@Z 0000000180089d50 f i libucrtd:argv_wildcards.obj
 0001:00088f00       ??$__acrt_mbs_to_wcs_cp@U__crt_win32_buffer_internal_dynamic_resizing@@@@YAHQEBDAEAV?$__crt_win32_buffer@_WU__crt_win32_buffer_internal_dynamic_resizing@@@@I@Z 0000000180089f00 f i libucrtd:argv_wildcards.obj
 0001:00088f50       ??$__acrt_wcs_to_mbs_cp@U__crt_win32_buffer_internal_dynamic_resizing@@@@YAHQEB_WAEAV?$__crt_win32_buffer@DU__crt_win32_buffer_internal_dynamic_resizing@@@@I@Z 0000000180089f50 f i libucrtd:argv_wildcards.obj
 0001:0008a3c0       ??$tcsncpy_s@AEAPEAD_KAEAPEADAEB_K@?$__crt_char_traits@D@@SAHAEAPEAD$$QEA_K0AEB_K@Z 000000018008b3c0 f i libucrtd:argv_wildcards.obj
 0001:0008a410       ??$tcsncpy_s@AEAPEA_W_KAEAPEA_WAEB_K@?$__crt_char_traits@_W@@SAHAEAPEA_W$$QEA_K0AEB_K@Z 000000018008b410 f i libucrtd:argv_wildcards.obj
 0001:0008a460       ??$tcsncpy_s@PEADAEB_KAEBQEBDAEB_K@?$__crt_char_traits@D@@SAH$$QEAPEADAEB_KAEBQEBD1@Z 000000018008b460 f i libucrtd:argv_wildcards.obj
 0001:0008a4b0       ??$tcsncpy_s@PEAD_KAEBQEBDAEB_K@?$__crt_char_traits@D@@SAH$$QEAPEAD$$QEA_KAEBQEBDAEB_K@Z 000000018008b4b0 f i libucrtd:argv_wildcards.obj
 0001:0008a500       ??$tcsncpy_s@PEA_WAEB_KAEBQEB_WAEB_K@?$__crt_char_traits@_W@@SAH$$QEAPEA_WAEB_KAEBQEB_W1@Z 000000018008b500 f i libucrtd:argv_wildcards.obj
 0001:0008a550       ??$tcsncpy_s@PEA_W_KAEBQEB_WAEB_K@?$__crt_char_traits@_W@@SAH$$QEAPEA_W$$QEA_KAEBQEB_WAEB_K@Z 000000018008b550 f i libucrtd:argv_wildcards.obj
 0001:0008a5a0       ??$tcspbrk@AEAPEADAEAY02$$CBD@?$__crt_char_traits@D@@SAPEADAEAPEADAEAY02$$CBD@Z 000000018008b5a0 f i libucrtd:argv_wildcards.obj
 0001:0008a5d0       ??$tcspbrk@AEAPEA_WAEAY02$$CB_W@?$__crt_char_traits@_W@@SAPEA_WAEAPEA_WAEAY02$$CB_W@Z 000000018008b5d0 f i libucrtd:argv_wildcards.obj
 0001:0008a600       ??0?$__crt_unique_handle_t@U__crt_findfile_traits@@@@QEAA@QEAX@Z 000000018008b600 f i libucrtd:argv_wildcards.obj
 0001:0008a620       ??0?$__crt_win32_buffer@DU__crt_win32_buffer_internal_dynamic_resizing@@@@QEAA@XZ 000000018008b620 f i libucrtd:argv_wildcards.obj
 0001:0008a680       ??0?$__crt_win32_buffer@_WU__crt_win32_buffer_internal_dynamic_resizing@@@@QEAA@XZ 000000018008b680 f i libucrtd:argv_wildcards.obj
 0001:0008a760       ??1?$__crt_unique_handle_t@U__crt_findfile_traits@@@@QEAA@XZ 000000018008b760 f i libucrtd:argv_wildcards.obj
 0001:0008a780       ??1?$__crt_win32_buffer@DU__crt_win32_buffer_internal_dynamic_resizing@@@@QEAA@XZ 000000018008b780 f i libucrtd:argv_wildcards.obj
 0001:0008a7b0       ??1?$__crt_win32_buffer@_WU__crt_win32_buffer_internal_dynamic_resizing@@@@QEAA@XZ 000000018008b7b0 f i libucrtd:argv_wildcards.obj
 0001:0008a8e0       ??R<lambda_7c9dea7b4ca7285d2cdb541a38da6275>@@QEBA@IQEBDQEA_W_K@Z 000000018008b8e0 f i libucrtd:argv_wildcards.obj
 0001:0008aa50       ??R<lambda_d8593a27d1aa8c02be35c86a17d324c4>@@QEBA@IQEB_WQEAD_K@Z 000000018008ba50 f i libucrtd:argv_wildcards.obj
 0001:0008aab0       ?_deallocate@?$__crt_win32_buffer@DU__crt_win32_buffer_internal_dynamic_resizing@@@@AEAAXXZ 000000018008bab0 f i libucrtd:argv_wildcards.obj
 0001:0008ab00       ?_deallocate@?$__crt_win32_buffer@_WU__crt_win32_buffer_internal_dynamic_resizing@@@@AEAAXXZ 000000018008bb00 f i libucrtd:argv_wildcards.obj
 0001:0008ab50       ?allocate@?$__crt_win32_buffer@DU__crt_win32_buffer_internal_dynamic_resizing@@@@QEAAH_K@Z 000000018008bb50 f i libucrtd:argv_wildcards.obj
 0001:0008abd0       ?allocate@?$__crt_win32_buffer@_WU__crt_win32_buffer_internal_dynamic_resizing@@@@QEAAH_K@Z 000000018008bbd0 f i libucrtd:argv_wildcards.obj
 0001:0008ac60       ?allocate@__crt_win32_buffer_internal_dynamic_resizing@@SAHQEAPEAX_KAEBV__crt_win32_buffer_empty_debug_info@@@Z 000000018008bc60 f i libucrtd:argv_wildcards.obj
 0001:0008adc0       ?capacity@?$__crt_win32_buffer@DU__crt_win32_buffer_internal_dynamic_resizing@@@@QEBA_KXZ 000000018008bdc0 f i libucrtd:argv_wildcards.obj
 0001:0008add0       ?capacity@?$__crt_win32_buffer@_WU__crt_win32_buffer_internal_dynamic_resizing@@@@QEBA_KXZ 000000018008bdd0 f i libucrtd:argv_wildcards.obj
 0001:0008ade0       ?close@?$__crt_unique_handle_t@U__crt_findfile_traits@@@@QEAAXXZ 000000018008bde0 f i libucrtd:argv_wildcards.obj
 0001:0008ae20       ?close@__crt_findfile_traits@@SA_NPEAX@Z 000000018008be20 f i libucrtd:argv_wildcards.obj
 0001:0008ae60       ?data@?$__crt_win32_buffer@DU__crt_win32_buffer_internal_dynamic_resizing@@@@QEAAPEADXZ 000000018008be60 f i libucrtd:argv_wildcards.obj
 0001:0008ae70       ?data@?$__crt_win32_buffer@_WU__crt_win32_buffer_internal_dynamic_resizing@@@@QEAAPEA_WXZ 000000018008be70 f i libucrtd:argv_wildcards.obj
 0001:0008ae80       ?deallocate@__crt_win32_buffer_internal_dynamic_resizing@@SAXQEAXAEBV__crt_win32_buffer_empty_debug_info@@@Z 000000018008be80 f i libucrtd:argv_wildcards.obj
 0001:0008aeb0       ?debug_info@?$__crt_win32_buffer@DU__crt_win32_buffer_internal_dynamic_resizing@@@@QEBAAEBV__crt_win32_buffer_empty_debug_info@@XZ 000000018008beb0 f i libucrtd:argv_wildcards.obj
 0001:0008aec0       ?debug_info@?$__crt_win32_buffer@_WU__crt_win32_buffer_internal_dynamic_resizing@@@@QEBAAEBV__crt_win32_buffer_empty_debug_info@@XZ 000000018008bec0 f i libucrtd:argv_wildcards.obj
 0001:0008b2b0       ?get@?$__crt_unique_handle_t@U__crt_findfile_traits@@@@QEBAPEAXXZ 000000018008c2b0 f i libucrtd:argv_wildcards.obj
 0001:0008b320       ?get_invalid_value@__crt_findfile_traits@@SAPEAXXZ 000000018008c320 f i libucrtd:argv_wildcards.obj
 0001:0008b3e0       ?set_to_nullptr@?$__crt_win32_buffer@DU__crt_win32_buffer_internal_dynamic_resizing@@@@QEAAXXZ 000000018008c3e0 f i libucrtd:argv_wildcards.obj
 0001:0008b420       ?set_to_nullptr@?$__crt_win32_buffer@_WU__crt_win32_buffer_internal_dynamic_resizing@@@@QEAAXXZ 000000018008c420 f i libucrtd:argv_wildcards.obj
 0001:0008b460       ?size@?$__crt_win32_buffer@DU__crt_win32_buffer_internal_dynamic_resizing@@@@QEAAX_K@Z 000000018008c460 f i libucrtd:argv_wildcards.obj
 0001:0008b480       ?size@?$__crt_win32_buffer@_WU__crt_win32_buffer_internal_dynamic_resizing@@@@QEAAX_K@Z 000000018008c480 f i libucrtd:argv_wildcards.obj
 0001:0008b4e0       ?strpbrk@@YAPEADQEADQEBD@Z 000000018008c4e0 f i libucrtd:argv_wildcards.obj
 0001:0008b510       ?wcspbrk@@YAPEA_WPEA_WPEB_W@Z 000000018008c510 f i libucrtd:argv_wildcards.obj
 0001:0008b540       __acrt_expand_narrow_argv_wildcards 000000018008c540 f   libucrtd:argv_wildcards.obj
 0001:0008b570       __acrt_expand_wide_argv_wildcards 000000018008c570 f   libucrtd:argv_wildcards.obj
 0001:0008b640       ??$initialize_from_array@$$BY10BAA@E@?$dual_state_global@PEAE@__crt_state_management@@QEAAXAEAY10BAA@E@Z 000000018008c640 f i libucrtd:mbctype.obj
 0001:0008b6b0       ??$initialize_from_array@$$BY10BAB@E@?$dual_state_global@PEAE@__crt_state_management@@QEAAXAEAY10BAB@E@Z 000000018008c6b0 f i libucrtd:mbctype.obj
 0001:0008b9a0       ?dangerous_get_state_array@?$dual_state_global@PEAE@__crt_state_management@@QEAAPEAPEAEXZ 000000018008c9a0 f i libucrtd:mbctype.obj
 0001:0008b9b0       ?dangerous_get_state_array@?$dual_state_global@PEAU__crt_multibyte_data@@@__crt_state_management@@QEAAPEAPEAU__crt_multibyte_data@@XZ 000000018008c9b0 f i libucrtd:mbctype.obj
 0001:0008baa0       ?initialize@?$dual_state_global@PEAU__crt_multibyte_data@@@__crt_state_management@@QEAAXQEAU__crt_multibyte_data@@@Z 000000018008caa0 f i libucrtd:mbctype.obj
 0001:0008c370       ?value@?$dual_state_global@PEAE@__crt_state_management@@QEAAAEAPEAEXZ 000000018008d370 f i libucrtd:mbctype.obj
 0001:0008c390       __acrt_initialize_multibyte 000000018008d390 f   libucrtd:mbctype.obj
 0001:0008c460       __acrt_update_thread_multibyte_data 000000018008d460 f   libucrtd:mbctype.obj
 0001:0008c4a0       __p__mbcasemap             000000018008d4a0 f   libucrtd:mbctype.obj
 0001:0008c4c0       __p__mbctype               000000018008d4c0 f   libucrtd:mbctype.obj
 0001:0008c4e0       _getmbcp                   000000018008d4e0 f   libucrtd:mbctype.obj
 0001:0008c560       _setmbcp                   000000018008d560 f   libucrtd:mbctype.obj
 0001:0008c5a0       _setmbcp_nolock            000000018008d5a0 f   libucrtd:mbctype.obj
 0001:0008cc90       _ismbbalnum                000000018008dc90 f   libucrtd:ismbbyte.obj
 0001:0008ccc0       _ismbbalnum_l              000000018008dcc0 f   libucrtd:ismbbyte.obj
 0001:0008ccf0       _ismbbalpha                000000018008dcf0 f   libucrtd:ismbbyte.obj
 0001:0008cd20       _ismbbalpha_l              000000018008dd20 f   libucrtd:ismbbyte.obj
 0001:0008cd50       _ismbbblank                000000018008dd50 f   libucrtd:ismbbyte.obj
 0001:0008cd90       _ismbbblank_l              000000018008dd90 f   libucrtd:ismbbyte.obj
 0001:0008cde0       _ismbbgraph                000000018008dde0 f   libucrtd:ismbbyte.obj
 0001:0008ce10       _ismbbgraph_l              000000018008de10 f   libucrtd:ismbbyte.obj
 0001:0008ce40       _ismbbkalnum               000000018008de40 f   libucrtd:ismbbyte.obj
 0001:0008ce70       _ismbbkalnum_l             000000018008de70 f   libucrtd:ismbbyte.obj
 0001:0008cea0       _ismbbkana                 000000018008dea0 f   libucrtd:ismbbyte.obj
 0001:0008cec0       _ismbbkana_l               000000018008dec0 f   libucrtd:ismbbyte.obj
 0001:0008cf50       _ismbbkprint               000000018008df50 f   libucrtd:ismbbyte.obj
 0001:0008cf80       _ismbbkprint_l             000000018008df80 f   libucrtd:ismbbyte.obj
 0001:0008cfb0       _ismbbkpunct               000000018008dfb0 f   libucrtd:ismbbyte.obj
 0001:0008cfe0       _ismbbkpunct_l             000000018008dfe0 f   libucrtd:ismbbyte.obj
 0001:0008d010       _ismbblead                 000000018008e010 f   libucrtd:ismbbyte.obj
 0001:0008d040       _ismbblead_l               000000018008e040 f   libucrtd:ismbbyte.obj
 0001:0008d070       _ismbbprint                000000018008e070 f   libucrtd:ismbbyte.obj
 0001:0008d0a0       _ismbbprint_l              000000018008e0a0 f   libucrtd:ismbbyte.obj
 0001:0008d0d0       _ismbbpunct                000000018008e0d0 f   libucrtd:ismbbyte.obj
 0001:0008d100       _ismbbpunct_l              000000018008e100 f   libucrtd:ismbbyte.obj
 0001:0008d130       _ismbbtrail                000000018008e130 f   libucrtd:ismbbyte.obj
 0001:0008d160       _ismbbtrail_l              000000018008e160 f   libucrtd:ismbbyte.obj
 0001:0008d190       __acrt_initialize_command_line 000000018008e190 f   libucrtd:argv_data.obj
 0001:0008d1c0       __acrt_uninitialize_command_line 000000018008e1c0 f   libucrtd:argv_data.obj
 0001:0008d1d0       __p___argc                 000000018008e1d0 f   libucrtd:argv_data.obj
 0001:0008d1e0       __p___argv                 000000018008e1e0 f   libucrtd:argv_data.obj
 0001:0008d1f0       __p___wargv                000000018008e1f0 f   libucrtd:argv_data.obj
 0001:0008d200       __p__acmdln                000000018008e200 f   libucrtd:argv_data.obj
 0001:0008d210       __p__pgmptr                000000018008e210 f   libucrtd:argv_data.obj
 0001:0008d220       __p__wcmdln                000000018008e220 f   libucrtd:argv_data.obj
 0001:0008d230       __p__wpgmptr               000000018008e230 f   libucrtd:argv_data.obj
 0001:0008d240       _get_pgmptr                000000018008e240 f   libucrtd:argv_data.obj
 0001:0008d3b0       _get_wpgmptr               000000018008e3b0 f   libucrtd:argv_data.obj
 0001:0008d630       __acrt_MultiByteToWideChar 000000018008e630 f   libucrtd:multibytetowidechar.obj
 0001:0008d7a0       __acrt_WideCharToMultiByte 000000018008e7a0 f   libucrtd:widechartomultibyte.obj
 0001:0008da40       __dcrt_get_narrow_environment_from_os 000000018008ea40 f   libucrtd:get_environment_from_os.obj
 0001:0008dc70       __dcrt_get_wide_environment_from_os 000000018008ec70 f   libucrtd:get_environment_from_os.obj
 0001:0008f4b0       ??$get_or_create_environment_nolock@$$V@?$__crt_char_traits@D@@SAPEAPEADXZ 00000001800904b0 f i libucrtd:setenv.obj
 0001:0008f4c0       ??$get_or_create_environment_nolock@$$V@?$__crt_char_traits@_W@@SAPEAPEA_WXZ 00000001800904c0 f i libucrtd:setenv.obj
 0001:0008f4d0       ??$set_environment_variable@AEBQEADQEAD@?$__crt_char_traits@D@@SAHAEBQEAD$$QEBQEAD@Z 00000001800904d0 f i libucrtd:setenv.obj
 0001:0008f500       ??$set_environment_variable@AEBQEA_WQEA_W@?$__crt_char_traits@_W@@SAHAEBQEA_W$$QEBQEA_W@Z 0000000180090500 f i libucrtd:setenv.obj
 0001:0008f530       ??$tcschr@AEBQEADD@?$__crt_char_traits@D@@SAPEADAEBQEAD$$QEAD@Z 0000000180090530 f i libucrtd:setenv.obj
 0001:0008f570       ??$tcschr@AEBQEA_WD@?$__crt_char_traits@_W@@SAPEA_WAEBQEA_W$$QEAD@Z 0000000180090570 f i libucrtd:setenv.obj
 0001:0008f5b0       ??$tcscpy_s@AEAPEADAEB_KAEAPEAD@?$__crt_char_traits@D@@SAHAEAPEADAEB_K0@Z 00000001800905b0 f i libucrtd:setenv.obj
 0001:0008f5f0       ??$tcscpy_s@AEAPEA_WAEB_KAEAPEA_W@?$__crt_char_traits@_W@@SAHAEAPEA_WAEB_K0@Z 00000001800905f0 f i libucrtd:setenv.obj
 0001:0008f630       ??$tcscpy_s@AEBQEADAEB_KAEBQEAD@?$__crt_char_traits@D@@SAHAEBQEADAEB_K0@Z 0000000180090630 f i libucrtd:setenv.obj
 0001:0008f670       ??$tcscpy_s@AEBQEA_WAEB_KAEBQEA_W@?$__crt_char_traits@_W@@SAHAEBQEA_WAEB_K0@Z 0000000180090670 f i libucrtd:setenv.obj
 0001:0008f6b0       ??$tcsnicoll@AEBQEBDAEAPEADAEB_K@?$__crt_char_traits@D@@SAHAEBQEBDAEAPEADAEB_K@Z 00000001800906b0 f i libucrtd:setenv.obj
 0001:0008f6f0       ??$tcsnicoll@AEBQEB_WAEAPEA_WAEB_K@?$__crt_char_traits@_W@@SAHAEBQEB_WAEAPEA_WAEB_K@Z 00000001800906f0 f i libucrtd:setenv.obj
 0001:0008f730       ??$tcsnlen@PEADH@?$__crt_char_traits@D@@SA_K$$QEAPEAD$$QEAH@Z 0000000180090730 f i libucrtd:setenv.obj
 0001:0008f760       ??$tcsnlen@PEA_WH@?$__crt_char_traits@_W@@SA_K$$QEAPEA_W$$QEAH@Z 0000000180090760 f i libucrtd:setenv.obj
 0001:0008f830       ?strchr@@YAPEADQEADH@Z     0000000180090830 f i libucrtd:setenv.obj
 0001:0008f850       ?wcschr@@YAPEA_WPEA_W_W@Z  0000000180090850 f i libucrtd:setenv.obj
 0001:0008f880       __dcrt_set_variable_in_narrow_environment_nolock 0000000180090880 f   libucrtd:setenv.obj
 0001:0008f8a0       __dcrt_set_variable_in_wide_environment_nolock 00000001800908a0 f   libucrtd:setenv.obj
 0001:0008f8e0       ??$?B$$A6AHPEA_WK_J@Z@__crt_fast_encoded_nullptr_t@@QEBAP6AHPEA_WK_J@ZXZ 00000001800908e0 f i libucrtd:winapi_thunks.obj
 0001:0008f9b0       ??$__crt_fast_decode_pointer@P6AHPEA_WK_J@Z@@YAP6AHPEA_WK_J@ZQ6AH0K1@Z@Z 00000001800909b0 f i libucrtd:winapi_thunks.obj
 0001:0008f9f0       ??$__crt_fast_decode_pointer@PEAX@@YAPEAXQEAX@Z 00000001800909f0 f i libucrtd:winapi_thunks.obj
 0001:0008fa30       ??$__crt_fast_encode_pointer@P6AHPEA_WK_J@Z@@YAP6AHPEA_WK_J@ZQ6AH0K1@Z@Z 0000000180090a30 f i libucrtd:winapi_thunks.obj
 0001:00090620       GetCurrentThreadEffectiveToken 0000000180091620 f i libucrtd:winapi_thunks.obj
 0001:00090630       __acrt_AppPolicyGetProcessTerminationMethodInternal 0000000180091630 f   libucrtd:winapi_thunks.obj
 0001:00090690       __acrt_AppPolicyGetShowDeveloperDiagnosticInternal 0000000180091690 f   libucrtd:winapi_thunks.obj
 0001:000906f0       __acrt_AppPolicyGetThreadInitializationTypeInternal 00000001800916f0 f   libucrtd:winapi_thunks.obj
 0001:00090750       __acrt_AppPolicyGetWindowingModelInternal 0000000180091750 f   libucrtd:winapi_thunks.obj
 0001:000907b0       __acrt_AreFileApisANSI     00000001800917b0 f   libucrtd:winapi_thunks.obj
 0001:00090800       __acrt_CompareStringEx     0000000180091800 f   libucrtd:winapi_thunks.obj
 0001:00090920       __acrt_EnumSystemLocalesEx 0000000180091920 f   libucrtd:winapi_thunks.obj
 0001:000909b0       __acrt_FlsAlloc            00000001800919b0 f   libucrtd:winapi_thunks.obj
 0001:000909d0       __acrt_FlsFree             00000001800919d0 f   libucrtd:winapi_thunks.obj
 0001:000909f0       __acrt_FlsGetValue         00000001800919f0 f   libucrtd:winapi_thunks.obj
 0001:00090a10       __acrt_FlsSetValue         0000000180091a10 f   libucrtd:winapi_thunks.obj
 0001:00090a40       __acrt_GetDateFormatEx     0000000180091a40 f   libucrtd:winapi_thunks.obj
 0001:00090b20       __acrt_GetEnabledXStateFeatures 0000000180091b20 f   libucrtd:winapi_thunks.obj
 0001:00090b70       __acrt_GetLocaleInfoEx     0000000180091b70 f   libucrtd:winapi_thunks.obj
 0001:00090c00       __acrt_GetSystemTimePreciseAsFileTime 0000000180091c00 f   libucrtd:winapi_thunks.obj
 0001:00090c60       __acrt_GetTempPath2W       0000000180091c60 f   libucrtd:winapi_thunks.obj
 0001:00090cd0       __acrt_GetTimeFormatEx     0000000180091cd0 f   libucrtd:winapi_thunks.obj
 0001:00090da0       __acrt_GetUserDefaultLocaleName 0000000180091da0 f   libucrtd:winapi_thunks.obj
 0001:00090e20       __acrt_GetXStateFeaturesMask 0000000180091e20 f   libucrtd:winapi_thunks.obj
 0001:00090e80       __acrt_InitializeCriticalSectionEx 0000000180091e80 f   libucrtd:winapi_thunks.obj
 0001:00090f00       __acrt_IsValidLocaleName   0000000180091f00 f   libucrtd:winapi_thunks.obj
 0001:00090f70       __acrt_LCIDToLocaleName    0000000180091f70 f   libucrtd:winapi_thunks.obj
 0001:00090ff0       __acrt_LCMapStringEx       0000000180091ff0 f   libucrtd:winapi_thunks.obj
 0001:00091100       __acrt_LocaleNameToLCID    0000000180092100 f   libucrtd:winapi_thunks.obj
 0001:00091170       __acrt_LocateXStateFeature 0000000180092170 f   libucrtd:winapi_thunks.obj
 0001:000911e0       __acrt_MessageBoxA         00000001800921e0 f   libucrtd:winapi_thunks.obj
 0001:00091260       __acrt_MessageBoxW         0000000180092260 f   libucrtd:winapi_thunks.obj
 0001:000912e0       __acrt_RoInitialize        00000001800922e0 f   libucrtd:winapi_thunks.obj
 0001:00091330       __acrt_RoUninitialize      0000000180092330 f   libucrtd:winapi_thunks.obj
 0001:00091370       __acrt_RtlGenRandom        0000000180092370 f   libucrtd:winapi_thunks.obj
 0001:000913d0       __acrt_SetThreadStackGuarantee 00000001800923d0 f   libucrtd:winapi_thunks.obj
 0001:00091430       __acrt_can_show_message_box 0000000180092430 f   libucrtd:winapi_thunks.obj
 0001:00091470       __acrt_can_use_vista_locale_apis 0000000180092470 f   libucrtd:winapi_thunks.obj
 0001:000914a0       __acrt_can_use_xstate_apis 00000001800924a0 f   libucrtd:winapi_thunks.obj
 0001:000914d0       __acrt_eagerly_load_locale_apis 00000001800924d0 f   libucrtd:winapi_thunks.obj
 0001:00091510       __acrt_get_parent_window   0000000180092510 f   libucrtd:winapi_thunks.obj
 0001:000915b0       __acrt_initialize_winapi_thunks 00000001800925b0 f   libucrtd:winapi_thunks.obj
 0001:00091630       __acrt_is_interactive      0000000180092630 f   libucrtd:winapi_thunks.obj
 0001:00091740       __acrt_uninitialize_winapi_thunks 0000000180092740 f   libucrtd:winapi_thunks.obj
 0001:000917e0       __acrt_getheap             00000001800927e0 f   libucrtd:heap_handle.obj
 0001:00091840       __acrt_initialize_heap     0000000180092840 f   libucrtd:heap_handle.obj
 0001:00091870       __acrt_uninitialize_heap   0000000180092870 f   libucrtd:heap_handle.obj
 0001:00091890       _get_heap_handle           0000000180092890 f   libucrtd:heap_handle.obj
 0001:000918f0       __acrt_execute_initializers 00000001800928f0 f   libucrtd:shared_initialization.obj
 0001:000919f0       __acrt_execute_uninitializers 00000001800929f0 f   libucrtd:shared_initialization.obj
 0001:00091a80       ??$__crt_fast_decode_pointer@P6AHPEAU_exception@@@Z@@YAP6AHPEAU_exception@@@ZQ6AH0@Z@Z 0000000180092a80 f i libucrtd:matherr.obj
 0001:00091ac0       ??$__crt_fast_encode_pointer@P6AHPEAU_exception@@@Z@@YAP6AHPEAU_exception@@@ZQ6AH0@Z@Z 0000000180092ac0 f i libucrtd:matherr.obj
 0001:00091b00       ?initialize@?$dual_state_global@P6AHPEAU_exception@@@Z@__crt_state_management@@QEAAXQ6AHPEAU_exception@@@Z@Z 0000000180092b00 f i libucrtd:matherr.obj
 0001:00091b50       ?value@?$dual_state_global@P6AHPEAU_exception@@@Z@__crt_state_management@@QEAAAEAP6AHPEAU_exception@@@ZXZ 0000000180092b50 f i libucrtd:matherr.obj
 0001:00091b70       __acrt_has_user_matherr    0000000180092b70 f   libucrtd:matherr.obj
 0001:00091bb0       __acrt_initialize_user_matherr 0000000180092bb0 f   libucrtd:matherr.obj
 0001:00091bd0       __acrt_invoke_user_matherr 0000000180092bd0 f   libucrtd:matherr.obj
 0001:00091c40       __setusermatherr           0000000180092c40 f   libucrtd:matherr.obj
 0001:00091c80       _chvalidator               0000000180092c80 f   libucrtd:isctype.obj
 0001:00091cf0       _chvalidator_l             0000000180092cf0 f   libucrtd:isctype.obj
 0001:00091da0       _isctype                   0000000180092da0 f   libucrtd:isctype.obj
 0001:00091df0       _isctype_l                 0000000180092df0 f   libucrtd:isctype.obj
 0001:00092030       _free_base                 0000000180093030 f   libucrtd:free_base.obj
 0001:00092090       _realloc_base              0000000180093090 f   libucrtd:realloc_base.obj
 0001:000921b0       _expand                    00000001800931b0 f   libucrtd:expand.obj
 0001:000921f0       _expand_base               00000001800931f0 f   libucrtd:expand.obj
 0001:00092380       ?value@?$dual_state_global@J@__crt_state_management@@QEAAAEAJXZ 0000000180093380 f i libucrtd:new_mode.obj
 0001:000923a0       _query_new_mode            00000001800933a0 f   libucrtd:new_mode.obj
 0001:000923c0       _set_new_mode              00000001800933c0 f   libucrtd:new_mode.obj
 0001:00092490       _CrtDefaultAllocHook       0000000180093490 f   libucrtd:debug_heap_hook.obj
 0001:000924b0       _iswctype_l                00000001800934b0 f   libucrtd:iswctype.obj
 0001:000924e0       iswctype                   00000001800934e0 f   libucrtd:iswctype.obj
 0001:00092570       __acrt_add_locale_ref      0000000180093570 f   libucrtd:locale_refcounting.obj
 0001:000926d0       __acrt_free_locale         00000001800936d0 f   libucrtd:locale_refcounting.obj
 0001:00092a50       __acrt_locale_add_lc_time_reference 0000000180093a50 f   libucrtd:locale_refcounting.obj
 0001:00092a90       __acrt_locale_free_lc_time_if_unreferenced 0000000180093a90 f   libucrtd:locale_refcounting.obj
 0001:00092af0       __acrt_locale_release_lc_time_reference 0000000180093af0 f   libucrtd:locale_refcounting.obj
 0001:00092b30       __acrt_release_locale_ref  0000000180093b30 f   libucrtd:locale_refcounting.obj
 0001:00092ca0       __acrt_update_thread_locale_data 0000000180093ca0 f   libucrtd:locale_refcounting.obj
 0001:00092d40       _updatetlocinfoEx_nolock   0000000180093d40 f   libucrtd:locale_refcounting.obj
 0001:00092fa0       __acrt_fp_strflt_to_string 0000000180093fa0 f   libucrtd:_fptostr.obj
 0001:00093b60       ??0big_integer@__crt_strtox@@QEAA@AEBU01@@Z 0000000180094b60 f i libucrtd:cfout.obj
 0001:00093bc0       ??0big_integer@__crt_strtox@@QEAA@XZ 0000000180094bc0 f i libucrtd:cfout.obj
 0001:00093d10       ??4big_integer@__crt_strtox@@QEAAAEAU01@AEBU01@@Z 0000000180094d10 f i libucrtd:cfout.obj
 0001:00093d70       ??8__crt_strtox@@YA_NAEBUbig_integer@0@0@Z 0000000180094d70 f i libucrtd:cfout.obj
 0001:00093de0       ??9__crt_strtox@@YA_NAEBUbig_integer@0@0@Z 0000000180094de0 f i libucrtd:cfout.obj
 0001:00093e20       ?add_carry@__crt_strtox@@YAIAEAIII@Z 0000000180094e20 f i libucrtd:cfout.obj
 0001:00093e70       ?add_multiply_carry@__crt_strtox@@YAIAEAIIII@Z 0000000180094e70 f i libucrtd:cfout.obj
 0001:00093ed0       ?bit_scan_reverse@__crt_strtox@@YAII@Z 0000000180094ed0 f i libucrtd:cfout.obj
 0001:00093f10       ?count_sequential_high_zeroes@__crt_strtox@@YAII@Z 0000000180094f10 f i libucrtd:cfout.obj
 0001:00093f50       ?divide@__crt_strtox@@YA_KAEAUbig_integer@1@AEBU21@@Z 0000000180094f50 f i libucrtd:cfout.obj
 0001:00094920       ?is_zero@__crt_strtox@@YA_NAEBUbig_integer@1@@Z 0000000180095920 f i libucrtd:cfout.obj
 0001:00094950       ?make_big_integer@__crt_strtox@@YA?AUbig_integer@1@_K@Z 0000000180095950 f i libucrtd:cfout.obj
 0001:00094a20       ?make_big_integer_power_of_two@__crt_strtox@@YA?AUbig_integer@1@I@Z 0000000180095a20 f i libucrtd:cfout.obj
 0001:00094af0       ?multiply@__crt_strtox@@YA_NAEAUbig_integer@1@AEBU21@@Z 0000000180095af0 f i libucrtd:cfout.obj
 0001:00094e70       ?multiply@__crt_strtox@@YA_NAEAUbig_integer@1@I@Z 0000000180095e70 f i libucrtd:cfout.obj
 0001:00094f90       ?multiply_64_32@__crt_strtox@@YA_K_KI@Z 0000000180095f90 f i libucrtd:cfout.obj
 0001:00094fb0       ?multiply_by_power_of_ten@__crt_strtox@@YA_NAEAUbig_integer@1@I@Z 0000000180095fb0 f i libucrtd:cfout.obj
 0001:00095160       ?multiply_core@__crt_strtox@@YAIQEAIII@Z 0000000180096160 f i libucrtd:cfout.obj
 0001:000951e0       ?shift_left@__crt_strtox@@YA_NAEAUbig_integer@1@I@Z 00000001800961e0 f i libucrtd:cfout.obj
 0001:000954c0       __acrt_fltout              00000001800964c0 f   libucrtd:cfout.obj
 0001:000959e0       __fpe_flt_rounds           00000001800969e0 f   libucrtd:fegetround.obj
 0001:00095a40       fegetround                 0000000180096a40 f   libucrtd:fegetround.obj
 0001:00095a60       ??$?RG@__crt_internal_free_policy@@QEBAXQEBG@Z 0000000180096a60 f i libucrtd:initctype.obj
 0001:00095a90       ??$?RJ@__crt_internal_free_policy@@QEBAXQEBJ@Z 0000000180096a90 f i libucrtd:initctype.obj
 0001:00095ac0       ??0?$__crt_unique_heap_ptr@GU__crt_internal_free_policy@@@@QEAA@QEAG@Z 0000000180096ac0 f i libucrtd:initctype.obj
 0001:00095ae0       ??0?$__crt_unique_heap_ptr@JU__crt_internal_free_policy@@@@QEAA@QEAJ@Z 0000000180096ae0 f i libucrtd:initctype.obj
 0001:00095b00       ??1?$__crt_unique_heap_ptr@GU__crt_internal_free_policy@@@@QEAA@XZ 0000000180096b00 f i libucrtd:initctype.obj
 0001:00095b20       ??1?$__crt_unique_heap_ptr@JU__crt_internal_free_policy@@@@QEAA@XZ 0000000180096b20 f i libucrtd:initctype.obj
 0001:00095b40       ?detach@?$__crt_unique_heap_ptr@GU__crt_internal_free_policy@@@@QEAAPEAGXZ 0000000180096b40 f i libucrtd:initctype.obj
 0001:00095b70       ?detach@?$__crt_unique_heap_ptr@JU__crt_internal_free_policy@@@@QEAAPEAJXZ 0000000180096b70 f i libucrtd:initctype.obj
 0001:00095ba0       ?release@?$__crt_unique_heap_ptr@GU__crt_internal_free_policy@@@@QEAAXXZ 0000000180096ba0 f i libucrtd:initctype.obj
 0001:00095bd0       ?release@?$__crt_unique_heap_ptr@JU__crt_internal_free_policy@@@@QEAAXXZ 0000000180096bd0 f i libucrtd:initctype.obj
 0001:00095c00       ___lc_codepage_func        0000000180096c00 f   libucrtd:initctype.obj
 0001:00095c40       ___lc_collate_cp_func      0000000180096c40 f   libucrtd:initctype.obj
 0001:00095c80       ___lc_locale_name_func     0000000180096c80 f   libucrtd:initctype.obj
 0001:00095cc0       ___mb_cur_max_func         0000000180096cc0 f   libucrtd:initctype.obj
 0001:00095d00       ___mb_cur_max_l_func       0000000180096d00 f   libucrtd:initctype.obj
 0001:00095d40       __acrt_locale_initialize_ctype 0000000180096d40 f   libucrtd:initctype.obj
 0001:000967f0       ?__c32rtomb_utf8@__crt_mbstring@@YA_KPEAD_UPEAU_Mbstatet@@AEAV__crt_cached_ptd_host@@@Z 00000001800977f0 f   libucrtd:c32rtomb.obj
 0001:00096a90       c32rtomb                   0000000180097a90 f   libucrtd:c32rtomb.obj
 0001:00096b60       ?__mbrtowc_utf8@__crt_mbstring@@YA_KPEA_WPEBD_KPEAU_Mbstatet@@AEAV__crt_cached_ptd_host@@@Z 0000000180097b60 f   libucrtd:mbrtowc.obj
 0001:00096be0       ?__mbsrtowcs_utf8@__crt_mbstring@@YA_KPEA_WPEAPEBD_KPEAU_Mbstatet@@AEAV__crt_cached_ptd_host@@@Z 0000000180097be0 f   libucrtd:mbrtowc.obj
 0001:00097db0       btowc                      0000000180098db0 f   libucrtd:mbrtowc.obj
 0001:00097e80       mbrlen                     0000000180098e80 f   libucrtd:mbrtowc.obj
 0001:00097f30       mbrtowc                    0000000180098f30 f   libucrtd:mbrtowc.obj
 0001:00098040       mbsrtowcs                  0000000180099040 f   libucrtd:mbrtowc.obj
 0001:000980c0       mbsrtowcs_s                00000001800990c0 f   libucrtd:mbrtowc.obj
 0001:00098150       ?is_in_use@__crt_stdio_stream@@QEBA_NXZ 0000000180099150 f i libucrtd:closeall.obj
 0001:00098190       _fcloseall                 0000000180099190 f   libucrtd:closeall.obj
 0001:000982a0       ?has_crt_buffer@__crt_stdio_stream@@QEBA_NXZ 00000001800992a0 f i libucrtd:_freebuf.obj
 0001:000982c0       __acrt_stdio_free_buffer_nolock 00000001800992c0 f   libucrtd:_freebuf.obj
 0001:00098dc0       ?has_big_buffer@__crt_stdio_stream@@QEBA_NXZ 0000000180099dc0 f i libucrtd:_flsbuf.obj
 0001:00098ee0       __acrt_stdio_flush_and_write_narrow_nolock 0000000180099ee0 f   libucrtd:_flsbuf.obj
 0001:00098f20       __acrt_stdio_flush_and_write_wide_nolock 0000000180099f20 f   libucrtd:_flsbuf.obj
 0001:00098f60       _isatty                    0000000180099f60 f   libucrtd:isatty.obj
 0001:00099070       ??$?RUlconv@@@__crt_internal_free_policy@@QEBAXQEBUlconv@@@Z 000000018009a070 f i libucrtd:initmon.obj
 0001:000990a0       ??0?$__crt_unique_heap_ptr@Ulconv@@U__crt_internal_free_policy@@@@QEAA@QEAUlconv@@@Z 000000018009a0a0 f i libucrtd:initmon.obj
 0001:000990c0       ??1?$__crt_unique_heap_ptr@Ulconv@@U__crt_internal_free_policy@@@@QEAA@XZ 000000018009a0c0 f i libucrtd:initmon.obj
 0001:000990e0       ?detach@?$__crt_unique_heap_ptr@Ulconv@@U__crt_internal_free_policy@@@@QEAAPEAUlconv@@XZ 000000018009a0e0 f i libucrtd:initmon.obj
 0001:00099110       ?release@?$__crt_unique_heap_ptr@Ulconv@@U__crt_internal_free_policy@@@@QEAAXXZ 000000018009a110 f i libucrtd:initmon.obj
 0001:00099140       __acrt_locale_free_monetary 000000018009a140 f   libucrtd:initmon.obj
 0001:00099350       __acrt_locale_initialize_monetary 000000018009a350 f   libucrtd:initmon.obj
 0001:00099d00       __acrt_locale_free_numeric 000000018009ad00 f   libucrtd:initnum.obj
 0001:00099de0       __acrt_locale_initialize_numeric 000000018009ade0 f   libucrtd:initnum.obj
 0001:0009a3f0       ??$?RU__crt_lc_time_data@@@__crt_internal_free_policy@@QEBAXQEBU__crt_lc_time_data@@@Z 000000018009b3f0 f i libucrtd:inittime.obj
 0001:0009a4e0       ??0?$__crt_unique_heap_ptr@U__crt_lc_time_data@@U__crt_internal_free_policy@@@@QEAA@QEAU__crt_lc_time_data@@@Z 000000018009b4e0 f i libucrtd:inittime.obj
 0001:0009a500       ??1?$__crt_unique_heap_ptr@U__crt_lc_time_data@@U__crt_internal_free_policy@@@@QEAA@XZ 000000018009b500 f i libucrtd:inittime.obj
 0001:0009a520       ??B?$__crt_unique_heap_ptr@U__crt_lc_time_data@@U__crt_internal_free_policy@@@@QEBA_NXZ 000000018009b520 f i libucrtd:inittime.obj
 0001:0009a540       ?detach@?$__crt_unique_heap_ptr@U__crt_lc_time_data@@U__crt_internal_free_policy@@@@QEAAPEAU__crt_lc_time_data@@XZ 000000018009b540 f i libucrtd:inittime.obj
 0001:0009a5d0       ?get@?$__crt_unique_heap_ptr@U__crt_lc_time_data@@U__crt_internal_free_policy@@@@QEBAPEAU__crt_lc_time_data@@XZ 000000018009b5d0 f i libucrtd:inittime.obj
 0001:0009ac40       ?is_valid@?$__crt_unique_heap_ptr@U__crt_lc_time_data@@U__crt_internal_free_policy@@@@QEBA_NXZ 000000018009bc40 f i libucrtd:inittime.obj
 0001:0009ac70       ?release@?$__crt_unique_heap_ptr@U__crt_lc_time_data@@U__crt_internal_free_policy@@@@QEAAXXZ 000000018009bc70 f i libucrtd:inittime.obj
 0001:0009aca0       __acrt_locale_free_time    000000018009bca0 f   libucrtd:inittime.obj
 0001:0009ae10       __acrt_locale_initialize_time 000000018009be10 f   libucrtd:inittime.obj
 0001:0009aeb0       __pctype_func              000000018009beb0 f   libucrtd:ctype.obj
 0001:0009aef0       __pwctype_func             000000018009bef0 f   libucrtd:ctype.obj
 0001:0009b5b0       wcsncpy_s                  000000018009c5b0 f   libucrtd:wcsncpy_s.obj
 0001:0009b5f0       wcscspn                    000000018009c5f0 f   libucrtd:wcscspn.obj
 0001:0009b690       wcspbrk                    000000018009c690 f   libucrtd:wcspbrk.obj
 0001:0009b710       ??0?$__crt_scoped_stack_ptr@_W@@QEAA@U?$__crt_scoped_stack_ptr_tag@_W@@@Z 000000018009c710 f i libucrtd:getstringtypea.obj
 0001:0009b730       ??0?$__crt_scoped_stack_ptr_tag@_W@@QEAA@QEA_W@Z 000000018009c730 f i libucrtd:getstringtypea.obj
 0001:0009b750       ??1?$__crt_scoped_stack_ptr@_W@@QEAA@XZ 000000018009c750 f i libucrtd:getstringtypea.obj
 0001:0009b770       ?get@?$__crt_scoped_stack_ptr@_W@@QEBAPEA_WXZ 000000018009c770 f i libucrtd:getstringtypea.obj
 0001:0009b780       _MallocaComputeSize        000000018009c780 f i libucrtd:getstringtypea.obj
 0001:0009b7c0       _MarkAllocaS               000000018009c7c0 f i libucrtd:getstringtypea.obj
 0001:0009b7f0       __acrt_GetStringTypeA      000000018009c7f0 f   libucrtd:getstringtypea.obj
 0001:0009ba50       _freea_crt                 000000018009ca50 f i libucrtd:getstringtypea.obj
 0001:0009c7e0       __acrt_get_qualified_locale 000000018009d7e0 f   libucrtd:get_qualified_locale.obj
 0001:0009d950       __acrt_get_qualified_locale_downlevel 000000018009e950 f   libucrtd:getqloc_downlevel.obj
 0001:0009dcc0       localeconv                 000000018009ecc0 f   libucrtd:localeconv.obj
 0001:0009dd00       ??$?RU__crt_lowio_handle_data@@@__crt_internal_free_policy@@QEBAXQEBU__crt_lowio_handle_data@@@Z 000000018009ed00 f i libucrtd:osfinfo.obj
 0001:0009dd30       ??0?$__crt_unique_heap_ptr@U__crt_lowio_handle_data@@U__crt_internal_free_policy@@@@QEAA@QEAU__crt_lowio_handle_data@@@Z 000000018009ed30 f i libucrtd:osfinfo.obj
 0001:0009dd50       ??1?$__crt_unique_heap_ptr@U__crt_lowio_handle_data@@U__crt_internal_free_policy@@@@QEAA@XZ 000000018009ed50 f i libucrtd:osfinfo.obj
 0001:0009dd70       ??B?$__crt_unique_heap_ptr@U__crt_lowio_handle_data@@U__crt_internal_free_policy@@@@QEBA_NXZ 000000018009ed70 f i libucrtd:osfinfo.obj
 0001:0009dd90       ?detach@?$__crt_unique_heap_ptr@U__crt_lowio_handle_data@@U__crt_internal_free_policy@@@@QEAAPEAU__crt_lowio_handle_data@@XZ 000000018009ed90 f i libucrtd:osfinfo.obj
 0001:0009ddc0       ?get@?$__crt_unique_heap_ptr@U__crt_lowio_handle_data@@U__crt_internal_free_policy@@@@QEBAPEAU__crt_lowio_handle_data@@XZ 000000018009edc0 f i libucrtd:osfinfo.obj
 0001:0009ddd0       ?is_valid@?$__crt_unique_heap_ptr@U__crt_lowio_handle_data@@U__crt_internal_free_policy@@@@QEBA_NXZ 000000018009edd0 f i libucrtd:osfinfo.obj
 0001:0009de00       ?release@?$__crt_unique_heap_ptr@U__crt_lowio_handle_data@@U__crt_internal_free_policy@@@@QEAAXXZ 000000018009ee00 f i libucrtd:osfinfo.obj
 0001:0009de30       __acrt_lowio_create_handle_array 000000018009ee30 f   libucrtd:osfinfo.obj
 0001:0009dff0       __acrt_lowio_destroy_handle_array 000000018009eff0 f   libucrtd:osfinfo.obj
 0001:0009e070       __acrt_lowio_ensure_fh_exists 000000018009f070 f   libucrtd:osfinfo.obj
 0001:0009e1d0       __acrt_lowio_lock_fh       000000018009f1d0 f   libucrtd:osfinfo.obj
 0001:0009e210       __acrt_lowio_set_os_handle 000000018009f210 f   libucrtd:osfinfo.obj
 0001:0009e320       __acrt_lowio_unlock_fh     000000018009f320 f   libucrtd:osfinfo.obj
 0001:0009e360       _alloc_osfhnd              000000018009f360 f   libucrtd:osfinfo.obj
 0001:0009e570       _free_osfhnd               000000018009f570 f   libucrtd:osfinfo.obj
 0001:0009e6a0       _get_osfhandle             000000018009f6a0 f   libucrtd:osfinfo.obj
 0001:0009e8a0       _open_osfhandle            000000018009f8a0 f   libucrtd:osfinfo.obj
 0001:0009f5d0       _mbstowcs_l                00000001800a05d0 f   libucrtd:mbstowcs.obj
 0001:0009f640       _mbstowcs_s_l              00000001800a0640 f   libucrtd:mbstowcs.obj
 0001:0009f6d0       mbstowcs                   00000001800a06d0 f   libucrtd:mbstowcs.obj
 0001:0009f730       mbstowcs_s                 00000001800a0730 f   libucrtd:mbstowcs.obj
 0001:000a05a0       _wcstombs_l                00000001800a15a0 f   libucrtd:wcstombs.obj
 0001:000a0610       _wcstombs_s_l              00000001800a1610 f   libucrtd:wcstombs.obj
 0001:000a06a0       wcstombs                   00000001800a16a0 f   libucrtd:wcstombs.obj
 0001:000a0700       wcstombs_s                 00000001800a1700 f   libucrtd:wcstombs.obj
 0001:000a0780       __acrt_OutputDebugStringA  00000001800a1780 f   libucrtd:outputdebugstringa.obj
 0001:000a0a60       _commit                    00000001800a1a60 f   libucrtd:commit.obj
 0001:000a2450       _utf8_no_of_trailbytes     00000001800a3450 f i libucrtd:write.obj
 0001:000a2470       _write                     00000001800a3470 f   libucrtd:write.obj
 0001:000a24d0       _write_internal            00000001800a34d0 f   libucrtd:write.obj
 0001:000a2870       _write_nolock              00000001800a3870 f   libucrtd:write.obj
 0001:000a30d0       qsort                      00000001800a40d0 f   libucrtd:qsort.obj
 0001:000a3f40       strncpy_s                  00000001800a4f40 f   libucrtd:strncpy_s.obj
 0001:000a40b0       strpbrk                    00000001800a50b0 f   libucrtd:strpbrk.obj
 0001:000a49a0       _mbsdec                    00000001800a59a0 f   libucrtd:mbsdec.obj
 0001:000a49d0       _mbsdec_l                  00000001800a59d0 f   libucrtd:mbsdec.obj
 0001:000a4c60       ??B?$__crt_scoped_stack_ptr@_W@@QEBA_NXZ 00000001800a5c60 f i libucrtd:lcmapstringa.obj
 0001:000a5290       __acrt_LCMapStringA        00000001800a6290 f   libucrtd:lcmapstringa.obj
 0001:000a5370       _wcsnicoll                 00000001800a6370 f   libucrtd:wcsnicol.obj
 0001:000a55c0       _wcsnicoll_l               00000001800a65c0 f   libucrtd:wcsnicol.obj
 0001:000a5900       _strnicoll                 00000001800a6900 f   libucrtd:strnicol.obj
 0001:000a5960       _strnicoll_l               00000001800a6960 f   libucrtd:strnicol.obj
 0001:000a5d60       __acrt_SetEnvironmentVariableA 00000001800a6d60 f   libucrtd:setenvironmentvariablea.obj
 0001:000a5fb0       __acrt_DownlevelLCIDToLocaleName 00000001800a6fb0 f   libucrtd:lcidtoname_downlevel.obj
 0001:000a60b0       __acrt_DownlevelLocaleNameToLCID 00000001800a70b0 f   libucrtd:lcidtoname_downlevel.obj
 0001:000a6110       _malloc_base               00000001800a7110 f   libucrtd:malloc_base.obj
 0001:000a61b0       __acrt_GetStringTypeW      00000001800a71b0 f   libucrtd:getstringtypew.obj
 0001:000a61f0       log10                      00000001800a71f0 f   libucrtd:log10.obj
 0001:000a67a0       ceil                       00000001800a77a0 f   libucrtd:ceil.obj
 0001:000a6970       _controlfp_s               00000001800a7970 f   libucrtd:contrlfp.obj
 0001:000a6aa0       fegetenv                   00000001800a7aa0 f   libucrtd:fegetenv.obj
 0001:000a6ad0       fesetenv                   00000001800a7ad0 f   libucrtd:fesetenv.obj
 0001:000a6b50       feholdexcept               00000001800a7b50 f   libucrtd:feholdexcept.obj
 0001:000a6bc0       ??$__acrt_fenv_shift_bits@W4__acrt_fenv_abstract_control@@@@YA?AW4__acrt_fenv_abstract_control@@W40@0I@Z 00000001800a7bc0 f i libucrtd:_fenvutils.obj
 0001:000a6bf0       ??$__acrt_fenv_shift_bits@W4__acrt_fenv_abstract_status@@@@YA?AW4__acrt_fenv_abstract_status@@W40@0I@Z 00000001800a7bf0 f i libucrtd:_fenvutils.obj
 0001:000a6c20       ??$__acrt_fenv_translate_bit@W4__acrt_fenv_abstract_control@@W4__acrt_fenv_machine_sse_control@@@@YA?AW4__acrt_fenv_abstract_control@@W4__acrt_fenv_machine_sse_control@@0W40@1@Z 00000001800a7c20 f i libucrtd:_fenvutils.obj
 0001:000a6c80       ??$__acrt_fenv_translate_bit@W4__acrt_fenv_abstract_status@@W4__acrt_fenv_machine_sse_status@@@@YA?AW4__acrt_fenv_abstract_status@@W4__acrt_fenv_machine_sse_status@@0W40@1@Z 00000001800a7c80 f i libucrtd:_fenvutils.obj
 0001:000a6cd0       ??$__acrt_fenv_translate_bit@W4__acrt_fenv_machine_sse_control@@W4__acrt_fenv_abstract_control@@@@YA?AW4__acrt_fenv_machine_sse_control@@W4__acrt_fenv_abstract_control@@0W40@1@Z 00000001800a7cd0 f i libucrtd:_fenvutils.obj
 0001:000a6d30       ??$__acrt_fenv_translate_bit@W4__acrt_fenv_machine_sse_status@@W4__acrt_fenv_abstract_status@@@@YA?AW4__acrt_fenv_machine_sse_status@@W4__acrt_fenv_abstract_status@@0W40@1@Z 00000001800a7d30 f i libucrtd:_fenvutils.obj
 0001:000a6d80       ??$__acrt_fenv_unshift_bits@W4__acrt_fenv_abstract_control@@@@YA?AW4__acrt_fenv_abstract_control@@W40@0I@Z 00000001800a7d80 f i libucrtd:_fenvutils.obj
 0001:000a6db0       ??$__acrt_fenv_unshift_bits@W4__acrt_fenv_abstract_status@@@@YA?AW4__acrt_fenv_abstract_status@@W40@0I@Z 00000001800a7db0 f i libucrtd:_fenvutils.obj
 0001:000a72a0       ??I@YA?AW4__acrt_fenv_abstract_control@@W40@0@Z 00000001800a82a0 f i libucrtd:_fenvutils.obj
 0001:000a72c0       ??I@YA?AW4__acrt_fenv_abstract_status@@W40@0@Z 00000001800a82c0 f i libucrtd:_fenvutils.obj
 0001:000a72e0       ??I@YA?AW4__acrt_fenv_machine_sse_control@@W40@0@Z 00000001800a82e0 f i libucrtd:_fenvutils.obj
 0001:000a7300       ??I@YA?AW4__acrt_fenv_machine_sse_status@@W40@0@Z 00000001800a8300 f i libucrtd:_fenvutils.obj
 0001:000a7320       ??U@YA?AW4__acrt_fenv_abstract_control@@W40@0@Z 00000001800a8320 f i libucrtd:_fenvutils.obj
 0001:000a7340       ??U@YA?AW4__acrt_fenv_abstract_status@@W40@0@Z 00000001800a8340 f i libucrtd:_fenvutils.obj
 0001:000a7360       ??U@YA?AW4__acrt_fenv_machine_sse_control@@W40@0@Z 00000001800a8360 f i libucrtd:_fenvutils.obj
 0001:000a7380       ??_5@YAAEAW4__acrt_fenv_abstract_control@@AEAW40@W40@@Z 00000001800a8380 f i libucrtd:_fenvutils.obj
 0001:000a73b0       ??_5@YAAEAW4__acrt_fenv_abstract_status@@AEAW40@W40@@Z 00000001800a83b0 f i libucrtd:_fenvutils.obj
 0001:000a73e0       ??_5@YAAEAW4__acrt_fenv_machine_sse_control@@AEAW40@W40@@Z 00000001800a83e0 f i libucrtd:_fenvutils.obj
 0001:000a7410       ??_5@YAAEAW4__acrt_fenv_machine_sse_status@@AEAW40@W40@@Z 00000001800a8410 f i libucrtd:_fenvutils.obj
 0001:000a7440       ?__acrt_fenv_shift_abstract_sse_control@@YA?AW4__acrt_fenv_abstract_control@@W41@@Z 00000001800a8440 f i libucrtd:_fenvutils.obj
 0001:000a7490       ?__acrt_fenv_shift_abstract_sse_status@@YA?AW4__acrt_fenv_abstract_status@@W41@@Z 00000001800a8490 f i libucrtd:_fenvutils.obj
 0001:000a74c0       ?__acrt_fenv_unshift_abstract_sse_control@@YA?AW4__acrt_fenv_abstract_control@@W41@@Z 00000001800a84c0 f i libucrtd:_fenvutils.obj
 0001:000a7510       ?__acrt_fenv_unshift_abstract_sse_status@@YA?AW4__acrt_fenv_abstract_status@@W41@@Z 00000001800a8510 f i libucrtd:_fenvutils.obj
 0001:000a7800       __acrt_fenv_expand_round_control 00000001800a8800 f   libucrtd:_fenvutils.obj
 0001:000a7830       __acrt_fenv_get_common_round_control 00000001800a8830 f   libucrtd:_fenvutils.obj
 0001:000a7850       __acrt_fenv_get_control    00000001800a8850 f   libucrtd:_fenvutils.obj
 0001:000a7880       __acrt_fenv_get_fp_status_word_from_exception_mask 00000001800a8880 f   libucrtd:_fenvutils.obj
 0001:000a78b0       __acrt_fenv_get_status     00000001800a88b0 f   libucrtd:_fenvutils.obj
 0001:000a78e0       __acrt_fenv_set_control    00000001800a88e0 f   libucrtd:_fenvutils.obj
 0001:000a7900       __acrt_fenv_set_status     00000001800a8900 f   libucrtd:_fenvutils.obj
 0001:000a7b40       __acrt_GetLocaleInfoA      00000001800a8b40 f   libucrtd:getlocaleinfoa.obj
 0001:000a7fa0       ?reset_and_return@__crt_mbstring@@YA_K_KPEAU_Mbstatet@@@Z 00000001800a8fa0 f   libucrtd:common_utf8.obj
 0001:000a7fe0       ?return_illegal_sequence@__crt_mbstring@@YA_KPEAU_Mbstatet@@AEAV__crt_cached_ptd_host@@@Z 00000001800a8fe0 f   libucrtd:common_utf8.obj
 0001:000a8040       ?__mbrtoc32_utf8@__crt_mbstring@@YA_KPEA_UPEBD_KPEAU_Mbstatet@@AEAV__crt_cached_ptd_host@@@Z 00000001800a9040 f   libucrtd:mbrtoc32.obj
 0001:000a8440       mbrtoc32                   00000001800a9440 f   libucrtd:mbrtoc32.obj
 0001:000a87d0       _fclose_nolock             00000001800a97d0 f   libucrtd:fclose.obj
 0001:000a8810       fclose                     00000001800a9810 f   libucrtd:fclose.obj
 0001:000a9380       _lseek                     00000001800aa380 f   libucrtd:lseek.obj
 0001:000a93e0       _lseek_internal            00000001800aa3e0 f   libucrtd:lseek.obj
 0001:000a9420       _lseek_nolock              00000001800aa420 f   libucrtd:lseek.obj
 0001:000a9480       _lseek_nolock_internal     00000001800aa480 f   libucrtd:lseek.obj
 0001:000a94c0       _lseeki64                  00000001800aa4c0 f   libucrtd:lseek.obj
 0001:000a9520       _lseeki64_internal         00000001800aa520 f   libucrtd:lseek.obj
 0001:000a9560       _lseeki64_nolock           00000001800aa560 f   libucrtd:lseek.obj
 0001:000a95c0       _lseeki64_nolock_internal  00000001800aa5c0 f   libucrtd:lseek.obj
 0001:000a9600       __acrt_stdio_allocate_buffer_nolock 00000001800aa600 f   libucrtd:_getbuf.obj
 0001:000a9780       __ascii_wcsicmp            00000001800aa780 f   libucrtd:wcsicmp.obj
 0001:000a9820       _towlower_fast_internal    00000001800aa820 f i libucrtd:wcsicmp.obj
 0001:000a9870       _towlower_internal         00000001800aa870 f i libucrtd:wcsicmp.obj
 0001:000a98b0       _wcsicmp                   00000001800aa8b0 f   libucrtd:wcsicmp.obj
 0001:000a9a50       _wcsicmp_l                 00000001800aaa50 f   libucrtd:wcsicmp.obj
 0001:000a9d30       __ascii_wcsnicmp           00000001800aad30 f   libucrtd:wcsnicmp.obj
 0001:000a9e00       _wcsnicmp                  00000001800aae00 f   libucrtd:wcsnicmp.obj
 0001:000a9fb0       _wcsnicmp_l                00000001800aafb0 f   libucrtd:wcsnicmp.obj
 0001:000aa2d0       ?__wcsrtombs_utf8@__crt_mbstring@@YA_KPEADPEAPEB_W_KPEAU_Mbstatet@@AEAV__crt_cached_ptd_host@@@Z 00000001800ab2d0 f   libucrtd:wcrtomb.obj
 0001:000aaf50       wcrtomb                    00000001800abf50 f   libucrtd:wcrtomb.obj
 0001:000aafd0       wcrtomb_s                  00000001800abfd0 f   libucrtd:wcrtomb.obj
 0001:000ab050       wcsrtombs                  00000001800ac050 f   libucrtd:wcrtomb.obj
 0001:000ab0d0       wcsrtombs_s                00000001800ac0d0 f   libucrtd:wcrtomb.obj
 0001:000ab710       wctob                      00000001800ac710 f   libucrtd:wcrtomb.obj
 0001:000ab990       _putwch                    00000001800ac990 f   libucrtd:putwch.obj
 0001:000ab9c0       _putwch_nolock             00000001800ac9c0 f   libucrtd:putwch.obj
 0001:000aba10       _putwch_nolock_internal    00000001800aca10 f   libucrtd:putwch.obj
 0001:000ac8f0       _read                      00000001800ad8f0 f   libucrtd:read.obj
 0001:000acc40       _read_nolock               00000001800adc40 f   libucrtd:read.obj
 0001:000ada00       __strncnt                  00000001800aea00 f   libucrtd:strncnt.obj
 0001:000ada60       __acrt_CompareStringW      00000001800aea60 f   libucrtd:comparestringw.obj
 0001:000adb90       __ascii_strnicmp           00000001800aeb90 f   libucrtd:strnicmp.obj
 0001:000adc60       _strnicmp                  00000001800aec60 f   libucrtd:strnicmp.obj
 0001:000adeb0       _strnicmp_l                00000001800aeeb0 f   libucrtd:strnicmp.obj
 0001:000ae8d0       __acrt_CompareStringA      00000001800af8d0 f   libucrtd:comparestringa.obj
 0001:000ae970       __acrt_initialize_fma3     00000001800af970 f   libucrtd:fma3_available.obj
 0001:000aea20       _get_FMA3_enable           00000001800afa20 f   libucrtd:fma3_available.obj
 0001:000aea30       _set_FMA3_enable           00000001800afa30 f   libucrtd:fma3_available.obj
 0001:000aea50       _log10_special             00000001800afa50 f   libucrtd:log_special.obj
 0001:000aeaa0       _log10f_special            00000001800afaa0 f   libucrtd:log_special.obj
 0001:000aeaf0       _log_special               00000001800afaf0 f   libucrtd:log_special.obj
 0001:000aec60       _logf_special              00000001800afc60 f   libucrtd:log_special.obj
 0001:000aefd0       _handle_error              00000001800affd0 f   libucrtd:libm_error.obj
 0001:000af160       _handle_errorf             00000001800b0160 f   libucrtd:libm_error.obj
 0001:000af2f0       _handle_nan                00000001800b02f0 f   libucrtd:libm_error.obj
 0001:000af340       _handle_nanf               00000001800b0340 f   libucrtd:libm_error.obj
 0001:000af570       _clearfp                   00000001800b0570 f   libucrtd:ieee.obj
 0001:000af590       _control87                 00000001800b0590 f   libucrtd:ieee.obj
 0001:000af5b0       _controlfp                 00000001800b05b0 f   libucrtd:ieee.obj
 0001:000af5e0       _fpreset                   00000001800b05e0 f   libucrtd:ieee.obj
 0001:000af750       _set_controlfp             00000001800b0750 f   libucrtd:ieee.obj
 0001:000af7b0       _statusfp                  00000001800b07b0 f   libucrtd:ieee.obj
 0001:000afc00       _close                     00000001800b0c00 f   libucrtd:close.obj
 0001:000afc40       _close_internal            00000001800b0c40 f   libucrtd:close.obj
 0001:000aff00       _close_nolock              00000001800b0f00 f   libucrtd:close.obj
 0001:000aff40       _close_nolock_internal     00000001800b0f40 f   libucrtd:close.obj
 0001:000affb0       ??$?RU__crt_stdio_stream_data@@@__crt_internal_free_policy@@QEBAXQEBU__crt_stdio_stream_data@@@Z 00000001800b0fb0 f i libucrtd:stream.obj
 0001:000affe0       ??0?$__crt_unique_heap_ptr@U__crt_stdio_stream_data@@U__crt_internal_free_policy@@@@QEAA@QEAU__crt_stdio_stream_data@@@Z 00000001800b0fe0 f i libucrtd:stream.obj
 0001:000b0000       ??0__crt_stdio_stream@@QEAA@XZ 00000001800b1000 f i libucrtd:stream.obj
 0001:000b0020       ??1?$__crt_unique_heap_ptr@U__crt_stdio_stream_data@@U__crt_internal_free_policy@@@@QEAA@XZ 00000001800b1020 f i libucrtd:stream.obj
 0001:000b0040       ?__acrt_stdio_allocate_stream@@YA?AV__crt_stdio_stream@@XZ 00000001800b1040 f   libucrtd:stream.obj
 0001:000b0100       ?__acrt_stdio_free_stream@@YAXV__crt_stdio_stream@@@Z 00000001800b1100 f   libucrtd:stream.obj
 0001:000b01a0       ?deallocate@__crt_stdio_stream@@QEAAXXZ 00000001800b11a0 f i libucrtd:stream.obj
 0001:000b01c0       ?detach@?$__crt_unique_heap_ptr@U__crt_stdio_stream_data@@U__crt_internal_free_policy@@@@QEAAPEAU__crt_stdio_stream_data@@XZ 00000001800b11c0 f i libucrtd:stream.obj
 0001:000b03a0       ?lock@__crt_stdio_stream@@QEBAXXZ 00000001800b13a0 f i libucrtd:stream.obj
 0001:000b03c0       ?release@?$__crt_unique_heap_ptr@U__crt_stdio_stream_data@@U__crt_internal_free_policy@@@@QEAAXXZ 00000001800b13c0 f i libucrtd:stream.obj
 0001:000b03f0       ?try_allocate@__crt_stdio_stream@@QEAA_NXZ 00000001800b13f0 f i libucrtd:stream.obj
 0001:000b0460       ?unlock@__crt_stdio_stream@@QEBAXXZ 00000001800b1460 f i libucrtd:stream.obj
 0001:000b0480       _towlower_l                00000001800b1480 f   libucrtd:towlower.obj
 0001:000b0620       towlower                   00000001800b1620 f   libucrtd:towlower.obj
 0001:000b0640       ?__c16rtomb_utf8@__crt_mbstring@@YA_KPEAD_SPEAU_Mbstatet@@AEAV__crt_cached_ptd_host@@@Z 00000001800b1640 f   libucrtd:c16rtomb.obj
 0001:000b0880       c16rtomb                   00000001800b1880 f   libucrtd:c16rtomb.obj
 0001:000b0a20       __dcrt_lowio_ensure_console_output_initialized 00000001800b1a20 f   libucrtd:initcon.obj
 0001:000b0a50       __dcrt_terminate_console_output 00000001800b1a50 f   libucrtd:initcon.obj
 0001:000b0a80       __dcrt_write_console       00000001800b1a80 f   libucrtd:initcon.obj
 0001:000b0ac0       ?should_round_up@__crt_strtox@@YA_N_N000@Z 00000001800b1ac0 f i libucrtd:fpexcept.obj
 0001:000b0bf0       _errcode                   00000001800b1bf0 f   libucrtd:fpexcept.obj
 0001:000b0c70       _except1                   00000001800b1c70 f   libucrtd:fpexcept.obj
 0001:000b0db0       _except2                   00000001800b1db0 f   libucrtd:fpexcept.obj
 0001:000b0f70       _handle_exc                00000001800b1f70 f   libucrtd:fpexcept.obj
 0001:000b1460       _handle_qnan2              00000001800b2460 f   libucrtd:fpexcept.obj
 0001:000b1490       _raise_exc                 00000001800b2490 f   libucrtd:fpexcept.obj
 0001:000b14f0       _raise_exc_ex              00000001800b24f0 f   libucrtd:fpexcept.obj
 0001:000b1b70       _raise_excf                00000001800b2b70 f   libucrtd:fpexcept.obj
 0001:000b1bd0       _set_errno_from_matherr    00000001800b2bd0 f   libucrtd:fpexcept.obj
 0001:000b1c20       _umatherr                  00000001800b2c20 f   libucrtd:fpexcept.obj
 0001:000b1cf0       _clrfp                     00000001800b2cf0 f   libucrtd:fpctrl.obj
 0001:000b1d20       _ctrlfp                    00000001800b2d20 f   libucrtd:fpctrl.obj
 0001:000b1dd0       _set_statfp                00000001800b2dd0 f   libucrtd:fpctrl.obj
 0001:000b1e10       _statfp                    00000001800b2e10 f   libucrtd:fpctrl.obj
 0001:000b1e50       _get_fpsr                  00000001800b2e50 f   libucrtd:fpsr.obj
 0001:000b1e60       _set_fpsr                  00000001800b2e60 f   libucrtd:fpsr.obj
 0001:000b1e6a       _fclrf                     00000001800b2e6a f   libucrtd:fpsr.obj
 0001:000b1e7e       _frnd                      00000001800b2e7e f   libucrtd:fpsr.obj
 0001:000b1ea0       __acrt_LCMapStringW        00000001800b2ea0 f   libucrtd:lcmapstringw.obj
 0001:000b1f60       _add_exp                   00000001800b2f60 f   libucrtd:util.obj
 0001:000b1fa0       _decomp                    00000001800b2fa0 f   libucrtd:util.obj
 0001:000b20f0       _get_exp                   00000001800b30f0 f   libucrtd:util.obj
 0001:000b2130       _set_bexp                  00000001800b3130 f   libucrtd:util.obj
 0001:000b2170       _set_exp                   00000001800b3170 f   libucrtd:util.obj
 0001:000b21c0       _sptype                    00000001800b31c0 f   libucrtd:util.obj
 0001:000b223b       ReleaseSRWLockExclusive    00000001800b323b f   kernel32:KERNEL32.dll
 0001:000b2241       AcquireSRWLockExclusive    00000001800b3241 f   kernel32:KERNEL32.dll
 0001:000b2247       WakeAllConditionVariable   00000001800b3247 f   kernel32:KERNEL32.dll
 0001:000b224d       SleepConditionVariableSRW  00000001800b324d f   kernel32:KERNEL32.dll
 0001:000b2253       RtlCaptureContext          00000001800b3253 f   kernel32:KERNEL32.dll
 0001:000b2259       RtlLookupFunctionEntry     00000001800b3259 f   kernel32:KERNEL32.dll
 0001:000b225f       RtlVirtualUnwind           00000001800b325f f   kernel32:KERNEL32.dll
 0001:000b2265       IsDebuggerPresent          00000001800b3265 f   kernel32:KERNEL32.dll
 0001:000b226b       UnhandledExceptionFilter   00000001800b326b f   kernel32:KERNEL32.dll
 0001:000b2271       SetUnhandledExceptionFilter 00000001800b3271 f   kernel32:KERNEL32.dll
 0001:000b2277       GetStartupInfoW            00000001800b3277 f   kernel32:KERNEL32.dll
 0001:000b227d       IsProcessorFeaturePresent  00000001800b327d f   kernel32:KERNEL32.dll
 0001:000b2283       GetModuleHandleW           00000001800b3283 f   kernel32:KERNEL32.dll
 0001:000b2289       GetCurrentProcess          00000001800b3289 f   kernel32:KERNEL32.dll
 0001:000b228f       TerminateProcess           00000001800b328f f   kernel32:KERNEL32.dll
 0001:000b2295       QueryPerformanceCounter    00000001800b3295 f   kernel32:KERNEL32.dll
 0001:000b229b       GetCurrentProcessId        00000001800b329b f   kernel32:KERNEL32.dll
 0001:000b22a1       GetCurrentThreadId         00000001800b32a1 f   kernel32:KERNEL32.dll
 0001:000b22a7       GetSystemTimeAsFileTime    00000001800b32a7 f   kernel32:KERNEL32.dll
 0001:000b22ad       InitializeSListHead        00000001800b32ad f   kernel32:KERNEL32.dll
 0001:000b22b3       InitializeCriticalSectionEx 00000001800b32b3 f   kernel32:KERNEL32.dll
 0001:000b22b9       RtlUnwindEx                00000001800b32b9 f   kernel32:KERNEL32.dll
 0001:000b22bf       RtlPcToFileHeader          00000001800b32bf f   kernel32:KERNEL32.dll
 0001:000b22c5       RaiseException             00000001800b32c5 f   kernel32:KERNEL32.dll
 0001:000b22cb       InterlockedPushEntrySList  00000001800b32cb f   kernel32:KERNEL32.dll
 0001:000b22d1       InterlockedFlushSList      00000001800b32d1 f   kernel32:KERNEL32.dll
 0001:000b22d7       GetLastError               00000001800b32d7 f   kernel32:KERNEL32.dll
 0001:000b22dd       SetLastError               00000001800b32dd f   kernel32:KERNEL32.dll
 0001:000b22e3       EncodePointer              00000001800b32e3 f   kernel32:KERNEL32.dll
 0001:000b22e9       InitializeCriticalSectionAndSpinCount 00000001800b32e9 f   kernel32:KERNEL32.dll
 0001:000b22ef       TlsAlloc                   00000001800b32ef f   kernel32:KERNEL32.dll
 0001:000b22f5       TlsGetValue                00000001800b32f5 f   kernel32:KERNEL32.dll
 0001:000b22fb       TlsSetValue                00000001800b32fb f   kernel32:KERNEL32.dll
 0001:000b2301       TlsFree                    00000001800b3301 f   kernel32:KERNEL32.dll
 0001:000b2307       FreeLibrary                00000001800b3307 f   kernel32:KERNEL32.dll
 0001:000b230d       GetProcAddress             00000001800b330d f   kernel32:KERNEL32.dll
 0001:000b2313       LoadLibraryExW             00000001800b3313 f   kernel32:KERNEL32.dll
 0001:000b2319       GetModuleFileNameW         00000001800b3319 f   kernel32:KERNEL32.dll
 0001:000b231f       GetModuleHandleExW         00000001800b331f f   kernel32:KERNEL32.dll
 0001:000b2325       GetStdHandle               00000001800b3325 f   kernel32:KERNEL32.dll
 0001:000b232b       GetFileType                00000001800b332b f   kernel32:KERNEL32.dll
 0001:000b2331       WriteConsoleW              00000001800b3331 f   kernel32:KERNEL32.dll
 0001:000b2337       ExitProcess                00000001800b3337 f   kernel32:KERNEL32.dll
 0001:000b233d       HeapAlloc                  00000001800b333d f   kernel32:KERNEL32.dll
 0001:000b2343       HeapSize                   00000001800b3343 f   kernel32:KERNEL32.dll
 0001:000b2349       HeapValidate               00000001800b3349 f   kernel32:KERNEL32.dll
 0001:000b234f       GetSystemInfo              00000001800b334f f   kernel32:KERNEL32.dll
 0001:000b2355       GetCurrentThread           00000001800b3355 f   kernel32:KERNEL32.dll
 0001:000b235b       WriteFile                  00000001800b335b f   kernel32:KERNEL32.dll
 0001:000b2361       SetConsoleCtrlHandler      00000001800b3361 f   kernel32:KERNEL32.dll
 0001:000b2367       FindClose                  00000001800b3367 f   kernel32:KERNEL32.dll
 0001:000b236d       FindFirstFileExW           00000001800b336d f   kernel32:KERNEL32.dll
 0001:000b2373       FindNextFileW              00000001800b3373 f   kernel32:KERNEL32.dll
 0001:000b2379       IsValidCodePage            00000001800b3379 f   kernel32:KERNEL32.dll
 0001:000b237f       GetACP                     00000001800b337f f   kernel32:KERNEL32.dll
 0001:000b2385       GetOEMCP                   00000001800b3385 f   kernel32:KERNEL32.dll
 0001:000b238b       GetCPInfo                  00000001800b338b f   kernel32:KERNEL32.dll
 0001:000b2391       GetCommandLineA            00000001800b3391 f   kernel32:KERNEL32.dll
 0001:000b2397       GetCommandLineW            00000001800b3397 f   kernel32:KERNEL32.dll
 0001:000b239d       MultiByteToWideChar        00000001800b339d f   kernel32:KERNEL32.dll
 0001:000b23a3       WideCharToMultiByte        00000001800b33a3 f   kernel32:KERNEL32.dll
 0001:000b23a9       GetEnvironmentStringsW     00000001800b33a9 f   kernel32:KERNEL32.dll
 0001:000b23af       FreeEnvironmentStringsW    00000001800b33af f   kernel32:KERNEL32.dll
 0001:000b23b5       SetEnvironmentVariableW    00000001800b33b5 f   kernel32:KERNEL32.dll
 0001:000b23bb       GetTempPathW               00000001800b33bb f   kernel32:KERNEL32.dll
 0001:000b23c1       FlsAlloc                   00000001800b33c1 f   kernel32:KERNEL32.dll
 0001:000b23c7       FlsGetValue                00000001800b33c7 f   kernel32:KERNEL32.dll
 0001:000b23cd       FlsSetValue                00000001800b33cd f   kernel32:KERNEL32.dll
 0001:000b23d3       FlsFree                    00000001800b33d3 f   kernel32:KERNEL32.dll
 0001:000b23d9       GetDateFormatW             00000001800b33d9 f   kernel32:KERNEL32.dll
 0001:000b23df       GetTimeFormatW             00000001800b33df f   kernel32:KERNEL32.dll
 0001:000b23e5       CompareStringW             00000001800b33e5 f   kernel32:KERNEL32.dll
 0001:000b23eb       LCMapStringW               00000001800b33eb f   kernel32:KERNEL32.dll
 0001:000b23f1       GetLocaleInfoW             00000001800b33f1 f   kernel32:KERNEL32.dll
 0001:000b23f7       IsValidLocale              00000001800b33f7 f   kernel32:KERNEL32.dll
 0001:000b23fd       GetUserDefaultLCID         00000001800b33fd f   kernel32:KERNEL32.dll
 0001:000b2403       EnumSystemLocalesW         00000001800b3403 f   kernel32:KERNEL32.dll
 0001:000b2409       GetProcessHeap             00000001800b3409 f   kernel32:KERNEL32.dll
 0001:000b240f       HeapFree                   00000001800b340f f   kernel32:KERNEL32.dll
 0001:000b2415       HeapReAlloc                00000001800b3415 f   kernel32:KERNEL32.dll
 0001:000b241b       HeapQueryInformation       00000001800b341b f   kernel32:KERNEL32.dll
 0001:000b2421       GetFileSizeEx              00000001800b3421 f   kernel32:KERNEL32.dll
 0001:000b2427       SetFilePointerEx           00000001800b3427 f   kernel32:KERNEL32.dll
 0001:000b242d       GetStringTypeW             00000001800b342d f   kernel32:KERNEL32.dll
 0001:000b2433       SetStdHandle               00000001800b3433 f   kernel32:KERNEL32.dll
 0001:000b2439       FlushFileBuffers           00000001800b3439 f   kernel32:KERNEL32.dll
 0001:000b243f       GetConsoleOutputCP         00000001800b343f f   kernel32:KERNEL32.dll
 0001:000b2445       GetConsoleMode             00000001800b3445 f   kernel32:KERNEL32.dll
 0001:000b244b       ReadFile                   00000001800b344b f   kernel32:KERNEL32.dll
 0001:000b2451       ReadConsoleW               00000001800b3451 f   kernel32:KERNEL32.dll
 0001:000b2457       CreateFileW                00000001800b3457 f   kernel32:KERNEL32.dll
 0001:000b2460       _FindPESection             00000001800b3460 f   LIBCMTD:pesect.obj
 0001:000b2510       _IsNonwritableInCurrentImage 00000001800b3510 f   LIBCMTD:pesect.obj
 0001:000b25a0       _ValidateImageBase         00000001800b35a0 f   LIBCMTD:pesect.obj
 0001:000b2620       __GSHandlerCheck_SEH       00000001800b3620 f   LIBCMTD:gshandlerseh.obj
 0001:000b26f0       __chkstk                   00000001800b36f0 f   LIBCMTD:chkstk.obj
 0001:000b26f0       _alloca_probe              00000001800b36f0 f   LIBCMTD:chkstk.obj
 0001:000b2740       __GSHandlerCheck_EH        00000001800b3740 f   LIBCMTD:gshandlereh.obj
 0001:000b27f0       __C_specific_handler_noexcept 00000001800b37f0 f   libvcruntimed:chandler_noexcept.obj
 0001:000b2880       strrchr                    00000001800b3880 f   libvcruntimed:strrchr.obj
 0001:000b2cb0       _local_unwind              00000001800b3cb0 f   libvcruntimed:jmpuwind.obj
 0001:000b2ce0       strchr                     00000001800b3ce0 f   libvcruntimed:strchr.obj
 0001:000b2e70       wcschr                     00000001800b3e70 f   libvcruntimed:wcschr.obj
 0001:000b2fbc       RtlUnwind                  00000001800b3fbc f   kernel32:KERNEL32.dll
 0001:000b2fe0       _guard_dispatch_icall_nop  00000001800b3fe0 f   LIBCMTD:guard_dispatch.obj
 0001:000b3000       _guard_xfg_dispatch_icall_nop 00000001800b4000 f   LIBCMTD:guard_xfg_dispatch.obj
 0001:000b3030       memcpy_repmovs             00000001800b4030 f   libvcruntimed:memcpy.obj
 0001:000b3040       memcpy                     00000001800b4040 f   libvcruntimed:memcpy.obj
 0001:000b3040       memcpy_$fo_default$        00000001800b4040     libvcruntimed:memcpy.obj
 0001:000b3040       memmove                    00000001800b4040 f   libvcruntimed:memcpy.obj
 0001:000b36d0       memset_repstos             00000001800b46d0 f   libvcruntimed:memset.obj
 0001:000b36e0       memset                     00000001800b46e0 f   libvcruntimed:memset.obj
 0001:000b3a80       memcmp                     00000001800b4a80 f   libvcruntimed:memcmp.obj
 0002:00000000       __imp_OutputDebugStringW   00000001800b6000     kernel32:KERNEL32.dll
 0002:00000008       __imp_InitializeCriticalSection 00000001800b6008     kernel32:KERNEL32.dll
 0002:00000010       __imp_EnterCriticalSection 00000001800b6010     kernel32:KERNEL32.dll
 0002:00000018       __imp_LeaveCriticalSection 00000001800b6018     kernel32:KERNEL32.dll
 0002:00000020       __imp_DeleteCriticalSection 00000001800b6020     kernel32:KERNEL32.dll
 0002:00000028       __imp_CloseHandle          00000001800b6028     kernel32:KERNEL32.dll
 0002:00000030       __imp_SetEvent             00000001800b6030     kernel32:KERNEL32.dll
 0002:00000038       __imp_ResetEvent           00000001800b6038     kernel32:KERNEL32.dll
 0002:00000040       __imp_ReleaseMutex         00000001800b6040     kernel32:KERNEL32.dll
 0002:00000048       __imp_WaitForSingleObject  00000001800b6048     kernel32:KERNEL32.dll
 0002:00000050       __imp_CreateMutexW         00000001800b6050     kernel32:KERNEL32.dll
 0002:00000058       __imp_OpenMutexW           00000001800b6058     kernel32:KERNEL32.dll
 0002:00000060       __imp_CreateEventW         00000001800b6060     kernel32:KERNEL32.dll
 0002:00000068       __imp_OpenEventW           00000001800b6068     kernel32:KERNEL32.dll
 0002:00000070       __imp_CreateFileMappingW   00000001800b6070     kernel32:KERNEL32.dll
 0002:00000078       __imp_OpenFileMappingW     00000001800b6078     kernel32:KERNEL32.dll
 0002:00000080       __imp_MapViewOfFile        00000001800b6080     kernel32:KERNEL32.dll
 0002:00000088       __imp_UnmapViewOfFile      00000001800b6088     kernel32:KERNEL32.dll
 0002:00000090       __imp_CreateFileW          00000001800b6090     kernel32:KERNEL32.dll
 0002:00000098       __imp_ReadConsoleW         00000001800b6098     kernel32:KERNEL32.dll
 0002:000000a0       __imp_ReadFile             00000001800b60a0     kernel32:KERNEL32.dll
 0002:000000a8       __imp_GetConsoleMode       00000001800b60a8     kernel32:KERNEL32.dll
 0002:000000b0       __imp_GetConsoleOutputCP   00000001800b60b0     kernel32:KERNEL32.dll
 0002:000000b8       __imp_ReleaseSRWLockExclusive 00000001800b60b8     kernel32:KERNEL32.dll
 0002:000000c0       __imp_AcquireSRWLockExclusive 00000001800b60c0     kernel32:KERNEL32.dll
 0002:000000c8       __imp_WakeAllConditionVariable 00000001800b60c8     kernel32:KERNEL32.dll
 0002:000000d0       __imp_SleepConditionVariableSRW 00000001800b60d0     kernel32:KERNEL32.dll
 0002:000000d8       __imp_RtlCaptureContext    00000001800b60d8     kernel32:KERNEL32.dll
 0002:000000e0       __imp_RtlLookupFunctionEntry 00000001800b60e0     kernel32:KERNEL32.dll
 0002:000000e8       __imp_RtlVirtualUnwind     00000001800b60e8     kernel32:KERNEL32.dll
 0002:000000f0       __imp_IsDebuggerPresent    00000001800b60f0     kernel32:KERNEL32.dll
 0002:000000f8       __imp_UnhandledExceptionFilter 00000001800b60f8     kernel32:KERNEL32.dll
 0002:00000100       __imp_SetUnhandledExceptionFilter 00000001800b6100     kernel32:KERNEL32.dll
 0002:00000108       __imp_GetStartupInfoW      00000001800b6108     kernel32:KERNEL32.dll
 0002:00000110       __imp_IsProcessorFeaturePresent 00000001800b6110     kernel32:KERNEL32.dll
 0002:00000118       __imp_GetModuleHandleW     00000001800b6118     kernel32:KERNEL32.dll
 0002:00000120       __imp_GetCurrentProcess    00000001800b6120     kernel32:KERNEL32.dll
 0002:00000128       __imp_TerminateProcess     00000001800b6128     kernel32:KERNEL32.dll
 0002:00000130       __imp_QueryPerformanceCounter 00000001800b6130     kernel32:KERNEL32.dll
 0002:00000138       __imp_GetCurrentProcessId  00000001800b6138     kernel32:KERNEL32.dll
 0002:00000140       __imp_GetCurrentThreadId   00000001800b6140     kernel32:KERNEL32.dll
 0002:00000148       __imp_GetSystemTimeAsFileTime 00000001800b6148     kernel32:KERNEL32.dll
 0002:00000150       __imp_InitializeSListHead  00000001800b6150     kernel32:KERNEL32.dll
 0002:00000158       __imp_InitializeCriticalSectionEx 00000001800b6158     kernel32:KERNEL32.dll
 0002:00000160       __imp_RtlUnwindEx          00000001800b6160     kernel32:KERNEL32.dll
 0002:00000168       __imp_RtlPcToFileHeader    00000001800b6168     kernel32:KERNEL32.dll
 0002:00000170       __imp_RaiseException       00000001800b6170     kernel32:KERNEL32.dll
 0002:00000178       __imp_InterlockedPushEntrySList 00000001800b6178     kernel32:KERNEL32.dll
 0002:00000180       __imp_InterlockedFlushSList 00000001800b6180     kernel32:KERNEL32.dll
 0002:00000188       __imp_GetLastError         00000001800b6188     kernel32:KERNEL32.dll
 0002:00000190       __imp_SetLastError         00000001800b6190     kernel32:KERNEL32.dll
 0002:00000198       __imp_EncodePointer        00000001800b6198     kernel32:KERNEL32.dll
 0002:000001a0       __imp_InitializeCriticalSectionAndSpinCount 00000001800b61a0     kernel32:KERNEL32.dll
 0002:000001a8       __imp_TlsAlloc             00000001800b61a8     kernel32:KERNEL32.dll
 0002:000001b0       __imp_TlsGetValue          00000001800b61b0     kernel32:KERNEL32.dll
 0002:000001b8       __imp_TlsSetValue          00000001800b61b8     kernel32:KERNEL32.dll
 0002:000001c0       __imp_TlsFree              00000001800b61c0     kernel32:KERNEL32.dll
 0002:000001c8       __imp_FreeLibrary          00000001800b61c8     kernel32:KERNEL32.dll
 0002:000001d0       __imp_GetProcAddress       00000001800b61d0     kernel32:KERNEL32.dll
 0002:000001d8       __imp_LoadLibraryExW       00000001800b61d8     kernel32:KERNEL32.dll
 0002:000001e0       __imp_GetModuleFileNameW   00000001800b61e0     kernel32:KERNEL32.dll
 0002:000001e8       __imp_GetModuleHandleExW   00000001800b61e8     kernel32:KERNEL32.dll
 0002:000001f0       __imp_GetStdHandle         00000001800b61f0     kernel32:KERNEL32.dll
 0002:000001f8       __imp_GetFileType          00000001800b61f8     kernel32:KERNEL32.dll
 0002:00000200       __imp_WriteConsoleW        00000001800b6200     kernel32:KERNEL32.dll
 0002:00000208       __imp_ExitProcess          00000001800b6208     kernel32:KERNEL32.dll
 0002:00000210       __imp_HeapAlloc            00000001800b6210     kernel32:KERNEL32.dll
 0002:00000218       __imp_HeapSize             00000001800b6218     kernel32:KERNEL32.dll
 0002:00000220       __imp_HeapValidate         00000001800b6220     kernel32:KERNEL32.dll
 0002:00000228       __imp_GetSystemInfo        00000001800b6228     kernel32:KERNEL32.dll
 0002:00000230       __imp_GetCurrentThread     00000001800b6230     kernel32:KERNEL32.dll
 0002:00000238       __imp_WriteFile            00000001800b6238     kernel32:KERNEL32.dll
 0002:00000240       __imp_SetConsoleCtrlHandler 00000001800b6240     kernel32:KERNEL32.dll
 0002:00000248       __imp_FindClose            00000001800b6248     kernel32:KERNEL32.dll
 0002:00000250       __imp_FindFirstFileExW     00000001800b6250     kernel32:KERNEL32.dll
 0002:00000258       __imp_FindNextFileW        00000001800b6258     kernel32:KERNEL32.dll
 0002:00000260       __imp_IsValidCodePage      00000001800b6260     kernel32:KERNEL32.dll
 0002:00000268       __imp_GetACP               00000001800b6268     kernel32:KERNEL32.dll
 0002:00000270       __imp_GetOEMCP             00000001800b6270     kernel32:KERNEL32.dll
 0002:00000278       __imp_GetCPInfo            00000001800b6278     kernel32:KERNEL32.dll
 0002:00000280       __imp_GetCommandLineA      00000001800b6280     kernel32:KERNEL32.dll
 0002:00000288       __imp_GetCommandLineW      00000001800b6288     kernel32:KERNEL32.dll
 0002:00000290       __imp_MultiByteToWideChar  00000001800b6290     kernel32:KERNEL32.dll
 0002:00000298       __imp_WideCharToMultiByte  00000001800b6298     kernel32:KERNEL32.dll
 0002:000002a0       __imp_GetEnvironmentStringsW 00000001800b62a0     kernel32:KERNEL32.dll
 0002:000002a8       __imp_FreeEnvironmentStringsW 00000001800b62a8     kernel32:KERNEL32.dll
 0002:000002b0       __imp_SetEnvironmentVariableW 00000001800b62b0     kernel32:KERNEL32.dll
 0002:000002b8       __imp_GetTempPathW         00000001800b62b8     kernel32:KERNEL32.dll
 0002:000002c0       __imp_FlsAlloc             00000001800b62c0     kernel32:KERNEL32.dll
 0002:000002c8       __imp_FlsGetValue          00000001800b62c8     kernel32:KERNEL32.dll
 0002:000002d0       __imp_FlsSetValue          00000001800b62d0     kernel32:KERNEL32.dll
 0002:000002d8       __imp_FlsFree              00000001800b62d8     kernel32:KERNEL32.dll
 0002:000002e0       __imp_GetDateFormatW       00000001800b62e0     kernel32:KERNEL32.dll
 0002:000002e8       __imp_GetTimeFormatW       00000001800b62e8     kernel32:KERNEL32.dll
 0002:000002f0       __imp_CompareStringW       00000001800b62f0     kernel32:KERNEL32.dll
 0002:000002f8       __imp_LCMapStringW         00000001800b62f8     kernel32:KERNEL32.dll
 0002:00000300       __imp_GetLocaleInfoW       00000001800b6300     kernel32:KERNEL32.dll
 0002:00000308       __imp_IsValidLocale        00000001800b6308     kernel32:KERNEL32.dll
 0002:00000310       __imp_GetUserDefaultLCID   00000001800b6310     kernel32:KERNEL32.dll
 0002:00000318       __imp_EnumSystemLocalesW   00000001800b6318     kernel32:KERNEL32.dll
 0002:00000320       __imp_GetProcessHeap       00000001800b6320     kernel32:KERNEL32.dll
 0002:00000328       __imp_HeapFree             00000001800b6328     kernel32:KERNEL32.dll
 0002:00000330       __imp_HeapReAlloc          00000001800b6330     kernel32:KERNEL32.dll
 0002:00000338       __imp_HeapQueryInformation 00000001800b6338     kernel32:KERNEL32.dll
 0002:00000340       __imp_GetFileSizeEx        00000001800b6340     kernel32:KERNEL32.dll
 0002:00000348       __imp_SetFilePointerEx     00000001800b6348     kernel32:KERNEL32.dll
 0002:00000350       __imp_GetStringTypeW       00000001800b6350     kernel32:KERNEL32.dll
 0002:00000358       __imp_SetStdHandle         00000001800b6358     kernel32:KERNEL32.dll
 0002:00000360       __imp_FlushFileBuffers     00000001800b6360     kernel32:KERNEL32.dll
 0002:00000368       __imp_RtlUnwind            00000001800b6368     kernel32:KERNEL32.dll
 0002:00000370       \177KERNEL32_NULL_THUNK_DATA 00000001800b6370     kernel32:KERNEL32.dll
 0002:00000378       __imp_timeGetDevCaps       00000001800b6378     winmm:WINMM.dll
 0002:00000380       __imp_timeBeginPeriod      00000001800b6380     winmm:WINMM.dll
 0002:00000388       __imp_timeEndPeriod        00000001800b6388     winmm:WINMM.dll
 0002:00000390       \177WINMM_NULL_THUNK_DATA  00000001800b6390     winmm:WINMM.dll
 0002:00000398       __guard_check_icall_fptr   00000001800b6398     LIBCMTD:guard_support.obj
 0002:000003a0       __guard_xfg_check_icall_fptr 00000001800b63a0     LIBCMTD:guard_support.obj
 0002:000003a8       __guard_dispatch_icall_fptr 00000001800b63a8     LIBCMTD:guard_support.obj
 0002:000003b0       __guard_xfg_dispatch_icall_fptr 00000001800b63b0     LIBCMTD:guard_support.obj
 0002:000003b8       __guard_xfg_table_dispatch_icall_fptr 00000001800b63b8     LIBCMTD:guard_support.obj
 0002:000003c0       __castguard_check_failure_os_handled_fptr 00000001800b63c0     LIBCMTD:guard_support.obj
 0002:000003c8       __guard_memcpy_fptr        00000001800b63c8     libvcruntimed:softmemtag.obj
 0002:000003d0       __xc_a                     00000001800b63d0     LIBCMTD:initializers.obj
 0002:000003e0       __xc_z                     00000001800b63e0     LIBCMTD:initializers.obj
 0002:000003e8       __xi_a                     00000001800b63e8     LIBCMTD:initializers.obj
 0002:000003f0       __acrt_stdio_initializer   00000001800b63f0     libucrtd:stdio_initializer.obj
 0002:000003f8       __acrt_multibyte_initializer 00000001800b63f8     libucrtd:multibyte_initializer.obj
 0002:00000400       __acrt_tran_fma3_initializer 00000001800b6400     libucrtd:fma3_initializer.obj
 0002:00000408       __xi_z                     00000001800b6408     LIBCMTD:initializers.obj
 0002:00000410       __xl_a                     00000001800b6410     LIBCMTD:tlssup.obj
 0002:00000418       __xl_z                     00000001800b6418     LIBCMTD:tlssup.obj
 0002:00000420       __xp_a                     00000001800b6420     LIBCMTD:initializers.obj
 0002:00000428       __acrt_locale_terminator   00000001800b6428     libucrtd:locale_initializer.obj
 0002:00000430       __dcrt_console_output_terminator 00000001800b6430     libucrtd:console_output_initializer.obj
 0002:00000438       __acrt_stdio_terminator    00000001800b6438     libucrtd:stdio_initializer.obj
 0002:00000440       __xp_z                     00000001800b6440     LIBCMTD:initializers.obj
 0002:00000448       __xt_a                     00000001800b6448     LIBCMTD:initializers.obj
 0002:00000450       __xt_z                     00000001800b6450     LIBCMTD:initializers.obj
 0002:00000470       ??_7KamelasBase@kamelaslib@@6B@ 00000001800b6470     kamelasbase.obj
 0002:000004b8       ??_7KamelasFactory@kamelaslib@@6B@ 00000001800b64b8     kamelasfactory.obj
 0002:00000908       ??_7KamelasManager@kamelaslib@@6B@ 00000001800b6908     kamelasmanager.obj
 0002:00000918       ??_7exception@std@@6B@     00000001800b6918     kamelasmanager.obj
 0002:00000928       ??_C@_0BC@EOODALEL@Unknown?5exception@ 00000001800b6928     kamelasmanager.obj
 0002:00000948       ??_7bad_alloc@std@@6B@     00000001800b6948     kamelasmanager.obj
 0002:00000960       ??_7bad_array_new_length@std@@6B@ 00000001800b6960     kamelasmanager.obj
 0002:00000970       ??_C@_0BF@KINCDENJ@bad?5array?5new?5length@ 00000001800b6970     kamelasmanager.obj
 0002:00000988       ??_C@_0BB@FCMFBGOM@invalid?5argument@ 00000001800b6988     kamelasmanager.obj
 0002:0000099c       ??_C@_02DKCKIIND@?$CFs@    00000001800b699c     kamelasmanager.obj
 0002:000009a0       ??_C@_0GF@NPDOFLAB@C?3?2Program?5Files?2Microsoft?5Visu@ 00000001800b69a0     kamelasmanager.obj
 0002:00000a10       ??_C@_1MK@MHCAJML@?$AAC?$AA?3?$AA?2?$AAP?$AAr?$AAo?$AAg?$AAr?$AAa?$AAm?$AA?5?$AAF?$AAi?$AAl?$AAe@ 00000001800b6a10     kamelasmanager.obj
 0002:00000adc       ??_C@_11LOCGONAA@@         00000001800b6adc     kamelasmanager.obj
 0002:00000ae0       ??_C@_1CG@JNLFBNGN@?$AA?$CC?$AAi?$AAn?$AAv?$AAa?$AAl?$AAi?$AAd?$AA?5?$AAa?$AAr?$AAg?$AAu?$AAm?$AAe@ 00000001800b6ae0     kamelasmanager.obj
 0002:00000b08       ??_C@_0BJ@LFDBABJJ@ITERATOR?5LIST?5CORRUPTED?$CB@ 00000001800b6b08     kamelasmanager.obj
 0002:00000b28       ??_C@_1DG@PLBPCAEM@?$AA?$CC?$AAI?$AAT?$AAE?$AAR?$AAA?$AAT?$AAO?$AAR?$AA?5?$AAL?$AAI?$AAS?$AAT?$AA?5@ 00000001800b6b28     kamelasmanager.obj
 0002:00000b60       ??_C@_0BB@GCADKGJO@map?1set?5too?5long@ 00000001800b6b60     kamelasmanager.obj
 0002:00000b80       ??_7KamelasManagerPimpl@kamelaslib@@6B@ 00000001800b6b80     kamelasmanager.obj
 0002:00000b90       ??_C@_1HA@FMLCKGGD@?$AAC?$AA?3?$AA?2?$AAK?$AAO?$AAS?$AAE?$AAS?$AA?2?$AA2?$AAn?$AAd?$AA?5?$AAM?$AAa@ 00000001800b6b90     kamelasmanager.obj
 0002:00000c00       ??_C@_1BI@KJGNJOKK@?$AAN?$AAU?$AAL?$AAL?$AA?5?$AA?$CB?$AA?$DN?$AA?5?$AAp?$AAc?$AAs@ 00000001800b6c00     kamelasmanager.obj
 0002:00000c18       ??_C@_0BP@OLDKBHLM@map?1set?5iterators?5incompatible@ 00000001800b6c18     kamelasmanager.obj
 0002:00000c40       ??_C@_0GD@IAPCJBPG@C?3?2Program?5Files?2Microsoft?5Visu@ 00000001800b6c40     kamelasmanager.obj
 0002:00000cb0       ??_C@_1MG@OGIBKKEM@?$AAC?$AA?3?$AA?2?$AAP?$AAr?$AAo?$AAg?$AAr?$AAa?$AAm?$AA?5?$AAF?$AAi?$AAl?$AAe@ 00000001800b6cb0     kamelasmanager.obj
 0002:00000d80       ??_C@_1EC@JLIDLCDH@?$AA?$CC?$AAm?$AAa?$AAp?$AA?1?$AAs?$AAe?$AAt?$AA?5?$AAi?$AAt?$AAe?$AAr?$AAa?$AAt@ 00000001800b6d80     kamelasmanager.obj
 0002:00000dc8       ??_C@_0DE@DMNPKCGM@cannot?5increment?5value?9initiali@ 00000001800b6dc8     kamelasmanager.obj
