 SLOG_V1.0

 Timestamp is 6942032f (Wed Dec 17 10:11:11 2025)

 Preferred load address is 0000000180000000

 Start         Length     Name                   Class
 0001:00000000 000b8080H .text$mn                CODE
 0001:000b8080 00000060H .text$mn$00             CODE
 0001:000b80e0 00000e80H .text$mn$21             CODE
 0001:000b8f60 0000105dH .text$x                 CODE
 0002:00000000 00000370H .idata$5                DATA
 0002:00000370 00000038H .00cfg                  DATA
 0002:000003a8 00000008H .CRT$XCA                DATA
 0002:000003b0 00000008H .CRT$XCZ                DATA
 0002:000003b8 00000008H .CRT$XIA                DATA
 0002:000003c0 00000018H .CRT$XIC                DATA
 0002:000003d8 00000008H .CRT$XIZ                DATA
 0002:000003e0 00000008H .CRT$XPA                DATA
 0002:000003e8 00000010H .CRT$XPX                DATA
 0002:000003f8 00000008H .CRT$XPXA               DATA
 0002:00000400 00000008H .CRT$XPZ                DATA
 0002:00000408 00000008H .CRT$XTA                DATA
 0002:00000410 00000010H .CRT$XTZ                DATA
 0002:00000418 00000000H .gehcont$y              DATA
 0002:00000418 00000000H .gfids$y                DATA
 0002:00000420 00024680H .rdata                  DATA
 0002:00024aa0 00000160H .rdata$00               DATA
 0002:00024c00 00000080H .rdata$CastGuardVftablesA DATA
 0002:00024c80 00000080H .rdata$CastGuardVftablesC DATA
 0002:00024d00 0000075cH .rdata$r                DATA
 0002:0002545c 000001acH .rdata$voltmd           DATA
 0002:00025608 00000458H .rdata$zzzdbg           DATA
 0002:00025a60 00000008H .rtc$IAA                DATA
 0002:00025a68 00000018H .rtc$IMZ                DATA
 0002:00025a80 00000008H .rtc$IZZ                DATA
 0002:00025a88 00000008H .rtc$TAA                DATA
 0002:00025a90 00000018H .rtc$TMZ                DATA
 0002:00025aa8 00000008H .rtc$TZZ                DATA
 0002:00025ab0 00007610H .xdata                  DATA
 0002:0002d0c0 00000150H .xdata$x                DATA
 0002:0002d210 0000024cH .edata                  DATA
 0002:0002d45c 00000014H .idata$2                DATA
 0002:0002d470 00000018H .idata$3                DATA
 0002:0002d488 00000370H .idata$4                DATA
 0002:0002d7f8 0000080cH .idata$6                DATA
 0003:00000000 00000b10H .data                   DATA
 0003:00000b10 000000a8H .data$r                 DATA
 0003:00000bb8 00000198H .data$rs                DATA
 0003:00000d50 000019c0H .bss                    DATA
 0004:00000000 00008a90H .pdata                  DATA
 0005:00000000 00000100H .fptable                DATA
 0006:00000000 00000060H .rsrc$01                DATA
 0006:00000060 00000180H .rsrc$02                DATA

  Address         Publics by Value              Rva+Base               Lib:Object

 0000:00000000       __AbsoluteZero             0000000000000000     <absolute>
 0000:00000000       ___safe_se_handler_count   0000000000000000     <absolute>
 0000:00000000       ___safe_se_handler_table   0000000000000000     <absolute>
 0000:00000000       __arm64x_extra_rfe_table   0000000000000000     <absolute>
 0000:00000000       __arm64x_extra_rfe_table_size 0000000000000000     <absolute>
 0000:00000000       __arm64x_native_entrypoint 0000000000000000     <absolute>
 0000:00000000       __arm64x_redirection_metadata 0000000000000000     <absolute>
 0000:00000000       __arm64x_redirection_metadata_count 0000000000000000     <absolute>
 0000:00000000       __dynamic_value_reloc_table 0000000000000000     <absolute>
 0000:00000000       __enclave_config           0000000000000000     <absolute>
 0000:00000000       __guard_check_icall_a64n_fptr 0000000000000000     <absolute>
 0000:00000000       __guard_eh_cont_count      0000000000000000     <absolute>
 0000:00000000       __guard_eh_cont_table      0000000000000000     <absolute>
 0000:00000000       __guard_fids_count         0000000000000000     <absolute>
 0000:00000000       __guard_fids_table         0000000000000000     <absolute>
 0000:00000000       __guard_iat_count          0000000000000000     <absolute>
 0000:00000000       __guard_iat_table          0000000000000000     <absolute>
 0000:00000000       __guard_longjmp_count      0000000000000000     <absolute>
 0000:00000000       __guard_longjmp_table      0000000000000000     <absolute>
 0000:00000000       __hybrid_auxiliary_delayload_iat 0000000000000000     <absolute>
 0000:00000000       __hybrid_auxiliary_delayload_iat_copy 0000000000000000     <absolute>
 0000:00000000       __hybrid_auxiliary_iat     0000000000000000     <absolute>
 0000:00000000       __hybrid_auxiliary_iat_copy 0000000000000000     <absolute>
 0000:00000000       __hybrid_code_map          0000000000000000     <absolute>
 0000:00000000       __hybrid_code_map_count    0000000000000000     <absolute>
 0000:00000000       __hybrid_image_info_bitfield 0000000000000000     <absolute>
 0000:00000000       __x64_code_ranges_to_entry_points 0000000000000000     <absolute>
 0000:00000000       __x64_code_ranges_to_entry_points_count 0000000000000000     <absolute>
 0000:00000100       __guard_flags              0000000000000100     <absolute>
 0000:00000000       __ImageBase                0000000180000000     <linker-defined>
 0001:00000000       DllMain                    0000000180001000 f   main.obj
 0001:00000050       ??0SLogBase@sloglib@@QEAA@AEBV01@@Z 0000000180001050 f i main.obj
 0001:00000080       ??0SLogBase@sloglib@@QEAA@XZ 0000000180001080 f i main.obj
 0001:000000a0       ??0SMemoryBase@sloglib@@QEAA@AEBV01@@Z 00000001800010a0 f i main.obj
 0001:000000d0       ??0SMemoryBase@sloglib@@QEAA@XZ 00000001800010d0 f i main.obj
 0001:000000f0       ??4SLogBase@sloglib@@QEAAAEAV01@AEBV01@@Z 00000001800010f0 f i main.obj
 0001:00000110       ??4SMemoryBase@sloglib@@QEAAAEAV01@AEBV01@@Z 0000000180001110 f i main.obj
 0001:00000130       ??_ESLogBase@sloglib@@UEAAPEAXI@Z 0000000180001130 f i main.obj
 0001:000001e0       ??_ESMemoryBase@sloglib@@UEAAPEAXI@Z 00000001800011e0 f i main.obj
 0001:00000290       ??_GSLogBase@sloglib@@UEAAPEAXI@Z 0000000180001290 f i main.obj
 0001:000002d0       ??_GSMemoryBase@sloglib@@UEAAPEAXI@Z 00000001800012d0 f i main.obj
 0001:00000310       ?__empty_global_delete@@YAXPEAX@Z 0000000180001310 f i main.obj
 0001:00000320       ?__empty_global_delete@@YAXPEAX_K@Z 0000000180001320 f i main.obj
 0001:00000330       ??1SMemoryBase@sloglib@@UEAA@XZ 0000000180001330 f   SLogBase.obj
 0001:00000350       CreateSMemory              0000000180001350 f   SLogBase.obj
 0001:000003e0       DestroySMemory             00000001800013e0 f   SLogBase.obj
 0001:00000430       ??1SLogBase@sloglib@@UEAA@XZ 0000000180001430 f   SLogBase.obj
 0001:00000450       CreateSLog                 0000000180001450 f   SLogBase.obj
 0001:000004c0       DestroySLog                00000001800014c0 f   SLogBase.obj
 0001:00000510       ?open@SMemory@sloglib@@UEAAHXZ 0000000180001510 f   SLog.obj
 0001:00000b40       ?close@SMemory@sloglib@@UEAAHXZ 0000000180001b40 f   SLog.obj
 0001:00000c60       ?recv@SMemory@sloglib@@UEAAHAEAVData@2@I@Z 0000000180001c60 f   SLog.obj
 0001:00000fb0       ?send@SMemory@sloglib@@UEAAHAEAVData@2@I@Z 0000000180001fb0 f   SLog.obj
 0001:000010f0       ??0SMemory@sloglib@@QEAA@PEBD00@Z 00000001800020f0 f   SLog.obj
 0001:00001230       ??1SMemory@sloglib@@UEAA@XZ 0000000180002230 f   SLog.obj
 0001:000012a0       ?logOverFlow@SLog@sloglib@@UEAA_NXZ 00000001800022a0 f   SLog.obj
 0001:000012e0       ?logData@SLog@sloglib@@UEAAAEAVData@2@XZ 00000001800022e0 f   SLog.obj
 0001:00001300       ?logProcess@SLog@sloglib@@UEAA_NPEBD00000000000000000@Z 0000000180002300 f   SLog.obj
 0001:000017b0       ?logTransfer@SLog@sloglib@@UEAA_NPEBD000000000000000000@Z 00000001800027b0 f   SLog.obj
 0001:00001c80       ?logFunction@SLog@sloglib@@UEAA_NPEBD0000000000000000@Z 0000000180002c80 f   SLog.obj
 0001:00002120       ?logLot@SLog@sloglib@@UEAA_NPEBD0000000000000000@Z 0000000180003120 f   SLog.obj
 0001:000025c0       ?logConfigure@SLog@sloglib@@UEAA_NPEBD0000000000000@Z 00000001800035c0 f   SLog.obj
 0001:000029c0       ?logAlarm@SLog@sloglib@@UEAA_NPEBD000000000000000@Z 00000001800039c0 f   SLog.obj
 0001:00002e40       ?logComm@SLog@sloglib@@UEAA_NPEBD0000000000000@Z 0000000180003e40 f   SLog.obj
 0001:00003240       ??0SLog@sloglib@@QEAA@PEAU_SYSTEMTIME@@@Z 0000000180004240 f   SLog.obj
 0001:00003300       ??1SLog@sloglib@@UEAA@XZ   0000000180004300 f   SLog.obj
 0001:00003380       ?DebugLog@sloglib@@YAXPEADZZ 0000000180004380 f   SLog.obj
 0001:00003460       ??0Data@sloglib@@QEAA@XZ   0000000180004460 f i SLog.obj
 0001:00003490       ??0SLogPimpl@sloglib@@QEAA@XZ 0000000180004490 f i SLog.obj
 0001:000034d0       ??0SMemoryPimpl@sloglib@@QEAA@XZ 00000001800044d0 f i SLog.obj
 0001:00003500       ??1Data@sloglib@@QEAA@XZ   0000000180004500 f i SLog.obj
 0001:00003510       ??1SLogPimpl@sloglib@@QEAA@XZ 0000000180004510 f i SLog.obj
 0001:00003530       ??1SMemoryPimpl@sloglib@@QEAA@XZ 0000000180004530 f i SLog.obj
 0001:00003540       ??_ESLog@sloglib@@UEAAPEAXI@Z 0000000180004540 f i SLog.obj
 0001:00003540       ??_GSLog@sloglib@@UEAAPEAXI@Z 0000000180004540 f i SLog.obj
 0001:00003580       ??_GSLogPimpl@sloglib@@QEAAPEAXI@Z 0000000180004580 f i SLog.obj
 0001:000035c0       ??_ESMemory@sloglib@@UEAAPEAXI@Z 00000001800045c0 f i SLog.obj
 0001:000035c0       ??_GSMemory@sloglib@@UEAAPEAXI@Z 00000001800045c0 f i SLog.obj
 0001:00003600       ??_GSMemoryPimpl@sloglib@@QEAAPEAXI@Z 0000000180004600 f i SLog.obj
 0001:00003640       ?push@Data@sloglib@@QEAA_NPEBD@Z 0000000180004640 f i SLog.obj
 0001:000036c0       __local_stdio_printf_options 00000001800046c0 f i SLog.obj
 0001:000036d0       _vsnprintf_l               00000001800046d0 f i SLog.obj
 0001:00003750       _vsprintf_l                0000000180004750 f i SLog.obj
 0001:000037a0       sprintf                    00000001800047a0 f i SLog.obj
 0001:00003820       vsnprintf                  0000000180004820 f i SLog.obj
 0001:00003896       OutputDebugStringA         0000000180004896 f   kernel32:KERNEL32.dll
 0001:0000389c       CloseHandle                000000018000489c f   kernel32:KERNEL32.dll
 0001:000038a2       ReleaseSemaphore           00000001800048a2 f   kernel32:KERNEL32.dll
 0001:000038a8       WaitForSingleObject        00000001800048a8 f   kernel32:KERNEL32.dll
 0001:000038ae       GetLocalTime               00000001800048ae f   kernel32:KERNEL32.dll
 0001:000038b4       MapViewOfFile              00000001800048b4 f   kernel32:KERNEL32.dll
 0001:000038ba       UnmapViewOfFile            00000001800048ba f   kernel32:KERNEL32.dll
 0001:000038c0       CreateSemaphoreA           00000001800048c0 f   kernel32:KERNEL32.dll
 0001:000038c6       OpenSemaphoreA             00000001800048c6 f   kernel32:KERNEL32.dll
 0001:000038cc       CreateFileMappingA         00000001800048cc f   kernel32:KERNEL32.dll
 0001:000038d2       OpenFileMappingA           00000001800048d2 f   kernel32:KERNEL32.dll
 0001:000038d8       CreateToolhelp32Snapshot   00000001800048d8 f   kernel32:KERNEL32.dll
 0001:000038de       Process32First             00000001800048de f   kernel32:KERNEL32.dll
 0001:000038e4       Process32Next              00000001800048e4 f   kernel32:KERNEL32.dll
 0001:000038f0       ??_M@YAXPEAX_K1P6AX0@Z@Z   00000001800048f0 f   LIBCMTD:ehvecdtr.obj
 0001:000039b0       ??_M@YAXPEAX_KHP6AX0@Z@Z   00000001800049b0 f   LIBCMTD:ehvecdtr.obj
 0001:00003a60       ?__ArrayUnwind@@YAXPEAX_K1P6AX0@Z@Z 0000000180004a60 f   LIBCMTD:ehvecdtr.obj
 0001:00003ae0       ??3@YAXPEAX_K@Z            0000000180004ae0 f   LIBCMTD:delete_scalar_size.obj
 0001:00003b00       ??_V@YAXPEAX_K@Z           0000000180004b00 f   LIBCMTD:delete_array_size.obj
 0001:00003b20       _CRT_RTC_INIT              0000000180004b20 f   LIBCMTD:init.obj
 0001:00003b30       _CRT_RTC_INITW             0000000180004b30 f   LIBCMTD:init.obj
 0001:00003b40       _RTC_InitBase              0000000180004b40 f   LIBCMTD:init.obj
 0001:00003b80       _RTC_Shutdown              0000000180004b80 f   LIBCMTD:init.obj
 0001:00003bb0       ??1type_info@@UEAA@XZ      0000000180004bb0 f   LIBCMTD:std_type_info_static.obj
 0001:00003bd0       ??_Etype_info@@UEAAPEAXI@Z 0000000180004bd0 f i LIBCMTD:std_type_info_static.obj
 0001:00003bd0       ??_Gtype_info@@UEAAPEAXI@Z 0000000180004bd0 f i LIBCMTD:std_type_info_static.obj
 0001:00003c10       ??2@YAPEAX_K@Z             0000000180004c10 f   LIBCMTD:new_scalar.obj
 0001:00003c70       _RTC_AllocaHelper          0000000180004c70 f   LIBCMTD:stack.obj
 0001:00003cb0       _RTC_CheckStackVars        0000000180004cb0 f   LIBCMTD:stack.obj
 0001:00003d40       _RTC_CheckStackVars2       0000000180004d40 f   LIBCMTD:stack.obj
 0001:00003e50       __GSHandlerCheck           0000000180004e50 f   LIBCMTD:gshandler.obj
 0001:00003e90       __GSHandlerCheckCommon     0000000180004e90 f   LIBCMTD:gshandler.obj
 0001:00003fa0       __security_check_cookie    0000000180004fa0 f   LIBCMTD:amdsecgs.obj
 0001:000043d0       _CRT_INIT                  00000001800053d0 f   LIBCMTD:dll_dllmain.obj
 0001:00004400       _DllMainCRTStartup         0000000180005400 f   LIBCMTD:dll_dllmain.obj
 0001:00004440       _guard_check_icall_nop     0000000180005440 f i LIBCMTD:guard_support.obj
 0001:00004450       ReadNoFence64              0000000180005450 f i LIBCMTD:guard_support.obj
 0001:00004470       ReadPointerNoFence         0000000180005470 f i LIBCMTD:guard_support.obj
 0001:00004490       __castguard_check_failure_debugbreak 0000000180005490 f i LIBCMTD:guard_support.obj
 0001:000044b0       __castguard_check_failure_fastfail 00000001800054b0 f i LIBCMTD:guard_support.obj
 0001:000044e0       __castguard_check_failure_nop 00000001800054e0 f i LIBCMTD:guard_support.obj
 0001:000044f0       __castguard_check_failure_os_handled 00000001800054f0 f i LIBCMTD:guard_support.obj
 0001:00004560       __castguard_check_failure_user_handled 0000000180005560 f i LIBCMTD:guard_support.obj
 0001:00004650       __castguard_set_user_handler 0000000180005650 f i LIBCMTD:guard_support.obj
 0001:00004680       __castguard_slow_path_check_debugbreak 0000000180005680 f i LIBCMTD:guard_support.obj
 0001:000046c0       __castguard_slow_path_check_fastfail 00000001800056c0 f i LIBCMTD:guard_support.obj
 0001:00004710       __castguard_slow_path_check_nop 0000000180005710 f i LIBCMTD:guard_support.obj
 0001:00004720       __castguard_slow_path_check_os_handled 0000000180005720 f i LIBCMTD:guard_support.obj
 0001:00004770       __castguard_slow_path_check_user_handled 0000000180005770 f i LIBCMTD:guard_support.obj
 0001:00004830       _guard_icall_checks_enforced 0000000180005830 f i LIBCMTD:guard_support.obj
 0001:00004870       _guard_rf_checks_enforced  0000000180005870 f i LIBCMTD:guard_support.obj
 0001:00004880       ??3@YAXPEAX@Z              0000000180005880 f   LIBCMTD:delete_scalar.obj
 0001:000048a0       ??_V@YAXPEAX@Z             00000001800058a0 f   LIBCMTD:delete_array.obj
 0001:000048c0       ?_RTC_GetErrorFunc@@YAP6AHHPEBDH00ZZPEBX@Z 00000001800058c0 f   LIBCMTD:userapi.obj
 0001:000048d0       ?_RTC_GetErrorFuncW@@YAP6AHHPEB_WH00ZZPEBX@Z 00000001800058d0 f   LIBCMTD:userapi.obj
 0001:000048e0       _RTC_GetErrDesc            00000001800058e0 f   LIBCMTD:userapi.obj
 0001:00004900       _RTC_NumErrors             0000000180005900 f   LIBCMTD:userapi.obj
 0001:00004910       _RTC_SetErrorFunc          0000000180005910 f   LIBCMTD:userapi.obj
 0001:00004930       _RTC_SetErrorFuncW         0000000180005930 f   LIBCMTD:userapi.obj
 0001:00004950       _RTC_SetErrorType          0000000180005950 f   LIBCMTD:userapi.obj
 0001:00004970       ??0bad_alloc@std@@AEAA@QEBD@Z 0000000180005970 f i LIBCMTD:throw_bad_alloc.obj
 0001:000049b0       ??0bad_alloc@std@@QEAA@AEBV01@@Z 00000001800059b0 f i LIBCMTD:throw_bad_alloc.obj
 0001:000049f0       ??0bad_alloc@std@@QEAA@XZ  00000001800059f0 f i LIBCMTD:throw_bad_alloc.obj
 0001:00004a30       ??0bad_array_new_length@std@@QEAA@AEBV01@@Z 0000000180005a30 f i LIBCMTD:throw_bad_alloc.obj
 0001:00004a70       ??0bad_array_new_length@std@@QEAA@XZ 0000000180005a70 f i LIBCMTD:throw_bad_alloc.obj
 0001:00004ab0       ??0exception@std@@QEAA@AEBV01@@Z 0000000180005ab0 f i LIBCMTD:throw_bad_alloc.obj
 0001:00004b10       ??0exception@std@@QEAA@QEBDH@Z 0000000180005b10 f i LIBCMTD:throw_bad_alloc.obj
 0001:00004b60       ??1bad_alloc@std@@UEAA@XZ  0000000180005b60 f i LIBCMTD:throw_bad_alloc.obj
 0001:00004b80       ??1bad_array_new_length@std@@UEAA@XZ 0000000180005b80 f i LIBCMTD:throw_bad_alloc.obj
 0001:00004ba0       ??1exception@std@@UEAA@XZ  0000000180005ba0 f i LIBCMTD:throw_bad_alloc.obj
 0001:00004bd0       ??_Ebad_alloc@std@@UEAAPEAXI@Z 0000000180005bd0 f i LIBCMTD:throw_bad_alloc.obj
 0001:00004bd0       ??_Gbad_alloc@std@@UEAAPEAXI@Z 0000000180005bd0 f i LIBCMTD:throw_bad_alloc.obj
 0001:00004c10       ??_Ebad_array_new_length@std@@UEAAPEAXI@Z 0000000180005c10 f i LIBCMTD:throw_bad_alloc.obj
 0001:00004c10       ??_Gbad_array_new_length@std@@UEAAPEAXI@Z 0000000180005c10 f i LIBCMTD:throw_bad_alloc.obj
 0001:00004c50       ??_Eexception@std@@UEAAPEAXI@Z 0000000180005c50 f i LIBCMTD:throw_bad_alloc.obj
 0001:00004c50       ??_Gexception@std@@UEAAPEAXI@Z 0000000180005c50 f i LIBCMTD:throw_bad_alloc.obj
 0001:00004c90       ?__scrt_throw_std_bad_alloc@@YAXXZ 0000000180005c90 f   LIBCMTD:throw_bad_alloc.obj
 0001:00004cc0       ?__scrt_throw_std_bad_array_new_length@@YAXXZ 0000000180005cc0 f   LIBCMTD:throw_bad_alloc.obj
 0001:00004cf0       ?what@exception@std@@UEBAPEBDXZ 0000000180005cf0 f i LIBCMTD:throw_bad_alloc.obj
 0001:00004dc0       ?_RTC_AllocaFailure@@YAXPEAXPEAU_RTC_ALLOCA_NODE@@H@Z 0000000180005dc0 f   LIBCMTD:error.obj
 0001:00004f20       ?_RTC_Failure@@YAXPEAXH@Z  0000000180005f20 f   LIBCMTD:error.obj
 0001:00004f70       ?_RTC_StackFailure@@YAXPEAXPEBD@Z 0000000180005f70 f   LIBCMTD:error.obj
 0001:000053e0       _RTC_UninitUse             00000001800063e0 f   LIBCMTD:error.obj
 0001:000054b0       _vsprintf_s_l              00000001800064b0 f i LIBCMTD:error.obj
 0001:00005520       sprintf_s                  0000000180006520 f i LIBCMTD:error.obj
 0001:00005550       __raise_securityfailure    0000000180006550 f   LIBCMTD:gs_report.obj
 0001:00005590       __report_gsfailure         0000000180006590 f   LIBCMTD:gs_report.obj
 0001:00005670       __report_rangecheckfailure 0000000180006670 f   LIBCMTD:gs_report.obj
 0001:00005690       __report_securityfailure   0000000180006690 f   LIBCMTD:gs_report.obj
 0001:00005730       __report_securityfailureEx 0000000180006730 f   LIBCMTD:gs_report.obj
 0001:00005a60       __security_init_cookie     0000000180006a60 f   LIBCMTD:gs_support.obj
 0001:00005ae0       ?__scrt_initialize_type_info@@YAXXZ 0000000180006ae0 f   LIBCMTD:tncleanup.obj
 0001:00005b00       ?__scrt_uninitialize_type_info@@YAXXZ 0000000180006b00 f   LIBCMTD:tncleanup.obj
 0001:00005b20       __local_stdio_scanf_options 0000000180006b20 f i LIBCMTD:default_local_stdio_options.obj
 0001:00005b30       __scrt_initialize_default_local_stdio_options 0000000180006b30 f   LIBCMTD:default_local_stdio_options.obj
 0001:00005b80       ?configure_argv@__scrt_narrow_argv_policy@@SAHXZ 0000000180006b80 f i LIBCMTD:utility.obj
 0001:00005c70       ?initialize_environment@__scrt_narrow_environment_policy@@SAHXZ 0000000180006c70 f i LIBCMTD:utility.obj
 0001:00005d10       NtCurrentTeb               0000000180006d10 f i LIBCMTD:utility.obj
 0001:00005d20       __scrt_acquire_startup_lock 0000000180006d20 f   LIBCMTD:utility.obj
 0001:00005d90       __scrt_dllmain_after_initialize_c 0000000180006d90 f   LIBCMTD:utility.obj
 0001:00005dc0       __scrt_dllmain_before_initialize_c 0000000180006dc0 f   LIBCMTD:utility.obj
 0001:00005de0       __scrt_dllmain_crt_thread_attach 0000000180006de0 f   LIBCMTD:utility.obj
 0001:00005e10       __scrt_dllmain_crt_thread_detach 0000000180006e10 f   LIBCMTD:utility.obj
 0001:00005e30       __scrt_dllmain_exception_filter 0000000180006e30 f   LIBCMTD:utility.obj
 0001:00005ea0       __scrt_dllmain_uninitialize_c 0000000180006ea0 f   LIBCMTD:utility.obj
 0001:00005ed0       __scrt_dllmain_uninitialize_critical 0000000180006ed0 f   LIBCMTD:utility.obj
 0001:00005ef0       __scrt_initialize_crt      0000000180006ef0 f   LIBCMTD:utility.obj
 0001:00005f40       __scrt_initialize_onexit_tables 0000000180006f40 f   LIBCMTD:utility.obj
 0001:00006050       __scrt_is_nonwritable_in_current_image 0000000180007050 f   LIBCMTD:utility.obj
 0001:000060e0       __scrt_release_startup_lock 00000001800070e0 f   LIBCMTD:utility.obj
 0001:00006110       __scrt_uninitialize_crt    0000000180007110 f   LIBCMTD:utility.obj
 0001:00006150       _onexit                    0000000180007150 f   LIBCMTD:utility.obj
 0001:000061d0       at_quick_exit              00000001800071d0 f   LIBCMTD:utility.obj
 0001:00006220       atexit                     0000000180007220 f   LIBCMTD:utility.obj
 0001:00006260       __scrt_get_dyn_tls_init_callback 0000000180007260 f   LIBCMTD:dyn_tls_init.obj
 0001:00006270       __crt_debugger_hook        0000000180007270 f   LIBCMTD:utility_desktop.obj
 0001:00006280       __scrt_fastfail            0000000180007280 f   LIBCMTD:utility_desktop.obj
 0001:00006420       __scrt_get_show_window_mode 0000000180007420 f   LIBCMTD:utility_desktop.obj
 0001:00006480       __scrt_initialize_mta      0000000180007480 f   LIBCMTD:utility_desktop.obj
 0001:00006490       __scrt_initialize_winrt    0000000180007490 f   LIBCMTD:utility_desktop.obj
 0001:000064a0       __scrt_is_managed_app      00000001800074a0 f   LIBCMTD:utility_desktop.obj
 0001:00006550       __scrt_set_unhandled_exception_filter 0000000180007550 f   LIBCMTD:utility_desktop.obj
 0001:00006570       __scrt_exe_initialize_mta  0000000180007570 f   LIBCMTD:utility_desktop.obj
 0001:00006570       __scrt_stub_for_initialize_mta 0000000180007570 f   LIBCMTD:utility_desktop.obj
 0001:00006580       __scrt_unhandled_exception_filter 0000000180007580 f   LIBCMTD:utility_desktop.obj
 0001:00006620       _RTC_Initialize            0000000180007620 f   LIBCMTD:initsect.obj
 0001:00006670       _RTC_Terminate             0000000180007670 f   LIBCMTD:initsect.obj
 0001:00006be0       ?_RTC_GetSrcLine@@YAHPEAEPEA_WKPEAH1K@Z 0000000180007be0 f   LIBCMTD:pdblkup.obj
 0001:00006fb0       __isa_available_init       0000000180007fb0 f   LIBCMTD:cpu_disp.obj
 0001:000074a0       _get_startup_argv_mode     00000001800084a0 f   LIBCMTD:argv_mode.obj
 0001:000074b0       __scrt_is_ucrt_dll_in_use  00000001800084b0 f   LIBCMTD:ucrt_detection.obj
 0001:000074e0       ??$__crt_interlocked_exchange_pointer@$$A6AXXZP6AXXZ@@YAP6AXXZPEDS6AXXZQ6AXXZ@Z 00000001800084e0 f i libvcruntimed:purevirt.obj
 0001:00007500       ??$__crt_interlocked_read_pointer@$$A6AXXZ@@YAP6AXXZPEDS6AXXZ@Z 0000000180008500 f i libvcruntimed:purevirt.obj
 0001:00007520       ?__crt_interlocked_read_64@@YA_JPED_J@Z 0000000180008520 f i libvcruntimed:purevirt.obj
 0001:00007540       _get_purecall_handler      0000000180008540 f   libvcruntimed:purevirt.obj
 0001:00007560       _purecall                  0000000180008560 f   libvcruntimed:purevirt.obj
 0001:000075a0       _set_purecall_handler      00000001800085a0 f   libvcruntimed:purevirt.obj
 0001:000075c0       ??$?0AEAViterator@TryBlockMap4@FH4@@AEAV012@$0A@@?$pair@Viterator@TryBlockMap4@FH4@@V123@@std@@QEAA@AEAViterator@TryBlockMap4@FH4@@0@Z 00000001800085c0 f i libvcruntimed:risctrnsctrl.obj
 0001:00007600       ??$?0AEAViterator@TryBlockMap@__FrameHandler3@@AEAV012@$0A@@?$pair@Viterator@TryBlockMap@__FrameHandler3@@V123@@std@@QEAA@AEAViterator@TryBlockMap@__FrameHandler3@@0@Z 0000000180008600 f i libvcruntimed:risctrnsctrl.obj
 0001:000077f0       ??$_CallSETranslator@V__FrameHandler3@@@@YAHPEAUEHExceptionRecord@@PEA_KPEAU_CONTEXT@@PEAU_xDISPATCHER_CONTEXT@@PEBU_s_FuncInfo@@K1H@Z 00000001800087f0 f i libvcruntimed:risctrnsctrl.obj
 0001:00007880       ??$_CallSETranslator@V__FrameHandler4@@@@YAHPEAUEHExceptionRecord@@PEA_KPEAU_CONTEXT@@PEAU_xDISPATCHER_CONTEXT@@PEAUFuncInfo4@FH4@@K1H@Z 0000000180008880 f i libvcruntimed:risctrnsctrl.obj
 0001:00007910       ??0FuncInfo4@FH4@@QEAA@XZ  0000000180008910 f i libvcruntimed:risctrnsctrl.obj
 0001:00007980       ??0FuncInfoHeader@FH4@@QEAA@XZ 0000000180008980 f i libvcruntimed:risctrnsctrl.obj
 0001:000079a0       ??0iterator@TryBlockMap4@FH4@@QEAA@AEAV12@I@Z 00000001800089a0 f i libvcruntimed:risctrnsctrl.obj
 0001:000079d0       ??0iterator@TryBlockMap@__FrameHandler3@@QEAA@AEAV12@I@Z 00000001800089d0 f i libvcruntimed:risctrnsctrl.obj
 0001:00007a00       ??4iterator@TryBlockMap4@FH4@@QEAAAEAV012@AEBV012@@Z 0000000180008a00 f i libvcruntimed:risctrnsctrl.obj
 0001:00007a20       ??9iterator@TryBlockMap4@FH4@@QEBA_NAEBV012@@Z 0000000180008a20 f i libvcruntimed:risctrnsctrl.obj
 0001:00007a60       ??Diterator@TryBlockMap4@FH4@@QEAA?AUTryBlockMapEntry4@2@XZ 0000000180008a60 f i libvcruntimed:risctrnsctrl.obj
 0001:00007a90       ??Eiterator@TryBlockMap4@FH4@@QEAAAEAV012@XZ 0000000180008a90 f i libvcruntimed:risctrnsctrl.obj
 0001:00007ad0       ?CatchTryBlock@__FrameHandler3@@SAPEBU_s_TryBlockMapEntry@@PEBU_s_FuncInfo@@H@Z 0000000180008ad0 f   libvcruntimed:risctrnsctrl.obj
 0001:00007b60       ?DecompFuncInfo@FH4@@YA_JPEAEAEAUFuncInfo4@1@_KH@Z 0000000180008b60 f i libvcruntimed:risctrnsctrl.obj
 0001:00007ba0       ?DecompFuncInfo@FH4@@YA_JPEAEAEAUFuncInfo4@1@_KH_N@Z 0000000180008ba0 f i libvcruntimed:risctrnsctrl.obj
 0001:00007d80       ?DecompTryBlock@TryBlockMap4@FH4@@AEAAXXZ 0000000180008d80 f i libvcruntimed:risctrnsctrl.obj
 0001:00007e00       ?ExecutionInCatch@__FrameHandler3@@SA_NPEAU_xDISPATCHER_CONTEXT@@PEBU_s_FuncInfo@@@Z 0000000180008e00 f   libvcruntimed:risctrnsctrl.obj
 0001:00007e50       ?ExecutionInCatch@__FrameHandler4@@SA_NPEAU_xDISPATCHER_CONTEXT@@PEAUFuncInfo4@FH4@@@Z 0000000180008e50 f   libvcruntimed:risctrnsctrl.obj
 0001:00007e70       ?FrameUnwindToEmptyState@__FrameHandler3@@SAXPEA_KPEAU_xDISPATCHER_CONTEXT@@PEBU_s_FuncInfo@@@Z 0000000180008e70 f   libvcruntimed:risctrnsctrl.obj
 0001:00007f10       ?FrameUnwindToEmptyState@__FrameHandler4@@SAXPEA_KPEAU_xDISPATCHER_CONTEXT@@PEAUFuncInfo4@FH4@@@Z 0000000180008f10 f   libvcruntimed:risctrnsctrl.obj
 0001:00007f70       ?GetEstablisherFrame@__FrameHandler3@@SAPEA_KPEA_KPEAU_xDISPATCHER_CONTEXT@@PEBU_s_FuncInfo@@0@Z 0000000180008f70 f   libvcruntimed:risctrnsctrl.obj
 0001:000080e0       ?GetEstablisherFrame@__FrameHandler4@@SAPEA_KPEA_KPEAU_xDISPATCHER_CONTEXT@@PEAUFuncInfo4@FH4@@0@Z 00000001800090e0 f   libvcruntimed:risctrnsctrl.obj
 0001:00008150       ?GetRangeOfTrysToCheck@__FrameHandler3@@SA?AU?$pair@Viterator@TryBlockMap@__FrameHandler3@@V123@@std@@AEAVTryBlockMap@1@HPEAU_xDISPATCHER_CONTEXT@@PEBU_s_FuncInfo@@H@Z 0000000180009150 f   libvcruntimed:risctrnsctrl.obj
 0001:00008390       ?GetRangeOfTrysToCheck@__FrameHandler4@@SA?AU?$pair@Viterator@TryBlockMap4@FH4@@V123@@std@@AEAVTryBlockMap4@FH4@@HPEAU_xDISPATCHER_CONTEXT@@PEAUFuncInfo4@5@H@Z 0000000180009390 f   libvcruntimed:risctrnsctrl.obj
 0001:00008550       ?ReadInt@FH4@@YAHPEAPEAE@Z 0000000180009550 f i libvcruntimed:risctrnsctrl.obj
 0001:00008590       ?ReadUnsigned@FH4@@YAIPEAPEAE@Z 0000000180009590 f i libvcruntimed:risctrnsctrl.obj
 0001:00008620       ?UnwindNestedFrames@__FrameHandler3@@SAXPEA_KPEAUEHExceptionRecord@@PEAU_CONTEXT@@0PEAXPEBU_s_FuncInfo@@HHPEBU_s_HandlerType@@PEAU_xDISPATCHER_CONTEXT@@E@Z 0000000180009620 f   libvcruntimed:risctrnsctrl.obj
 0001:00008790       ?UnwindNestedFrames@__FrameHandler4@@SAXPEA_KPEAUEHExceptionRecord@@PEAU_CONTEXT@@0PEAXPEAUFuncInfo4@FH4@@HHPEAUHandlerType4@5@PEAU_xDISPATCHER_CONTEXT@@E@Z 0000000180009790 f   libvcruntimed:risctrnsctrl.obj
 0001:00008960       ?begin@TryBlockMap4@FH4@@QEAA?AViterator@12@XZ 0000000180009960 f i libvcruntimed:risctrnsctrl.obj
 0001:00008990       ?end@TryBlockMap4@FH4@@QEAA?AViterator@12@XZ 0000000180009990 f i libvcruntimed:risctrnsctrl.obj
 0001:000089c0       ?imageRelToByteBuffer@FH4@@YAPEAE_KH@Z 00000001800099c0 f i libvcruntimed:risctrnsctrl.obj
 0001:000089e0       ?incrementToSentinel@iterator@TryBlockMap4@FH4@@QEAAXXZ 00000001800099e0 f i libvcruntimed:risctrnsctrl.obj
 0001:00008a00       ?setBuffer@TryBlockMap4@FH4@@QEAAXViterator@12@@Z 0000000180009a00 f i libvcruntimed:risctrnsctrl.obj
 0001:00008a70       _CreateFrameInfo           0000000180009a70 f   libvcruntimed:risctrnsctrl.obj
 0001:00008ae0       _FindAndUnlinkFrame        0000000180009ae0 f   libvcruntimed:risctrnsctrl.obj
 0001:00008b60       _GetImageBase              0000000180009b60 f   libvcruntimed:risctrnsctrl.obj
 0001:00008b80       _GetThrowImageBase         0000000180009b80 f   libvcruntimed:risctrnsctrl.obj
 0001:00008ba0       _SetImageBase              0000000180009ba0 f   libvcruntimed:risctrnsctrl.obj
 0001:00008bc0       _SetThrowImageBase         0000000180009bc0 f   libvcruntimed:risctrnsctrl.obj
 0001:00008be0       __CxxFrameHandler          0000000180009be0 f   libvcruntimed:risctrnsctrl.obj
 0001:00008c20       __CxxFrameHandler2         0000000180009c20 f   libvcruntimed:risctrnsctrl.obj
 0001:00008c60       __CxxFrameHandler3         0000000180009c60 f   libvcruntimed:risctrnsctrl.obj
 0001:00008d40       __CxxFrameHandler4         0000000180009d40 f   libvcruntimed:risctrnsctrl.obj
 0001:00008e50       __DestructExceptionObject  0000000180009e50 f   libvcruntimed:ehhelpers.obj
 0001:00008f50       ?_CallMemberFunction0@@YAXQEAX0@Z 0000000180009f50 f i libvcruntimed:ehhelpers.obj
 0001:00009030       ?raw_name@type_info@@QEBAPEBDXZ 000000018000a030 f i libvcruntimed:ehhelpers.obj
 0001:00009040       _IsExceptionObjectToBeDestroyed 000000018000a040 f   libvcruntimed:ehhelpers.obj
 0001:00009090       _SetWinRTOutOfMemoryExceptionCallback 000000018000a090 f   libvcruntimed:ehhelpers.obj
 0001:000090b0       __AdjustPointer            000000018000a0b0 f   libvcruntimed:ehhelpers.obj
 0001:00009130       __FrameUnwindFilter        000000018000a130 f   libvcruntimed:ehhelpers.obj
 0001:000091e0       __GetPlatformExceptionInfo 000000018000a1e0 f   libvcruntimed:ehhelpers.obj
 0001:00009290       __current_exception        000000018000a290 f   libvcruntimed:ehhelpers.obj
 0001:000092b0       __current_exception_context 000000018000a2b0 f   libvcruntimed:ehhelpers.obj
 0001:000092d0       __processing_throw         000000018000a2d0 f   libvcruntimed:ehhelpers.obj
 0001:000092f0       __std_terminate            000000018000a2f0 f   libvcruntimed:ehhelpers.obj
 0001:00009300       _is_exception_typeof       000000018000a300 f   libvcruntimed:ehhelpers.obj
 0001:00009450       __C_specific_handler       000000018000a450 f   libvcruntimed:riscchandler.obj
 0001:000098c0       ??$?RD@__crt_public_free_policy@@QEBAXQEBD@Z 000000018000a8c0 f i libvcruntimed:std_exception.obj
 0001:000098e0       ??0?$__crt_unique_heap_ptr@DU__crt_public_free_policy@@@@QEAA@QEAD@Z 000000018000a8e0 f i libvcruntimed:std_exception.obj
 0001:00009900       ??1?$__crt_unique_heap_ptr@DU__crt_public_free_policy@@@@QEAA@XZ 000000018000a900 f i libvcruntimed:std_exception.obj
 0001:00009920       ??B?$__crt_unique_heap_ptr@DU__crt_public_free_policy@@@@QEBA_NXZ 000000018000a920 f i libvcruntimed:std_exception.obj
 0001:00009940       ?detach@?$__crt_unique_heap_ptr@DU__crt_public_free_policy@@@@QEAAPEADXZ 000000018000a940 f i libvcruntimed:std_exception.obj
 0001:00009970       ?get@?$__crt_unique_heap_ptr@DU__crt_public_free_policy@@@@QEBAPEADXZ 000000018000a970 f i libvcruntimed:std_exception.obj
 0001:00009980       ?is_valid@?$__crt_unique_heap_ptr@DU__crt_public_free_policy@@@@QEBA_NXZ 000000018000a980 f i libvcruntimed:std_exception.obj
 0001:000099b0       ?release@?$__crt_unique_heap_ptr@DU__crt_public_free_policy@@@@QEAAXXZ 000000018000a9b0 f i libvcruntimed:std_exception.obj
 0001:000099e0       __std_exception_copy       000000018000a9e0 f   libvcruntimed:std_exception.obj
 0001:00009b20       __std_exception_destroy    000000018000ab20 f   libvcruntimed:std_exception.obj
 0001:00009b60       _CxxThrowException         000000018000ab60 f   libvcruntimed:throw.obj
 0001:00009ca0       __C_specific_handler_noexcept 000000018000aca0 f   libvcruntimed:chandler_noexcept.obj
 0001:00009d70       ??$?RD@__crt_internal_free_policy@@QEBAXQEBD@Z 000000018000ad70 f i libvcruntimed:std_type_info.obj
 0001:00009da0       ??$?RX@__crt_internal_free_policy@@QEBAXQEBX@Z 000000018000ada0 f i libvcruntimed:std_type_info.obj
 0001:00009dd0       ??$__crt_interlocked_compare_exchange_pointer@$$CBDPEAD$$T@@YAPEBDPEDSEBDQEAD$$T@Z 000000018000add0 f i libvcruntimed:std_type_info.obj
 0001:00009e10       ??$__crt_interlocked_read_pointer@$$CBD@@YAPEBDPEDSEBD@Z 000000018000ae10 f i libvcruntimed:std_type_info.obj
 0001:00009e30       ??0?$__crt_unique_heap_ptr@DU__crt_internal_free_policy@@@@QEAA@QEAD@Z 000000018000ae30 f i libvcruntimed:std_type_info.obj
 0001:00009e50       ??0?$__crt_unique_heap_ptr@XU__crt_internal_free_policy@@@@QEAA@QEAX@Z 000000018000ae50 f i libvcruntimed:std_type_info.obj
 0001:00009e70       ??1?$__crt_unique_heap_ptr@DU__crt_internal_free_policy@@@@QEAA@XZ 000000018000ae70 f i libvcruntimed:std_type_info.obj
 0001:00009e90       ??1?$__crt_unique_heap_ptr@XU__crt_internal_free_policy@@@@QEAA@XZ 000000018000ae90 f i libvcruntimed:std_type_info.obj
 0001:00009eb0       ??B?$__crt_unique_heap_ptr@DU__crt_internal_free_policy@@@@QEBA_NXZ 000000018000aeb0 f i libvcruntimed:std_type_info.obj
 0001:00009ed0       ??B?$__crt_unique_heap_ptr@XU__crt_internal_free_policy@@@@QEBA_NXZ 000000018000aed0 f i libvcruntimed:std_type_info.obj
 0001:00009f50       ?detach@?$__crt_unique_heap_ptr@XU__crt_internal_free_policy@@@@QEAAPEAXXZ 000000018000af50 f i libvcruntimed:std_type_info.obj
 0001:00009f80       ?get@?$__crt_unique_heap_ptr@DU__crt_internal_free_policy@@@@QEBAPEADXZ 000000018000af80 f i libvcruntimed:std_type_info.obj
 0001:00009f90       ?get@?$__crt_unique_heap_ptr@XU__crt_internal_free_policy@@@@QEBAPEAXXZ 000000018000af90 f i libvcruntimed:std_type_info.obj
 0001:00009fa0       ?is_valid@?$__crt_unique_heap_ptr@DU__crt_internal_free_policy@@@@QEBA_NXZ 000000018000afa0 f i libvcruntimed:std_type_info.obj
 0001:00009fd0       ?is_valid@?$__crt_unique_heap_ptr@XU__crt_internal_free_policy@@@@QEBA_NXZ 000000018000afd0 f i libvcruntimed:std_type_info.obj
 0001:0000a000       ?release@?$__crt_unique_heap_ptr@DU__crt_internal_free_policy@@@@QEAAXXZ 000000018000b000 f i libvcruntimed:std_type_info.obj
 0001:0000a030       ?release@?$__crt_unique_heap_ptr@XU__crt_internal_free_policy@@@@QEAAXXZ 000000018000b030 f i libvcruntimed:std_type_info.obj
 0001:0000a060       __std_type_info_compare    000000018000b060 f   libvcruntimed:std_type_info.obj
 0001:0000a0a0       __std_type_info_destroy_list 000000018000b0a0 f   libvcruntimed:std_type_info.obj
 0001:0000a100       __std_type_info_hash       000000018000b100 f   libvcruntimed:std_type_info.obj
 0001:0000a1b0       __std_type_info_name       000000018000b1b0 f   libvcruntimed:std_type_info.obj
 0001:0000a440       __vcrt_initialize          000000018000b440 f   libvcruntimed:initialization.obj
 0001:0000a480       __vcrt_thread_attach       000000018000b480 f   libvcruntimed:initialization.obj
 0001:0000a4a0       __vcrt_thread_detach       000000018000b4a0 f   libvcruntimed:initialization.obj
 0001:0000a4b0       __vcrt_uninitialize        000000018000b4b0 f   libvcruntimed:initialization.obj
 0001:0000a4d0       __vcrt_uninitialize_critical 000000018000b4d0 f   libvcruntimed:initialization.obj
 0001:0000a4f0       __vcrt_GetModuleFileNameW  000000018000b4f0 f   libvcruntimed:winapi_thunks.obj
 0001:0000a520       __vcrt_GetModuleHandleW    000000018000b520 f   libvcruntimed:winapi_thunks.obj
 0001:0000a540       __vcrt_LoadLibraryExW      000000018000b540 f   libvcruntimed:winapi_thunks.obj
 0001:0000a570       ??$?RU__vcrt_ptd@@@__crt_internal_free_policy@@QEBAXQEBU__vcrt_ptd@@@Z 000000018000b570 f i libvcruntimed:per_thread_data.obj
 0001:0000a5a0       ??0?$__crt_unique_heap_ptr@U__vcrt_ptd@@U__crt_internal_free_policy@@@@QEAA@QEAU__vcrt_ptd@@@Z 000000018000b5a0 f i libvcruntimed:per_thread_data.obj
 0001:0000a5e0       ??1?$__crt_unique_heap_ptr@U__vcrt_ptd@@U__crt_internal_free_policy@@@@QEAA@XZ 000000018000b5e0 f i libvcruntimed:per_thread_data.obj
 0001:0000a620       ??B?$__crt_unique_heap_ptr@U__vcrt_ptd@@U__crt_internal_free_policy@@@@QEBA_NXZ 000000018000b620 f i libvcruntimed:per_thread_data.obj
 0001:0000a640       ?detach@?$__crt_unique_heap_ptr@U__vcrt_ptd@@U__crt_internal_free_policy@@@@QEAAPEAU__vcrt_ptd@@XZ 000000018000b640 f i libvcruntimed:per_thread_data.obj
 0001:0000a670       ?get@?$__crt_unique_heap_ptr@U__vcrt_ptd@@U__crt_internal_free_policy@@@@QEBAPEAU__vcrt_ptd@@XZ 000000018000b670 f i libvcruntimed:per_thread_data.obj
 0001:0000a680       ?is_valid@?$__crt_unique_heap_ptr@U__vcrt_ptd@@U__crt_internal_free_policy@@@@QEBA_NXZ 000000018000b680 f i libvcruntimed:per_thread_data.obj
 0001:0000a6b0       ?release@?$__crt_unique_heap_ptr@U__vcrt_ptd@@U__crt_internal_free_policy@@@@QEAAXXZ 000000018000b6b0 f i libvcruntimed:per_thread_data.obj
 0001:0000a720       __vcrt_freefls             000000018000b720 f   libvcruntimed:per_thread_data.obj
 0001:0000a760       __vcrt_freeptd_for_this_thread 000000018000b760 f   libvcruntimed:per_thread_data.obj
 0001:0000a7a0       __vcrt_getptd              000000018000b7a0 f   libvcruntimed:per_thread_data.obj
 0001:0000a7d0       __vcrt_getptd_noexit       000000018000b7d0 f   libvcruntimed:per_thread_data.obj
 0001:0000a970       __vcrt_getptd_noinit       000000018000b970 f   libvcruntimed:per_thread_data.obj
 0001:0000a9d0       __vcrt_initialize_ptd      000000018000b9d0 f   libvcruntimed:per_thread_data.obj
 0001:0000aa20       __vcrt_uninitialize_ptd    000000018000ba20 f   libvcruntimed:per_thread_data.obj
 0001:0000aa50       ?GetCurrentState@__FrameHandler3@@SAHPEA_KPEAU_xDISPATCHER_CONTEXT@@PEBU_s_FuncInfo@@@Z 000000018000ba50 f   libvcruntimed:ehstate.obj
 0001:0000aab0       ?GetUnwindTryBlock@__FrameHandler3@@SAHPEA_KPEAU_xDISPATCHER_CONTEXT@@PEBU_s_FuncInfo@@@Z 000000018000bab0 f   libvcruntimed:ehstate.obj
 0001:0000ab00       ?SetState@__FrameHandler3@@SAXPEA_KPEBU_s_FuncInfo@@H@Z 000000018000bb00 f   libvcruntimed:ehstate.obj
 0001:0000ab30       ?SetUnwindTryBlock@__FrameHandler3@@SAXPEA_KPEAU_xDISPATCHER_CONTEXT@@PEBU_s_FuncInfo@@H@Z 000000018000bb30 f   libvcruntimed:ehstate.obj
 0001:0000aba0       ?StateFromControlPc@__FrameHandler3@@SAHPEBU_s_FuncInfo@@PEAU_xDISPATCHER_CONTEXT@@@Z 000000018000bba0 f   libvcruntimed:ehstate.obj
 0001:0000abe0       ?StateFromControlPc@__FrameHandler4@@SAHPEAUFuncInfo4@FH4@@PEAU_xDISPATCHER_CONTEXT@@@Z 000000018000bbe0 f   libvcruntimed:ehstate.obj
 0001:0000ac20       ?StateFromIp@__FrameHandler3@@SAHPEBU_s_FuncInfo@@PEAU_xDISPATCHER_CONTEXT@@_K@Z 000000018000bc20 f   libvcruntimed:ehstate.obj
 0001:0000ad20       ?StateFromIp@__FrameHandler4@@SAHPEAUFuncInfo4@FH4@@PEAU_xDISPATCHER_CONTEXT@@_K@Z 000000018000bd20 f   libvcruntimed:ehstate.obj
 0001:0000ae10       ?__FuncRelToRealOffset@@YA_KPEAU_xDISPATCHER_CONTEXT@@I@Z 000000018000be10 f i libvcruntimed:ehstate.obj
 0001:0000ae40       ?__RVAtoRealOffset@@YA_KPEAU_xDISPATCHER_CONTEXT@@H@Z 000000018000be40 f i libvcruntimed:ehstate.obj
 0001:0000d0e0       ??$TypeMatchHelper@V__FrameHandler3@@@@YAHPEBU_s_HandlerType@@PEBU_s_CatchableType@@PEBU_s_ThrowInfo@@@Z 000000018000e0e0 f i libvcruntimed:frame.obj
 0001:0000d2e0       ??$TypeMatchHelper@V__FrameHandler4@@@@YAHPEAUHandlerType4@FH4@@PEBU_s_CatchableType@@PEBU_s_ThrowInfo@@@Z 000000018000e2e0 f i libvcruntimed:frame.obj
 0001:0000d4f0       ??$__InternalCxxFrameHandler@V__FrameHandler3@@@@YA?AW4_EXCEPTION_DISPOSITION@@PEAUEHExceptionRecord@@PEA_KPEAU_CONTEXT@@PEAU_xDISPATCHER_CONTEXT@@PEBU_s_FuncInfo@@H1E@Z 000000018000e4f0 f i libvcruntimed:frame.obj
 0001:0000d970       ??$__InternalCxxFrameHandler@V__FrameHandler4@@@@YA?AW4_EXCEPTION_DISPOSITION@@PEAUEHExceptionRecord@@PEA_KPEAU_CONTEXT@@PEAU_xDISPATCHER_CONTEXT@@PEAUFuncInfo4@FH4@@H1E@Z 000000018000e970 f i libvcruntimed:frame.obj
 0001:0000de10       ??$__InternalCxxFrameHandlerWrapper@V__FrameHandler3@@@@YA?AW4_EXCEPTION_DISPOSITION@@PEAUEHExceptionRecord@@PEA_KPEAU_CONTEXT@@PEAU_xDISPATCHER_CONTEXT@@PEBU_s_FuncInfo@@H1E@Z 000000018000ee10 f i libvcruntimed:frame.obj
 0001:0000de80       ??$__InternalCxxFrameHandlerWrapper@V__FrameHandler4@@@@YA?AW4_EXCEPTION_DISPOSITION@@PEAUEHExceptionRecord@@PEA_KPEAU_CONTEXT@@PEAU_xDISPATCHER_CONTEXT@@PEAUFuncInfo4@FH4@@H1E@Z 000000018000ee80 f i libvcruntimed:frame.obj
 0001:0000df10       ??0HandlerMap4@FH4@@QEAA@PEBUTryBlockMapEntry4@1@_KH@Z 000000018000ef10 f i libvcruntimed:frame.obj
 0001:0000dff0       ??0HandlerMap@__FrameHandler3@@QEAA@PEBU_s_TryBlockMapEntry@@_KI@Z 000000018000eff0 f i libvcruntimed:frame.obj
 0001:0000e040       ??0HandlerType4@FH4@@QEAA@XZ 000000018000f040 f i libvcruntimed:frame.obj
 0001:0000e060       ??0TryBlockMap4@FH4@@QEAA@PEBUFuncInfo4@1@_K@Z 000000018000f060 f i libvcruntimed:frame.obj
 0001:0000e120       ??0TryBlockMap@__FrameHandler3@@QEAA@PEBU_s_FuncInfo@@_K@Z 000000018000f120 f i libvcruntimed:frame.obj
 0001:0000e150       ??0UWMap4@FH4@@QEAA@PEBUFuncInfo4@1@_K@Z 000000018000f150 f i libvcruntimed:frame.obj
 0001:0000e1e0       ??0bad_exception@std@@QEAA@AEBV01@@Z 000000018000f1e0 f i libvcruntimed:frame.obj
 0001:0000e220       ??0bad_exception@std@@QEAA@XZ 000000018000f220 f i libvcruntimed:frame.obj
 0001:0000e260       ??0iterator@HandlerMap4@FH4@@QEAA@AEAV12@I@Z 000000018000f260 f i libvcruntimed:frame.obj
 0001:0000e290       ??0iterator@HandlerMap@__FrameHandler3@@QEAA@AEAV12@I@Z 000000018000f290 f i libvcruntimed:frame.obj
 0001:0000e2c0       ??0iterator@UWMap4@FH4@@QEAA@AEAV12@PEAE@Z 000000018000f2c0 f i libvcruntimed:frame.obj
 0001:0000e2f0       ??1bad_exception@std@@UEAA@XZ 000000018000f2f0 f i libvcruntimed:frame.obj
 0001:0000e310       ??4iterator@UWMap4@FH4@@QEAAAEAV012@AEBV012@@Z 000000018000f310 f i libvcruntimed:frame.obj
 0001:0000e360       ??8iterator@HandlerMap4@FH4@@QEBA_NAEBV012@@Z 000000018000f360 f i libvcruntimed:frame.obj
 0001:0000e3a0       ??8iterator@HandlerMap@__FrameHandler3@@QEBA_NAEBV012@@Z 000000018000f3a0 f i libvcruntimed:frame.obj
 0001:0000e3e0       ??8type_info@@QEBA_NAEBV0@@Z 000000018000f3e0 f i libvcruntimed:frame.obj
 0001:0000e460       ??9iterator@HandlerMap4@FH4@@QEBA_NAEBV012@@Z 000000018000f460 f i libvcruntimed:frame.obj
 0001:0000e4a0       ??9iterator@HandlerMap@__FrameHandler3@@QEBA_NAEBV012@@Z 000000018000f4a0 f i libvcruntimed:frame.obj
 0001:0000e4e0       ??Diterator@HandlerMap4@FH4@@QEAA?AUHandlerType4@2@XZ 000000018000f4e0 f i libvcruntimed:frame.obj
 0001:0000e510       ??Diterator@HandlerMap@__FrameHandler3@@QEAA?BU_s_HandlerType@@XZ 000000018000f510 f i libvcruntimed:frame.obj
 0001:0000e550       ??Diterator@TryBlockMap@__FrameHandler3@@QEAA?BU_s_TryBlockMapEntry@@XZ 000000018000f550 f i libvcruntimed:frame.obj
 0001:0000e5a0       ??Diterator@UWMap4@FH4@@QEAA?AUUnwindMapEntry4@2@XZ 000000018000f5a0 f i libvcruntimed:frame.obj
 0001:0000e620       ??Eiterator@HandlerMap4@FH4@@QEAAAEAV012@XZ 000000018000f620 f i libvcruntimed:frame.obj
 0001:0000e660       ??Eiterator@HandlerMap@__FrameHandler3@@QEAAAEAV012@XZ 000000018000f660 f i libvcruntimed:frame.obj
 0001:0000e680       ??Eiterator@TryBlockMap@__FrameHandler3@@QEAAAEAV012@XZ 000000018000f680 f i libvcruntimed:frame.obj
 0001:0000e6a0       ??Eiterator@UWMap4@FH4@@QEAAAEAV012@XZ 000000018000f6a0 f i libvcruntimed:frame.obj
 0001:0000e6e0       ??Giterator@UWMap4@FH4@@QEBA_JAEBV012@@Z 000000018000f6e0 f i libvcruntimed:frame.obj
 0001:0000e700       ??Miterator@TryBlockMap4@FH4@@QEBA_NAEBV012@@Z 000000018000f700 f i libvcruntimed:frame.obj
 0001:0000e740       ??Miterator@TryBlockMap@__FrameHandler3@@QEBA_NAEBV012@@Z 000000018000f740 f i libvcruntimed:frame.obj
 0001:0000e780       ??Oiterator@UWMap4@FH4@@QEBA_NAEBV012@@Z 000000018000f780 f i libvcruntimed:frame.obj
 0001:0000e7c0       ??Piterator@UWMap4@FH4@@QEBA_NAEBV012@@Z 000000018000f7c0 f i libvcruntimed:frame.obj
 0001:0000e800       ??_Ebad_exception@std@@UEAAPEAXI@Z 000000018000f800 f i libvcruntimed:frame.obj
 0001:0000e800       ??_Gbad_exception@std@@UEAAPEAXI@Z 000000018000f800 f i libvcruntimed:frame.obj
 0001:0000e840       ?BuildCatchObject@__FrameHandler3@@SAXPEAUEHExceptionRecord@@PEAXPEBU_s_HandlerType@@PEBU_s_CatchableType@@@Z 000000018000f840 f   libvcruntimed:frame.obj
 0001:0000e880       ?BuildCatchObject@__FrameHandler4@@SAXPEAUEHExceptionRecord@@PEAXPEAUHandlerType4@FH4@@PEBU_s_CatchableType@@@Z 000000018000f880 f   libvcruntimed:frame.obj
 0001:0000e8c0       ?BuildCatchObjectHelper@__FrameHandler3@@SAHPEAUEHExceptionRecord@@PEAXPEBU_s_HandlerType@@PEBU_s_CatchableType@@@Z 000000018000f8c0 f   libvcruntimed:frame.obj
 0001:0000e900       ?BuildCatchObjectHelper@__FrameHandler4@@SAHPEAUEHExceptionRecord@@PEAXPEAUHandlerType4@FH4@@PEBU_s_CatchableType@@@Z 000000018000f900 f   libvcruntimed:frame.obj
 0001:0000e940       ?CxxCallCatchBlock@__FrameHandler3@@SAPEAXPEAU_EXCEPTION_RECORD@@@Z 000000018000f940 f   libvcruntimed:frame.obj
 0001:0000eba0       ?CxxCallCatchBlock@__FrameHandler4@@SAPEAXPEAU_EXCEPTION_RECORD@@@Z 000000018000fba0 f   libvcruntimed:frame.obj
 0001:0000eed0       ?DecompHandler@HandlerMap4@FH4@@AEAAXXZ 000000018000fed0 f i libvcruntimed:frame.obj
 0001:0000f2a0       ?FrameUnwindToState@__FrameHandler3@@SAXPEA_KPEAU_xDISPATCHER_CONTEXT@@PEBU_s_FuncInfo@@H@Z 00000001800102a0 f   libvcruntimed:frame.obj
 0001:0000f4f0       ?FrameUnwindToState@__FrameHandler4@@SAXPEA_KPEAU_xDISPATCHER_CONTEXT@@PEAUFuncInfo4@FH4@@H@Z 00000001800104f0 f   libvcruntimed:frame.obj
 0001:0000f810       ?GetHandlerSearchState@__FrameHandler3@@SAHPEA_KPEAU_xDISPATCHER_CONTEXT@@PEBU_s_FuncInfo@@@Z 0000000180010810 f i libvcruntimed:frame.obj
 0001:0000f8c0       ?GetHandlerSearchState@__FrameHandler4@@SAHPEA_KPEAU_xDISPATCHER_CONTEXT@@PEAUFuncInfo4@FH4@@@Z 00000001800108c0 f i libvcruntimed:frame.obj
 0001:0000f950       ?GetMaxState@__FrameHandler3@@SAHPEAU_xDISPATCHER_CONTEXT@@PEBU_s_FuncInfo@@@Z 0000000180010950 f i libvcruntimed:frame.obj
 0001:0000f970       ?GetMaxState@__FrameHandler4@@SAHPEAU_xDISPATCHER_CONTEXT@@PEAUFuncInfo4@FH4@@@Z 0000000180010970 f i libvcruntimed:frame.obj
 0001:0000fba0       ?ReadEntry@UWMap4@FH4@@AEAAXPEAPEAE@Z 0000000180010ba0 f i libvcruntimed:frame.obj
 0001:0000fc50       ?TypeMatch@__FrameHandler3@@SAHPEBU_s_HandlerType@@PEBU_s_CatchableType@@PEBU_s_ThrowInfo@@@Z 0000000180010c50 f   libvcruntimed:frame.obj
 0001:0000fc80       ?TypeMatch@__FrameHandler4@@SAHPEAUHandlerType4@FH4@@PEBU_s_CatchableType@@PEBU_s_ThrowInfo@@@Z 0000000180010c80 f   libvcruntimed:frame.obj
 0001:0000fcb0       ?WalkBack@UWMap4@FH4@@AEAAXPEAPEAE@Z 0000000180010cb0 f i libvcruntimed:frame.obj
 0001:0000fd00       ?WalkBack@iterator@UWMap4@FH4@@QEAAXXZ 0000000180010d00 f i libvcruntimed:frame.obj
 0001:0000fd40       ?WalkForward@UWMap4@FH4@@AEAAXPEAPEAE@Z 0000000180010d40 f i libvcruntimed:frame.obj
 0001:0000fd70       ?_CallMemberFunction1@@YAXQEAX00@Z 0000000180010d70 f i libvcruntimed:frame.obj
 0001:0000fdb0       ?_CallMemberFunction2@@YAXQEAX00H@Z 0000000180010db0 f i libvcruntimed:frame.obj
 0001:0000fe40       ?begin@HandlerMap4@FH4@@QEAA?AViterator@12@XZ 0000000180010e40 f i libvcruntimed:frame.obj
 0001:0000fe70       ?begin@HandlerMap@__FrameHandler3@@QEAA?AViterator@12@XZ 0000000180010e70 f i libvcruntimed:frame.obj
 0001:0000fea0       ?begin@UWMap4@FH4@@QEAA?AViterator@12@XZ 0000000180010ea0 f i libvcruntimed:frame.obj
 0001:0000fed0       ?end@HandlerMap4@FH4@@QEAA?AViterator@12@XZ 0000000180010ed0 f i libvcruntimed:frame.obj
 0001:0000ff00       ?end@HandlerMap@__FrameHandler3@@QEAA?AViterator@12@XZ 0000000180010f00 f i libvcruntimed:frame.obj
 0001:0000ff30       ?getESTypes@__FrameHandler3@@SAPEBU_s_ESTypeList@@PEBU_s_FuncInfo@@@Z 0000000180010f30 f i libvcruntimed:frame.obj
 0001:0000ff70       ?getESTypes@__FrameHandler4@@SAPEBU_s_ESTypeList@@PEAUFuncInfo4@FH4@@@Z 0000000180010f70 f i libvcruntimed:frame.obj
 0001:0000ff80       ?getLastEntry@HandlerMap4@FH4@@QEAAPEAUHandlerType4@2@XZ 0000000180010f80 f i libvcruntimed:frame.obj
 0001:0000ffc0       ?getLastEntry@HandlerMap@__FrameHandler3@@QEAAPEBU_s_HandlerType@@XZ 0000000180010fc0 f i libvcruntimed:frame.obj
 0001:0000ffe0       ?getMagicNum@__FrameHandler3@@SAIPEBU_s_FuncInfo@@@Z 0000000180010fe0 f i libvcruntimed:frame.obj
 0001:00010000       ?getMagicNum@__FrameHandler4@@SAIPEAUFuncInfo4@FH4@@@Z 0000000180011000 f i libvcruntimed:frame.obj
 0001:00010010       ?getNumTryBlocks@TryBlockMap4@FH4@@QEAAIXZ 0000000180011010 f i libvcruntimed:frame.obj
 0001:00010020       ?getNumTryBlocks@TryBlockMap@__FrameHandler3@@QEAAIXZ 0000000180011020 f i libvcruntimed:frame.obj
 0001:00010040       ?getStartStop@UWMap4@FH4@@QEAAXHHAEAViterator@12@0@Z 0000000180011040 f i libvcruntimed:frame.obj
 0001:00010160       ?getStateFromIterators@UWMap4@FH4@@SAHAEBViterator@12@H0H0@Z 0000000180011160 f i libvcruntimed:frame.obj
 0001:000102a0       ?isEHs@__FrameHandler3@@SA_NPEBU_s_FuncInfo@@@Z 00000001800112a0 f i libvcruntimed:frame.obj
 0001:000102e0       ?isEHs@__FrameHandler4@@SA_NPEAUFuncInfo4@FH4@@@Z 00000001800112e0 f i libvcruntimed:frame.obj
 0001:00010300       ?isNoExcept@__FrameHandler3@@SA_NPEBU_s_FuncInfo@@@Z 0000000180011300 f i libvcruntimed:frame.obj
 0001:00010340       ?isNoExcept@__FrameHandler4@@SA_NPEAUFuncInfo4@FH4@@@Z 0000000180011340 f i libvcruntimed:frame.obj
 0001:00010360       ?reset@HandlerType4@FH4@@QEAAXXZ 0000000180011360 f i libvcruntimed:frame.obj
 0001:000103c0       ?resetBuffer@HandlerMap4@FH4@@QEAAXXZ 00000001800113c0 f i libvcruntimed:frame.obj
 0001:000103e0       ?setBuffer@HandlerMap4@FH4@@QEAAXI@Z 00000001800113e0 f i libvcruntimed:frame.obj
 0001:00010440       __BuildCatchObject         0000000180011440 f   libvcruntimed:frame.obj
 0001:00010480       __BuildCatchObjectHelper   0000000180011480 f   libvcruntimed:frame.obj
 0001:000104c0       __TypeMatch                00000001800114c0 f   libvcruntimed:frame.obj
 0001:000104f0       __vcrt_EncodePointer       00000001800114f0 f i libvcruntimed:frame.obj
 0001:00010540       _NLG_Notify                0000000180011540 f   libvcruntimed:notify.obj
 0001:00010560       __NLG_Dispatch2            0000000180011560 f   libvcruntimed:notify.obj
 0001:00010570       __NLG_Return2              0000000180011570 f   libvcruntimed:notify.obj
 0001:00010590       __except_validate_context_record 0000000180011590 f   libvcruntimed:jbcxrval.obj
 0001:000105f0       __except_validate_jump_buffer 00000001800115f0 f   libvcruntimed:jbcxrval.obj
 0001:00010610       __except_validate_jump_buffer_common 0000000180011610 f i libvcruntimed:jbcxrval.obj
 0001:00010690       ??$?0$00@DName@@QEAA@PEAVUnDecorator@@PEBDU?$StringLifeSelector@$00@@@Z 0000000180011690 f i libvcruntimed:undname.obj
 0001:00010710       ??$?0$00@pcharNode@@QEAA@PEBDHU?$StringLifeSelector@$00@@AEAV_HeapManager@@@Z 0000000180011710 f i libvcruntimed:undname.obj
 0001:00010770       ??$?0$01@DName@@QEAA@PEAVUnDecorator@@PEBDU?$StringLifeSelector@$01@@@Z 0000000180011770 f i libvcruntimed:undname.obj
 0001:000107f0       ??$?0$01@pcharNode@@QEAA@PEBDHU?$StringLifeSelector@$01@@AEAV_HeapManager@@@Z 00000001800117f0 f i libvcruntimed:undname.obj
 0001:000108a0       ??$?0$0A@@DName@@QEAA@PEAVUnDecorator@@PEBDU?$StringLifeSelector@$0A@@@@Z 00000001800118a0 f i libvcruntimed:undname.obj
 0001:00010920       ??$?0$0A@@pcharNode@@QEAA@PEBDHU?$StringLifeSelector@$0A@@@AEAV_HeapManager@@@Z 0000000180011920 f i libvcruntimed:undname.obj
 0001:000109d0       ??$?0_K$0A@@?$optional@_K@std@@QEAA@$$QEA_K@Z 00000001800119d0 f i libvcruntimed:undname.obj
 0001:00010a00       ??$?0_K@?$_Optional_construct_base@_K@std@@QEAA@Uin_place_t@1@$$QEA_K@Z 0000000180011a00 f i libvcruntimed:undname.obj
 0001:00010a40       ??$?0_K@?$_Optional_destruct_base@_K$00@std@@QEAA@Uin_place_t@1@$$QEA_K@Z 0000000180011a40 f i libvcruntimed:undname.obj
 0001:00010a70       ??$append@VDNameNode@@@DName@@AEAAXPEBVDNameNode@@@Z 0000000180011a70 f i libvcruntimed:undname.obj
 0001:00010b30       ??$append@VDNameStatusNode@@@DName@@AEAAXPEBVDNameStatusNode@@@Z 0000000180011b30 f i libvcruntimed:undname.obj
 0001:00010bf0       ??$append@VcharNode@@@DName@@AEAAXPEBVcharNode@@@Z 0000000180011bf0 f i libvcruntimed:undname.obj
 0001:00010cb0       ??$append@VpDNameNode@@@DName@@AEAAXPEBVpDNameNode@@@Z 0000000180011cb0 f i libvcruntimed:undname.obj
 0001:00010d70       ??$append@VpcharNode@@@DName@@AEAAXPEBVpcharNode@@@Z 0000000180011d70 f i libvcruntimed:undname.obj
 0001:00010e30       ??$doPchar@$00@DName@@AEAAXPEBDH@Z 0000000180011e30 f i libvcruntimed:undname.obj
 0001:00010fe0       ??$doPchar@$01@DName@@AEAAXPEBDH@Z 0000000180011fe0 f i libvcruntimed:undname.obj
 0001:00011190       ??$doPchar@$0A@@DName@@AEAAXPEBDH@Z 0000000180012190 f i libvcruntimed:undname.obj
 0001:000114e0       ??0?$_Optional_construct_base@_K@std@@QEAA@XZ 00000001800124e0 f i libvcruntimed:undname.obj
 0001:00011500       ??0?$_Optional_destruct_base@_K$00@std@@QEAA@XZ 0000000180012500 f i libvcruntimed:undname.obj
 0001:00011530       ??0?$optional@_K@std@@QEAA@XZ 0000000180012530 f i libvcruntimed:undname.obj
 0001:00011550       ??0Block@_HeapManager@@QEAA@XZ 0000000180012550 f i libvcruntimed:undname.obj
 0001:00011570       ??0DName@@QEAA@AEBV0@@Z    0000000180012570 f i libvcruntimed:undname.obj
 0001:000115c0       ??0DName@@QEAA@PEAVUnDecorator@@@Z 00000001800125c0 f i libvcruntimed:undname.obj
 0001:00011600       ??0DName@@QEAA@PEAVUnDecorator@@AEAPEBDD@Z 0000000180012600 f   libvcruntimed:undname.obj
 0001:000117f0       ??0DName@@QEAA@PEAVUnDecorator@@AEBUStringLiteral@@@Z 00000001800127f0 f   libvcruntimed:undname.obj
 0001:00011860       ??0DName@@QEAA@PEAVUnDecorator@@D@Z 0000000180012860 f   libvcruntimed:undname.obj
 0001:000118c0       ??0DName@@QEAA@PEAVUnDecorator@@PEAV0@@Z 00000001800128c0 f   libvcruntimed:undname.obj
 0001:000119c0       ??0DName@@QEAA@PEAVUnDecorator@@W4DNameStatus@@@Z 00000001800129c0 f   libvcruntimed:undname.obj
 0001:00011a90       ??0DName@@QEAA@PEAVUnDecorator@@_J@Z 0000000180012a90 f   libvcruntimed:undname.obj
 0001:00011bb0       ??0DName@@QEAA@PEAVUnDecorator@@_K@Z 0000000180012bb0 f   libvcruntimed:undname.obj
 0001:00011ca0       ??0DNameNode@@IEAA@XZ      0000000180012ca0 f i libvcruntimed:undname.obj
 0001:00011cc0       ??0Replicator@@QEAA@PEAVUnDecorator@@@Z 0000000180012cc0 f i libvcruntimed:undname.obj
 0001:00011d40       ??0UnDecorator@@QEAA@PEBDP6APEADJ@ZKP6APEAX_K@ZP6AXPEAX@Z@Z 0000000180012d40 f i libvcruntimed:undname.obj
 0001:00011ee0       ??0_HeapManager@@QEAA@P6APEAX_K@ZP6AXPEAX@Z@Z 0000000180012ee0 f i libvcruntimed:undname.obj
 0001:00011f40       ??0_Nontrivial_dummy_type@std@@QEAA@XZ 0000000180012f40 f i libvcruntimed:undname.obj
 0001:00011f50       ??0charNode@@QEAA@D@Z      0000000180012f50 f i libvcruntimed:undname.obj
 0001:00011f90       ??0pDNameNode@@QEAA@PEAVDName@@@Z 0000000180012f90 f   libvcruntimed:undname.obj
 0001:00012010       ??0pairNode@@QEAA@PEBVDNameNode@@0@Z 0000000180013010 f i libvcruntimed:undname.obj
 0001:00012090       ??2@YAPEAX_KAEAV_HeapManager@@H@Z 0000000180013090 f   libvcruntimed:undname.obj
 0001:000120f0       ??4DName@@QEAAAEAV0@AEBUStringLiteral@@@Z 00000001800130f0 f   libvcruntimed:undname.obj
 0001:00012140       ??4DName@@QEAAAEAV0@AEBV0@@Z 0000000180013140 f   libvcruntimed:undname.obj
 0001:00012170       ??4DName@@QEAAAEAV0@D@Z    0000000180013170 f i libvcruntimed:undname.obj
 0001:000121b0       ??4DName@@QEAAAEAV0@PEAV0@@Z 00000001800131b0 f   libvcruntimed:undname.obj
 0001:00012280       ??4DName@@QEAAAEAV0@W4DNameStatus@@@Z 0000000180013280 f   libvcruntimed:undname.obj
 0001:00012310       ??AReplicator@@QEBA?AVDName@@H@Z 0000000180013310 f   libvcruntimed:undname.obj
 0001:000123b0       ??B?$optional@_K@std@@QEBA_NXZ 00000001800133b0 f i libvcruntimed:undname.obj
 0001:000123c0       ??D?$_Optional_construct_base@_K@std@@QEGAAAEA_KXZ 00000001800133c0 f i libvcruntimed:undname.obj
 0001:00012440       ??H@YA?AVDName@@AEBUStringLiteral@@AEBV0@@Z 0000000180013440 f i libvcruntimed:undname.obj
 0001:00012490       ??H@YA?AVDName@@DAEBV0@@Z  0000000180013490 f i libvcruntimed:undname.obj
 0001:000124e0       ??H@YA?AVDName@@W4DNameStatus@@AEBV0@@Z 00000001800134e0 f i libvcruntimed:undname.obj
 0001:00012530       ??HDName@@QEBA?AV0@AEBUStringLiteral@@@Z 0000000180013530 f   libvcruntimed:undname.obj
 0001:00012570       ??HDName@@QEBA?AV0@AEBV0@@Z 0000000180013570 f   libvcruntimed:undname.obj
 0001:000125b0       ??HDName@@QEBA?AV0@D@Z     00000001800135b0 f   libvcruntimed:undname.obj
 0001:000125f0       ??HDName@@QEBA?AV0@PEAV0@@Z 00000001800135f0 f   libvcruntimed:undname.obj
 0001:00012630       ??HDName@@QEBA?AV0@W4DNameStatus@@@Z 0000000180013630 f   libvcruntimed:undname.obj
 0001:00012670       ??HStringLiteral@@QEBA?AU0@H@Z 0000000180013670 f i libvcruntimed:undname.obj
 0001:000126b0       ??YDName@@QEAAAEAV0@AEBUStringLiteral@@@Z 00000001800136b0 f   libvcruntimed:undname.obj
 0001:000127d0       ??YDName@@QEAAAEAV0@AEBV0@@Z 00000001800137d0 f   libvcruntimed:undname.obj
 0001:00012890       ??YDName@@QEAAAEAV0@D@Z    0000000180013890 f   libvcruntimed:undname.obj
 0001:00012940       ??YDName@@QEAAAEAV0@PEAV0@@Z 0000000180013940 f   libvcruntimed:undname.obj
 0001:00012a30       ??YDName@@QEAAAEAV0@W4DNameStatus@@@Z 0000000180013a30 f   libvcruntimed:undname.obj
 0001:00012ab0       ??YReplicator@@QEAAAEAV0@AEBVDName@@@Z 0000000180013ab0 f   libvcruntimed:undname.obj
 0001:00012b80       ??_5DName@@QEAAAEAV0@AEBV0@@Z 0000000180013b80 f   libvcruntimed:undname.obj
 0001:00012c00       ??__K_l@@YA?AUStringLiteral@@PEBD_K@Z 0000000180013c00 f i libvcruntimed:undname.obj
 0001:00012c30       ?Destructor@UnDecorator@@QEAAXXZ 0000000180013c30 f i libvcruntimed:undname.obj
 0001:00012c60       ?Destructor@_HeapManager@@QEAAXXZ 0000000180013c60 f i libvcruntimed:undname.obj
 0001:00012d00       ?UScore@UnDecorator@@QEAA?AUStringLiteral@@W4Tokens@@@Z 0000000180013d00 f   libvcruntimed:undname.obj
 0001:00012d90       ?composeDeclaration@UnDecorator@@AEAA?AVDName@@AEBV2@@Z 0000000180013d90 f i libvcruntimed:undname.obj
 0001:00015510       ?doAccessSpecifiers@UnDecorator@@QEAAHXZ 0000000180016510 f i libvcruntimed:undname.obj
 0001:00015550       ?doAllocationLanguage@UnDecorator@@QEAAHXZ 0000000180016550 f i libvcruntimed:undname.obj
 0001:00015590       ?doAllocationModel@UnDecorator@@QEAAHXZ 0000000180016590 f i libvcruntimed:undname.obj
 0001:000155d0       ?doEcsu@UnDecorator@@QEAAHXZ 00000001800165d0 f i libvcruntimed:undname.obj
 0001:00015610       ?doEllipsis@UnDecorator@@QEAAHXZ 0000000180016610 f i libvcruntimed:undname.obj
 0001:00015650       ?doFunctionReturns@UnDecorator@@QEAAHXZ 0000000180016650 f i libvcruntimed:undname.obj
 0001:00015690       ?doMSKeywords@UnDecorator@@QEAAHXZ 0000000180016690 f i libvcruntimed:undname.obj
 0001:000156d0       ?doMemberTypes@UnDecorator@@QEAAHXZ 00000001800166d0 f i libvcruntimed:undname.obj
 0001:00015710       ?doNameOnly@UnDecorator@@QEAAHXZ 0000000180016710 f i libvcruntimed:undname.obj
 0001:00015730       ?doNoIdentCharCheck@UnDecorator@@QEAAHXZ 0000000180016730 f i libvcruntimed:undname.obj
 0001:00015750       ?doPchar@DName@@AEAAXD@Z   0000000180016750 f   libvcruntimed:undname.obj
 0001:000157f0       ?doPtr64@UnDecorator@@QEAAHXZ 00000001800167f0 f i libvcruntimed:undname.obj
 0001:00015830       ?doRestrictionSpec@UnDecorator@@QEAAHXZ 0000000180016830 f i libvcruntimed:undname.obj
 0001:00015870       ?doThisTypes@UnDecorator@@QEAAHXZ 0000000180016870 f i libvcruntimed:undname.obj
 0001:000158b0       ?doThrowTypes@UnDecorator@@QEAAHXZ 00000001800168b0 f i libvcruntimed:undname.obj
 0001:000158f0       ?doTypeOnly@UnDecorator@@QEAAHXZ 00000001800168f0 f i libvcruntimed:undname.obj
 0001:00015910       ?doUnderScore@UnDecorator@@QEAAHXZ 0000000180016910 f i libvcruntimed:undname.obj
 0001:00015950       ?getAddressOf@UnDecorator@@AEAA?AVDName@@XZ 0000000180016950 f   libvcruntimed:undname.obj
 0001:00015a10       ?getArgumentList@UnDecorator@@AEAA?AVDName@@XZ 0000000180016a10 f   libvcruntimed:undname.obj
 0001:00015c30       ?getArgumentTypes@UnDecorator@@AEAA?AVDName@@XZ 0000000180016c30 f   libvcruntimed:undname.obj
 0001:00015f50       ?getArrayAccess@UnDecorator@@AEAA?AVDName@@XZ 0000000180016f50 f   libvcruntimed:undname.obj
 0001:00016030       ?getArrayObject@UnDecorator@@AEAA?AVDName@@XZ 0000000180017030 f   libvcruntimed:undname.obj
 0001:000161e0       ?getArrayType@UnDecorator@@AEAA?AVDName@@AEBV2@@Z 00000001800171e0 f i libvcruntimed:undname.obj
 0001:00016610       ?getBasedType@UnDecorator@@AEAA?AVDName@@XZ 0000000180017610 f   libvcruntimed:undname.obj
 0001:00016780       ?getBasicDataType@UnDecorator@@AEAA?AVDName@@AEBV2@@Z 0000000180017780 f   libvcruntimed:undname.obj
 0001:000176d0       ?getCHPEName@UnDecorator@@QEAAPEADPEADH@Z 00000001800186d0 f i libvcruntimed:undname.obj
 0001:00017920       ?getCallIndex@UnDecorator@@AEAA?AVDName@@XZ 0000000180018920 f i libvcruntimed:undname.obj
 0001:00017950       ?getCallingConvention@UnDecorator@@AEAA?AVDName@@XZ 0000000180018950 f   libvcruntimed:undname.obj
 0001:00017ca0       ?getDataIndirectType@UnDecorator@@AEAA?AVDName@@AEBV2@W4IndirectionKind@@0H@Z 0000000180018ca0 f   libvcruntimed:undname.obj
 0001:00018a80       ?getDataIndirectType@UnDecorator@@AEAA?AVDName@@XZ 0000000180019a80 f i libvcruntimed:undname.obj
 0001:00018b00       ?getDataType@UnDecorator@@AEAA?AVDName@@PEAV2@@Z 0000000180019b00 f   libvcruntimed:undname.obj
 0001:00018d00       ?getDecoratedName@UnDecorator@@AEAA?AVDName@@XZ 0000000180019d00 f   libvcruntimed:undname.obj
 0001:00019310       ?getDimension@UnDecorator@@AEAA?AVDName@@_N@Z 000000018001a310 f   libvcruntimed:undname.obj
 0001:00019660       ?getDispatchTarget@UnDecorator@@AEAA?AVDName@@XZ 000000018001a660 f   libvcruntimed:undname.obj
 0001:00019740       ?getDisplacement@UnDecorator@@AEAA?AVDName@@XZ 000000018001a740 f i libvcruntimed:undname.obj
 0001:00019770       ?getECSUDataType@UnDecorator@@AEAA?AVDName@@XZ 000000018001a770 f   libvcruntimed:undname.obj
 0001:00019c30       ?getECSUName@UnDecorator@@AEAA?AVDName@@XZ 000000018001ac30 f i libvcruntimed:undname.obj
 0001:00019c60       ?getEnumType@UnDecorator@@AEAA?AVDName@@XZ 000000018001ac60 f i libvcruntimed:undname.obj
 0001:00019f20       ?getExtendedDataIndirectType@UnDecorator@@AEAA?AVDName@@AEAW4IndirectionKind@@AEA_NH@Z 000000018001af20 f   libvcruntimed:undname.obj
 0001:0001a340       ?getExternalDataType@UnDecorator@@AEAA?AVDName@@AEBV2@@Z 000000018001b340 f i libvcruntimed:undname.obj
 0001:0001a430       ?getFloatingPoint@UnDecorator@@AEAA?AVDName@@H@Z 000000018001b430 f   libvcruntimed:undname.obj
 0001:0001a5c0       ?getFunctionIndirectType@UnDecorator@@AEAA?AVDName@@AEBV2@@Z 000000018001b5c0 f   libvcruntimed:undname.obj
 0001:0001ad30       ?getGuardNumber@UnDecorator@@AEAA?AVDName@@XZ 000000018001bd30 f i libvcruntimed:undname.obj
 0001:0001ad60       ?getHeap@UnDecorator@@QEAAAEAV_HeapManager@@XZ 000000018001bd60 f i libvcruntimed:undname.obj
 0001:0001ad80       ?getLastChar@DName@@QEBADXZ 000000018001bd80 f i libvcruntimed:undname.obj
 0001:0001add0       ?getLastChar@DNameStatusNode@@UEBADXZ 000000018001bdd0 f i libvcruntimed:undname.obj
 0001:0001ae10       ?getLastChar@charNode@@UEBADXZ 000000018001be10 f i libvcruntimed:undname.obj
 0001:0001ae20       ?getLastChar@pDNameNode@@UEBADXZ 000000018001be20 f i libvcruntimed:undname.obj
 0001:0001ae60       ?getLastChar@pairNode@@UEBADXZ 000000018001be60 f i libvcruntimed:undname.obj
 0001:0001aee0       ?getLastChar@pcharNode@@UEBADXZ 000000018001bee0 f i libvcruntimed:undname.obj
 0001:0001af20       ?getLexicalFrame@UnDecorator@@AEAA?AVDName@@XZ 000000018001bf20 f i libvcruntimed:undname.obj
 0001:0001af80       ?getMemberAccess@UnDecorator@@AEAA?AVDName@@XZ 000000018001bf80 f   libvcruntimed:undname.obj
 0001:0001b060       ?getMemoryWithBuffer@_HeapManager@@QEAAPEAX_K@Z 000000018001c060 f   libvcruntimed:undname.obj
 0001:0001b1a0       ?getMemoryWithoutBuffer@_HeapManager@@QEAAPEAX_K@Z 000000018001c1a0 f   libvcruntimed:undname.obj
 0001:0001b1f0       ?getNoexcept@UnDecorator@@AEAA?AVDName@@XZ 000000018001c1f0 f   libvcruntimed:undname.obj
 0001:0001b2a0       ?getNumberOfDimensions@UnDecorator@@AEAAHXZ 000000018001c2a0 f   libvcruntimed:undname.obj
 0001:0001b3b0       ?getOperatorName@UnDecorator@@AEAA?AVDName@@_NPEA_N@Z 000000018001c3b0 f i libvcruntimed:undname.obj
 0001:0001c4e0       ?getPointerToMember@UnDecorator@@AEAA?AVDName@@XZ 000000018001d4e0 f   libvcruntimed:undname.obj
 0001:0001c670       ?getPointerType@UnDecorator@@AEAA?AVDName@@AEBV2@0@Z 000000018001d670 f i libvcruntimed:undname.obj
 0001:0001c6c0       ?getPointerTypeArray@UnDecorator@@AEAA?AVDName@@AEBV2@0@Z 000000018001d6c0 f i libvcruntimed:undname.obj
 0001:0001c710       ?getPrimaryDataType@UnDecorator@@AEAA?AVDName@@AEBV2@@Z 000000018001d710 f   libvcruntimed:undname.obj
 0001:0001cdd0       ?getPtrRefDataType@UnDecorator@@AEAA?AVDName@@AEBV2@H@Z 000000018001ddd0 f   libvcruntimed:undname.obj
 0001:0001d230       ?getPtrRefType@UnDecorator@@AEAA?AVDName@@AEBV2@0W4IndirectionKind@@@Z 000000018001e230 f   libvcruntimed:undname.obj
 0001:0001d4c0       ?getReferenceType@UnDecorator@@AEAA?AVDName@@AEBV2@0W4IndirectionKind@@@Z 000000018001e4c0 f i libvcruntimed:undname.obj
 0001:0001d510       ?getRestrictionSpec@UnDecorator@@AEAA?AVDName@@XZ 000000018001e510 f   libvcruntimed:undname.obj
 0001:0001d7c0       ?getReturnType@UnDecorator@@AEAA?AVDName@@PEAV2@@Z 000000018001e7c0 f   libvcruntimed:undname.obj
 0001:0001d830       ?getScope@UnDecorator@@AEAA?AVDName@@XZ 000000018001e830 f   libvcruntimed:undname.obj
 0001:0001e0a0       ?getScopedName@UnDecorator@@AEAA?AVDName@@XZ 000000018001f0a0 f   libvcruntimed:undname.obj
 0001:0001e2f0       ?getSignedDimension@UnDecorator@@AEAA?AVDName@@XZ 000000018001f2f0 f   libvcruntimed:undname.obj
 0001:0001e3a0       ?getStorageConvention@UnDecorator@@AEAA?AVDName@@XZ 000000018001f3a0 f i libvcruntimed:undname.obj
 0001:0001e3d0       ?getString@DName@@QEBAPEADPEAD0@Z 000000018001f3d0 f i libvcruntimed:undname.obj
 0001:0001e450       ?getString@DName@@QEBAPEADPEADH@Z 000000018001f450 f i libvcruntimed:undname.obj
 0001:0001e510       ?getString@DNameStatusNode@@UEBAPEADPEAD0@Z 000000018001f510 f i libvcruntimed:undname.obj
 0001:0001e560       ?getString@charNode@@UEBAPEADPEAD0@Z 000000018001f560 f i libvcruntimed:undname.obj
 0001:0001e5a0       ?getString@pDNameNode@@UEBAPEADPEAD0@Z 000000018001f5a0 f i libvcruntimed:undname.obj
 0001:0001e600       ?getString@pairNode@@UEBAPEADPEAD0@Z 000000018001f600 f i libvcruntimed:undname.obj
 0001:0001e6d0       ?getString@pcharNode@@UEBAPEADPEAD0@Z 000000018001f6d0 f i libvcruntimed:undname.obj
 0001:0001e710       ?getStringEncoding@UnDecorator@@AEAA?AVDName@@W4PrefixKind@@H@Z 000000018001f710 f   libvcruntimed:undname.obj
 0001:0001e8e0       ?getStringHelper@@YAPEADPEADPEBD1H@Z 000000018001f8e0 f i libvcruntimed:undname.obj
 0001:0001e950       ?getStringObject@UnDecorator@@AEAA?AVDName@@XZ 000000018001f950 f   libvcruntimed:undname.obj
 0001:0001ea30       ?getSymbolName@UnDecorator@@AEAA?AVDName@@XZ 000000018001fa30 f i libvcruntimed:undname.obj
 0001:0001eae0       ?getTemplateArgumentList@UnDecorator@@AEAA?AVDName@@XZ 000000018001fae0 f   libvcruntimed:undname.obj
 0001:0001eee0       ?getTemplateName@UnDecorator@@AEAA?AVDName@@_N@Z 000000018001fee0 f   libvcruntimed:undname.obj
 0001:0001f1d0       ?getTemplateNonTypeArgument@UnDecorator@@AEAA?AVDName@@XZ 00000001800201d0 f   libvcruntimed:undname.obj
 0001:0001fba0       ?getTemplateTypeArgument@UnDecorator@@AEAA?AVDName@@XZ 0000000180020ba0 f   libvcruntimed:undname.obj
 0001:0001fe80       ?getThisType@UnDecorator@@AEAA?AVDName@@XZ 0000000180020e80 f i libvcruntimed:undname.obj
 0001:0001ff00       ?getThrowTypes@UnDecorator@@AEAA?AVDName@@XZ 0000000180020f00 f   libvcruntimed:undname.obj
 0001:0001ff50       ?getTypeEncoding@UnDecorator@@AEAAHXZ 0000000180020f50 f i libvcruntimed:undname.obj
 0001:00020c80       ?getUndecoratedName@UnDecorator@@QEAAPEADPEADH@Z 0000000180021c80 f i libvcruntimed:undname.obj
 0001:00020eb0       ?getUnionObject@UnDecorator@@AEAA?AVDName@@XZ 0000000180021eb0 f   libvcruntimed:undname.obj
 0001:00021010       ?getVCallThunkType@UnDecorator@@AEAA?AVDName@@XZ 0000000180022010 f i libvcruntimed:undname.obj
 0001:000210d0       ?getValue@UnDecorator@@AEAA?AV?$optional@_K@std@@XZ 00000001800220d0 f   libvcruntimed:undname.obj
 0001:000211b0       ?getValueObject@UnDecorator@@AEAA?AVDName@@XZ 00000001800221b0 f   libvcruntimed:undname.obj
 0001:000214c0       ?getVbTableType@UnDecorator@@AEAA?AVDName@@AEBV2@@Z 00000001800224c0 f i libvcruntimed:undname.obj
 0001:00021500       ?getVdispMapType@UnDecorator@@AEAA?AVDName@@AEBV2@@Z 0000000180022500 f i libvcruntimed:undname.obj
 0001:000215d0       ?getVfTableType@UnDecorator@@AEAA?AVDName@@AEBV2@@Z 00000001800225d0 f i libvcruntimed:undname.obj
 0001:000218e0       ?getZName@UnDecorator@@AEAA?AVDName@@_N0@Z 00000001800228e0 f   libvcruntimed:undname.obj
 0001:00021e10       ?get_current_character_and_increment_buffer@UnDecorator@@AEAADXZ 0000000180022e10 f i libvcruntimed:undname.obj
 0001:00021e60       ?haveTemplateParameters@UnDecorator@@QEAAHXZ 0000000180022e60 f i libvcruntimed:undname.obj
 0001:00021e80       ?increment_buffer@UnDecorator@@AEAA_N_K@Z 0000000180022e80 f i libvcruntimed:undname.obj
 0001:00021ef0       ?increment_buffer_no_check@UnDecorator@@AEAAXXZ 0000000180022ef0 f i libvcruntimed:undname.obj
 0001:00021f20       ?increment_buffer_no_check@UnDecorator@@AEAAX_K@Z 0000000180022f20 f i libvcruntimed:undname.obj
 0001:00021f80       ?isArray@DName@@QEBAHXZ    0000000180022f80 f i libvcruntimed:undname.obj
 0001:00021fa0       ?isComArray@DName@@QEBAHXZ 0000000180022fa0 f i libvcruntimed:undname.obj
 0001:00021fc0       ?isEmpty@DName@@QEBAHXZ    0000000180022fc0 f i libvcruntimed:undname.obj
 0001:00021ff0       ?isFull@Replicator@@QEBAHXZ 0000000180022ff0 f i libvcruntimed:undname.obj
 0001:00022020       ?isNoTE@DName@@QEBAHXZ     0000000180023020 f i libvcruntimed:undname.obj
 0001:00022040       ?isPinPtr@DName@@QEBAHXZ   0000000180023040 f i libvcruntimed:undname.obj
 0001:00022060       ?isPtrRef@DName@@QEBAHXZ   0000000180023060 f i libvcruntimed:undname.obj
 0001:00022080       ?isUDC@DName@@QEBAHXZ      0000000180023080 f i libvcruntimed:undname.obj
 0001:000220d0       ?isUDTThunk@DName@@QEBAHXZ 00000001800230d0 f i libvcruntimed:undname.obj
 0001:00022120       ?isVCallThunk@DName@@QEBAHXZ 0000000180023120 f i libvcruntimed:undname.obj
 0001:00022140       ?isValid@DName@@QEBAHXZ    0000000180023140 f i libvcruntimed:undname.obj
 0001:00022180       ?length@DName@@QEBAHXZ     0000000180023180 f i libvcruntimed:undname.obj
 0001:000221d0       ?length@DNameStatusNode@@UEBAHXZ 00000001800231d0 f i libvcruntimed:undname.obj
 0001:000221e0       ?length@charNode@@UEBAHXZ  00000001800231e0 f i libvcruntimed:undname.obj
 0001:000221f0       ?length@pDNameNode@@UEBAHXZ 00000001800231f0 f i libvcruntimed:undname.obj
 0001:00022230       ?length@pairNode@@UEBAHXZ  0000000180023230 f i libvcruntimed:undname.obj
 0001:000222c0       ?length@pcharNode@@UEBAHXZ 00000001800232c0 f i libvcruntimed:undname.obj
 0001:000222d0       ?make@DNameStatusNode@@SAPEBV1@W4DNameStatus@@@Z 00000001800232d0 f i libvcruntimed:undname.obj
 0001:00022320       ?parseDecoratedName@UnDecorator@@AEAA?AVDName@@XZ 0000000180023320 f   libvcruntimed:undname.obj
 0001:000225d0       ?raw_length@DNameStatusNode@@UEBAHXZ 00000001800235d0 f i libvcruntimed:undname.obj
 0001:000225f0       ?raw_length@charNode@@UEBAHXZ 00000001800235f0 f i libvcruntimed:undname.obj
 0001:00022610       ?raw_length@pDNameNode@@UEBAHXZ 0000000180023610 f i libvcruntimed:undname.obj
 0001:00022620       ?raw_length@pairNode@@UEBAHXZ 0000000180023620 f i libvcruntimed:undname.obj
 0001:00022630       ?raw_length@pcharNode@@UEBAHXZ 0000000180023630 f i libvcruntimed:undname.obj
 0001:00022650       ?setIsArray@DName@@QEAAXXZ 0000000180023650 f i libvcruntimed:undname.obj
 0001:00022670       ?setIsComArray@DName@@QEAAXXZ 0000000180023670 f i libvcruntimed:undname.obj
 0001:00022690       ?setIsNoTE@DName@@QEAAXXZ  0000000180023690 f i libvcruntimed:undname.obj
 0001:000226b0       ?setIsPinPtr@DName@@QEAAXXZ 00000001800236b0 f i libvcruntimed:undname.obj
 0001:000226d0       ?setIsUDC@DName@@QEAAXXZ   00000001800236d0 f i libvcruntimed:undname.obj
 0001:00022700       ?setIsVCallThunk@DName@@QEAAXXZ 0000000180023700 f i libvcruntimed:undname.obj
 0001:00022720       ?setPtrRef@DName@@QEAAAEAV1@XZ 0000000180023720 f i libvcruntimed:undname.obj
 0001:00022740       ?status@DName@@QEBA?AW4DNameStatus@@XZ 0000000180023740 f i libvcruntimed:undname.obj
 0001:00022870       __unDName                  0000000180023870 f   libvcruntimed:undname.obj
 0001:000228d0       __unDNameEx                00000001800238d0 f   libvcruntimed:undname.obj
 0001:00022990       snprintf                   0000000180023990 f i libvcruntimed:undname.obj
 0001:000229f0       unDNameGenerateCHPE        00000001800239f0 f   libvcruntimed:undname.obj
 0001:00022a90       __vcrt_initialize_locks    0000000180023a90 f   libvcruntimed:locks.obj
 0001:00022b00       __vcrt_lock                0000000180023b00 f   libvcruntimed:locks.obj
 0001:00022b30       __vcrt_uninitialize_locks  0000000180023b30 f   libvcruntimed:locks.obj
 0001:00022b90       __vcrt_unlock              0000000180023b90 f   libvcruntimed:locks.obj
 0001:00022bc0       ??$__crt_interlocked_exchange_pointer@UHINSTANCE__@@PEAU1@@@YAPEAUHINSTANCE__@@PEDSEAU0@QEAU0@@Z 0000000180023bc0 f i libvcruntimed:winapi_downlevel.obj
 0001:00022be0       ??$__crt_interlocked_exchange_pointer@UHINSTANCE__@@PEAX@@YAPEAUHINSTANCE__@@PEDSEAU0@QEAX@Z 0000000180023be0 f i libvcruntimed:winapi_downlevel.obj
 0001:00022c00       ??$__crt_interlocked_exchange_pointer@XPEAX@@YAPEAXPEDSEAXQEAX@Z 0000000180023c00 f i libvcruntimed:winapi_downlevel.obj
 0001:00022c20       ??$__crt_interlocked_read_pointer@UHINSTANCE__@@@@YAPEAUHINSTANCE__@@PEDSEAU0@@Z 0000000180023c20 f i libvcruntimed:winapi_downlevel.obj
 0001:00022c40       ??$__crt_interlocked_read_pointer@X@@YAPEAXPEDSEAX@Z 0000000180023c40 f i libvcruntimed:winapi_downlevel.obj
 0001:00023150       __vcrt_FlsAlloc            0000000180024150 f   libvcruntimed:winapi_downlevel.obj
 0001:000231a0       __vcrt_FlsFree             00000001800241a0 f   libvcruntimed:winapi_downlevel.obj
 0001:000231f0       __vcrt_FlsGetValue         00000001800241f0 f   libvcruntimed:winapi_downlevel.obj
 0001:00023240       __vcrt_FlsSetValue         0000000180024240 f   libvcruntimed:winapi_downlevel.obj
 0001:000232a0       __vcrt_InitializeCriticalSectionEx 00000001800242a0 f   libvcruntimed:winapi_downlevel.obj
 0001:00023350       _CallSettingFrame          0000000180024350 f   libvcruntimed:handlers.obj
 0001:00023390       _CallSettingFrame_LookupContinuationIndex 0000000180024390 f   libvcruntimed:handlers.obj
 0001:000233c0       _CallSettingFrame_NotifyContinuationAddr 00000001800243c0 f   libvcruntimed:handlers.obj
 0001:000233f0       _CallSettingFrameEncoded   00000001800243f0 f   libvcruntimed:handlers.obj
 0001:00023440       ??$?0AEBV?$stream_output_adapter@D@__crt_stdio_output@@AEB_KAEBQEBDAEAV__crt_cached_ptd_host@@AEBQEAD@?$format_validation_base@DV?$stream_output_adapter@D@__crt_stdio_output@@@__crt_stdio_output@@IEAA@AEBV?$stream_output_adapter@D@1@AEB_KAEBQEBDAEAV__crt_cached_ptd_host@@AEBQEAD@Z 0000000180024440 f i libucrtd:output.obj
 0001:00023490       ??$?0AEBV?$stream_output_adapter@D@__crt_stdio_output@@AEB_KAEBQEBDAEAV__crt_cached_ptd_host@@AEBQEAD@?$positional_parameter_base@DV?$stream_output_adapter@D@__crt_stdio_output@@@__crt_stdio_output@@IEAA@AEBV?$stream_output_adapter@D@1@AEB_KAEBQEBDAEAV__crt_cached_ptd_host@@AEBQEAD@Z 0000000180024490 f i libucrtd:output.obj
 0001:00023530       ??$?0AEBV?$stream_output_adapter@D@__crt_stdio_output@@AEB_KAEBQEBDAEAV__crt_cached_ptd_host@@AEBQEAD@?$standard_base@DV?$stream_output_adapter@D@__crt_stdio_output@@@__crt_stdio_output@@IEAA@AEBV?$stream_output_adapter@D@1@AEB_KAEBQEBDAEAV__crt_cached_ptd_host@@AEBQEAD@Z 0000000180024530 f i libucrtd:output.obj
 0001:000235a0       ??$?0AEBV?$stream_output_adapter@_W@__crt_stdio_output@@AEB_KAEBQEB_WAEAV__crt_cached_ptd_host@@AEBQEAD@?$format_validation_base@_WV?$stream_output_adapter@_W@__crt_stdio_output@@@__crt_stdio_output@@IEAA@AEBV?$stream_output_adapter@_W@1@AEB_KAEBQEB_WAEAV__crt_cached_ptd_host@@AEBQEAD@Z 00000001800245a0 f i libucrtd:output.obj
 0001:000235f0       ??$?0AEBV?$stream_output_adapter@_W@__crt_stdio_output@@AEB_KAEBQEB_WAEAV__crt_cached_ptd_host@@AEBQEAD@?$positional_parameter_base@_WV?$stream_output_adapter@_W@__crt_stdio_output@@@__crt_stdio_output@@IEAA@AEBV?$stream_output_adapter@_W@1@AEB_KAEBQEB_WAEAV__crt_cached_ptd_host@@AEBQEAD@Z 00000001800245f0 f i libucrtd:output.obj
 0001:00023690       ??$?0AEBV?$stream_output_adapter@_W@__crt_stdio_output@@AEB_KAEBQEB_WAEAV__crt_cached_ptd_host@@AEBQEAD@?$standard_base@_WV?$stream_output_adapter@_W@__crt_stdio_output@@@__crt_stdio_output@@IEAA@AEBV?$stream_output_adapter@_W@1@AEB_KAEBQEB_WAEAV__crt_cached_ptd_host@@AEBQEAD@Z 0000000180024690 f i libucrtd:output.obj
 0001:00023700       ??$?0AEBV?$string_output_adapter@D@__crt_stdio_output@@AEB_KAEBQEBDAEAV__crt_cached_ptd_host@@AEBQEAD@?$format_validation_base@DV?$string_output_adapter@D@__crt_stdio_output@@@__crt_stdio_output@@IEAA@AEBV?$string_output_adapter@D@1@AEB_KAEBQEBDAEAV__crt_cached_ptd_host@@AEBQEAD@Z 0000000180024700 f i libucrtd:output.obj
 0001:00023750       ??$?0AEBV?$string_output_adapter@D@__crt_stdio_output@@AEB_KAEBQEBDAEAV__crt_cached_ptd_host@@AEBQEAD@?$positional_parameter_base@DV?$string_output_adapter@D@__crt_stdio_output@@@__crt_stdio_output@@IEAA@AEBV?$string_output_adapter@D@1@AEB_KAEBQEBDAEAV__crt_cached_ptd_host@@AEBQEAD@Z 0000000180024750 f i libucrtd:output.obj
 0001:000237f0       ??$?0AEBV?$string_output_adapter@D@__crt_stdio_output@@AEB_KAEBQEBDAEAV__crt_cached_ptd_host@@AEBQEAD@?$standard_base@DV?$string_output_adapter@D@__crt_stdio_output@@@__crt_stdio_output@@IEAA@AEBV?$string_output_adapter@D@1@AEB_KAEBQEBDAEAV__crt_cached_ptd_host@@AEBQEAD@Z 00000001800247f0 f i libucrtd:output.obj
 0001:00023860       ??$?0AEBV?$string_output_adapter@_W@__crt_stdio_output@@AEB_KAEBQEB_WAEAV__crt_cached_ptd_host@@AEBQEAD@?$format_validation_base@_WV?$string_output_adapter@_W@__crt_stdio_output@@@__crt_stdio_output@@IEAA@AEBV?$string_output_adapter@_W@1@AEB_KAEBQEB_WAEAV__crt_cached_ptd_host@@AEBQEAD@Z 0000000180024860 f i libucrtd:output.obj
 0001:000238b0       ??$?0AEBV?$string_output_adapter@_W@__crt_stdio_output@@AEB_KAEBQEB_WAEAV__crt_cached_ptd_host@@AEBQEAD@?$positional_parameter_base@_WV?$string_output_adapter@_W@__crt_stdio_output@@@__crt_stdio_output@@IEAA@AEBV?$string_output_adapter@_W@1@AEB_KAEBQEB_WAEAV__crt_cached_ptd_host@@AEBQEAD@Z 00000001800248b0 f i libucrtd:output.obj
 0001:00023950       ??$?0AEBV?$string_output_adapter@_W@__crt_stdio_output@@AEB_KAEBQEB_WAEAV__crt_cached_ptd_host@@AEBQEAD@?$standard_base@_WV?$string_output_adapter@_W@__crt_stdio_output@@@__crt_stdio_output@@IEAA@AEBV?$string_output_adapter@_W@1@AEB_KAEBQEB_WAEAV__crt_cached_ptd_host@@AEBQEAD@Z 0000000180024950 f i libucrtd:output.obj
 0001:00023de0       ??$__crt_interlocked_read@J@@YAJPEDJ@Z 0000000180024de0 f i libucrtd:output.obj
 0001:00023e00       ??$_tcstol_internal@DPEAPEAD$0A@@@YAJAEAV__crt_cached_ptd_host@@QEBDQEAPEADH@Z 0000000180024e00 f i libucrtd:output.obj
 0001:00023e50       ??$_tcstol_internal@_WPEAPEA_W$0A@@@YAJAEAV__crt_cached_ptd_host@@QEB_WQEAPEA_WH@Z 0000000180024e50 f i libucrtd:output.obj
 0001:00027e70       ??$count@D@formatting_buffer@__crt_stdio_output@@QEBA_KXZ 0000000180028e70 f i libucrtd:output.obj
 0001:00027ec0       ??$count@_W@formatting_buffer@__crt_stdio_output@@QEBA_KXZ 0000000180028ec0 f i libucrtd:output.obj
 0001:00027f10       ??$data@D@formatting_buffer@__crt_stdio_output@@QEAAPEADXZ 0000000180028f10 f i libucrtd:output.obj
 0001:00027f60       ??$data@_W@formatting_buffer@__crt_stdio_output@@QEAAPEA_WXZ 0000000180028f60 f i libucrtd:output.obj
 0001:00027fb0       ??$ensure_buffer_is_big_enough@D@formatting_buffer@__crt_stdio_output@@QEAA_N_KAEAV__crt_cached_ptd_host@@@Z 0000000180028fb0 f i libucrtd:output.obj
 0001:000280f0       ??$ensure_buffer_is_big_enough@_W@formatting_buffer@__crt_stdio_output@@QEAA_N_KAEAV__crt_cached_ptd_host@@@Z 00000001800290f0 f i libucrtd:output.obj
 0001:00028230       ??$extract_argument_from_va_list@C_J@?$positional_parameter_base@DV?$stream_output_adapter@D@__crt_stdio_output@@@__crt_stdio_output@@IEAA_NAEA_J@Z 0000000180029230 f i libucrtd:output.obj
 0001:000283f0       ??$extract_argument_from_va_list@C_J@?$positional_parameter_base@DV?$string_output_adapter@D@__crt_stdio_output@@@__crt_stdio_output@@IEAA_NAEA_J@Z 00000001800293f0 f i libucrtd:output.obj
 0001:000285b0       ??$extract_argument_from_va_list@C_J@?$positional_parameter_base@_WV?$stream_output_adapter@_W@__crt_stdio_output@@@__crt_stdio_output@@IEAA_NAEA_J@Z 00000001800295b0 f i libucrtd:output.obj
 0001:00028770       ??$extract_argument_from_va_list@C_J@?$positional_parameter_base@_WV?$string_output_adapter@_W@__crt_stdio_output@@@__crt_stdio_output@@IEAA_NAEA_J@Z 0000000180029770 f i libucrtd:output.obj
 0001:00028930       ??$extract_argument_from_va_list@C_J@?$standard_base@DV?$stream_output_adapter@D@__crt_stdio_output@@@__crt_stdio_output@@IEAA_NAEA_J@Z 0000000180029930 f i libucrtd:output.obj
 0001:00028970       ??$extract_argument_from_va_list@C_J@?$standard_base@DV?$string_output_adapter@D@__crt_stdio_output@@@__crt_stdio_output@@IEAA_NAEA_J@Z 0000000180029970 f i libucrtd:output.obj
 0001:000289b0       ??$extract_argument_from_va_list@C_J@?$standard_base@_WV?$stream_output_adapter@_W@__crt_stdio_output@@@__crt_stdio_output@@IEAA_NAEA_J@Z 00000001800299b0 f i libucrtd:output.obj
 0001:000289f0       ??$extract_argument_from_va_list@C_J@?$standard_base@_WV?$string_output_adapter@_W@__crt_stdio_output@@@__crt_stdio_output@@IEAA_NAEA_J@Z 00000001800299f0 f i libucrtd:output.obj
 0001:00028a30       ??$extract_argument_from_va_list@E_J@?$positional_parameter_base@DV?$stream_output_adapter@D@__crt_stdio_output@@@__crt_stdio_output@@IEAA_NAEA_J@Z 0000000180029a30 f i libucrtd:output.obj
 0001:00028bf0       ??$extract_argument_from_va_list@E_J@?$positional_parameter_base@DV?$string_output_adapter@D@__crt_stdio_output@@@__crt_stdio_output@@IEAA_NAEA_J@Z 0000000180029bf0 f i libucrtd:output.obj
 0001:00028db0       ??$extract_argument_from_va_list@E_J@?$positional_parameter_base@_WV?$stream_output_adapter@_W@__crt_stdio_output@@@__crt_stdio_output@@IEAA_NAEA_J@Z 0000000180029db0 f i libucrtd:output.obj
 0001:00028f70       ??$extract_argument_from_va_list@E_J@?$positional_parameter_base@_WV?$string_output_adapter@_W@__crt_stdio_output@@@__crt_stdio_output@@IEAA_NAEA_J@Z 0000000180029f70 f i libucrtd:output.obj
 0001:00029130       ??$extract_argument_from_va_list@E_J@?$standard_base@DV?$stream_output_adapter@D@__crt_stdio_output@@@__crt_stdio_output@@IEAA_NAEA_J@Z 000000018002a130 f i libucrtd:output.obj
 0001:00029170       ??$extract_argument_from_va_list@E_J@?$standard_base@DV?$string_output_adapter@D@__crt_stdio_output@@@__crt_stdio_output@@IEAA_NAEA_J@Z 000000018002a170 f i libucrtd:output.obj
 0001:000291b0       ??$extract_argument_from_va_list@E_J@?$standard_base@_WV?$stream_output_adapter@_W@__crt_stdio_output@@@__crt_stdio_output@@IEAA_NAEA_J@Z 000000018002a1b0 f i libucrtd:output.obj
 0001:000291f0       ??$extract_argument_from_va_list@E_J@?$standard_base@_WV?$string_output_adapter@_W@__crt_stdio_output@@@__crt_stdio_output@@IEAA_NAEA_J@Z 000000018002a1f0 f i libucrtd:output.obj
 0001:00029230       ??$extract_argument_from_va_list@F_J@?$positional_parameter_base@DV?$stream_output_adapter@D@__crt_stdio_output@@@__crt_stdio_output@@IEAA_NAEA_J@Z 000000018002a230 f i libucrtd:output.obj
 0001:000293f0       ??$extract_argument_from_va_list@F_J@?$positional_parameter_base@DV?$string_output_adapter@D@__crt_stdio_output@@@__crt_stdio_output@@IEAA_NAEA_J@Z 000000018002a3f0 f i libucrtd:output.obj
 0001:000295b0       ??$extract_argument_from_va_list@F_J@?$positional_parameter_base@_WV?$stream_output_adapter@_W@__crt_stdio_output@@@__crt_stdio_output@@IEAA_NAEA_J@Z 000000018002a5b0 f i libucrtd:output.obj
 0001:00029770       ??$extract_argument_from_va_list@F_J@?$positional_parameter_base@_WV?$string_output_adapter@_W@__crt_stdio_output@@@__crt_stdio_output@@IEAA_NAEA_J@Z 000000018002a770 f i libucrtd:output.obj
 0001:00029930       ??$extract_argument_from_va_list@F_J@?$standard_base@DV?$stream_output_adapter@D@__crt_stdio_output@@@__crt_stdio_output@@IEAA_NAEA_J@Z 000000018002a930 f i libucrtd:output.obj
 0001:00029970       ??$extract_argument_from_va_list@F_J@?$standard_base@DV?$string_output_adapter@D@__crt_stdio_output@@@__crt_stdio_output@@IEAA_NAEA_J@Z 000000018002a970 f i libucrtd:output.obj
 0001:000299b0       ??$extract_argument_from_va_list@F_J@?$standard_base@_WV?$stream_output_adapter@_W@__crt_stdio_output@@@__crt_stdio_output@@IEAA_NAEA_J@Z 000000018002a9b0 f i libucrtd:output.obj
 0001:000299f0       ??$extract_argument_from_va_list@F_J@?$standard_base@_WV?$string_output_adapter@_W@__crt_stdio_output@@@__crt_stdio_output@@IEAA_NAEA_J@Z 000000018002a9f0 f i libucrtd:output.obj
 0001:00029a30       ??$extract_argument_from_va_list@GD@?$positional_parameter_base@DV?$stream_output_adapter@D@__crt_stdio_output@@@__crt_stdio_output@@IEAA_NAEAD@Z 000000018002aa30 f i libucrtd:output.obj
 0001:00029bf0       ??$extract_argument_from_va_list@GD@?$positional_parameter_base@DV?$string_output_adapter@D@__crt_stdio_output@@@__crt_stdio_output@@IEAA_NAEAD@Z 000000018002abf0 f i libucrtd:output.obj
 0001:00029db0       ??$extract_argument_from_va_list@GD@?$standard_base@DV?$stream_output_adapter@D@__crt_stdio_output@@@__crt_stdio_output@@IEAA_NAEAD@Z 000000018002adb0 f i libucrtd:output.obj
 0001:00029de0       ??$extract_argument_from_va_list@GD@?$standard_base@DV?$string_output_adapter@D@__crt_stdio_output@@@__crt_stdio_output@@IEAA_NAEAD@Z 000000018002ade0 f i libucrtd:output.obj
 0001:00029e10       ??$extract_argument_from_va_list@G_J@?$positional_parameter_base@DV?$stream_output_adapter@D@__crt_stdio_output@@@__crt_stdio_output@@IEAA_NAEA_J@Z 000000018002ae10 f i libucrtd:output.obj
 0001:00029fd0       ??$extract_argument_from_va_list@G_J@?$positional_parameter_base@DV?$string_output_adapter@D@__crt_stdio_output@@@__crt_stdio_output@@IEAA_NAEA_J@Z 000000018002afd0 f i libucrtd:output.obj
 0001:0002a190       ??$extract_argument_from_va_list@G_J@?$positional_parameter_base@_WV?$stream_output_adapter@_W@__crt_stdio_output@@@__crt_stdio_output@@IEAA_NAEA_J@Z 000000018002b190 f i libucrtd:output.obj
 0001:0002a350       ??$extract_argument_from_va_list@G_J@?$positional_parameter_base@_WV?$string_output_adapter@_W@__crt_stdio_output@@@__crt_stdio_output@@IEAA_NAEA_J@Z 000000018002b350 f i libucrtd:output.obj
 0001:0002a510       ??$extract_argument_from_va_list@G_J@?$standard_base@DV?$stream_output_adapter@D@__crt_stdio_output@@@__crt_stdio_output@@IEAA_NAEA_J@Z 000000018002b510 f i libucrtd:output.obj
 0001:0002a550       ??$extract_argument_from_va_list@G_J@?$standard_base@DV?$string_output_adapter@D@__crt_stdio_output@@@__crt_stdio_output@@IEAA_NAEA_J@Z 000000018002b550 f i libucrtd:output.obj
 0001:0002a590       ??$extract_argument_from_va_list@G_J@?$standard_base@_WV?$stream_output_adapter@_W@__crt_stdio_output@@@__crt_stdio_output@@IEAA_NAEA_J@Z 000000018002b590 f i libucrtd:output.obj
 0001:0002a5d0       ??$extract_argument_from_va_list@G_J@?$standard_base@_WV?$string_output_adapter@_W@__crt_stdio_output@@@__crt_stdio_output@@IEAA_NAEA_J@Z 000000018002b5d0 f i libucrtd:output.obj
 0001:0002a610       ??$extract_argument_from_va_list@H_J@?$positional_parameter_base@DV?$stream_output_adapter@D@__crt_stdio_output@@@__crt_stdio_output@@IEAA_NAEA_J@Z 000000018002b610 f i libucrtd:output.obj
 0001:0002a7d0       ??$extract_argument_from_va_list@H_J@?$positional_parameter_base@DV?$string_output_adapter@D@__crt_stdio_output@@@__crt_stdio_output@@IEAA_NAEA_J@Z 000000018002b7d0 f i libucrtd:output.obj
 0001:0002a990       ??$extract_argument_from_va_list@H_J@?$positional_parameter_base@_WV?$stream_output_adapter@_W@__crt_stdio_output@@@__crt_stdio_output@@IEAA_NAEA_J@Z 000000018002b990 f i libucrtd:output.obj
 0001:0002ab50       ??$extract_argument_from_va_list@H_J@?$positional_parameter_base@_WV?$string_output_adapter@_W@__crt_stdio_output@@@__crt_stdio_output@@IEAA_NAEA_J@Z 000000018002bb50 f i libucrtd:output.obj
 0001:0002ad10       ??$extract_argument_from_va_list@H_J@?$standard_base@DV?$stream_output_adapter@D@__crt_stdio_output@@@__crt_stdio_output@@IEAA_NAEA_J@Z 000000018002bd10 f i libucrtd:output.obj
 0001:0002ad40       ??$extract_argument_from_va_list@H_J@?$standard_base@DV?$string_output_adapter@D@__crt_stdio_output@@@__crt_stdio_output@@IEAA_NAEA_J@Z 000000018002bd40 f i libucrtd:output.obj
 0001:0002ad70       ??$extract_argument_from_va_list@H_J@?$standard_base@_WV?$stream_output_adapter@_W@__crt_stdio_output@@@__crt_stdio_output@@IEAA_NAEA_J@Z 000000018002bd70 f i libucrtd:output.obj
 0001:0002ada0       ??$extract_argument_from_va_list@H_J@?$standard_base@_WV?$string_output_adapter@_W@__crt_stdio_output@@@__crt_stdio_output@@IEAA_NAEA_J@Z 000000018002bda0 f i libucrtd:output.obj
 0001:0002add0       ??$extract_argument_from_va_list@I_J@?$positional_parameter_base@DV?$stream_output_adapter@D@__crt_stdio_output@@@__crt_stdio_output@@IEAA_NAEA_J@Z 000000018002bdd0 f i libucrtd:output.obj
 0001:0002af90       ??$extract_argument_from_va_list@I_J@?$positional_parameter_base@DV?$string_output_adapter@D@__crt_stdio_output@@@__crt_stdio_output@@IEAA_NAEA_J@Z 000000018002bf90 f i libucrtd:output.obj
 0001:0002b150       ??$extract_argument_from_va_list@I_J@?$positional_parameter_base@_WV?$stream_output_adapter@_W@__crt_stdio_output@@@__crt_stdio_output@@IEAA_NAEA_J@Z 000000018002c150 f i libucrtd:output.obj
 0001:0002b310       ??$extract_argument_from_va_list@I_J@?$positional_parameter_base@_WV?$string_output_adapter@_W@__crt_stdio_output@@@__crt_stdio_output@@IEAA_NAEA_J@Z 000000018002c310 f i libucrtd:output.obj
 0001:0002b4d0       ??$extract_argument_from_va_list@I_J@?$standard_base@DV?$stream_output_adapter@D@__crt_stdio_output@@@__crt_stdio_output@@IEAA_NAEA_J@Z 000000018002c4d0 f i libucrtd:output.obj
 0001:0002b500       ??$extract_argument_from_va_list@I_J@?$standard_base@DV?$string_output_adapter@D@__crt_stdio_output@@@__crt_stdio_output@@IEAA_NAEA_J@Z 000000018002c500 f i libucrtd:output.obj
 0001:0002b530       ??$extract_argument_from_va_list@I_J@?$standard_base@_WV?$stream_output_adapter@_W@__crt_stdio_output@@@__crt_stdio_output@@IEAA_NAEA_J@Z 000000018002c530 f i libucrtd:output.obj
 0001:0002b560       ??$extract_argument_from_va_list@I_J@?$standard_base@_WV?$string_output_adapter@_W@__crt_stdio_output@@@__crt_stdio_output@@IEAA_NAEA_J@Z 000000018002c560 f i libucrtd:output.obj
 0001:0002b590       ??$extract_argument_from_va_list@PEADPEAD@?$positional_parameter_base@DV?$stream_output_adapter@D@__crt_stdio_output@@@__crt_stdio_output@@IEAA_NAEAPEAD@Z 000000018002c590 f i libucrtd:output.obj
 0001:0002b750       ??$extract_argument_from_va_list@PEADPEAD@?$positional_parameter_base@DV?$string_output_adapter@D@__crt_stdio_output@@@__crt_stdio_output@@IEAA_NAEAPEAD@Z 000000018002c750 f i libucrtd:output.obj
 0001:0002b910       ??$extract_argument_from_va_list@PEADPEAD@?$positional_parameter_base@_WV?$stream_output_adapter@_W@__crt_stdio_output@@@__crt_stdio_output@@IEAA_NAEAPEAD@Z 000000018002c910 f i libucrtd:output.obj
 0001:0002bad0       ??$extract_argument_from_va_list@PEADPEAD@?$positional_parameter_base@_WV?$string_output_adapter@_W@__crt_stdio_output@@@__crt_stdio_output@@IEAA_NAEAPEAD@Z 000000018002cad0 f i libucrtd:output.obj
 0001:0002bc90       ??$extract_argument_from_va_list@PEADPEAD@?$standard_base@DV?$stream_output_adapter@D@__crt_stdio_output@@@__crt_stdio_output@@IEAA_NAEAPEAD@Z 000000018002cc90 f i libucrtd:output.obj
 0001:0002bcc0       ??$extract_argument_from_va_list@PEADPEAD@?$standard_base@DV?$string_output_adapter@D@__crt_stdio_output@@@__crt_stdio_output@@IEAA_NAEAPEAD@Z 000000018002ccc0 f i libucrtd:output.obj
 0001:0002bcf0       ??$extract_argument_from_va_list@PEADPEAD@?$standard_base@_WV?$stream_output_adapter@_W@__crt_stdio_output@@@__crt_stdio_output@@IEAA_NAEAPEAD@Z 000000018002ccf0 f i libucrtd:output.obj
 0001:0002bd20       ??$extract_argument_from_va_list@PEADPEAD@?$standard_base@_WV?$string_output_adapter@_W@__crt_stdio_output@@@__crt_stdio_output@@IEAA_NAEAPEAD@Z 000000018002cd20 f i libucrtd:output.obj
 0001:0002bd50       ??$extract_argument_from_va_list@PEAUansi_string@?1??type_case_Z@?$output_processor@DV?$stream_output_adapter@D@__crt_stdio_output@@V?$format_validation_base@DV?$stream_output_adapter@D@__crt_stdio_output@@@2@@__crt_stdio_output@@AEAA_NXZ@PEAU1?1??234@AEAA_NXZ@@?$standard_base@DV?$stream_output_adapter@D@__crt_stdio_output@@@__crt_stdio_output@@IEAA_NAEAPEAUansi_string@?1??type_case_Z@?$output_processor@DV?$stream_output_adapter@D@__crt_stdio_output@@V?$format_validation_base@DV?$stream_output_adapter@D@__crt_stdio_output@@@2@@1@AEAA_NXZ@@Z 000000018002cd50 f i libucrtd:output.obj
 0001:0002bd80       ??$extract_argument_from_va_list@PEAUansi_string@?1??type_case_Z@?$output_processor@DV?$stream_output_adapter@D@__crt_stdio_output@@V?$positional_parameter_base@DV?$stream_output_adapter@D@__crt_stdio_output@@@2@@__crt_stdio_output@@AEAA_NXZ@PEAU1?1??234@AEAA_NXZ@@?$positional_parameter_base@DV?$stream_output_adapter@D@__crt_stdio_output@@@__crt_stdio_output@@IEAA_NAEAPEAUansi_string@?1??type_case_Z@?$output_processor@DV?$stream_output_adapter@D@__crt_stdio_output@@V?$positional_parameter_base@DV?$stream_output_adapter@D@__crt_stdio_output@@@2@@1@AEAA_NXZ@@Z 000000018002cd80 f i libucrtd:output.obj
 0001:0002bf40       ??$extract_argument_from_va_list@PEAUansi_string@?1??type_case_Z@?$output_processor@DV?$stream_output_adapter@D@__crt_stdio_output@@V?$positional_parameter_base@DV?$stream_output_adapter@D@__crt_stdio_output@@@2@@__crt_stdio_output@@AEAA_NXZ@PEAU1?1??234@AEAA_NXZ@@?$standard_base@DV?$stream_output_adapter@D@__crt_stdio_output@@@__crt_stdio_output@@IEAA_NAEAPEAUansi_string@?1??type_case_Z@?$output_processor@DV?$stream_output_adapter@D@__crt_stdio_output@@V?$positional_parameter_base@DV?$stream_output_adapter@D@__crt_stdio_output@@@2@@1@AEAA_NXZ@@Z 000000018002cf40 f i libucrtd:output.obj
 0001:0002bf70       ??$extract_argument_from_va_list@PEAUansi_string@?1??type_case_Z@?$output_processor@DV?$stream_output_adapter@D@__crt_stdio_output@@V?$standard_base@DV?$stream_output_adapter@D@__crt_stdio_output@@@2@@__crt_stdio_output@@AEAA_NXZ@PEAU1?1??234@AEAA_NXZ@@?$standard_base@DV?$stream_output_adapter@D@__crt_stdio_output@@@__crt_stdio_output@@IEAA_NAEAPEAUansi_string@?1??type_case_Z@?$output_processor@DV?$stream_output_adapter@D@__crt_stdio_output@@V?$standard_base@DV?$stream_output_adapter@D@__crt_stdio_output@@@2@@1@AEAA_NXZ@@Z 000000018002cf70 f i libucrtd:output.obj
 0001:0002bfa0       ??$extract_argument_from_va_list@PEAUansi_string@?1??type_case_Z@?$output_processor@DV?$string_output_adapter@D@__crt_stdio_output@@V?$format_validation_base@DV?$string_output_adapter@D@__crt_stdio_output@@@2@@__crt_stdio_output@@AEAA_NXZ@PEAU1?1??234@AEAA_NXZ@@?$standard_base@DV?$string_output_adapter@D@__crt_stdio_output@@@__crt_stdio_output@@IEAA_NAEAPEAUansi_string@?1??type_case_Z@?$output_processor@DV?$string_output_adapter@D@__crt_stdio_output@@V?$format_validation_base@DV?$string_output_adapter@D@__crt_stdio_output@@@2@@1@AEAA_NXZ@@Z 000000018002cfa0 f i libucrtd:output.obj
 0001:0002bfd0       ??$extract_argument_from_va_list@PEAUansi_string@?1??type_case_Z@?$output_processor@DV?$string_output_adapter@D@__crt_stdio_output@@V?$positional_parameter_base@DV?$string_output_adapter@D@__crt_stdio_output@@@2@@__crt_stdio_output@@AEAA_NXZ@PEAU1?1??234@AEAA_NXZ@@?$positional_parameter_base@DV?$string_output_adapter@D@__crt_stdio_output@@@__crt_stdio_output@@IEAA_NAEAPEAUansi_string@?1??type_case_Z@?$output_processor@DV?$string_output_adapter@D@__crt_stdio_output@@V?$positional_parameter_base@DV?$string_output_adapter@D@__crt_stdio_output@@@2@@1@AEAA_NXZ@@Z 000000018002cfd0 f i libucrtd:output.obj
 0001:0002c190       ??$extract_argument_from_va_list@PEAUansi_string@?1??type_case_Z@?$output_processor@DV?$string_output_adapter@D@__crt_stdio_output@@V?$positional_parameter_base@DV?$string_output_adapter@D@__crt_stdio_output@@@2@@__crt_stdio_output@@AEAA_NXZ@PEAU1?1??234@AEAA_NXZ@@?$standard_base@DV?$string_output_adapter@D@__crt_stdio_output@@@__crt_stdio_output@@IEAA_NAEAPEAUansi_string@?1??type_case_Z@?$output_processor@DV?$string_output_adapter@D@__crt_stdio_output@@V?$positional_parameter_base@DV?$string_output_adapter@D@__crt_stdio_output@@@2@@1@AEAA_NXZ@@Z 000000018002d190 f i libucrtd:output.obj
 0001:0002c1c0       ??$extract_argument_from_va_list@PEAUansi_string@?1??type_case_Z@?$output_processor@DV?$string_output_adapter@D@__crt_stdio_output@@V?$standard_base@DV?$string_output_adapter@D@__crt_stdio_output@@@2@@__crt_stdio_output@@AEAA_NXZ@PEAU1?1??234@AEAA_NXZ@@?$standard_base@DV?$string_output_adapter@D@__crt_stdio_output@@@__crt_stdio_output@@IEAA_NAEAPEAUansi_string@?1??type_case_Z@?$output_processor@DV?$string_output_adapter@D@__crt_stdio_output@@V?$standard_base@DV?$string_output_adapter@D@__crt_stdio_output@@@2@@1@AEAA_NXZ@@Z 000000018002d1c0 f i libucrtd:output.obj
 0001:0002c1f0       ??$extract_argument_from_va_list@PEAUansi_string@?1??type_case_Z@?$output_processor@_WV?$stream_output_adapter@_W@__crt_stdio_output@@V?$format_validation_base@_WV?$stream_output_adapter@_W@__crt_stdio_output@@@2@@__crt_stdio_output@@AEAA_NXZ@PEAU1?1??234@AEAA_NXZ@@?$standard_base@_WV?$stream_output_adapter@_W@__crt_stdio_output@@@__crt_stdio_output@@IEAA_NAEAPEAUansi_string@?1??type_case_Z@?$output_processor@_WV?$stream_output_adapter@_W@__crt_stdio_output@@V?$format_validation_base@_WV?$stream_output_adapter@_W@__crt_stdio_output@@@2@@1@AEAA_NXZ@@Z 000000018002d1f0 f i libucrtd:output.obj
 0001:0002c220       ??$extract_argument_from_va_list@PEAUansi_string@?1??type_case_Z@?$output_processor@_WV?$stream_output_adapter@_W@__crt_stdio_output@@V?$positional_parameter_base@_WV?$stream_output_adapter@_W@__crt_stdio_output@@@2@@__crt_stdio_output@@AEAA_NXZ@PEAU1?1??234@AEAA_NXZ@@?$positional_parameter_base@_WV?$stream_output_adapter@_W@__crt_stdio_output@@@__crt_stdio_output@@IEAA_NAEAPEAUansi_string@?1??type_case_Z@?$output_processor@_WV?$stream_output_adapter@_W@__crt_stdio_output@@V?$positional_parameter_base@_WV?$stream_output_adapter@_W@__crt_stdio_output@@@2@@1@AEAA_NXZ@@Z 000000018002d220 f i libucrtd:output.obj
 0001:0002c3e0       ??$extract_argument_from_va_list@PEAUansi_string@?1??type_case_Z@?$output_processor@_WV?$stream_output_adapter@_W@__crt_stdio_output@@V?$positional_parameter_base@_WV?$stream_output_adapter@_W@__crt_stdio_output@@@2@@__crt_stdio_output@@AEAA_NXZ@PEAU1?1??234@AEAA_NXZ@@?$standard_base@_WV?$stream_output_adapter@_W@__crt_stdio_output@@@__crt_stdio_output@@IEAA_NAEAPEAUansi_string@?1??type_case_Z@?$output_processor@_WV?$stream_output_adapter@_W@__crt_stdio_output@@V?$positional_parameter_base@_WV?$stream_output_adapter@_W@__crt_stdio_output@@@2@@1@AEAA_NXZ@@Z 000000018002d3e0 f i libucrtd:output.obj
 0001:0002c410       ??$extract_argument_from_va_list@PEAUansi_string@?1??type_case_Z@?$output_processor@_WV?$stream_output_adapter@_W@__crt_stdio_output@@V?$standard_base@_WV?$stream_output_adapter@_W@__crt_stdio_output@@@2@@__crt_stdio_output@@AEAA_NXZ@PEAU1?1??234@AEAA_NXZ@@?$standard_base@_WV?$stream_output_adapter@_W@__crt_stdio_output@@@__crt_stdio_output@@IEAA_NAEAPEAUansi_string@?1??type_case_Z@?$output_processor@_WV?$stream_output_adapter@_W@__crt_stdio_output@@V?$standard_base@_WV?$stream_output_adapter@_W@__crt_stdio_output@@@2@@1@AEAA_NXZ@@Z 000000018002d410 f i libucrtd:output.obj
 0001:0002c440       ??$extract_argument_from_va_list@PEAUansi_string@?1??type_case_Z@?$output_processor@_WV?$string_output_adapter@_W@__crt_stdio_output@@V?$format_validation_base@_WV?$string_output_adapter@_W@__crt_stdio_output@@@2@@__crt_stdio_output@@AEAA_NXZ@PEAU1?1??234@AEAA_NXZ@@?$standard_base@_WV?$string_output_adapter@_W@__crt_stdio_output@@@__crt_stdio_output@@IEAA_NAEAPEAUansi_string@?1??type_case_Z@?$output_processor@_WV?$string_output_adapter@_W@__crt_stdio_output@@V?$format_validation_base@_WV?$string_output_adapter@_W@__crt_stdio_output@@@2@@1@AEAA_NXZ@@Z 000000018002d440 f i libucrtd:output.obj
 0001:0002c470       ??$extract_argument_from_va_list@PEAUansi_string@?1??type_case_Z@?$output_processor@_WV?$string_output_adapter@_W@__crt_stdio_output@@V?$positional_parameter_base@_WV?$string_output_adapter@_W@__crt_stdio_output@@@2@@__crt_stdio_output@@AEAA_NXZ@PEAU1?1??234@AEAA_NXZ@@?$positional_parameter_base@_WV?$string_output_adapter@_W@__crt_stdio_output@@@__crt_stdio_output@@IEAA_NAEAPEAUansi_string@?1??type_case_Z@?$output_processor@_WV?$string_output_adapter@_W@__crt_stdio_output@@V?$positional_parameter_base@_WV?$string_output_adapter@_W@__crt_stdio_output@@@2@@1@AEAA_NXZ@@Z 000000018002d470 f i libucrtd:output.obj
 0001:0002c630       ??$extract_argument_from_va_list@PEAUansi_string@?1??type_case_Z@?$output_processor@_WV?$string_output_adapter@_W@__crt_stdio_output@@V?$positional_parameter_base@_WV?$string_output_adapter@_W@__crt_stdio_output@@@2@@__crt_stdio_output@@AEAA_NXZ@PEAU1?1??234@AEAA_NXZ@@?$standard_base@_WV?$string_output_adapter@_W@__crt_stdio_output@@@__crt_stdio_output@@IEAA_NAEAPEAUansi_string@?1??type_case_Z@?$output_processor@_WV?$string_output_adapter@_W@__crt_stdio_output@@V?$positional_parameter_base@_WV?$string_output_adapter@_W@__crt_stdio_output@@@2@@1@AEAA_NXZ@@Z 000000018002d630 f i libucrtd:output.obj
 0001:0002c660       ??$extract_argument_from_va_list@PEAUansi_string@?1??type_case_Z@?$output_processor@_WV?$string_output_adapter@_W@__crt_stdio_output@@V?$standard_base@_WV?$string_output_adapter@_W@__crt_stdio_output@@@2@@__crt_stdio_output@@AEAA_NXZ@PEAU1?1??234@AEAA_NXZ@@?$standard_base@_WV?$string_output_adapter@_W@__crt_stdio_output@@@__crt_stdio_output@@IEAA_NAEAPEAUansi_string@?1??type_case_Z@?$output_processor@_WV?$string_output_adapter@_W@__crt_stdio_output@@V?$standard_base@_WV?$string_output_adapter@_W@__crt_stdio_output@@@2@@1@AEAA_NXZ@@Z 000000018002d660 f i libucrtd:output.obj
 0001:0002c690       ??$extract_argument_from_va_list@PEAXPEAX@?$positional_parameter_base@DV?$stream_output_adapter@D@__crt_stdio_output@@@__crt_stdio_output@@IEAA_NAEAPEAX@Z 000000018002d690 f i libucrtd:output.obj
 0001:0002c850       ??$extract_argument_from_va_list@PEAXPEAX@?$positional_parameter_base@DV?$string_output_adapter@D@__crt_stdio_output@@@__crt_stdio_output@@IEAA_NAEAPEAX@Z 000000018002d850 f i libucrtd:output.obj
 0001:0002ca10       ??$extract_argument_from_va_list@PEAXPEAX@?$positional_parameter_base@_WV?$stream_output_adapter@_W@__crt_stdio_output@@@__crt_stdio_output@@IEAA_NAEAPEAX@Z 000000018002da10 f i libucrtd:output.obj
 0001:0002cbd0       ??$extract_argument_from_va_list@PEAXPEAX@?$positional_parameter_base@_WV?$string_output_adapter@_W@__crt_stdio_output@@@__crt_stdio_output@@IEAA_NAEAPEAX@Z 000000018002dbd0 f i libucrtd:output.obj
 0001:0002cd90       ??$extract_argument_from_va_list@PEAXPEAX@?$standard_base@DV?$stream_output_adapter@D@__crt_stdio_output@@@__crt_stdio_output@@IEAA_NAEAPEAX@Z 000000018002dd90 f i libucrtd:output.obj
 0001:0002cdc0       ??$extract_argument_from_va_list@PEAXPEAX@?$standard_base@DV?$string_output_adapter@D@__crt_stdio_output@@@__crt_stdio_output@@IEAA_NAEAPEAX@Z 000000018002ddc0 f i libucrtd:output.obj
 0001:0002cdf0       ??$extract_argument_from_va_list@PEAXPEAX@?$standard_base@_WV?$stream_output_adapter@_W@__crt_stdio_output@@@__crt_stdio_output@@IEAA_NAEAPEAX@Z 000000018002ddf0 f i libucrtd:output.obj
 0001:0002ce20       ??$extract_argument_from_va_list@PEAXPEAX@?$standard_base@_WV?$string_output_adapter@_W@__crt_stdio_output@@@__crt_stdio_output@@IEAA_NAEAPEAX@Z 000000018002de20 f i libucrtd:output.obj
 0001:0002ce50       ??$extract_argument_from_va_list@U_CRT_DOUBLE@@U1@@?$positional_parameter_base@DV?$stream_output_adapter@D@__crt_stdio_output@@@__crt_stdio_output@@IEAA_NAEAU_CRT_DOUBLE@@@Z 000000018002de50 f i libucrtd:output.obj
 0001:0002d060       ??$extract_argument_from_va_list@U_CRT_DOUBLE@@U1@@?$positional_parameter_base@DV?$string_output_adapter@D@__crt_stdio_output@@@__crt_stdio_output@@IEAA_NAEAU_CRT_DOUBLE@@@Z 000000018002e060 f i libucrtd:output.obj
 0001:0002d270       ??$extract_argument_from_va_list@U_CRT_DOUBLE@@U1@@?$positional_parameter_base@_WV?$stream_output_adapter@_W@__crt_stdio_output@@@__crt_stdio_output@@IEAA_NAEAU_CRT_DOUBLE@@@Z 000000018002e270 f i libucrtd:output.obj
 0001:0002d480       ??$extract_argument_from_va_list@U_CRT_DOUBLE@@U1@@?$positional_parameter_base@_WV?$string_output_adapter@_W@__crt_stdio_output@@@__crt_stdio_output@@IEAA_NAEAU_CRT_DOUBLE@@@Z 000000018002e480 f i libucrtd:output.obj
 0001:0002d690       ??$extract_argument_from_va_list@U_CRT_DOUBLE@@U1@@?$standard_base@DV?$stream_output_adapter@D@__crt_stdio_output@@@__crt_stdio_output@@IEAA_NAEAU_CRT_DOUBLE@@@Z 000000018002e690 f i libucrtd:output.obj
 0001:0002d6d0       ??$extract_argument_from_va_list@U_CRT_DOUBLE@@U1@@?$standard_base@DV?$string_output_adapter@D@__crt_stdio_output@@@__crt_stdio_output@@IEAA_NAEAU_CRT_DOUBLE@@@Z 000000018002e6d0 f i libucrtd:output.obj
 0001:0002d710       ??$extract_argument_from_va_list@U_CRT_DOUBLE@@U1@@?$standard_base@_WV?$stream_output_adapter@_W@__crt_stdio_output@@@__crt_stdio_output@@IEAA_NAEAU_CRT_DOUBLE@@@Z 000000018002e710 f i libucrtd:output.obj
 0001:0002d750       ??$extract_argument_from_va_list@U_CRT_DOUBLE@@U1@@?$standard_base@_WV?$string_output_adapter@_W@__crt_stdio_output@@@__crt_stdio_output@@IEAA_NAEAU_CRT_DOUBLE@@@Z 000000018002e750 f i libucrtd:output.obj
 0001:0002d790       ??$extract_argument_from_va_list@_J_J@?$positional_parameter_base@DV?$stream_output_adapter@D@__crt_stdio_output@@@__crt_stdio_output@@IEAA_NAEA_J@Z 000000018002e790 f i libucrtd:output.obj
 0001:0002d950       ??$extract_argument_from_va_list@_J_J@?$positional_parameter_base@DV?$string_output_adapter@D@__crt_stdio_output@@@__crt_stdio_output@@IEAA_NAEA_J@Z 000000018002e950 f i libucrtd:output.obj
 0001:0002db10       ??$extract_argument_from_va_list@_J_J@?$positional_parameter_base@_WV?$stream_output_adapter@_W@__crt_stdio_output@@@__crt_stdio_output@@IEAA_NAEA_J@Z 000000018002eb10 f i libucrtd:output.obj
 0001:0002dcd0       ??$extract_argument_from_va_list@_J_J@?$positional_parameter_base@_WV?$string_output_adapter@_W@__crt_stdio_output@@@__crt_stdio_output@@IEAA_NAEA_J@Z 000000018002ecd0 f i libucrtd:output.obj
 0001:0002de90       ??$extract_argument_from_va_list@_J_J@?$standard_base@DV?$stream_output_adapter@D@__crt_stdio_output@@@__crt_stdio_output@@IEAA_NAEA_J@Z 000000018002ee90 f i libucrtd:output.obj
 0001:0002dec0       ??$extract_argument_from_va_list@_J_J@?$standard_base@DV?$string_output_adapter@D@__crt_stdio_output@@@__crt_stdio_output@@IEAA_NAEA_J@Z 000000018002eec0 f i libucrtd:output.obj
 0001:0002def0       ??$extract_argument_from_va_list@_J_J@?$standard_base@_WV?$stream_output_adapter@_W@__crt_stdio_output@@@__crt_stdio_output@@IEAA_NAEA_J@Z 000000018002eef0 f i libucrtd:output.obj
 0001:0002df20       ??$extract_argument_from_va_list@_J_J@?$standard_base@_WV?$string_output_adapter@_W@__crt_stdio_output@@@__crt_stdio_output@@IEAA_NAEA_J@Z 000000018002ef20 f i libucrtd:output.obj
 0001:0002df50       ??$extract_argument_from_va_list@_K_J@?$positional_parameter_base@DV?$stream_output_adapter@D@__crt_stdio_output@@@__crt_stdio_output@@IEAA_NAEA_J@Z 000000018002ef50 f i libucrtd:output.obj
 0001:0002e110       ??$extract_argument_from_va_list@_K_J@?$positional_parameter_base@DV?$string_output_adapter@D@__crt_stdio_output@@@__crt_stdio_output@@IEAA_NAEA_J@Z 000000018002f110 f i libucrtd:output.obj
 0001:0002e2d0       ??$extract_argument_from_va_list@_K_J@?$positional_parameter_base@_WV?$stream_output_adapter@_W@__crt_stdio_output@@@__crt_stdio_output@@IEAA_NAEA_J@Z 000000018002f2d0 f i libucrtd:output.obj
 0001:0002e490       ??$extract_argument_from_va_list@_K_J@?$positional_parameter_base@_WV?$string_output_adapter@_W@__crt_stdio_output@@@__crt_stdio_output@@IEAA_NAEA_J@Z 000000018002f490 f i libucrtd:output.obj
 0001:0002e650       ??$extract_argument_from_va_list@_K_J@?$standard_base@DV?$stream_output_adapter@D@__crt_stdio_output@@@__crt_stdio_output@@IEAA_NAEA_J@Z 000000018002f650 f i libucrtd:output.obj
 0001:0002e680       ??$extract_argument_from_va_list@_K_J@?$standard_base@DV?$string_output_adapter@D@__crt_stdio_output@@@__crt_stdio_output@@IEAA_NAEA_J@Z 000000018002f680 f i libucrtd:output.obj
 0001:0002e6b0       ??$extract_argument_from_va_list@_K_J@?$standard_base@_WV?$stream_output_adapter@_W@__crt_stdio_output@@@__crt_stdio_output@@IEAA_NAEA_J@Z 000000018002f6b0 f i libucrtd:output.obj
 0001:0002e6e0       ??$extract_argument_from_va_list@_K_J@?$standard_base@_WV?$string_output_adapter@_W@__crt_stdio_output@@@__crt_stdio_output@@IEAA_NAEA_J@Z 000000018002f6e0 f i libucrtd:output.obj
 0001:0002e710       ??$extract_argument_from_va_list@_W_W@?$positional_parameter_base@DV?$stream_output_adapter@D@__crt_stdio_output@@@__crt_stdio_output@@IEAA_NAEA_W@Z 000000018002f710 f i libucrtd:output.obj
 0001:0002e8d0       ??$extract_argument_from_va_list@_W_W@?$positional_parameter_base@DV?$string_output_adapter@D@__crt_stdio_output@@@__crt_stdio_output@@IEAA_NAEA_W@Z 000000018002f8d0 f i libucrtd:output.obj
 0001:0002ea90       ??$extract_argument_from_va_list@_W_W@?$positional_parameter_base@_WV?$stream_output_adapter@_W@__crt_stdio_output@@@__crt_stdio_output@@IEAA_NAEA_W@Z 000000018002fa90 f i libucrtd:output.obj
 0001:0002ec50       ??$extract_argument_from_va_list@_W_W@?$positional_parameter_base@_WV?$string_output_adapter@_W@__crt_stdio_output@@@__crt_stdio_output@@IEAA_NAEA_W@Z 000000018002fc50 f i libucrtd:output.obj
 0001:0002ee10       ??$extract_argument_from_va_list@_W_W@?$standard_base@DV?$stream_output_adapter@D@__crt_stdio_output@@@__crt_stdio_output@@IEAA_NAEA_W@Z 000000018002fe10 f i libucrtd:output.obj
 0001:0002ee40       ??$extract_argument_from_va_list@_W_W@?$standard_base@DV?$string_output_adapter@D@__crt_stdio_output@@@__crt_stdio_output@@IEAA_NAEA_W@Z 000000018002fe40 f i libucrtd:output.obj
 0001:0002ee70       ??$extract_argument_from_va_list@_W_W@?$standard_base@_WV?$stream_output_adapter@_W@__crt_stdio_output@@@__crt_stdio_output@@IEAA_NAEA_W@Z 000000018002fe70 f i libucrtd:output.obj
 0001:0002eea0       ??$extract_argument_from_va_list@_W_W@?$standard_base@_WV?$string_output_adapter@_W@__crt_stdio_output@@@__crt_stdio_output@@IEAA_NAEA_W@Z 000000018002fea0 f i libucrtd:output.obj
 0001:0002eed0       ??$get_parameter_type@D@?$positional_parameter_base@DV?$stream_output_adapter@D@__crt_stdio_output@@@__crt_stdio_output@@CA?AW4parameter_type@01@PEAD@Z 000000018002fed0 f i libucrtd:output.obj
 0001:0002eee0       ??$get_parameter_type@D@?$positional_parameter_base@DV?$string_output_adapter@D@__crt_stdio_output@@@__crt_stdio_output@@CA?AW4parameter_type@01@PEAD@Z 000000018002fee0 f i libucrtd:output.obj
 0001:0002eef0       ??$get_parameter_type@D@?$positional_parameter_base@_WV?$stream_output_adapter@_W@__crt_stdio_output@@@__crt_stdio_output@@CA?AW4parameter_type@01@PEAD@Z 000000018002fef0 f i libucrtd:output.obj
 0001:0002ef00       ??$get_parameter_type@D@?$positional_parameter_base@_WV?$string_output_adapter@_W@__crt_stdio_output@@@__crt_stdio_output@@CA?AW4parameter_type@01@PEAD@Z 000000018002ff00 f i libucrtd:output.obj
 0001:0002ef10       ??$get_parameter_type@Uansi_string@?1??type_case_Z@?$output_processor@DV?$stream_output_adapter@D@__crt_stdio_output@@V?$positional_parameter_base@DV?$stream_output_adapter@D@__crt_stdio_output@@@2@@__crt_stdio_output@@AEAA_NXZ@@?$positional_parameter_base@DV?$stream_output_adapter@D@__crt_stdio_output@@@__crt_stdio_output@@CA?AW4parameter_type@01@PEAUansi_string@?1??type_case_Z@?$output_processor@DV?$stream_output_adapter@D@__crt_stdio_output@@V?$positional_parameter_base@DV?$stream_output_adapter@D@__crt_stdio_output@@@2@@1@AEAA_NXZ@@Z 000000018002ff10 f i libucrtd:output.obj
 0001:0002ef20       ??$get_parameter_type@Uansi_string@?1??type_case_Z@?$output_processor@DV?$string_output_adapter@D@__crt_stdio_output@@V?$positional_parameter_base@DV?$string_output_adapter@D@__crt_stdio_output@@@2@@__crt_stdio_output@@AEAA_NXZ@@?$positional_parameter_base@DV?$string_output_adapter@D@__crt_stdio_output@@@__crt_stdio_output@@CA?AW4parameter_type@01@PEAUansi_string@?1??type_case_Z@?$output_processor@DV?$string_output_adapter@D@__crt_stdio_output@@V?$positional_parameter_base@DV?$string_output_adapter@D@__crt_stdio_output@@@2@@1@AEAA_NXZ@@Z 000000018002ff20 f i libucrtd:output.obj
 0001:0002ef30       ??$get_parameter_type@Uansi_string@?1??type_case_Z@?$output_processor@_WV?$stream_output_adapter@_W@__crt_stdio_output@@V?$positional_parameter_base@_WV?$stream_output_adapter@_W@__crt_stdio_output@@@2@@__crt_stdio_output@@AEAA_NXZ@@?$positional_parameter_base@_WV?$stream_output_adapter@_W@__crt_stdio_output@@@__crt_stdio_output@@CA?AW4parameter_type@01@PEAUansi_string@?1??type_case_Z@?$output_processor@_WV?$stream_output_adapter@_W@__crt_stdio_output@@V?$positional_parameter_base@_WV?$stream_output_adapter@_W@__crt_stdio_output@@@2@@1@AEAA_NXZ@@Z 000000018002ff30 f i libucrtd:output.obj
 0001:0002ef40       ??$get_parameter_type@Uansi_string@?1??type_case_Z@?$output_processor@_WV?$string_output_adapter@_W@__crt_stdio_output@@V?$positional_parameter_base@_WV?$string_output_adapter@_W@__crt_stdio_output@@@2@@__crt_stdio_output@@AEAA_NXZ@@?$positional_parameter_base@_WV?$string_output_adapter@_W@__crt_stdio_output@@@__crt_stdio_output@@CA?AW4parameter_type@01@PEAUansi_string@?1??type_case_Z@?$output_processor@_WV?$string_output_adapter@_W@__crt_stdio_output@@V?$positional_parameter_base@_WV?$string_output_adapter@_W@__crt_stdio_output@@@2@@1@AEAA_NXZ@@Z 000000018002ff40 f i libucrtd:output.obj
 0001:0002ef50       ??$get_parameter_type@X@?$positional_parameter_base@DV?$stream_output_adapter@D@__crt_stdio_output@@@__crt_stdio_output@@CA?AW4parameter_type@01@PEAX@Z 000000018002ff50 f i libucrtd:output.obj
 0001:0002ef60       ??$get_parameter_type@X@?$positional_parameter_base@DV?$string_output_adapter@D@__crt_stdio_output@@@__crt_stdio_output@@CA?AW4parameter_type@01@PEAX@Z 000000018002ff60 f i libucrtd:output.obj
 0001:0002ef70       ??$get_parameter_type@X@?$positional_parameter_base@_WV?$stream_output_adapter@_W@__crt_stdio_output@@@__crt_stdio_output@@CA?AW4parameter_type@01@PEAX@Z 000000018002ff70 f i libucrtd:output.obj
 0001:0002ef80       ??$get_parameter_type@X@?$positional_parameter_base@_WV?$string_output_adapter@_W@__crt_stdio_output@@@__crt_stdio_output@@CA?AW4parameter_type@01@PEAX@Z 000000018002ff80 f i libucrtd:output.obj
 0001:0002ef90       ??$is_character_specifier@D@?$positional_parameter_base@DV?$stream_output_adapter@D@__crt_stdio_output@@@__crt_stdio_output@@CA_ND@Z 000000018002ff90 f i libucrtd:output.obj
 0001:0002efd0       ??$is_character_specifier@D@?$positional_parameter_base@DV?$string_output_adapter@D@__crt_stdio_output@@@__crt_stdio_output@@CA_ND@Z 000000018002ffd0 f i libucrtd:output.obj
 0001:0002f010       ??$is_character_specifier@_W@?$positional_parameter_base@_WV?$stream_output_adapter@_W@__crt_stdio_output@@@__crt_stdio_output@@CA_N_W@Z 0000000180030010 f i libucrtd:output.obj
 0001:0002f050       ??$is_character_specifier@_W@?$positional_parameter_base@_WV?$string_output_adapter@_W@__crt_stdio_output@@@__crt_stdio_output@@CA_N_W@Z 0000000180030050 f i libucrtd:output.obj
 0001:0002f090       ??$is_integral_specifier@D@?$positional_parameter_base@DV?$stream_output_adapter@D@__crt_stdio_output@@@__crt_stdio_output@@CA_ND@Z 0000000180030090 f i libucrtd:output.obj
 0001:0002f100       ??$is_integral_specifier@D@?$positional_parameter_base@DV?$string_output_adapter@D@__crt_stdio_output@@@__crt_stdio_output@@CA_ND@Z 0000000180030100 f i libucrtd:output.obj
 0001:0002f170       ??$is_integral_specifier@_W@?$positional_parameter_base@_WV?$stream_output_adapter@_W@__crt_stdio_output@@@__crt_stdio_output@@CA_N_W@Z 0000000180030170 f i libucrtd:output.obj
 0001:0002f1e0       ??$is_integral_specifier@_W@?$positional_parameter_base@_WV?$string_output_adapter@_W@__crt_stdio_output@@@__crt_stdio_output@@CA_N_W@Z 00000001800301e0 f i libucrtd:output.obj
 0001:0002f250       ??$is_overflow_condition@K@__crt_strtox@@YA_NIK@Z 0000000180030250 f i libucrtd:output.obj
 0001:0002f2c0       ??$is_pointer_specifier@D@?$positional_parameter_base@DV?$stream_output_adapter@D@__crt_stdio_output@@@__crt_stdio_output@@CA_ND@Z 00000001800302c0 f i libucrtd:output.obj
 0001:0002f2f0       ??$is_pointer_specifier@D@?$positional_parameter_base@DV?$string_output_adapter@D@__crt_stdio_output@@@__crt_stdio_output@@CA_ND@Z 00000001800302f0 f i libucrtd:output.obj
 0001:0002f320       ??$is_pointer_specifier@_W@?$positional_parameter_base@_WV?$stream_output_adapter@_W@__crt_stdio_output@@@__crt_stdio_output@@CA_N_W@Z 0000000180030320 f i libucrtd:output.obj
 0001:0002f350       ??$is_pointer_specifier@_W@?$positional_parameter_base@_WV?$string_output_adapter@_W@__crt_stdio_output@@@__crt_stdio_output@@CA_N_W@Z 0000000180030350 f i libucrtd:output.obj
 0001:0002f380       ??$is_string_specifier@D@?$positional_parameter_base@DV?$stream_output_adapter@D@__crt_stdio_output@@@__crt_stdio_output@@CA_ND@Z 0000000180030380 f i libucrtd:output.obj
 0001:0002f3c0       ??$is_string_specifier@D@?$positional_parameter_base@DV?$string_output_adapter@D@__crt_stdio_output@@@__crt_stdio_output@@CA_ND@Z 00000001800303c0 f i libucrtd:output.obj
 0001:0002f400       ??$is_string_specifier@_W@?$positional_parameter_base@_WV?$stream_output_adapter@_W@__crt_stdio_output@@@__crt_stdio_output@@CA_N_W@Z 0000000180030400 f i libucrtd:output.obj
 0001:0002f440       ??$is_string_specifier@_W@?$positional_parameter_base@_WV?$string_output_adapter@_W@__crt_stdio_output@@@__crt_stdio_output@@CA_N_W@Z 0000000180030440 f i libucrtd:output.obj
 0001:0002f480       ??$is_wide_character_specifier@D@__crt_stdio_output@@YA_N_KDW4length_modifier@0@@Z 0000000180030480 f i libucrtd:output.obj
 0001:0002f520       ??$is_wide_character_specifier@_W@__crt_stdio_output@@YA_N_K_WW4length_modifier@0@@Z 0000000180030520 f i libucrtd:output.obj
 0001:0002f5f0       ??$make_c_string_character_source@DPEAPEAD@__crt_strtox@@YA?AV?$c_string_character_source@D@0@QEBDQEAPEAD@Z 00000001800305f0 f i libucrtd:output.obj
 0001:0002f630       ??$make_c_string_character_source@_WPEAPEA_W@__crt_strtox@@YA?AV?$c_string_character_source@_W@0@QEB_WQEAPEA_W@Z 0000000180030630 f i libucrtd:output.obj
 0001:0002f670       ??$parse_integer@KV?$c_string_character_source@D@__crt_strtox@@$0A@@__crt_strtox@@YAKAEAV__crt_cached_ptd_host@@V?$c_string_character_source@D@0@H_N@Z 0000000180030670 f i libucrtd:output.obj
 0001:0002faf0       ??$parse_integer@KV?$c_string_character_source@_W@__crt_strtox@@$0A@@__crt_strtox@@YAKAEAV__crt_cached_ptd_host@@V?$c_string_character_source@_W@0@H_N@Z 0000000180030af0 f i libucrtd:output.obj
 0001:0002ff70       ??$peek_va_arg@C@__crt_stdio_output@@YACPEAD@Z 0000000180030f70 f i libucrtd:output.obj
 0001:0002ffd0       ??$peek_va_arg@E@__crt_stdio_output@@YAEPEAD@Z 0000000180030fd0 f i libucrtd:output.obj
 0001:00030030       ??$peek_va_arg@F@__crt_stdio_output@@YAFPEAD@Z 0000000180031030 f i libucrtd:output.obj
 0001:00030090       ??$peek_va_arg@G@__crt_stdio_output@@YAGPEAD@Z 0000000180031090 f i libucrtd:output.obj
 0001:000300f0       ??$peek_va_arg@H@__crt_stdio_output@@YAHPEAD@Z 00000001800310f0 f i libucrtd:output.obj
 0001:00030140       ??$peek_va_arg@I@__crt_stdio_output@@YAIPEAD@Z 0000000180031140 f i libucrtd:output.obj
 0001:00030190       ??$peek_va_arg@PEAD@__crt_stdio_output@@YAPEADPEAD@Z 0000000180031190 f i libucrtd:output.obj
 0001:000301f0       ??$peek_va_arg@PEAUansi_string@?1??type_case_Z@?$output_processor@DV?$stream_output_adapter@D@__crt_stdio_output@@V?$positional_parameter_base@DV?$stream_output_adapter@D@__crt_stdio_output@@@2@@__crt_stdio_output@@AEAA_NXZ@@__crt_stdio_output@@YAPEAUansi_string@?1??type_case_Z@?$output_processor@DV?$stream_output_adapter@D@__crt_stdio_output@@V?$positional_parameter_base@DV?$stream_output_adapter@D@__crt_stdio_output@@@2@@0@AEAA_NXZ@PEAD@Z 00000001800311f0 f i libucrtd:output.obj
 0001:00030250       ??$peek_va_arg@PEAUansi_string@?1??type_case_Z@?$output_processor@DV?$string_output_adapter@D@__crt_stdio_output@@V?$positional_parameter_base@DV?$string_output_adapter@D@__crt_stdio_output@@@2@@__crt_stdio_output@@AEAA_NXZ@@__crt_stdio_output@@YAPEAUansi_string@?1??type_case_Z@?$output_processor@DV?$string_output_adapter@D@__crt_stdio_output@@V?$positional_parameter_base@DV?$string_output_adapter@D@__crt_stdio_output@@@2@@0@AEAA_NXZ@PEAD@Z 0000000180031250 f i libucrtd:output.obj
 0001:000302b0       ??$peek_va_arg@PEAUansi_string@?1??type_case_Z@?$output_processor@_WV?$stream_output_adapter@_W@__crt_stdio_output@@V?$positional_parameter_base@_WV?$stream_output_adapter@_W@__crt_stdio_output@@@2@@__crt_stdio_output@@AEAA_NXZ@@__crt_stdio_output@@YAPEAUansi_string@?1??type_case_Z@?$output_processor@_WV?$stream_output_adapter@_W@__crt_stdio_output@@V?$positional_parameter_base@_WV?$stream_output_adapter@_W@__crt_stdio_output@@@2@@0@AEAA_NXZ@PEAD@Z 00000001800312b0 f i libucrtd:output.obj
 0001:00030310       ??$peek_va_arg@PEAUansi_string@?1??type_case_Z@?$output_processor@_WV?$string_output_adapter@_W@__crt_stdio_output@@V?$positional_parameter_base@_WV?$string_output_adapter@_W@__crt_stdio_output@@@2@@__crt_stdio_output@@AEAA_NXZ@@__crt_stdio_output@@YAPEAUansi_string@?1??type_case_Z@?$output_processor@_WV?$string_output_adapter@_W@__crt_stdio_output@@V?$positional_parameter_base@_WV?$string_output_adapter@_W@__crt_stdio_output@@@2@@0@AEAA_NXZ@PEAD@Z 0000000180031310 f i libucrtd:output.obj
 0001:00030370       ??$peek_va_arg@PEAX@__crt_stdio_output@@YAPEAXPEAD@Z 0000000180031370 f i libucrtd:output.obj
 0001:000303d0       ??$peek_va_arg@U_CRT_DOUBLE@@@__crt_stdio_output@@YA?AU_CRT_DOUBLE@@PEAD@Z 00000001800313d0 f i libucrtd:output.obj
 0001:00030430       ??$peek_va_arg@_J@__crt_stdio_output@@YA_JPEAD@Z 0000000180031430 f i libucrtd:output.obj
 0001:00030490       ??$peek_va_arg@_K@__crt_stdio_output@@YA_KPEAD@Z 0000000180031490 f i libucrtd:output.obj
 0001:000304f0       ??$peek_va_arg@_W@__crt_stdio_output@@YA_WPEAD@Z 00000001800314f0 f i libucrtd:output.obj
 0001:00030550       ??$puttc_nolock_internal@AEBDPEAU_iobuf@@AEAV__crt_cached_ptd_host@@@?$__crt_char_traits@D@@SAHAEBD$$QEAPEAU_iobuf@@AEAV__crt_cached_ptd_host@@@Z 0000000180031550 f i libucrtd:output.obj
 0001:00030590       ??$puttc_nolock_internal@AEB_WPEAU_iobuf@@AEAV__crt_cached_ptd_host@@@?$__crt_char_traits@_W@@SAGAEB_W$$QEAPEAU_iobuf@@AEAV__crt_cached_ptd_host@@@Z 0000000180031590 f i libucrtd:output.obj
 0001:000305d0       ??$read_va_arg@C@__crt_stdio_output@@YACAEAPEAD@Z 00000001800315d0 f i libucrtd:output.obj
 0001:00030640       ??$read_va_arg@E@__crt_stdio_output@@YAEAEAPEAD@Z 0000000180031640 f i libucrtd:output.obj
 0001:000306b0       ??$read_va_arg@F@__crt_stdio_output@@YAFAEAPEAD@Z 00000001800316b0 f i libucrtd:output.obj
 0001:00030720       ??$read_va_arg@G@__crt_stdio_output@@YAGAEAPEAD@Z 0000000180031720 f i libucrtd:output.obj
 0001:00030790       ??$read_va_arg@H@__crt_stdio_output@@YAHAEAPEAD@Z 0000000180031790 f i libucrtd:output.obj
 0001:000307f0       ??$read_va_arg@I@__crt_stdio_output@@YAIAEAPEAD@Z 00000001800317f0 f i libucrtd:output.obj
 0001:00030850       ??$read_va_arg@PEAD@__crt_stdio_output@@YAPEADAEAPEAD@Z 0000000180031850 f i libucrtd:output.obj
 0001:000308c0       ??$read_va_arg@PEAUansi_string@?1??type_case_Z@?$output_processor@DV?$stream_output_adapter@D@__crt_stdio_output@@V?$format_validation_base@DV?$stream_output_adapter@D@__crt_stdio_output@@@2@@__crt_stdio_output@@AEAA_NXZ@@__crt_stdio_output@@YAPEAUansi_string@?1??type_case_Z@?$output_processor@DV?$stream_output_adapter@D@__crt_stdio_output@@V?$format_validation_base@DV?$stream_output_adapter@D@__crt_stdio_output@@@2@@0@AEAA_NXZ@AEAPEAD@Z 00000001800318c0 f i libucrtd:output.obj
 0001:00030930       ??$read_va_arg@PEAUansi_string@?1??type_case_Z@?$output_processor@DV?$stream_output_adapter@D@__crt_stdio_output@@V?$positional_parameter_base@DV?$stream_output_adapter@D@__crt_stdio_output@@@2@@__crt_stdio_output@@AEAA_NXZ@@__crt_stdio_output@@YAPEAUansi_string@?1??type_case_Z@?$output_processor@DV?$stream_output_adapter@D@__crt_stdio_output@@V?$positional_parameter_base@DV?$stream_output_adapter@D@__crt_stdio_output@@@2@@0@AEAA_NXZ@AEAPEAD@Z 0000000180031930 f i libucrtd:output.obj
 0001:000309a0       ??$read_va_arg@PEAUansi_string@?1??type_case_Z@?$output_processor@DV?$stream_output_adapter@D@__crt_stdio_output@@V?$standard_base@DV?$stream_output_adapter@D@__crt_stdio_output@@@2@@__crt_stdio_output@@AEAA_NXZ@@__crt_stdio_output@@YAPEAUansi_string@?1??type_case_Z@?$output_processor@DV?$stream_output_adapter@D@__crt_stdio_output@@V?$standard_base@DV?$stream_output_adapter@D@__crt_stdio_output@@@2@@0@AEAA_NXZ@AEAPEAD@Z 00000001800319a0 f i libucrtd:output.obj
 0001:00030a10       ??$read_va_arg@PEAUansi_string@?1??type_case_Z@?$output_processor@DV?$string_output_adapter@D@__crt_stdio_output@@V?$format_validation_base@DV?$string_output_adapter@D@__crt_stdio_output@@@2@@__crt_stdio_output@@AEAA_NXZ@@__crt_stdio_output@@YAPEAUansi_string@?1??type_case_Z@?$output_processor@DV?$string_output_adapter@D@__crt_stdio_output@@V?$format_validation_base@DV?$string_output_adapter@D@__crt_stdio_output@@@2@@0@AEAA_NXZ@AEAPEAD@Z 0000000180031a10 f i libucrtd:output.obj
 0001:00030a80       ??$read_va_arg@PEAUansi_string@?1??type_case_Z@?$output_processor@DV?$string_output_adapter@D@__crt_stdio_output@@V?$positional_parameter_base@DV?$string_output_adapter@D@__crt_stdio_output@@@2@@__crt_stdio_output@@AEAA_NXZ@@__crt_stdio_output@@YAPEAUansi_string@?1??type_case_Z@?$output_processor@DV?$string_output_adapter@D@__crt_stdio_output@@V?$positional_parameter_base@DV?$string_output_adapter@D@__crt_stdio_output@@@2@@0@AEAA_NXZ@AEAPEAD@Z 0000000180031a80 f i libucrtd:output.obj
 0001:00030af0       ??$read_va_arg@PEAUansi_string@?1??type_case_Z@?$output_processor@DV?$string_output_adapter@D@__crt_stdio_output@@V?$standard_base@DV?$string_output_adapter@D@__crt_stdio_output@@@2@@__crt_stdio_output@@AEAA_NXZ@@__crt_stdio_output@@YAPEAUansi_string@?1??type_case_Z@?$output_processor@DV?$string_output_adapter@D@__crt_stdio_output@@V?$standard_base@DV?$string_output_adapter@D@__crt_stdio_output@@@2@@0@AEAA_NXZ@AEAPEAD@Z 0000000180031af0 f i libucrtd:output.obj
 0001:00030b60       ??$read_va_arg@PEAUansi_string@?1??type_case_Z@?$output_processor@_WV?$stream_output_adapter@_W@__crt_stdio_output@@V?$format_validation_base@_WV?$stream_output_adapter@_W@__crt_stdio_output@@@2@@__crt_stdio_output@@AEAA_NXZ@@__crt_stdio_output@@YAPEAUansi_string@?1??type_case_Z@?$output_processor@_WV?$stream_output_adapter@_W@__crt_stdio_output@@V?$format_validation_base@_WV?$stream_output_adapter@_W@__crt_stdio_output@@@2@@0@AEAA_NXZ@AEAPEAD@Z 0000000180031b60 f i libucrtd:output.obj
 0001:00030bd0       ??$read_va_arg@PEAUansi_string@?1??type_case_Z@?$output_processor@_WV?$stream_output_adapter@_W@__crt_stdio_output@@V?$positional_parameter_base@_WV?$stream_output_adapter@_W@__crt_stdio_output@@@2@@__crt_stdio_output@@AEAA_NXZ@@__crt_stdio_output@@YAPEAUansi_string@?1??type_case_Z@?$output_processor@_WV?$stream_output_adapter@_W@__crt_stdio_output@@V?$positional_parameter_base@_WV?$stream_output_adapter@_W@__crt_stdio_output@@@2@@0@AEAA_NXZ@AEAPEAD@Z 0000000180031bd0 f i libucrtd:output.obj
 0001:00030c40       ??$read_va_arg@PEAUansi_string@?1??type_case_Z@?$output_processor@_WV?$stream_output_adapter@_W@__crt_stdio_output@@V?$standard_base@_WV?$stream_output_adapter@_W@__crt_stdio_output@@@2@@__crt_stdio_output@@AEAA_NXZ@@__crt_stdio_output@@YAPEAUansi_string@?1??type_case_Z@?$output_processor@_WV?$stream_output_adapter@_W@__crt_stdio_output@@V?$standard_base@_WV?$stream_output_adapter@_W@__crt_stdio_output@@@2@@0@AEAA_NXZ@AEAPEAD@Z 0000000180031c40 f i libucrtd:output.obj
 0001:00030cb0       ??$read_va_arg@PEAUansi_string@?1??type_case_Z@?$output_processor@_WV?$string_output_adapter@_W@__crt_stdio_output@@V?$format_validation_base@_WV?$string_output_adapter@_W@__crt_stdio_output@@@2@@__crt_stdio_output@@AEAA_NXZ@@__crt_stdio_output@@YAPEAUansi_string@?1??type_case_Z@?$output_processor@_WV?$string_output_adapter@_W@__crt_stdio_output@@V?$format_validation_base@_WV?$string_output_adapter@_W@__crt_stdio_output@@@2@@0@AEAA_NXZ@AEAPEAD@Z 0000000180031cb0 f i libucrtd:output.obj
 0001:00030d20       ??$read_va_arg@PEAUansi_string@?1??type_case_Z@?$output_processor@_WV?$string_output_adapter@_W@__crt_stdio_output@@V?$positional_parameter_base@_WV?$string_output_adapter@_W@__crt_stdio_output@@@2@@__crt_stdio_output@@AEAA_NXZ@@__crt_stdio_output@@YAPEAUansi_string@?1??type_case_Z@?$output_processor@_WV?$string_output_adapter@_W@__crt_stdio_output@@V?$positional_parameter_base@_WV?$string_output_adapter@_W@__crt_stdio_output@@@2@@0@AEAA_NXZ@AEAPEAD@Z 0000000180031d20 f i libucrtd:output.obj
 0001:00030d90       ??$read_va_arg@PEAUansi_string@?1??type_case_Z@?$output_processor@_WV?$string_output_adapter@_W@__crt_stdio_output@@V?$standard_base@_WV?$string_output_adapter@_W@__crt_stdio_output@@@2@@__crt_stdio_output@@AEAA_NXZ@@__crt_stdio_output@@YAPEAUansi_string@?1??type_case_Z@?$output_processor@_WV?$string_output_adapter@_W@__crt_stdio_output@@V?$standard_base@_WV?$string_output_adapter@_W@__crt_stdio_output@@@2@@0@AEAA_NXZ@AEAPEAD@Z 0000000180031d90 f i libucrtd:output.obj
 0001:00030e00       ??$read_va_arg@PEAX@__crt_stdio_output@@YAPEAXAEAPEAD@Z 0000000180031e00 f i libucrtd:output.obj
 0001:00030e70       ??$read_va_arg@U_CRT_DOUBLE@@@__crt_stdio_output@@YA?AU_CRT_DOUBLE@@AEAPEAD@Z 0000000180031e70 f i libucrtd:output.obj
 0001:00030ee0       ??$read_va_arg@_J@__crt_stdio_output@@YA_JAEAPEAD@Z 0000000180031ee0 f i libucrtd:output.obj
 0001:00030f50       ??$read_va_arg@_K@__crt_stdio_output@@YA_KAEAPEAD@Z 0000000180031f50 f i libucrtd:output.obj
 0001:00030fc0       ??$read_va_arg@_W@__crt_stdio_output@@YA_WAEAPEAD@Z 0000000180031fc0 f i libucrtd:output.obj
 0001:00031030       ??$scratch_count@D@formatting_buffer@__crt_stdio_output@@QEBA_KXZ 0000000180032030 f i libucrtd:output.obj
 0001:00031050       ??$scratch_data@D@formatting_buffer@__crt_stdio_output@@QEAAPEADXZ 0000000180032050 f i libucrtd:output.obj
 0001:000310c0       ??$type_case_integer@$07@?$output_processor@DV?$stream_output_adapter@D@__crt_stdio_output@@V?$format_validation_base@DV?$stream_output_adapter@D@__crt_stdio_output@@@2@@__crt_stdio_output@@AEAA_N_N@Z 00000001800320c0 f i libucrtd:output.obj
 0001:00031540       ??$type_case_integer@$07@?$output_processor@DV?$stream_output_adapter@D@__crt_stdio_output@@V?$positional_parameter_base@DV?$stream_output_adapter@D@__crt_stdio_output@@@2@@__crt_stdio_output@@AEAA_N_N@Z 0000000180032540 f i libucrtd:output.obj
 0001:000319c0       ??$type_case_integer@$07@?$output_processor@DV?$stream_output_adapter@D@__crt_stdio_output@@V?$standard_base@DV?$stream_output_adapter@D@__crt_stdio_output@@@2@@__crt_stdio_output@@AEAA_N_N@Z 00000001800329c0 f i libucrtd:output.obj
 0001:00031e40       ??$type_case_integer@$07@?$output_processor@DV?$string_output_adapter@D@__crt_stdio_output@@V?$format_validation_base@DV?$string_output_adapter@D@__crt_stdio_output@@@2@@__crt_stdio_output@@AEAA_N_N@Z 0000000180032e40 f i libucrtd:output.obj
 0001:000322c0       ??$type_case_integer@$07@?$output_processor@DV?$string_output_adapter@D@__crt_stdio_output@@V?$positional_parameter_base@DV?$string_output_adapter@D@__crt_stdio_output@@@2@@__crt_stdio_output@@AEAA_N_N@Z 00000001800332c0 f i libucrtd:output.obj
 0001:00032740       ??$type_case_integer@$07@?$output_processor@DV?$string_output_adapter@D@__crt_stdio_output@@V?$standard_base@DV?$string_output_adapter@D@__crt_stdio_output@@@2@@__crt_stdio_output@@AEAA_N_N@Z 0000000180033740 f i libucrtd:output.obj
 0001:00032bc0       ??$type_case_integer@$07@?$output_processor@_WV?$stream_output_adapter@_W@__crt_stdio_output@@V?$format_validation_base@_WV?$stream_output_adapter@_W@__crt_stdio_output@@@2@@__crt_stdio_output@@AEAA_N_N@Z 0000000180033bc0 f i libucrtd:output.obj
 0001:00033040       ??$type_case_integer@$07@?$output_processor@_WV?$stream_output_adapter@_W@__crt_stdio_output@@V?$positional_parameter_base@_WV?$stream_output_adapter@_W@__crt_stdio_output@@@2@@__crt_stdio_output@@AEAA_N_N@Z 0000000180034040 f i libucrtd:output.obj
 0001:000334c0       ??$type_case_integer@$07@?$output_processor@_WV?$stream_output_adapter@_W@__crt_stdio_output@@V?$standard_base@_WV?$stream_output_adapter@_W@__crt_stdio_output@@@2@@__crt_stdio_output@@AEAA_N_N@Z 00000001800344c0 f i libucrtd:output.obj
 0001:00033940       ??$type_case_integer@$07@?$output_processor@_WV?$string_output_adapter@_W@__crt_stdio_output@@V?$format_validation_base@_WV?$string_output_adapter@_W@__crt_stdio_output@@@2@@__crt_stdio_output@@AEAA_N_N@Z 0000000180034940 f i libucrtd:output.obj
 0001:00033dc0       ??$type_case_integer@$07@?$output_processor@_WV?$string_output_adapter@_W@__crt_stdio_output@@V?$positional_parameter_base@_WV?$string_output_adapter@_W@__crt_stdio_output@@@2@@__crt_stdio_output@@AEAA_N_N@Z 0000000180034dc0 f i libucrtd:output.obj
 0001:00034240       ??$type_case_integer@$07@?$output_processor@_WV?$string_output_adapter@_W@__crt_stdio_output@@V?$standard_base@_WV?$string_output_adapter@_W@__crt_stdio_output@@@2@@__crt_stdio_output@@AEAA_N_N@Z 0000000180035240 f i libucrtd:output.obj
 0001:000346c0       ??$type_case_integer@$09@?$output_processor@DV?$stream_output_adapter@D@__crt_stdio_output@@V?$format_validation_base@DV?$stream_output_adapter@D@__crt_stdio_output@@@2@@__crt_stdio_output@@AEAA_N_N@Z 00000001800356c0 f i libucrtd:output.obj
 0001:00034b40       ??$type_case_integer@$09@?$output_processor@DV?$stream_output_adapter@D@__crt_stdio_output@@V?$positional_parameter_base@DV?$stream_output_adapter@D@__crt_stdio_output@@@2@@__crt_stdio_output@@AEAA_N_N@Z 0000000180035b40 f i libucrtd:output.obj
 0001:00034fc0       ??$type_case_integer@$09@?$output_processor@DV?$stream_output_adapter@D@__crt_stdio_output@@V?$standard_base@DV?$stream_output_adapter@D@__crt_stdio_output@@@2@@__crt_stdio_output@@AEAA_N_N@Z 0000000180035fc0 f i libucrtd:output.obj
 0001:00035440       ??$type_case_integer@$09@?$output_processor@DV?$string_output_adapter@D@__crt_stdio_output@@V?$format_validation_base@DV?$string_output_adapter@D@__crt_stdio_output@@@2@@__crt_stdio_output@@AEAA_N_N@Z 0000000180036440 f i libucrtd:output.obj
 0001:000358c0       ??$type_case_integer@$09@?$output_processor@DV?$string_output_adapter@D@__crt_stdio_output@@V?$positional_parameter_base@DV?$string_output_adapter@D@__crt_stdio_output@@@2@@__crt_stdio_output@@AEAA_N_N@Z 00000001800368c0 f i libucrtd:output.obj
 0001:00035d40       ??$type_case_integer@$09@?$output_processor@DV?$string_output_adapter@D@__crt_stdio_output@@V?$standard_base@DV?$string_output_adapter@D@__crt_stdio_output@@@2@@__crt_stdio_output@@AEAA_N_N@Z 0000000180036d40 f i libucrtd:output.obj
 0001:000361c0       ??$type_case_integer@$09@?$output_processor@_WV?$stream_output_adapter@_W@__crt_stdio_output@@V?$format_validation_base@_WV?$stream_output_adapter@_W@__crt_stdio_output@@@2@@__crt_stdio_output@@AEAA_N_N@Z 00000001800371c0 f i libucrtd:output.obj
 0001:00036640       ??$type_case_integer@$09@?$output_processor@_WV?$stream_output_adapter@_W@__crt_stdio_output@@V?$positional_parameter_base@_WV?$stream_output_adapter@_W@__crt_stdio_output@@@2@@__crt_stdio_output@@AEAA_N_N@Z 0000000180037640 f i libucrtd:output.obj
 0001:00036ac0       ??$type_case_integer@$09@?$output_processor@_WV?$stream_output_adapter@_W@__crt_stdio_output@@V?$standard_base@_WV?$stream_output_adapter@_W@__crt_stdio_output@@@2@@__crt_stdio_output@@AEAA_N_N@Z 0000000180037ac0 f i libucrtd:output.obj
 0001:00036f40       ??$type_case_integer@$09@?$output_processor@_WV?$string_output_adapter@_W@__crt_stdio_output@@V?$format_validation_base@_WV?$string_output_adapter@_W@__crt_stdio_output@@@2@@__crt_stdio_output@@AEAA_N_N@Z 0000000180037f40 f i libucrtd:output.obj
 0001:000373c0       ??$type_case_integer@$09@?$output_processor@_WV?$string_output_adapter@_W@__crt_stdio_output@@V?$positional_parameter_base@_WV?$string_output_adapter@_W@__crt_stdio_output@@@2@@__crt_stdio_output@@AEAA_N_N@Z 00000001800383c0 f i libucrtd:output.obj
 0001:00037840       ??$type_case_integer@$09@?$output_processor@_WV?$string_output_adapter@_W@__crt_stdio_output@@V?$standard_base@_WV?$string_output_adapter@_W@__crt_stdio_output@@@2@@__crt_stdio_output@@AEAA_N_N@Z 0000000180038840 f i libucrtd:output.obj
 0001:00037cc0       ??$type_case_integer@$0BA@@?$output_processor@DV?$stream_output_adapter@D@__crt_stdio_output@@V?$format_validation_base@DV?$stream_output_adapter@D@__crt_stdio_output@@@2@@__crt_stdio_output@@AEAA_N_N@Z 0000000180038cc0 f i libucrtd:output.obj
 0001:00038140       ??$type_case_integer@$0BA@@?$output_processor@DV?$stream_output_adapter@D@__crt_stdio_output@@V?$positional_parameter_base@DV?$stream_output_adapter@D@__crt_stdio_output@@@2@@__crt_stdio_output@@AEAA_N_N@Z 0000000180039140 f i libucrtd:output.obj
 0001:000385c0       ??$type_case_integer@$0BA@@?$output_processor@DV?$stream_output_adapter@D@__crt_stdio_output@@V?$standard_base@DV?$stream_output_adapter@D@__crt_stdio_output@@@2@@__crt_stdio_output@@AEAA_N_N@Z 00000001800395c0 f i libucrtd:output.obj
 0001:00038a40       ??$type_case_integer@$0BA@@?$output_processor@DV?$string_output_adapter@D@__crt_stdio_output@@V?$format_validation_base@DV?$string_output_adapter@D@__crt_stdio_output@@@2@@__crt_stdio_output@@AEAA_N_N@Z 0000000180039a40 f i libucrtd:output.obj
 0001:00038ec0       ??$type_case_integer@$0BA@@?$output_processor@DV?$string_output_adapter@D@__crt_stdio_output@@V?$positional_parameter_base@DV?$string_output_adapter@D@__crt_stdio_output@@@2@@__crt_stdio_output@@AEAA_N_N@Z 0000000180039ec0 f i libucrtd:output.obj
 0001:00039340       ??$type_case_integer@$0BA@@?$output_processor@DV?$string_output_adapter@D@__crt_stdio_output@@V?$standard_base@DV?$string_output_adapter@D@__crt_stdio_output@@@2@@__crt_stdio_output@@AEAA_N_N@Z 000000018003a340 f i libucrtd:output.obj
 0001:000397c0       ??$type_case_integer@$0BA@@?$output_processor@_WV?$stream_output_adapter@_W@__crt_stdio_output@@V?$format_validation_base@_WV?$stream_output_adapter@_W@__crt_stdio_output@@@2@@__crt_stdio_output@@AEAA_N_N@Z 000000018003a7c0 f i libucrtd:output.obj
 0001:00039c40       ??$type_case_integer@$0BA@@?$output_processor@_WV?$stream_output_adapter@_W@__crt_stdio_output@@V?$positional_parameter_base@_WV?$stream_output_adapter@_W@__crt_stdio_output@@@2@@__crt_stdio_output@@AEAA_N_N@Z 000000018003ac40 f i libucrtd:output.obj
 0001:0003a0c0       ??$type_case_integer@$0BA@@?$output_processor@_WV?$stream_output_adapter@_W@__crt_stdio_output@@V?$standard_base@_WV?$stream_output_adapter@_W@__crt_stdio_output@@@2@@__crt_stdio_output@@AEAA_N_N@Z 000000018003b0c0 f i libucrtd:output.obj
 0001:0003a540       ??$type_case_integer@$0BA@@?$output_processor@_WV?$string_output_adapter@_W@__crt_stdio_output@@V?$format_validation_base@_WV?$string_output_adapter@_W@__crt_stdio_output@@@2@@__crt_stdio_output@@AEAA_N_N@Z 000000018003b540 f i libucrtd:output.obj
 0001:0003a9c0       ??$type_case_integer@$0BA@@?$output_processor@_WV?$string_output_adapter@_W@__crt_stdio_output@@V?$positional_parameter_base@_WV?$string_output_adapter@_W@__crt_stdio_output@@@2@@__crt_stdio_output@@AEAA_N_N@Z 000000018003b9c0 f i libucrtd:output.obj
 0001:0003ae40       ??$type_case_integer@$0BA@@?$output_processor@_WV?$string_output_adapter@_W@__crt_stdio_output@@V?$standard_base@_WV?$string_output_adapter@_W@__crt_stdio_output@@@2@@__crt_stdio_output@@AEAA_N_N@Z 000000018003be40 f i libucrtd:output.obj
 0001:0003b2c0       ??$type_case_integer_parse_into_buffer@I$07@?$output_processor@DV?$stream_output_adapter@D@__crt_stdio_output@@V?$format_validation_base@DV?$stream_output_adapter@D@__crt_stdio_output@@@2@@__crt_stdio_output@@AEAAXI_N@Z 000000018003c2c0 f i libucrtd:output.obj
 0001:0003b3f0       ??$type_case_integer_parse_into_buffer@I$07@?$output_processor@DV?$stream_output_adapter@D@__crt_stdio_output@@V?$positional_parameter_base@DV?$stream_output_adapter@D@__crt_stdio_output@@@2@@__crt_stdio_output@@AEAAXI_N@Z 000000018003c3f0 f i libucrtd:output.obj
 0001:0003b520       ??$type_case_integer_parse_into_buffer@I$07@?$output_processor@DV?$stream_output_adapter@D@__crt_stdio_output@@V?$standard_base@DV?$stream_output_adapter@D@__crt_stdio_output@@@2@@__crt_stdio_output@@AEAAXI_N@Z 000000018003c520 f i libucrtd:output.obj
 0001:0003b650       ??$type_case_integer_parse_into_buffer@I$07@?$output_processor@DV?$string_output_adapter@D@__crt_stdio_output@@V?$format_validation_base@DV?$string_output_adapter@D@__crt_stdio_output@@@2@@__crt_stdio_output@@AEAAXI_N@Z 000000018003c650 f i libucrtd:output.obj
 0001:0003b780       ??$type_case_integer_parse_into_buffer@I$07@?$output_processor@DV?$string_output_adapter@D@__crt_stdio_output@@V?$positional_parameter_base@DV?$string_output_adapter@D@__crt_stdio_output@@@2@@__crt_stdio_output@@AEAAXI_N@Z 000000018003c780 f i libucrtd:output.obj
 0001:0003b8b0       ??$type_case_integer_parse_into_buffer@I$07@?$output_processor@DV?$string_output_adapter@D@__crt_stdio_output@@V?$standard_base@DV?$string_output_adapter@D@__crt_stdio_output@@@2@@__crt_stdio_output@@AEAAXI_N@Z 000000018003c8b0 f i libucrtd:output.obj
 0001:0003b9e0       ??$type_case_integer_parse_into_buffer@I$07@?$output_processor@_WV?$stream_output_adapter@_W@__crt_stdio_output@@V?$format_validation_base@_WV?$stream_output_adapter@_W@__crt_stdio_output@@@2@@__crt_stdio_output@@AEAAXI_N@Z 000000018003c9e0 f i libucrtd:output.obj
 0001:0003bb20       ??$type_case_integer_parse_into_buffer@I$07@?$output_processor@_WV?$stream_output_adapter@_W@__crt_stdio_output@@V?$positional_parameter_base@_WV?$stream_output_adapter@_W@__crt_stdio_output@@@2@@__crt_stdio_output@@AEAAXI_N@Z 000000018003cb20 f i libucrtd:output.obj
 0001:0003bc60       ??$type_case_integer_parse_into_buffer@I$07@?$output_processor@_WV?$stream_output_adapter@_W@__crt_stdio_output@@V?$standard_base@_WV?$stream_output_adapter@_W@__crt_stdio_output@@@2@@__crt_stdio_output@@AEAAXI_N@Z 000000018003cc60 f i libucrtd:output.obj
 0001:0003bda0       ??$type_case_integer_parse_into_buffer@I$07@?$output_processor@_WV?$string_output_adapter@_W@__crt_stdio_output@@V?$format_validation_base@_WV?$string_output_adapter@_W@__crt_stdio_output@@@2@@__crt_stdio_output@@AEAAXI_N@Z 000000018003cda0 f i libucrtd:output.obj
 0001:0003bee0       ??$type_case_integer_parse_into_buffer@I$07@?$output_processor@_WV?$string_output_adapter@_W@__crt_stdio_output@@V?$positional_parameter_base@_WV?$string_output_adapter@_W@__crt_stdio_output@@@2@@__crt_stdio_output@@AEAAXI_N@Z 000000018003cee0 f i libucrtd:output.obj
 0001:0003c020       ??$type_case_integer_parse_into_buffer@I$07@?$output_processor@_WV?$string_output_adapter@_W@__crt_stdio_output@@V?$standard_base@_WV?$string_output_adapter@_W@__crt_stdio_output@@@2@@__crt_stdio_output@@AEAAXI_N@Z 000000018003d020 f i libucrtd:output.obj
 0001:0003c160       ??$type_case_integer_parse_into_buffer@I$09@?$output_processor@DV?$stream_output_adapter@D@__crt_stdio_output@@V?$format_validation_base@DV?$stream_output_adapter@D@__crt_stdio_output@@@2@@__crt_stdio_output@@AEAAXI_N@Z 000000018003d160 f i libucrtd:output.obj
 0001:0003c290       ??$type_case_integer_parse_into_buffer@I$09@?$output_processor@DV?$stream_output_adapter@D@__crt_stdio_output@@V?$positional_parameter_base@DV?$stream_output_adapter@D@__crt_stdio_output@@@2@@__crt_stdio_output@@AEAAXI_N@Z 000000018003d290 f i libucrtd:output.obj
 0001:0003c3c0       ??$type_case_integer_parse_into_buffer@I$09@?$output_processor@DV?$stream_output_adapter@D@__crt_stdio_output@@V?$standard_base@DV?$stream_output_adapter@D@__crt_stdio_output@@@2@@__crt_stdio_output@@AEAAXI_N@Z 000000018003d3c0 f i libucrtd:output.obj
 0001:0003c4f0       ??$type_case_integer_parse_into_buffer@I$09@?$output_processor@DV?$string_output_adapter@D@__crt_stdio_output@@V?$format_validation_base@DV?$string_output_adapter@D@__crt_stdio_output@@@2@@__crt_stdio_output@@AEAAXI_N@Z 000000018003d4f0 f i libucrtd:output.obj
 0001:0003c620       ??$type_case_integer_parse_into_buffer@I$09@?$output_processor@DV?$string_output_adapter@D@__crt_stdio_output@@V?$positional_parameter_base@DV?$string_output_adapter@D@__crt_stdio_output@@@2@@__crt_stdio_output@@AEAAXI_N@Z 000000018003d620 f i libucrtd:output.obj
 0001:0003c750       ??$type_case_integer_parse_into_buffer@I$09@?$output_processor@DV?$string_output_adapter@D@__crt_stdio_output@@V?$standard_base@DV?$string_output_adapter@D@__crt_stdio_output@@@2@@__crt_stdio_output@@AEAAXI_N@Z 000000018003d750 f i libucrtd:output.obj
 0001:0003c880       ??$type_case_integer_parse_into_buffer@I$09@?$output_processor@_WV?$stream_output_adapter@_W@__crt_stdio_output@@V?$format_validation_base@_WV?$stream_output_adapter@_W@__crt_stdio_output@@@2@@__crt_stdio_output@@AEAAXI_N@Z 000000018003d880 f i libucrtd:output.obj
 0001:0003c9c0       ??$type_case_integer_parse_into_buffer@I$09@?$output_processor@_WV?$stream_output_adapter@_W@__crt_stdio_output@@V?$positional_parameter_base@_WV?$stream_output_adapter@_W@__crt_stdio_output@@@2@@__crt_stdio_output@@AEAAXI_N@Z 000000018003d9c0 f i libucrtd:output.obj
 0001:0003cb00       ??$type_case_integer_parse_into_buffer@I$09@?$output_processor@_WV?$stream_output_adapter@_W@__crt_stdio_output@@V?$standard_base@_WV?$stream_output_adapter@_W@__crt_stdio_output@@@2@@__crt_stdio_output@@AEAAXI_N@Z 000000018003db00 f i libucrtd:output.obj
 0001:0003cc40       ??$type_case_integer_parse_into_buffer@I$09@?$output_processor@_WV?$string_output_adapter@_W@__crt_stdio_output@@V?$format_validation_base@_WV?$string_output_adapter@_W@__crt_stdio_output@@@2@@__crt_stdio_output@@AEAAXI_N@Z 000000018003dc40 f i libucrtd:output.obj
 0001:0003cd80       ??$type_case_integer_parse_into_buffer@I$09@?$output_processor@_WV?$string_output_adapter@_W@__crt_stdio_output@@V?$positional_parameter_base@_WV?$string_output_adapter@_W@__crt_stdio_output@@@2@@__crt_stdio_output@@AEAAXI_N@Z 000000018003dd80 f i libucrtd:output.obj
 0001:0003cec0       ??$type_case_integer_parse_into_buffer@I$09@?$output_processor@_WV?$string_output_adapter@_W@__crt_stdio_output@@V?$standard_base@_WV?$string_output_adapter@_W@__crt_stdio_output@@@2@@__crt_stdio_output@@AEAAXI_N@Z 000000018003dec0 f i libucrtd:output.obj
 0001:0003d000       ??$type_case_integer_parse_into_buffer@I$0BA@@?$output_processor@DV?$stream_output_adapter@D@__crt_stdio_output@@V?$format_validation_base@DV?$stream_output_adapter@D@__crt_stdio_output@@@2@@__crt_stdio_output@@AEAAXI_N@Z 000000018003e000 f i libucrtd:output.obj
 0001:0003d130       ??$type_case_integer_parse_into_buffer@I$0BA@@?$output_processor@DV?$stream_output_adapter@D@__crt_stdio_output@@V?$positional_parameter_base@DV?$stream_output_adapter@D@__crt_stdio_output@@@2@@__crt_stdio_output@@AEAAXI_N@Z 000000018003e130 f i libucrtd:output.obj
 0001:0003d260       ??$type_case_integer_parse_into_buffer@I$0BA@@?$output_processor@DV?$stream_output_adapter@D@__crt_stdio_output@@V?$standard_base@DV?$stream_output_adapter@D@__crt_stdio_output@@@2@@__crt_stdio_output@@AEAAXI_N@Z 000000018003e260 f i libucrtd:output.obj
 0001:0003d390       ??$type_case_integer_parse_into_buffer@I$0BA@@?$output_processor@DV?$string_output_adapter@D@__crt_stdio_output@@V?$format_validation_base@DV?$string_output_adapter@D@__crt_stdio_output@@@2@@__crt_stdio_output@@AEAAXI_N@Z 000000018003e390 f i libucrtd:output.obj
 0001:0003d4c0       ??$type_case_integer_parse_into_buffer@I$0BA@@?$output_processor@DV?$string_output_adapter@D@__crt_stdio_output@@V?$positional_parameter_base@DV?$string_output_adapter@D@__crt_stdio_output@@@2@@__crt_stdio_output@@AEAAXI_N@Z 000000018003e4c0 f i libucrtd:output.obj
 0001:0003d5f0       ??$type_case_integer_parse_into_buffer@I$0BA@@?$output_processor@DV?$string_output_adapter@D@__crt_stdio_output@@V?$standard_base@DV?$string_output_adapter@D@__crt_stdio_output@@@2@@__crt_stdio_output@@AEAAXI_N@Z 000000018003e5f0 f i libucrtd:output.obj
 0001:0003d720       ??$type_case_integer_parse_into_buffer@I$0BA@@?$output_processor@_WV?$stream_output_adapter@_W@__crt_stdio_output@@V?$format_validation_base@_WV?$stream_output_adapter@_W@__crt_stdio_output@@@2@@__crt_stdio_output@@AEAAXI_N@Z 000000018003e720 f i libucrtd:output.obj
 0001:0003d860       ??$type_case_integer_parse_into_buffer@I$0BA@@?$output_processor@_WV?$stream_output_adapter@_W@__crt_stdio_output@@V?$positional_parameter_base@_WV?$stream_output_adapter@_W@__crt_stdio_output@@@2@@__crt_stdio_output@@AEAAXI_N@Z 000000018003e860 f i libucrtd:output.obj
 0001:0003d9a0       ??$type_case_integer_parse_into_buffer@I$0BA@@?$output_processor@_WV?$stream_output_adapter@_W@__crt_stdio_output@@V?$standard_base@_WV?$stream_output_adapter@_W@__crt_stdio_output@@@2@@__crt_stdio_output@@AEAAXI_N@Z 000000018003e9a0 f i libucrtd:output.obj
 0001:0003dae0       ??$type_case_integer_parse_into_buffer@I$0BA@@?$output_processor@_WV?$string_output_adapter@_W@__crt_stdio_output@@V?$format_validation_base@_WV?$string_output_adapter@_W@__crt_stdio_output@@@2@@__crt_stdio_output@@AEAAXI_N@Z 000000018003eae0 f i libucrtd:output.obj
 0001:0003dc20       ??$type_case_integer_parse_into_buffer@I$0BA@@?$output_processor@_WV?$string_output_adapter@_W@__crt_stdio_output@@V?$positional_parameter_base@_WV?$string_output_adapter@_W@__crt_stdio_output@@@2@@__crt_stdio_output@@AEAAXI_N@Z 000000018003ec20 f i libucrtd:output.obj
 0001:0003dd60       ??$type_case_integer_parse_into_buffer@I$0BA@@?$output_processor@_WV?$string_output_adapter@_W@__crt_stdio_output@@V?$standard_base@_WV?$string_output_adapter@_W@__crt_stdio_output@@@2@@__crt_stdio_output@@AEAAXI_N@Z 000000018003ed60 f i libucrtd:output.obj
 0001:0003dea0       ??$type_case_integer_parse_into_buffer@_K$07@?$output_processor@DV?$stream_output_adapter@D@__crt_stdio_output@@V?$format_validation_base@DV?$stream_output_adapter@D@__crt_stdio_output@@@2@@__crt_stdio_output@@AEAAX_K_N@Z 000000018003eea0 f i libucrtd:output.obj
 0001:0003dfe0       ??$type_case_integer_parse_into_buffer@_K$07@?$output_processor@DV?$stream_output_adapter@D@__crt_stdio_output@@V?$positional_parameter_base@DV?$stream_output_adapter@D@__crt_stdio_output@@@2@@__crt_stdio_output@@AEAAX_K_N@Z 000000018003efe0 f i libucrtd:output.obj
 0001:0003e120       ??$type_case_integer_parse_into_buffer@_K$07@?$output_processor@DV?$stream_output_adapter@D@__crt_stdio_output@@V?$standard_base@DV?$stream_output_adapter@D@__crt_stdio_output@@@2@@__crt_stdio_output@@AEAAX_K_N@Z 000000018003f120 f i libucrtd:output.obj
 0001:0003e260       ??$type_case_integer_parse_into_buffer@_K$07@?$output_processor@DV?$string_output_adapter@D@__crt_stdio_output@@V?$format_validation_base@DV?$string_output_adapter@D@__crt_stdio_output@@@2@@__crt_stdio_output@@AEAAX_K_N@Z 000000018003f260 f i libucrtd:output.obj
 0001:0003e3a0       ??$type_case_integer_parse_into_buffer@_K$07@?$output_processor@DV?$string_output_adapter@D@__crt_stdio_output@@V?$positional_parameter_base@DV?$string_output_adapter@D@__crt_stdio_output@@@2@@__crt_stdio_output@@AEAAX_K_N@Z 000000018003f3a0 f i libucrtd:output.obj
 0001:0003e4e0       ??$type_case_integer_parse_into_buffer@_K$07@?$output_processor@DV?$string_output_adapter@D@__crt_stdio_output@@V?$standard_base@DV?$string_output_adapter@D@__crt_stdio_output@@@2@@__crt_stdio_output@@AEAAX_K_N@Z 000000018003f4e0 f i libucrtd:output.obj
 0001:0003e620       ??$type_case_integer_parse_into_buffer@_K$07@?$output_processor@_WV?$stream_output_adapter@_W@__crt_stdio_output@@V?$format_validation_base@_WV?$stream_output_adapter@_W@__crt_stdio_output@@@2@@__crt_stdio_output@@AEAAX_K_N@Z 000000018003f620 f i libucrtd:output.obj
 0001:0003e760       ??$type_case_integer_parse_into_buffer@_K$07@?$output_processor@_WV?$stream_output_adapter@_W@__crt_stdio_output@@V?$positional_parameter_base@_WV?$stream_output_adapter@_W@__crt_stdio_output@@@2@@__crt_stdio_output@@AEAAX_K_N@Z 000000018003f760 f i libucrtd:output.obj
 0001:0003e8a0       ??$type_case_integer_parse_into_buffer@_K$07@?$output_processor@_WV?$stream_output_adapter@_W@__crt_stdio_output@@V?$standard_base@_WV?$stream_output_adapter@_W@__crt_stdio_output@@@2@@__crt_stdio_output@@AEAAX_K_N@Z 000000018003f8a0 f i libucrtd:output.obj
 0001:0003e9e0       ??$type_case_integer_parse_into_buffer@_K$07@?$output_processor@_WV?$string_output_adapter@_W@__crt_stdio_output@@V?$format_validation_base@_WV?$string_output_adapter@_W@__crt_stdio_output@@@2@@__crt_stdio_output@@AEAAX_K_N@Z 000000018003f9e0 f i libucrtd:output.obj
 0001:0003eb20       ??$type_case_integer_parse_into_buffer@_K$07@?$output_processor@_WV?$string_output_adapter@_W@__crt_stdio_output@@V?$positional_parameter_base@_WV?$string_output_adapter@_W@__crt_stdio_output@@@2@@__crt_stdio_output@@AEAAX_K_N@Z 000000018003fb20 f i libucrtd:output.obj
 0001:0003ec60       ??$type_case_integer_parse_into_buffer@_K$07@?$output_processor@_WV?$string_output_adapter@_W@__crt_stdio_output@@V?$standard_base@_WV?$string_output_adapter@_W@__crt_stdio_output@@@2@@__crt_stdio_output@@AEAAX_K_N@Z 000000018003fc60 f i libucrtd:output.obj
 0001:0003eda0       ??$type_case_integer_parse_into_buffer@_K$09@?$output_processor@DV?$stream_output_adapter@D@__crt_stdio_output@@V?$format_validation_base@DV?$stream_output_adapter@D@__crt_stdio_output@@@2@@__crt_stdio_output@@AEAAX_K_N@Z 000000018003fda0 f i libucrtd:output.obj
 0001:0003eee0       ??$type_case_integer_parse_into_buffer@_K$09@?$output_processor@DV?$stream_output_adapter@D@__crt_stdio_output@@V?$positional_parameter_base@DV?$stream_output_adapter@D@__crt_stdio_output@@@2@@__crt_stdio_output@@AEAAX_K_N@Z 000000018003fee0 f i libucrtd:output.obj
 0001:0003f020       ??$type_case_integer_parse_into_buffer@_K$09@?$output_processor@DV?$stream_output_adapter@D@__crt_stdio_output@@V?$standard_base@DV?$stream_output_adapter@D@__crt_stdio_output@@@2@@__crt_stdio_output@@AEAAX_K_N@Z 0000000180040020 f i libucrtd:output.obj
 0001:0003f160       ??$type_case_integer_parse_into_buffer@_K$09@?$output_processor@DV?$string_output_adapter@D@__crt_stdio_output@@V?$format_validation_base@DV?$string_output_adapter@D@__crt_stdio_output@@@2@@__crt_stdio_output@@AEAAX_K_N@Z 0000000180040160 f i libucrtd:output.obj
 0001:0003f2a0       ??$type_case_integer_parse_into_buffer@_K$09@?$output_processor@DV?$string_output_adapter@D@__crt_stdio_output@@V?$positional_parameter_base@DV?$string_output_adapter@D@__crt_stdio_output@@@2@@__crt_stdio_output@@AEAAX_K_N@Z 00000001800402a0 f i libucrtd:output.obj
 0001:0003f3e0       ??$type_case_integer_parse_into_buffer@_K$09@?$output_processor@DV?$string_output_adapter@D@__crt_stdio_output@@V?$standard_base@DV?$string_output_adapter@D@__crt_stdio_output@@@2@@__crt_stdio_output@@AEAAX_K_N@Z 00000001800403e0 f i libucrtd:output.obj
 0001:0003f520       ??$type_case_integer_parse_into_buffer@_K$09@?$output_processor@_WV?$stream_output_adapter@_W@__crt_stdio_output@@V?$format_validation_base@_WV?$stream_output_adapter@_W@__crt_stdio_output@@@2@@__crt_stdio_output@@AEAAX_K_N@Z 0000000180040520 f i libucrtd:output.obj
 0001:0003f660       ??$type_case_integer_parse_into_buffer@_K$09@?$output_processor@_WV?$stream_output_adapter@_W@__crt_stdio_output@@V?$positional_parameter_base@_WV?$stream_output_adapter@_W@__crt_stdio_output@@@2@@__crt_stdio_output@@AEAAX_K_N@Z 0000000180040660 f i libucrtd:output.obj
 0001:0003f7a0       ??$type_case_integer_parse_into_buffer@_K$09@?$output_processor@_WV?$stream_output_adapter@_W@__crt_stdio_output@@V?$standard_base@_WV?$stream_output_adapter@_W@__crt_stdio_output@@@2@@__crt_stdio_output@@AEAAX_K_N@Z 00000001800407a0 f i libucrtd:output.obj
 0001:0003f8e0       ??$type_case_integer_parse_into_buffer@_K$09@?$output_processor@_WV?$string_output_adapter@_W@__crt_stdio_output@@V?$format_validation_base@_WV?$string_output_adapter@_W@__crt_stdio_output@@@2@@__crt_stdio_output@@AEAAX_K_N@Z 00000001800408e0 f i libucrtd:output.obj
 0001:0003fa20       ??$type_case_integer_parse_into_buffer@_K$09@?$output_processor@_WV?$string_output_adapter@_W@__crt_stdio_output@@V?$positional_parameter_base@_WV?$string_output_adapter@_W@__crt_stdio_output@@@2@@__crt_stdio_output@@AEAAX_K_N@Z 0000000180040a20 f i libucrtd:output.obj
 0001:0003fb60       ??$type_case_integer_parse_into_buffer@_K$09@?$output_processor@_WV?$string_output_adapter@_W@__crt_stdio_output@@V?$standard_base@_WV?$string_output_adapter@_W@__crt_stdio_output@@@2@@__crt_stdio_output@@AEAAX_K_N@Z 0000000180040b60 f i libucrtd:output.obj
 0001:0003fca0       ??$type_case_integer_parse_into_buffer@_K$0BA@@?$output_processor@DV?$stream_output_adapter@D@__crt_stdio_output@@V?$format_validation_base@DV?$stream_output_adapter@D@__crt_stdio_output@@@2@@__crt_stdio_output@@AEAAX_K_N@Z 0000000180040ca0 f i libucrtd:output.obj
 0001:0003fde0       ??$type_case_integer_parse_into_buffer@_K$0BA@@?$output_processor@DV?$stream_output_adapter@D@__crt_stdio_output@@V?$positional_parameter_base@DV?$stream_output_adapter@D@__crt_stdio_output@@@2@@__crt_stdio_output@@AEAAX_K_N@Z 0000000180040de0 f i libucrtd:output.obj
 0001:0003ff20       ??$type_case_integer_parse_into_buffer@_K$0BA@@?$output_processor@DV?$stream_output_adapter@D@__crt_stdio_output@@V?$standard_base@DV?$stream_output_adapter@D@__crt_stdio_output@@@2@@__crt_stdio_output@@AEAAX_K_N@Z 0000000180040f20 f i libucrtd:output.obj
 0001:00040060       ??$type_case_integer_parse_into_buffer@_K$0BA@@?$output_processor@DV?$string_output_adapter@D@__crt_stdio_output@@V?$format_validation_base@DV?$string_output_adapter@D@__crt_stdio_output@@@2@@__crt_stdio_output@@AEAAX_K_N@Z 0000000180041060 f i libucrtd:output.obj
 0001:000401a0       ??$type_case_integer_parse_into_buffer@_K$0BA@@?$output_processor@DV?$string_output_adapter@D@__crt_stdio_output@@V?$positional_parameter_base@DV?$string_output_adapter@D@__crt_stdio_output@@@2@@__crt_stdio_output@@AEAAX_K_N@Z 00000001800411a0 f i libucrtd:output.obj
 0001:000402e0       ??$type_case_integer_parse_into_buffer@_K$0BA@@?$output_processor@DV?$string_output_adapter@D@__crt_stdio_output@@V?$standard_base@DV?$string_output_adapter@D@__crt_stdio_output@@@2@@__crt_stdio_output@@AEAAX_K_N@Z 00000001800412e0 f i libucrtd:output.obj
 0001:00040420       ??$type_case_integer_parse_into_buffer@_K$0BA@@?$output_processor@_WV?$stream_output_adapter@_W@__crt_stdio_output@@V?$format_validation_base@_WV?$stream_output_adapter@_W@__crt_stdio_output@@@2@@__crt_stdio_output@@AEAAX_K_N@Z 0000000180041420 f i libucrtd:output.obj
 0001:00040560       ??$type_case_integer_parse_into_buffer@_K$0BA@@?$output_processor@_WV?$stream_output_adapter@_W@__crt_stdio_output@@V?$positional_parameter_base@_WV?$stream_output_adapter@_W@__crt_stdio_output@@@2@@__crt_stdio_output@@AEAAX_K_N@Z 0000000180041560 f i libucrtd:output.obj
 0001:000406a0       ??$type_case_integer_parse_into_buffer@_K$0BA@@?$output_processor@_WV?$stream_output_adapter@_W@__crt_stdio_output@@V?$standard_base@_WV?$stream_output_adapter@_W@__crt_stdio_output@@@2@@__crt_stdio_output@@AEAAX_K_N@Z 00000001800416a0 f i libucrtd:output.obj
 0001:000407e0       ??$type_case_integer_parse_into_buffer@_K$0BA@@?$output_processor@_WV?$string_output_adapter@_W@__crt_stdio_output@@V?$format_validation_base@_WV?$string_output_adapter@_W@__crt_stdio_output@@@2@@__crt_stdio_output@@AEAAX_K_N@Z 00000001800417e0 f i libucrtd:output.obj
 0001:00040920       ??$type_case_integer_parse_into_buffer@_K$0BA@@?$output_processor@_WV?$string_output_adapter@_W@__crt_stdio_output@@V?$positional_parameter_base@_WV?$string_output_adapter@_W@__crt_stdio_output@@@2@@__crt_stdio_output@@AEAAX_K_N@Z 0000000180041920 f i libucrtd:output.obj
 0001:00040a60       ??$type_case_integer_parse_into_buffer@_K$0BA@@?$output_processor@_WV?$string_output_adapter@_W@__crt_stdio_output@@V?$standard_base@_WV?$string_output_adapter@_W@__crt_stdio_output@@@2@@__crt_stdio_output@@AEAAX_K_N@Z 0000000180041a60 f i libucrtd:output.obj
 0001:00040ba0       ??$write_multiple_characters@V?$stream_output_adapter@D@__crt_stdio_output@@D@__crt_stdio_output@@YAXAEBV?$stream_output_adapter@D@0@DHQEAHAEAV__crt_cached_ptd_host@@@Z 0000000180041ba0 f i libucrtd:output.obj
 0001:00040c10       ??$write_multiple_characters@V?$stream_output_adapter@_W@__crt_stdio_output@@D@__crt_stdio_output@@YAXAEBV?$stream_output_adapter@_W@0@DHQEAHAEAV__crt_cached_ptd_host@@@Z 0000000180041c10 f i libucrtd:output.obj
 0001:00040c80       ??$write_multiple_characters@V?$string_output_adapter@D@__crt_stdio_output@@D@__crt_stdio_output@@YAXAEBV?$string_output_adapter@D@0@DHQEAHAEAV__crt_cached_ptd_host@@@Z 0000000180041c80 f i libucrtd:output.obj
 0001:00040cf0       ??$write_multiple_characters@V?$string_output_adapter@_W@__crt_stdio_output@@D@__crt_stdio_output@@YAXAEBV?$string_output_adapter@_W@0@DHQEAHAEAV__crt_cached_ptd_host@@@Z 0000000180041cf0 f i libucrtd:output.obj
 0001:00041120       ??0?$c_string_character_source@D@__crt_strtox@@QEAA@QEBDQEAPEBD@Z 0000000180042120 f i libucrtd:output.obj
 0001:00041170       ??0?$c_string_character_source@_W@__crt_strtox@@QEAA@QEB_WQEAPEB_W@Z 0000000180042170 f i libucrtd:output.obj
 0001:000411c0       ??0?$cached@H@__crt_cached_ptd_host@@QEAA@XZ 00000001800421c0 f i libucrtd:output.obj
 0001:000411e0       ??0?$cached@K@__crt_cached_ptd_host@@QEAA@XZ 00000001800421e0 f i libucrtd:output.obj
 0001:00041200       ??0?$common_data@D@__crt_stdio_output@@IEAA@AEAV__crt_cached_ptd_host@@@Z 0000000180042200 f i libucrtd:output.obj
 0001:000412c0       ??0?$common_data@_W@__crt_stdio_output@@IEAA@AEAV__crt_cached_ptd_host@@@Z 00000001800422c0 f i libucrtd:output.obj
 0001:00041380       ??0?$output_adapter_data@DV?$stream_output_adapter@D@__crt_stdio_output@@@__crt_stdio_output@@IEAA@AEBV?$stream_output_adapter@D@1@_KQEBDAEAV__crt_cached_ptd_host@@QEAD@Z 0000000180042380 f i libucrtd:output.obj
 0001:00041400       ??0?$output_adapter_data@DV?$string_output_adapter@D@__crt_stdio_output@@@__crt_stdio_output@@IEAA@AEBV?$string_output_adapter@D@1@_KQEBDAEAV__crt_cached_ptd_host@@QEAD@Z 0000000180042400 f i libucrtd:output.obj
 0001:00041480       ??0?$output_adapter_data@_WV?$stream_output_adapter@_W@__crt_stdio_output@@@__crt_stdio_output@@IEAA@AEBV?$stream_output_adapter@_W@1@_KQEB_WAEAV__crt_cached_ptd_host@@QEAD@Z 0000000180042480 f i libucrtd:output.obj
 0001:00041500       ??0?$output_adapter_data@_WV?$string_output_adapter@_W@__crt_stdio_output@@@__crt_stdio_output@@IEAA@AEBV?$string_output_adapter@_W@1@_KQEB_WAEAV__crt_cached_ptd_host@@QEAD@Z 0000000180042500 f i libucrtd:output.obj
 0001:00041580       ??0?$output_processor@DV?$stream_output_adapter@D@__crt_stdio_output@@V?$format_validation_base@DV?$stream_output_adapter@D@__crt_stdio_output@@@2@@__crt_stdio_output@@QEAA@AEBV?$stream_output_adapter@D@1@_KQEBDAEAV__crt_cached_ptd_host@@QEAD@Z 0000000180042580 f i libucrtd:output.obj
 0001:000415d0       ??0?$output_processor@DV?$stream_output_adapter@D@__crt_stdio_output@@V?$positional_parameter_base@DV?$stream_output_adapter@D@__crt_stdio_output@@@2@@__crt_stdio_output@@QEAA@AEBV?$stream_output_adapter@D@1@_KQEBDAEAV__crt_cached_ptd_host@@QEAD@Z 00000001800425d0 f i libucrtd:output.obj
 0001:00041620       ??0?$output_processor@DV?$stream_output_adapter@D@__crt_stdio_output@@V?$standard_base@DV?$stream_output_adapter@D@__crt_stdio_output@@@2@@__crt_stdio_output@@QEAA@AEBV?$stream_output_adapter@D@1@_KQEBDAEAV__crt_cached_ptd_host@@QEAD@Z 0000000180042620 f i libucrtd:output.obj
 0001:00041670       ??0?$output_processor@DV?$string_output_adapter@D@__crt_stdio_output@@V?$format_validation_base@DV?$string_output_adapter@D@__crt_stdio_output@@@2@@__crt_stdio_output@@QEAA@AEBV?$string_output_adapter@D@1@_KQEBDAEAV__crt_cached_ptd_host@@QEAD@Z 0000000180042670 f i libucrtd:output.obj
 0001:000416c0       ??0?$output_processor@DV?$string_output_adapter@D@__crt_stdio_output@@V?$positional_parameter_base@DV?$string_output_adapter@D@__crt_stdio_output@@@2@@__crt_stdio_output@@QEAA@AEBV?$string_output_adapter@D@1@_KQEBDAEAV__crt_cached_ptd_host@@QEAD@Z 00000001800426c0 f i libucrtd:output.obj
 0001:00041710       ??0?$output_processor@DV?$string_output_adapter@D@__crt_stdio_output@@V?$standard_base@DV?$string_output_adapter@D@__crt_stdio_output@@@2@@__crt_stdio_output@@QEAA@AEBV?$string_output_adapter@D@1@_KQEBDAEAV__crt_cached_ptd_host@@QEAD@Z 0000000180042710 f i libucrtd:output.obj
 0001:00041760       ??0?$output_processor@_WV?$stream_output_adapter@_W@__crt_stdio_output@@V?$format_validation_base@_WV?$stream_output_adapter@_W@__crt_stdio_output@@@2@@__crt_stdio_output@@QEAA@AEBV?$stream_output_adapter@_W@1@_KQEB_WAEAV__crt_cached_ptd_host@@QEAD@Z 0000000180042760 f i libucrtd:output.obj
 0001:000417b0       ??0?$output_processor@_WV?$stream_output_adapter@_W@__crt_stdio_output@@V?$positional_parameter_base@_WV?$stream_output_adapter@_W@__crt_stdio_output@@@2@@__crt_stdio_output@@QEAA@AEBV?$stream_output_adapter@_W@1@_KQEB_WAEAV__crt_cached_ptd_host@@QEAD@Z 00000001800427b0 f i libucrtd:output.obj
 0001:00041800       ??0?$output_processor@_WV?$stream_output_adapter@_W@__crt_stdio_output@@V?$standard_base@_WV?$stream_output_adapter@_W@__crt_stdio_output@@@2@@__crt_stdio_output@@QEAA@AEBV?$stream_output_adapter@_W@1@_KQEB_WAEAV__crt_cached_ptd_host@@QEAD@Z 0000000180042800 f i libucrtd:output.obj
 0001:00041850       ??0?$output_processor@_WV?$string_output_adapter@_W@__crt_stdio_output@@V?$format_validation_base@_WV?$string_output_adapter@_W@__crt_stdio_output@@@2@@__crt_stdio_output@@QEAA@AEBV?$string_output_adapter@_W@1@_KQEB_WAEAV__crt_cached_ptd_host@@QEAD@Z 0000000180042850 f i libucrtd:output.obj
 0001:000418a0       ??0?$output_processor@_WV?$string_output_adapter@_W@__crt_stdio_output@@V?$positional_parameter_base@_WV?$string_output_adapter@_W@__crt_stdio_output@@@2@@__crt_stdio_output@@QEAA@AEBV?$string_output_adapter@_W@1@_KQEB_WAEAV__crt_cached_ptd_host@@QEAD@Z 00000001800428a0 f i libucrtd:output.obj
 0001:000418f0       ??0?$output_processor@_WV?$string_output_adapter@_W@__crt_stdio_output@@V?$standard_base@_WV?$string_output_adapter@_W@__crt_stdio_output@@@2@@__crt_stdio_output@@QEAA@AEBV?$string_output_adapter@_W@1@_KQEB_WAEAV__crt_cached_ptd_host@@QEAD@Z 00000001800428f0 f i libucrtd:output.obj
 0001:00041940       ??0?$stream_output_adapter@D@__crt_stdio_output@@QEAA@QEAU_iobuf@@@Z 0000000180042940 f i libucrtd:output.obj
 0001:00041980       ??0?$stream_output_adapter@_W@__crt_stdio_output@@QEAA@QEAU_iobuf@@@Z 0000000180042980 f i libucrtd:output.obj
 0001:000419c0       ??0?$string_output_adapter@D@__crt_stdio_output@@QEAA@QEAU?$string_output_adapter_context@D@1@@Z 00000001800429c0 f i libucrtd:output.obj
 0001:000419e0       ??0?$string_output_adapter@_W@__crt_stdio_output@@QEAA@QEAU?$string_output_adapter_context@_W@1@@Z 00000001800429e0 f i libucrtd:output.obj
 0001:00041a00       ??0__acrt_stdio_temporary_buffering_guard@@QEAA@QEAU_iobuf@@AEAV__crt_cached_ptd_host@@@Z 0000000180042a00 f i libucrtd:output.obj
 0001:00041a50       ??0__crt_cached_ptd_host@@QEAA@QEAU__crt_locale_pointers@@@Z 0000000180042a50 f i libucrtd:output.obj
 0001:00041b10       ??0__crt_scoped_get_last_error_reset@@QEAA@XZ 0000000180042b10 f i libucrtd:output.obj
 0001:00041b30       ??0__crt_stdio_stream@@QEAA@QEAU_iobuf@@@Z 0000000180042b30 f i libucrtd:output.obj
 0001:00041b50       ??0formatting_buffer@__crt_stdio_output@@QEAA@XZ 0000000180042b50 f i libucrtd:output.obj
 0001:00041b90       ??0guard@?$cached@H@__crt_cached_ptd_host@@QEAA@AEAU12@@Z 0000000180042b90 f i libucrtd:output.obj
 0001:00041bd0       ??1?$c_string_character_source@D@__crt_strtox@@QEAA@XZ 0000000180042bd0 f i libucrtd:output.obj
 0001:00041c00       ??1?$c_string_character_source@_W@__crt_strtox@@QEAA@XZ 0000000180042c00 f i libucrtd:output.obj
 0001:00041c30       ??1?$common_data@D@__crt_stdio_output@@QEAA@XZ 0000000180042c30 f i libucrtd:output.obj
 0001:00041c50       ??1?$common_data@_W@__crt_stdio_output@@QEAA@XZ 0000000180042c50 f i libucrtd:output.obj
 0001:00041c70       ??1?$format_validation_base@DV?$stream_output_adapter@D@__crt_stdio_output@@@__crt_stdio_output@@QEAA@XZ 0000000180042c70 f i libucrtd:output.obj
 0001:00041c90       ??1?$format_validation_base@DV?$string_output_adapter@D@__crt_stdio_output@@@__crt_stdio_output@@QEAA@XZ 0000000180042c90 f i libucrtd:output.obj
 0001:00041cb0       ??1?$format_validation_base@_WV?$stream_output_adapter@_W@__crt_stdio_output@@@__crt_stdio_output@@QEAA@XZ 0000000180042cb0 f i libucrtd:output.obj
 0001:00041cd0       ??1?$format_validation_base@_WV?$string_output_adapter@_W@__crt_stdio_output@@@__crt_stdio_output@@QEAA@XZ 0000000180042cd0 f i libucrtd:output.obj
 0001:00041cf0       ??1?$output_adapter_data@DV?$stream_output_adapter@D@__crt_stdio_output@@@__crt_stdio_output@@QEAA@XZ 0000000180042cf0 f i libucrtd:output.obj
 0001:00041d10       ??1?$output_adapter_data@DV?$string_output_adapter@D@__crt_stdio_output@@@__crt_stdio_output@@QEAA@XZ 0000000180042d10 f i libucrtd:output.obj
 0001:00041d30       ??1?$output_adapter_data@_WV?$stream_output_adapter@_W@__crt_stdio_output@@@__crt_stdio_output@@QEAA@XZ 0000000180042d30 f i libucrtd:output.obj
 0001:00041d50       ??1?$output_adapter_data@_WV?$string_output_adapter@_W@__crt_stdio_output@@@__crt_stdio_output@@QEAA@XZ 0000000180042d50 f i libucrtd:output.obj
 0001:00041d70       ??1?$output_processor@DV?$stream_output_adapter@D@__crt_stdio_output@@V?$format_validation_base@DV?$stream_output_adapter@D@__crt_stdio_output@@@2@@__crt_stdio_output@@QEAA@XZ 0000000180042d70 f i libucrtd:output.obj
 0001:00041d90       ??1?$output_processor@DV?$stream_output_adapter@D@__crt_stdio_output@@V?$positional_parameter_base@DV?$stream_output_adapter@D@__crt_stdio_output@@@2@@__crt_stdio_output@@QEAA@XZ 0000000180042d90 f i libucrtd:output.obj
 0001:00041db0       ??1?$output_processor@DV?$stream_output_adapter@D@__crt_stdio_output@@V?$standard_base@DV?$stream_output_adapter@D@__crt_stdio_output@@@2@@__crt_stdio_output@@QEAA@XZ 0000000180042db0 f i libucrtd:output.obj
 0001:00041dd0       ??1?$output_processor@DV?$string_output_adapter@D@__crt_stdio_output@@V?$format_validation_base@DV?$string_output_adapter@D@__crt_stdio_output@@@2@@__crt_stdio_output@@QEAA@XZ 0000000180042dd0 f i libucrtd:output.obj
 0001:00041df0       ??1?$output_processor@DV?$string_output_adapter@D@__crt_stdio_output@@V?$positional_parameter_base@DV?$string_output_adapter@D@__crt_stdio_output@@@2@@__crt_stdio_output@@QEAA@XZ 0000000180042df0 f i libucrtd:output.obj
 0001:00041e10       ??1?$output_processor@DV?$string_output_adapter@D@__crt_stdio_output@@V?$standard_base@DV?$string_output_adapter@D@__crt_stdio_output@@@2@@__crt_stdio_output@@QEAA@XZ 0000000180042e10 f i libucrtd:output.obj
 0001:00041e30       ??1?$output_processor@_WV?$stream_output_adapter@_W@__crt_stdio_output@@V?$format_validation_base@_WV?$stream_output_adapter@_W@__crt_stdio_output@@@2@@__crt_stdio_output@@QEAA@XZ 0000000180042e30 f i libucrtd:output.obj
 0001:00041e50       ??1?$output_processor@_WV?$stream_output_adapter@_W@__crt_stdio_output@@V?$positional_parameter_base@_WV?$stream_output_adapter@_W@__crt_stdio_output@@@2@@__crt_stdio_output@@QEAA@XZ 0000000180042e50 f i libucrtd:output.obj
 0001:00041e70       ??1?$output_processor@_WV?$stream_output_adapter@_W@__crt_stdio_output@@V?$standard_base@_WV?$stream_output_adapter@_W@__crt_stdio_output@@@2@@__crt_stdio_output@@QEAA@XZ 0000000180042e70 f i libucrtd:output.obj
 0001:00041e90       ??1?$output_processor@_WV?$string_output_adapter@_W@__crt_stdio_output@@V?$format_validation_base@_WV?$string_output_adapter@_W@__crt_stdio_output@@@2@@__crt_stdio_output@@QEAA@XZ 0000000180042e90 f i libucrtd:output.obj
 0001:00041eb0       ??1?$output_processor@_WV?$string_output_adapter@_W@__crt_stdio_output@@V?$positional_parameter_base@_WV?$string_output_adapter@_W@__crt_stdio_output@@@2@@__crt_stdio_output@@QEAA@XZ 0000000180042eb0 f i libucrtd:output.obj
 0001:00041ed0       ??1?$output_processor@_WV?$string_output_adapter@_W@__crt_stdio_output@@V?$standard_base@_WV?$string_output_adapter@_W@__crt_stdio_output@@@2@@__crt_stdio_output@@QEAA@XZ 0000000180042ed0 f i libucrtd:output.obj
 0001:00041ef0       ??1?$positional_parameter_base@DV?$stream_output_adapter@D@__crt_stdio_output@@@__crt_stdio_output@@QEAA@XZ 0000000180042ef0 f i libucrtd:output.obj
 0001:00041f10       ??1?$positional_parameter_base@DV?$string_output_adapter@D@__crt_stdio_output@@@__crt_stdio_output@@QEAA@XZ 0000000180042f10 f i libucrtd:output.obj
 0001:00041f30       ??1?$positional_parameter_base@_WV?$stream_output_adapter@_W@__crt_stdio_output@@@__crt_stdio_output@@QEAA@XZ 0000000180042f30 f i libucrtd:output.obj
 0001:00041f50       ??1?$positional_parameter_base@_WV?$string_output_adapter@_W@__crt_stdio_output@@@__crt_stdio_output@@QEAA@XZ 0000000180042f50 f i libucrtd:output.obj
 0001:00041f70       ??1?$standard_base@DV?$stream_output_adapter@D@__crt_stdio_output@@@__crt_stdio_output@@QEAA@XZ 0000000180042f70 f i libucrtd:output.obj
 0001:00041f90       ??1?$standard_base@DV?$string_output_adapter@D@__crt_stdio_output@@@__crt_stdio_output@@QEAA@XZ 0000000180042f90 f i libucrtd:output.obj
 0001:00041fb0       ??1?$standard_base@_WV?$stream_output_adapter@_W@__crt_stdio_output@@@__crt_stdio_output@@QEAA@XZ 0000000180042fb0 f i libucrtd:output.obj
 0001:00041fd0       ??1?$standard_base@_WV?$string_output_adapter@_W@__crt_stdio_output@@@__crt_stdio_output@@QEAA@XZ 0000000180042fd0 f i libucrtd:output.obj
 0001:00041ff0       ??1__acrt_stdio_temporary_buffering_guard@@QEAA@XZ 0000000180042ff0 f i libucrtd:output.obj
 0001:00042020       ??1__crt_cached_ptd_host@@QEAA@XZ 0000000180043020 f i libucrtd:output.obj
 0001:000420d0       ??1__crt_scoped_get_last_error_reset@@QEAA@XZ 00000001800430d0 f i libucrtd:output.obj
 0001:000420f0       ??1formatting_buffer@__crt_stdio_output@@QEAA@XZ 00000001800430f0 f i libucrtd:output.obj
 0001:00042120       ??1guard@?$cached@H@__crt_cached_ptd_host@@QEAA@XZ 0000000180043120 f i libucrtd:output.obj
 0001:00042150       ??4?$__crt_unique_heap_ptr@DU__crt_internal_free_policy@@@@QEAAAEAV0@$$QEAV0@@Z 0000000180043150 f i libucrtd:output.obj
 0001:00042190       ??A?$spectre_mitigated_lookup_table@Ustate_transition_pair@__crt_stdio_output@@$0IA@@__crt_stdio_output@@QEBAAEBUstate_transition_pair@1@_K@Z 0000000180043190 f i libucrtd:output.obj
 0001:000421b0       ??C__crt_stdio_stream@@QEBAPEAU__crt_stdio_stream_data@@XZ 00000001800431b0 f i libucrtd:output.obj
 0001:00042a00       ?__crt_interlocked_read_32@@YAHPEDH@Z 0000000180043a00 f i libucrtd:output.obj
 0001:00042a20       ?adjust_hexit@?$output_processor@DV?$stream_output_adapter@D@__crt_stdio_output@@V?$format_validation_base@DV?$stream_output_adapter@D@__crt_stdio_output@@@2@@__crt_stdio_output@@CADH_N@Z 0000000180043a20 f i libucrtd:output.obj
 0001:00042a70       ?adjust_hexit@?$output_processor@DV?$stream_output_adapter@D@__crt_stdio_output@@V?$positional_parameter_base@DV?$stream_output_adapter@D@__crt_stdio_output@@@2@@__crt_stdio_output@@CADH_N@Z 0000000180043a70 f i libucrtd:output.obj
 0001:00042ac0       ?adjust_hexit@?$output_processor@DV?$stream_output_adapter@D@__crt_stdio_output@@V?$standard_base@DV?$stream_output_adapter@D@__crt_stdio_output@@@2@@__crt_stdio_output@@CADH_N@Z 0000000180043ac0 f i libucrtd:output.obj
 0001:00042b10       ?adjust_hexit@?$output_processor@DV?$string_output_adapter@D@__crt_stdio_output@@V?$format_validation_base@DV?$string_output_adapter@D@__crt_stdio_output@@@2@@__crt_stdio_output@@CADH_N@Z 0000000180043b10 f i libucrtd:output.obj
 0001:00042b60       ?adjust_hexit@?$output_processor@DV?$string_output_adapter@D@__crt_stdio_output@@V?$positional_parameter_base@DV?$string_output_adapter@D@__crt_stdio_output@@@2@@__crt_stdio_output@@CADH_N@Z 0000000180043b60 f i libucrtd:output.obj
 0001:00042bb0       ?adjust_hexit@?$output_processor@DV?$string_output_adapter@D@__crt_stdio_output@@V?$standard_base@DV?$string_output_adapter@D@__crt_stdio_output@@@2@@__crt_stdio_output@@CADH_N@Z 0000000180043bb0 f i libucrtd:output.obj
 0001:00042c00       ?adjust_hexit@?$output_processor@_WV?$stream_output_adapter@_W@__crt_stdio_output@@V?$format_validation_base@_WV?$stream_output_adapter@_W@__crt_stdio_output@@@2@@__crt_stdio_output@@CADH_N@Z 0000000180043c00 f i libucrtd:output.obj
 0001:00042c50       ?adjust_hexit@?$output_processor@_WV?$stream_output_adapter@_W@__crt_stdio_output@@V?$positional_parameter_base@_WV?$stream_output_adapter@_W@__crt_stdio_output@@@2@@__crt_stdio_output@@CADH_N@Z 0000000180043c50 f i libucrtd:output.obj
 0001:00042ca0       ?adjust_hexit@?$output_processor@_WV?$stream_output_adapter@_W@__crt_stdio_output@@V?$standard_base@_WV?$stream_output_adapter@_W@__crt_stdio_output@@@2@@__crt_stdio_output@@CADH_N@Z 0000000180043ca0 f i libucrtd:output.obj
 0001:00042cf0       ?adjust_hexit@?$output_processor@_WV?$string_output_adapter@_W@__crt_stdio_output@@V?$format_validation_base@_WV?$string_output_adapter@_W@__crt_stdio_output@@@2@@__crt_stdio_output@@CADH_N@Z 0000000180043cf0 f i libucrtd:output.obj
 0001:00042d40       ?adjust_hexit@?$output_processor@_WV?$string_output_adapter@_W@__crt_stdio_output@@V?$positional_parameter_base@_WV?$string_output_adapter@_W@__crt_stdio_output@@@2@@__crt_stdio_output@@CADH_N@Z 0000000180043d40 f i libucrtd:output.obj
 0001:00042d90       ?adjust_hexit@?$output_processor@_WV?$string_output_adapter@_W@__crt_stdio_output@@V?$standard_base@_WV?$string_output_adapter@_W@__crt_stdio_output@@@2@@__crt_stdio_output@@CADH_N@Z 0000000180043d90 f i libucrtd:output.obj
 0001:00042de0       ?advance_to_next_pass@?$positional_parameter_base@DV?$stream_output_adapter@D@__crt_stdio_output@@@__crt_stdio_output@@IEAA_NXZ 0000000180043de0 f i libucrtd:output.obj
 0001:00042e90       ?advance_to_next_pass@?$positional_parameter_base@DV?$string_output_adapter@D@__crt_stdio_output@@@__crt_stdio_output@@IEAA_NXZ 0000000180043e90 f i libucrtd:output.obj
 0001:00042f40       ?advance_to_next_pass@?$positional_parameter_base@_WV?$stream_output_adapter@_W@__crt_stdio_output@@@__crt_stdio_output@@IEAA_NXZ 0000000180043f40 f i libucrtd:output.obj
 0001:00042ff0       ?advance_to_next_pass@?$positional_parameter_base@_WV?$string_output_adapter@_W@__crt_stdio_output@@@__crt_stdio_output@@IEAA_NXZ 0000000180043ff0 f i libucrtd:output.obj
 0001:000430a0       ?advance_to_next_pass@?$standard_base@DV?$stream_output_adapter@D@__crt_stdio_output@@@__crt_stdio_output@@IEAA_NXZ 00000001800440a0 f i libucrtd:output.obj
 0001:000430f0       ?advance_to_next_pass@?$standard_base@DV?$string_output_adapter@D@__crt_stdio_output@@@__crt_stdio_output@@IEAA_NXZ 00000001800440f0 f i libucrtd:output.obj
 0001:00043140       ?advance_to_next_pass@?$standard_base@_WV?$stream_output_adapter@_W@__crt_stdio_output@@@__crt_stdio_output@@IEAA_NXZ 0000000180044140 f i libucrtd:output.obj
 0001:00043190       ?advance_to_next_pass@?$standard_base@_WV?$string_output_adapter@_W@__crt_stdio_output@@@__crt_stdio_output@@IEAA_NXZ 0000000180044190 f i libucrtd:output.obj
 0001:000431e0       ?check@?$cached@H@__crt_cached_ptd_host@@QEBA_NH@Z 00000001800441e0 f i libucrtd:output.obj
 0001:00043220       ?check_synchronize_global_state_index@__crt_cached_ptd_host@@AEAA_KAEBV__crt_scoped_get_last_error_reset@@@Z 0000000180044220 f i libucrtd:output.obj
 0001:00043260       ?check_synchronize_per_thread_data@__crt_cached_ptd_host@@AEAAPEAU__acrt_ptd@@XZ 0000000180044260 f i libucrtd:output.obj
 0001:000432a0       ?create_guard@?$cached@H@__crt_cached_ptd_host@@QEAA?AVguard@12@XZ 00000001800442a0 f i libucrtd:output.obj
 0001:000432d0       ?crop_zeroes@__crt_stdio_output@@YAXPEADQEAU__crt_locale_pointers@@@Z 00000001800442d0 f i libucrtd:output.obj
 0001:00043420       ?disable@guard@?$cached@H@__crt_cached_ptd_host@@QEAAXXZ 0000000180044420 f i libucrtd:output.obj
 0001:00043430       ?enable@guard@?$cached@H@__crt_cached_ptd_host@@QEAAXXZ 0000000180044430 f i libucrtd:output.obj
 0001:00043440       ?find_next_state@?$output_processor@DV?$stream_output_adapter@D@__crt_stdio_output@@V?$format_validation_base@DV?$stream_output_adapter@D@__crt_stdio_output@@@2@@__crt_stdio_output@@AEBA?AW4state@2@DW432@@Z 0000000180044440 f i libucrtd:output.obj
 0001:000434e0       ?find_next_state@?$output_processor@DV?$stream_output_adapter@D@__crt_stdio_output@@V?$positional_parameter_base@DV?$stream_output_adapter@D@__crt_stdio_output@@@2@@__crt_stdio_output@@AEBA?AW4state@2@DW432@@Z 00000001800444e0 f i libucrtd:output.obj
 0001:00043580       ?find_next_state@?$output_processor@DV?$stream_output_adapter@D@__crt_stdio_output@@V?$standard_base@DV?$stream_output_adapter@D@__crt_stdio_output@@@2@@__crt_stdio_output@@AEBA?AW4state@2@DW432@@Z 0000000180044580 f i libucrtd:output.obj
 0001:00043620       ?find_next_state@?$output_processor@DV?$string_output_adapter@D@__crt_stdio_output@@V?$format_validation_base@DV?$string_output_adapter@D@__crt_stdio_output@@@2@@__crt_stdio_output@@AEBA?AW4state@2@DW432@@Z 0000000180044620 f i libucrtd:output.obj
 0001:000436c0       ?find_next_state@?$output_processor@DV?$string_output_adapter@D@__crt_stdio_output@@V?$positional_parameter_base@DV?$string_output_adapter@D@__crt_stdio_output@@@2@@__crt_stdio_output@@AEBA?AW4state@2@DW432@@Z 00000001800446c0 f i libucrtd:output.obj
 0001:00043760       ?find_next_state@?$output_processor@DV?$string_output_adapter@D@__crt_stdio_output@@V?$standard_base@DV?$string_output_adapter@D@__crt_stdio_output@@@2@@__crt_stdio_output@@AEBA?AW4state@2@DW432@@Z 0000000180044760 f i libucrtd:output.obj
 0001:00043800       ?find_next_state@?$output_processor@_WV?$stream_output_adapter@_W@__crt_stdio_output@@V?$format_validation_base@_WV?$stream_output_adapter@_W@__crt_stdio_output@@@2@@__crt_stdio_output@@AEBA?AW4state@2@_WW432@@Z 0000000180044800 f i libucrtd:output.obj
 0001:000438a0       ?find_next_state@?$output_processor@_WV?$stream_output_adapter@_W@__crt_stdio_output@@V?$positional_parameter_base@_WV?$stream_output_adapter@_W@__crt_stdio_output@@@2@@__crt_stdio_output@@AEBA?AW4state@2@_WW432@@Z 00000001800448a0 f i libucrtd:output.obj
 0001:00043940       ?find_next_state@?$output_processor@_WV?$stream_output_adapter@_W@__crt_stdio_output@@V?$standard_base@_WV?$stream_output_adapter@_W@__crt_stdio_output@@@2@@__crt_stdio_output@@AEBA?AW4state@2@_WW432@@Z 0000000180044940 f i libucrtd:output.obj
 0001:000439e0       ?find_next_state@?$output_processor@_WV?$string_output_adapter@_W@__crt_stdio_output@@V?$format_validation_base@_WV?$string_output_adapter@_W@__crt_stdio_output@@@2@@__crt_stdio_output@@AEBA?AW4state@2@_WW432@@Z 00000001800449e0 f i libucrtd:output.obj
 0001:00043a80       ?find_next_state@?$output_processor@_WV?$string_output_adapter@_W@__crt_stdio_output@@V?$positional_parameter_base@_WV?$string_output_adapter@_W@__crt_stdio_output@@@2@@__crt_stdio_output@@AEBA?AW4state@2@_WW432@@Z 0000000180044a80 f i libucrtd:output.obj
 0001:00043b20       ?find_next_state@?$output_processor@_WV?$string_output_adapter@_W@__crt_stdio_output@@V?$standard_base@_WV?$string_output_adapter@_W@__crt_stdio_output@@@2@@__crt_stdio_output@@AEBA?AW4state@2@_WW432@@Z 0000000180044b20 f i libucrtd:output.obj
 0001:00043bc0       ?force_decimal_point@__crt_stdio_output@@YAXPEADQEAU__crt_locale_pointers@@@Z 0000000180044bc0 f i libucrtd:output.obj
 0001:00043cc0       ?force_synchronize_global_state_index@__crt_cached_ptd_host@@AEAA_KAEBV__crt_scoped_get_last_error_reset@@@Z 0000000180044cc0 f i libucrtd:output.obj
 0001:00043d00       ?force_synchronize_per_thread_data@__crt_cached_ptd_host@@AEAAPEAU__acrt_ptd@@XZ 0000000180044d00 f i libucrtd:output.obj
 0001:00043d60       ?get@?$c_string_character_source@D@__crt_strtox@@QEAADXZ 0000000180044d60 f i libucrtd:output.obj
 0001:00043da0       ?get@?$c_string_character_source@_W@__crt_strtox@@QEAA_WXZ 0000000180044da0 f i libucrtd:output.obj
 0001:00043de0       ?get_current_state_index@__crt_state_management@@YA_KAEBV__crt_scoped_get_last_error_reset@@@Z 0000000180044de0 f i libucrtd:output.obj
 0001:00043df0       ?get_errno@__crt_cached_ptd_host@@QEAA@XZ 0000000180044df0 f i libucrtd:output.obj
 0001:00043e00       ?get_flags@__crt_stdio_stream@@QEBAJXZ 0000000180044e00 f i libucrtd:output.obj
 0001:00043e30       ?get_locale@__crt_cached_ptd_host@@QEAAPEAU__crt_locale_pointers@@XZ 0000000180044e30 f i libucrtd:output.obj
 0001:00043e60       ?get_parameter_type@?$positional_parameter_base@DV?$stream_output_adapter@D@__crt_stdio_output@@@__crt_stdio_output@@CA?AW4parameter_type@12@F@Z 0000000180044e60 f i libucrtd:output.obj
 0001:00043e70       ?get_parameter_type@?$positional_parameter_base@DV?$stream_output_adapter@D@__crt_stdio_output@@@__crt_stdio_output@@CA?AW4parameter_type@12@G@Z 0000000180044e70 f i libucrtd:output.obj
 0001:00043e80       ?get_parameter_type@?$positional_parameter_base@DV?$stream_output_adapter@D@__crt_stdio_output@@@__crt_stdio_output@@CA?AW4parameter_type@12@H@Z 0000000180044e80 f i libucrtd:output.obj
 0001:00043e90       ?get_parameter_type@?$positional_parameter_base@DV?$stream_output_adapter@D@__crt_stdio_output@@@__crt_stdio_output@@CA?AW4parameter_type@12@I@Z 0000000180044e90 f i libucrtd:output.obj
 0001:00043ea0       ?get_parameter_type@?$positional_parameter_base@DV?$stream_output_adapter@D@__crt_stdio_output@@@__crt_stdio_output@@CA?AW4parameter_type@12@U_CRT_DOUBLE@@@Z 0000000180044ea0 f i libucrtd:output.obj
 0001:00043eb0       ?get_parameter_type@?$positional_parameter_base@DV?$stream_output_adapter@D@__crt_stdio_output@@@__crt_stdio_output@@CA?AW4parameter_type@12@_J@Z 0000000180044eb0 f i libucrtd:output.obj
 0001:00043ec0       ?get_parameter_type@?$positional_parameter_base@DV?$stream_output_adapter@D@__crt_stdio_output@@@__crt_stdio_output@@CA?AW4parameter_type@12@_K@Z 0000000180044ec0 f i libucrtd:output.obj
 0001:00043ed0       ?get_parameter_type@?$positional_parameter_base@DV?$stream_output_adapter@D@__crt_stdio_output@@@__crt_stdio_output@@CA?AW4parameter_type@12@_W@Z 0000000180044ed0 f i libucrtd:output.obj
 0001:00043ee0       ?get_parameter_type@?$positional_parameter_base@DV?$string_output_adapter@D@__crt_stdio_output@@@__crt_stdio_output@@CA?AW4parameter_type@12@F@Z 0000000180044ee0 f i libucrtd:output.obj
 0001:00043ef0       ?get_parameter_type@?$positional_parameter_base@DV?$string_output_adapter@D@__crt_stdio_output@@@__crt_stdio_output@@CA?AW4parameter_type@12@G@Z 0000000180044ef0 f i libucrtd:output.obj
 0001:00043f00       ?get_parameter_type@?$positional_parameter_base@DV?$string_output_adapter@D@__crt_stdio_output@@@__crt_stdio_output@@CA?AW4parameter_type@12@H@Z 0000000180044f00 f i libucrtd:output.obj
 0001:00043f10       ?get_parameter_type@?$positional_parameter_base@DV?$string_output_adapter@D@__crt_stdio_output@@@__crt_stdio_output@@CA?AW4parameter_type@12@I@Z 0000000180044f10 f i libucrtd:output.obj
 0001:00043f20       ?get_parameter_type@?$positional_parameter_base@DV?$string_output_adapter@D@__crt_stdio_output@@@__crt_stdio_output@@CA?AW4parameter_type@12@U_CRT_DOUBLE@@@Z 0000000180044f20 f i libucrtd:output.obj
 0001:00043f30       ?get_parameter_type@?$positional_parameter_base@DV?$string_output_adapter@D@__crt_stdio_output@@@__crt_stdio_output@@CA?AW4parameter_type@12@_J@Z 0000000180044f30 f i libucrtd:output.obj
 0001:00043f40       ?get_parameter_type@?$positional_parameter_base@DV?$string_output_adapter@D@__crt_stdio_output@@@__crt_stdio_output@@CA?AW4parameter_type@12@_K@Z 0000000180044f40 f i libucrtd:output.obj
 0001:00043f50       ?get_parameter_type@?$positional_parameter_base@DV?$string_output_adapter@D@__crt_stdio_output@@@__crt_stdio_output@@CA?AW4parameter_type@12@_W@Z 0000000180044f50 f i libucrtd:output.obj
 0001:00043f60       ?get_parameter_type@?$positional_parameter_base@_WV?$stream_output_adapter@_W@__crt_stdio_output@@@__crt_stdio_output@@CA?AW4parameter_type@12@F@Z 0000000180044f60 f i libucrtd:output.obj
 0001:00043f70       ?get_parameter_type@?$positional_parameter_base@_WV?$stream_output_adapter@_W@__crt_stdio_output@@@__crt_stdio_output@@CA?AW4parameter_type@12@G@Z 0000000180044f70 f i libucrtd:output.obj
 0001:00043f80       ?get_parameter_type@?$positional_parameter_base@_WV?$stream_output_adapter@_W@__crt_stdio_output@@@__crt_stdio_output@@CA?AW4parameter_type@12@H@Z 0000000180044f80 f i libucrtd:output.obj
 0001:00043f90       ?get_parameter_type@?$positional_parameter_base@_WV?$stream_output_adapter@_W@__crt_stdio_output@@@__crt_stdio_output@@CA?AW4parameter_type@12@I@Z 0000000180044f90 f i libucrtd:output.obj
 0001:00043fa0       ?get_parameter_type@?$positional_parameter_base@_WV?$stream_output_adapter@_W@__crt_stdio_output@@@__crt_stdio_output@@CA?AW4parameter_type@12@U_CRT_DOUBLE@@@Z 0000000180044fa0 f i libucrtd:output.obj
 0001:00043fb0       ?get_parameter_type@?$positional_parameter_base@_WV?$stream_output_adapter@_W@__crt_stdio_output@@@__crt_stdio_output@@CA?AW4parameter_type@12@_J@Z 0000000180044fb0 f i libucrtd:output.obj
 0001:00043fc0       ?get_parameter_type@?$positional_parameter_base@_WV?$stream_output_adapter@_W@__crt_stdio_output@@@__crt_stdio_output@@CA?AW4parameter_type@12@_K@Z 0000000180044fc0 f i libucrtd:output.obj
 0001:00043fd0       ?get_parameter_type@?$positional_parameter_base@_WV?$stream_output_adapter@_W@__crt_stdio_output@@@__crt_stdio_output@@CA?AW4parameter_type@12@_W@Z 0000000180044fd0 f i libucrtd:output.obj
 0001:00043fe0       ?get_parameter_type@?$positional_parameter_base@_WV?$string_output_adapter@_W@__crt_stdio_output@@@__crt_stdio_output@@CA?AW4parameter_type@12@F@Z 0000000180044fe0 f i libucrtd:output.obj
 0001:00043ff0       ?get_parameter_type@?$positional_parameter_base@_WV?$string_output_adapter@_W@__crt_stdio_output@@@__crt_stdio_output@@CA?AW4parameter_type@12@G@Z 0000000180044ff0 f i libucrtd:output.obj
 0001:00044000       ?get_parameter_type@?$positional_parameter_base@_WV?$string_output_adapter@_W@__crt_stdio_output@@@__crt_stdio_output@@CA?AW4parameter_type@12@H@Z 0000000180045000 f i libucrtd:output.obj
 0001:00044010       ?get_parameter_type@?$positional_parameter_base@_WV?$string_output_adapter@_W@__crt_stdio_output@@@__crt_stdio_output@@CA?AW4parameter_type@12@I@Z 0000000180045010 f i libucrtd:output.obj
 0001:00044020       ?get_parameter_type@?$positional_parameter_base@_WV?$string_output_adapter@_W@__crt_stdio_output@@@__crt_stdio_output@@CA?AW4parameter_type@12@U_CRT_DOUBLE@@@Z 0000000180045020 f i libucrtd:output.obj
 0001:00044030       ?get_parameter_type@?$positional_parameter_base@_WV?$string_output_adapter@_W@__crt_stdio_output@@@__crt_stdio_output@@CA?AW4parameter_type@12@_J@Z 0000000180045030 f i libucrtd:output.obj
 0001:00044040       ?get_parameter_type@?$positional_parameter_base@_WV?$string_output_adapter@_W@__crt_stdio_output@@@__crt_stdio_output@@CA?AW4parameter_type@12@_K@Z 0000000180045040 f i libucrtd:output.obj
 0001:00044050       ?get_parameter_type@?$positional_parameter_base@_WV?$string_output_adapter@_W@__crt_stdio_output@@@__crt_stdio_output@@CA?AW4parameter_type@12@_W@Z 0000000180045050 f i libucrtd:output.obj
 0001:00044060       ?get_raw_ptd@__crt_cached_ptd_host@@QEAAPEAU__acrt_ptd@@XZ 0000000180045060 f i libucrtd:output.obj
 0001:00044080       ?has_flag@?$output_processor@DV?$stream_output_adapter@D@__crt_stdio_output@@V?$format_validation_base@DV?$stream_output_adapter@D@__crt_stdio_output@@@2@@__crt_stdio_output@@AEBA_NI@Z 0000000180045080 f i libucrtd:output.obj
 0001:000440c0       ?has_flag@?$output_processor@DV?$stream_output_adapter@D@__crt_stdio_output@@V?$positional_parameter_base@DV?$stream_output_adapter@D@__crt_stdio_output@@@2@@__crt_stdio_output@@AEBA_NI@Z 00000001800450c0 f i libucrtd:output.obj
 0001:00044100       ?has_flag@?$output_processor@DV?$stream_output_adapter@D@__crt_stdio_output@@V?$standard_base@DV?$stream_output_adapter@D@__crt_stdio_output@@@2@@__crt_stdio_output@@AEBA_NI@Z 0000000180045100 f i libucrtd:output.obj
 0001:00044140       ?has_flag@?$output_processor@DV?$string_output_adapter@D@__crt_stdio_output@@V?$format_validation_base@DV?$string_output_adapter@D@__crt_stdio_output@@@2@@__crt_stdio_output@@AEBA_NI@Z 0000000180045140 f i libucrtd:output.obj
 0001:00044180       ?has_flag@?$output_processor@DV?$string_output_adapter@D@__crt_stdio_output@@V?$positional_parameter_base@DV?$string_output_adapter@D@__crt_stdio_output@@@2@@__crt_stdio_output@@AEBA_NI@Z 0000000180045180 f i libucrtd:output.obj
 0001:000441c0       ?has_flag@?$output_processor@DV?$string_output_adapter@D@__crt_stdio_output@@V?$standard_base@DV?$string_output_adapter@D@__crt_stdio_output@@@2@@__crt_stdio_output@@AEBA_NI@Z 00000001800451c0 f i libucrtd:output.obj
 0001:00044200       ?has_flag@?$output_processor@_WV?$stream_output_adapter@_W@__crt_stdio_output@@V?$format_validation_base@_WV?$stream_output_adapter@_W@__crt_stdio_output@@@2@@__crt_stdio_output@@AEBA_NI@Z 0000000180045200 f i libucrtd:output.obj
 0001:00044240       ?has_flag@?$output_processor@_WV?$stream_output_adapter@_W@__crt_stdio_output@@V?$positional_parameter_base@_WV?$stream_output_adapter@_W@__crt_stdio_output@@@2@@__crt_stdio_output@@AEBA_NI@Z 0000000180045240 f i libucrtd:output.obj
 0001:00044280       ?has_flag@?$output_processor@_WV?$stream_output_adapter@_W@__crt_stdio_output@@V?$standard_base@_WV?$stream_output_adapter@_W@__crt_stdio_output@@@2@@__crt_stdio_output@@AEBA_NI@Z 0000000180045280 f i libucrtd:output.obj
 0001:000442c0       ?has_flag@?$output_processor@_WV?$string_output_adapter@_W@__crt_stdio_output@@V?$format_validation_base@_WV?$string_output_adapter@_W@__crt_stdio_output@@@2@@__crt_stdio_output@@AEBA_NI@Z 00000001800452c0 f i libucrtd:output.obj
 0001:00044300       ?has_flag@?$output_processor@_WV?$string_output_adapter@_W@__crt_stdio_output@@V?$positional_parameter_base@_WV?$string_output_adapter@_W@__crt_stdio_output@@@2@@__crt_stdio_output@@AEBA_NI@Z 0000000180045300 f i libucrtd:output.obj
 0001:00044340       ?has_flag@?$output_processor@_WV?$string_output_adapter@_W@__crt_stdio_output@@V?$standard_base@_WV?$string_output_adapter@_W@__crt_stdio_output@@@2@@__crt_stdio_output@@AEBA_NI@Z 0000000180045340 f i libucrtd:output.obj
 0001:00044380       ?is_positional_parameter_reappearance_consistent@?$positional_parameter_base@DV?$stream_output_adapter@D@__crt_stdio_output@@@__crt_stdio_output@@AEAA_NAEBUparameter_data@12@W4parameter_type@12@DW4length_modifier@2@@Z 0000000180045380 f i libucrtd:output.obj
 0001:000445e0       ?is_positional_parameter_reappearance_consistent@?$positional_parameter_base@DV?$string_output_adapter@D@__crt_stdio_output@@@__crt_stdio_output@@AEAA_NAEBUparameter_data@12@W4parameter_type@12@DW4length_modifier@2@@Z 00000001800455e0 f i libucrtd:output.obj
 0001:00044840       ?is_positional_parameter_reappearance_consistent@?$positional_parameter_base@_WV?$stream_output_adapter@_W@__crt_stdio_output@@@__crt_stdio_output@@AEAA_NAEBUparameter_data@12@W4parameter_type@12@_WW4length_modifier@2@@Z 0000000180045840 f i libucrtd:output.obj
 0001:00044aa0       ?is_positional_parameter_reappearance_consistent@?$positional_parameter_base@_WV?$string_output_adapter@_W@__crt_stdio_output@@@__crt_stdio_output@@AEAA_NAEBUparameter_data@12@W4parameter_type@12@_WW4length_modifier@2@@Z 0000000180045aa0 f i libucrtd:output.obj
 0001:00044d00       ?is_string_backed@__crt_stdio_stream@@QEBA_NXZ 0000000180045d00 f i libucrtd:output.obj
 0001:00044d40       ?maximum_signed_value@__crt_strtox@@YAJK@Z 0000000180045d40 f i libucrtd:output.obj
 0001:00044d50       ?minimum_signed_value@__crt_strtox@@YAJK@Z 0000000180045d50 f i libucrtd:output.obj
 0001:00044d60       ?narrow_null_string@?$output_processor@DV?$stream_output_adapter@D@__crt_stdio_output@@V?$format_validation_base@DV?$stream_output_adapter@D@__crt_stdio_output@@@2@@__crt_stdio_output@@CAPEADXZ 0000000180045d60 f i libucrtd:output.obj
 0001:00044d70       ?narrow_null_string@?$output_processor@DV?$stream_output_adapter@D@__crt_stdio_output@@V?$positional_parameter_base@DV?$stream_output_adapter@D@__crt_stdio_output@@@2@@__crt_stdio_output@@CAPEADXZ 0000000180045d70 f i libucrtd:output.obj
 0001:00044d80       ?narrow_null_string@?$output_processor@DV?$stream_output_adapter@D@__crt_stdio_output@@V?$standard_base@DV?$stream_output_adapter@D@__crt_stdio_output@@@2@@__crt_stdio_output@@CAPEADXZ 0000000180045d80 f i libucrtd:output.obj
 0001:00044d90       ?narrow_null_string@?$output_processor@DV?$string_output_adapter@D@__crt_stdio_output@@V?$format_validation_base@DV?$string_output_adapter@D@__crt_stdio_output@@@2@@__crt_stdio_output@@CAPEADXZ 0000000180045d90 f i libucrtd:output.obj
 0001:00044da0       ?narrow_null_string@?$output_processor@DV?$string_output_adapter@D@__crt_stdio_output@@V?$positional_parameter_base@DV?$string_output_adapter@D@__crt_stdio_output@@@2@@__crt_stdio_output@@CAPEADXZ 0000000180045da0 f i libucrtd:output.obj
 0001:00044db0       ?narrow_null_string@?$output_processor@DV?$string_output_adapter@D@__crt_stdio_output@@V?$standard_base@DV?$string_output_adapter@D@__crt_stdio_output@@@2@@__crt_stdio_output@@CAPEADXZ 0000000180045db0 f i libucrtd:output.obj
 0001:00044dc0       ?narrow_null_string@?$output_processor@_WV?$stream_output_adapter@_W@__crt_stdio_output@@V?$format_validation_base@_WV?$stream_output_adapter@_W@__crt_stdio_output@@@2@@__crt_stdio_output@@CAPEADXZ 0000000180045dc0 f i libucrtd:output.obj
 0001:00044dd0       ?narrow_null_string@?$output_processor@_WV?$stream_output_adapter@_W@__crt_stdio_output@@V?$positional_parameter_base@_WV?$stream_output_adapter@_W@__crt_stdio_output@@@2@@__crt_stdio_output@@CAPEADXZ 0000000180045dd0 f i libucrtd:output.obj
 0001:00044de0       ?narrow_null_string@?$output_processor@_WV?$stream_output_adapter@_W@__crt_stdio_output@@V?$standard_base@_WV?$stream_output_adapter@_W@__crt_stdio_output@@@2@@__crt_stdio_output@@CAPEADXZ 0000000180045de0 f i libucrtd:output.obj
 0001:00044df0       ?narrow_null_string@?$output_processor@_WV?$string_output_adapter@_W@__crt_stdio_output@@V?$format_validation_base@_WV?$string_output_adapter@_W@__crt_stdio_output@@@2@@__crt_stdio_output@@CAPEADXZ 0000000180045df0 f i libucrtd:output.obj
 0001:00044e00       ?narrow_null_string@?$output_processor@_WV?$string_output_adapter@_W@__crt_stdio_output@@V?$positional_parameter_base@_WV?$string_output_adapter@_W@__crt_stdio_output@@@2@@__crt_stdio_output@@CAPEADXZ 0000000180045e00 f i libucrtd:output.obj
 0001:00044e10       ?narrow_null_string@?$output_processor@_WV?$string_output_adapter@_W@__crt_stdio_output@@V?$standard_base@_WV?$string_output_adapter@_W@__crt_stdio_output@@@2@@__crt_stdio_output@@CAPEADXZ 0000000180045e10 f i libucrtd:output.obj
 0001:00044e20       ?parse_digit@__crt_strtox@@YAID@Z 0000000180045e20 f i libucrtd:output.obj
 0001:00044e90       ?parse_digit@__crt_strtox@@YAI_W@Z 0000000180045e90 f i libucrtd:output.obj
 0001:00044ee0       ?parse_int_from_format_string@?$output_processor@DV?$stream_output_adapter@D@__crt_stdio_output@@V?$format_validation_base@DV?$stream_output_adapter@D@__crt_stdio_output@@@2@@__crt_stdio_output@@AEAA_NQEAH@Z 0000000180045ee0 f i libucrtd:output.obj
 0001:00044fe0       ?parse_int_from_format_string@?$output_processor@DV?$stream_output_adapter@D@__crt_stdio_output@@V?$positional_parameter_base@DV?$stream_output_adapter@D@__crt_stdio_output@@@2@@__crt_stdio_output@@AEAA_NQEAH@Z 0000000180045fe0 f i libucrtd:output.obj
 0001:000450e0       ?parse_int_from_format_string@?$output_processor@DV?$stream_output_adapter@D@__crt_stdio_output@@V?$standard_base@DV?$stream_output_adapter@D@__crt_stdio_output@@@2@@__crt_stdio_output@@AEAA_NQEAH@Z 00000001800460e0 f i libucrtd:output.obj
 0001:000451e0       ?parse_int_from_format_string@?$output_processor@DV?$string_output_adapter@D@__crt_stdio_output@@V?$format_validation_base@DV?$string_output_adapter@D@__crt_stdio_output@@@2@@__crt_stdio_output@@AEAA_NQEAH@Z 00000001800461e0 f i libucrtd:output.obj
 0001:000452e0       ?parse_int_from_format_string@?$output_processor@DV?$string_output_adapter@D@__crt_stdio_output@@V?$positional_parameter_base@DV?$string_output_adapter@D@__crt_stdio_output@@@2@@__crt_stdio_output@@AEAA_NQEAH@Z 00000001800462e0 f i libucrtd:output.obj
 0001:000453e0       ?parse_int_from_format_string@?$output_processor@DV?$string_output_adapter@D@__crt_stdio_output@@V?$standard_base@DV?$string_output_adapter@D@__crt_stdio_output@@@2@@__crt_stdio_output@@AEAA_NQEAH@Z 00000001800463e0 f i libucrtd:output.obj
 0001:000454e0       ?parse_int_from_format_string@?$output_processor@_WV?$stream_output_adapter@_W@__crt_stdio_output@@V?$format_validation_base@_WV?$stream_output_adapter@_W@__crt_stdio_output@@@2@@__crt_stdio_output@@AEAA_NQEAH@Z 00000001800464e0 f i libucrtd:output.obj
 0001:000455e0       ?parse_int_from_format_string@?$output_processor@_WV?$stream_output_adapter@_W@__crt_stdio_output@@V?$positional_parameter_base@_WV?$stream_output_adapter@_W@__crt_stdio_output@@@2@@__crt_stdio_output@@AEAA_NQEAH@Z 00000001800465e0 f i libucrtd:output.obj
 0001:000456e0       ?parse_int_from_format_string@?$output_processor@_WV?$stream_output_adapter@_W@__crt_stdio_output@@V?$standard_base@_WV?$stream_output_adapter@_W@__crt_stdio_output@@@2@@__crt_stdio_output@@AEAA_NQEAH@Z 00000001800466e0 f i libucrtd:output.obj
 0001:000457e0       ?parse_int_from_format_string@?$output_processor@_WV?$string_output_adapter@_W@__crt_stdio_output@@V?$format_validation_base@_WV?$string_output_adapter@_W@__crt_stdio_output@@@2@@__crt_stdio_output@@AEAA_NQEAH@Z 00000001800467e0 f i libucrtd:output.obj
 0001:000458e0       ?parse_int_from_format_string@?$output_processor@_WV?$string_output_adapter@_W@__crt_stdio_output@@V?$positional_parameter_base@_WV?$string_output_adapter@_W@__crt_stdio_output@@@2@@__crt_stdio_output@@AEAA_NQEAH@Z 00000001800468e0 f i libucrtd:output.obj
 0001:000459e0       ?parse_int_from_format_string@?$output_processor@_WV?$string_output_adapter@_W@__crt_stdio_output@@V?$standard_base@_WV?$string_output_adapter@_W@__crt_stdio_output@@@2@@__crt_stdio_output@@AEAA_NQEAH@Z 00000001800469e0 f i libucrtd:output.obj
 0001:00045ae0       ?process@?$output_processor@DV?$stream_output_adapter@D@__crt_stdio_output@@V?$format_validation_base@DV?$stream_output_adapter@D@__crt_stdio_output@@@2@@__crt_stdio_output@@QEAAHXZ 0000000180046ae0 f i libucrtd:output.obj
 0001:00045ea0       ?process@?$output_processor@DV?$stream_output_adapter@D@__crt_stdio_output@@V?$positional_parameter_base@DV?$stream_output_adapter@D@__crt_stdio_output@@@2@@__crt_stdio_output@@QEAAHXZ 0000000180046ea0 f i libucrtd:output.obj
 0001:00046260       ?process@?$output_processor@DV?$stream_output_adapter@D@__crt_stdio_output@@V?$standard_base@DV?$stream_output_adapter@D@__crt_stdio_output@@@2@@__crt_stdio_output@@QEAAHXZ 0000000180047260 f i libucrtd:output.obj
 0001:00046620       ?process@?$output_processor@DV?$string_output_adapter@D@__crt_stdio_output@@V?$format_validation_base@DV?$string_output_adapter@D@__crt_stdio_output@@@2@@__crt_stdio_output@@QEAAHXZ 0000000180047620 f i libucrtd:output.obj
 0001:000469e0       ?process@?$output_processor@DV?$string_output_adapter@D@__crt_stdio_output@@V?$positional_parameter_base@DV?$string_output_adapter@D@__crt_stdio_output@@@2@@__crt_stdio_output@@QEAAHXZ 00000001800479e0 f i libucrtd:output.obj
 0001:00046da0       ?process@?$output_processor@DV?$string_output_adapter@D@__crt_stdio_output@@V?$standard_base@DV?$string_output_adapter@D@__crt_stdio_output@@@2@@__crt_stdio_output@@QEAAHXZ 0000000180047da0 f i libucrtd:output.obj
 0001:00047160       ?process@?$output_processor@_WV?$stream_output_adapter@_W@__crt_stdio_output@@V?$format_validation_base@_WV?$stream_output_adapter@_W@__crt_stdio_output@@@2@@__crt_stdio_output@@QEAAHXZ 0000000180048160 f i libucrtd:output.obj
 0001:00047520       ?process@?$output_processor@_WV?$stream_output_adapter@_W@__crt_stdio_output@@V?$positional_parameter_base@_WV?$stream_output_adapter@_W@__crt_stdio_output@@@2@@__crt_stdio_output@@QEAAHXZ 0000000180048520 f i libucrtd:output.obj
 0001:000478e0       ?process@?$output_processor@_WV?$stream_output_adapter@_W@__crt_stdio_output@@V?$standard_base@_WV?$stream_output_adapter@_W@__crt_stdio_output@@@2@@__crt_stdio_output@@QEAAHXZ 00000001800488e0 f i libucrtd:output.obj
 0001:00047ca0       ?process@?$output_processor@_WV?$string_output_adapter@_W@__crt_stdio_output@@V?$format_validation_base@_WV?$string_output_adapter@_W@__crt_stdio_output@@@2@@__crt_stdio_output@@QEAAHXZ 0000000180048ca0 f i libucrtd:output.obj
 0001:00048060       ?process@?$output_processor@_WV?$string_output_adapter@_W@__crt_stdio_output@@V?$positional_parameter_base@_WV?$string_output_adapter@_W@__crt_stdio_output@@@2@@__crt_stdio_output@@QEAAHXZ 0000000180049060 f i libucrtd:output.obj
 0001:00048420       ?process@?$output_processor@_WV?$string_output_adapter@_W@__crt_stdio_output@@V?$standard_base@_WV?$string_output_adapter@_W@__crt_stdio_output@@@2@@__crt_stdio_output@@QEAAHXZ 0000000180049420 f i libucrtd:output.obj
 0001:000487e0       ?public_stream@__crt_stdio_stream@@QEBAPEAU_iobuf@@XZ 00000001800497e0 f i libucrtd:output.obj
 0001:000487f0       ?restore_state@?$c_string_character_source@D@__crt_strtox@@QEAA_NQEBD@Z 00000001800497f0 f i libucrtd:output.obj
 0001:00048810       ?restore_state@?$c_string_character_source@_W@__crt_strtox@@QEAA_NQEB_W@Z 0000000180049810 f i libucrtd:output.obj
 0001:00048830       ?save_state@?$c_string_character_source@D@__crt_strtox@@QEBAPEBDXZ 0000000180049830 f i libucrtd:output.obj
 0001:00048840       ?save_state@?$c_string_character_source@_W@__crt_strtox@@QEBAPEB_WXZ 0000000180049840 f i libucrtd:output.obj
 0001:00048850       ?set@?$cached@H@__crt_cached_ptd_host@@QEAAHH@Z 0000000180049850 f i libucrtd:output.obj
 0001:00048880       ?set_flag@?$output_processor@DV?$stream_output_adapter@D@__crt_stdio_output@@V?$format_validation_base@DV?$stream_output_adapter@D@__crt_stdio_output@@@2@@__crt_stdio_output@@AEAAXI@Z 0000000180049880 f i libucrtd:output.obj
 0001:000488a0       ?set_flag@?$output_processor@DV?$stream_output_adapter@D@__crt_stdio_output@@V?$positional_parameter_base@DV?$stream_output_adapter@D@__crt_stdio_output@@@2@@__crt_stdio_output@@AEAAXI@Z 00000001800498a0 f i libucrtd:output.obj
 0001:000488c0       ?set_flag@?$output_processor@DV?$stream_output_adapter@D@__crt_stdio_output@@V?$standard_base@DV?$stream_output_adapter@D@__crt_stdio_output@@@2@@__crt_stdio_output@@AEAAXI@Z 00000001800498c0 f i libucrtd:output.obj
 0001:000488e0       ?set_flag@?$output_processor@DV?$string_output_adapter@D@__crt_stdio_output@@V?$format_validation_base@DV?$string_output_adapter@D@__crt_stdio_output@@@2@@__crt_stdio_output@@AEAAXI@Z 00000001800498e0 f i libucrtd:output.obj
 0001:00048900       ?set_flag@?$output_processor@DV?$string_output_adapter@D@__crt_stdio_output@@V?$positional_parameter_base@DV?$string_output_adapter@D@__crt_stdio_output@@@2@@__crt_stdio_output@@AEAAXI@Z 0000000180049900 f i libucrtd:output.obj
 0001:00048920       ?set_flag@?$output_processor@DV?$string_output_adapter@D@__crt_stdio_output@@V?$standard_base@DV?$string_output_adapter@D@__crt_stdio_output@@@2@@__crt_stdio_output@@AEAAXI@Z 0000000180049920 f i libucrtd:output.obj
 0001:00048940       ?set_flag@?$output_processor@_WV?$stream_output_adapter@_W@__crt_stdio_output@@V?$format_validation_base@_WV?$stream_output_adapter@_W@__crt_stdio_output@@@2@@__crt_stdio_output@@AEAAXI@Z 0000000180049940 f i libucrtd:output.obj
 0001:00048960       ?set_flag@?$output_processor@_WV?$stream_output_adapter@_W@__crt_stdio_output@@V?$positional_parameter_base@_WV?$stream_output_adapter@_W@__crt_stdio_output@@@2@@__crt_stdio_output@@AEAAXI@Z 0000000180049960 f i libucrtd:output.obj
 0001:00048980       ?set_flag@?$output_processor@_WV?$stream_output_adapter@_W@__crt_stdio_output@@V?$standard_base@_WV?$stream_output_adapter@_W@__crt_stdio_output@@@2@@__crt_stdio_output@@AEAAXI@Z 0000000180049980 f i libucrtd:output.obj
 0001:000489a0       ?set_flag@?$output_processor@_WV?$string_output_adapter@_W@__crt_stdio_output@@V?$format_validation_base@_WV?$string_output_adapter@_W@__crt_stdio_output@@@2@@__crt_stdio_output@@AEAAXI@Z 00000001800499a0 f i libucrtd:output.obj
 0001:000489c0       ?set_flag@?$output_processor@_WV?$string_output_adapter@_W@__crt_stdio_output@@V?$positional_parameter_base@_WV?$string_output_adapter@_W@__crt_stdio_output@@@2@@__crt_stdio_output@@AEAAXI@Z 00000001800499c0 f i libucrtd:output.obj
 0001:000489e0       ?set_flag@?$output_processor@_WV?$string_output_adapter@_W@__crt_stdio_output@@V?$standard_base@_WV?$string_output_adapter@_W@__crt_stdio_output@@@2@@__crt_stdio_output@@AEAAXI@Z 00000001800499e0 f i libucrtd:output.obj
 0001:00048a00       ?should_format@?$positional_parameter_base@DV?$stream_output_adapter@D@__crt_stdio_output@@@__crt_stdio_output@@IEAA_NXZ 0000000180049a00 f i libucrtd:output.obj
 0001:00048a40       ?should_format@?$positional_parameter_base@DV?$string_output_adapter@D@__crt_stdio_output@@@__crt_stdio_output@@IEAA_NXZ 0000000180049a40 f i libucrtd:output.obj
 0001:00048a80       ?should_format@?$positional_parameter_base@_WV?$stream_output_adapter@_W@__crt_stdio_output@@@__crt_stdio_output@@IEAA_NXZ 0000000180049a80 f i libucrtd:output.obj
 0001:00048ac0       ?should_format@?$positional_parameter_base@_WV?$string_output_adapter@_W@__crt_stdio_output@@@__crt_stdio_output@@IEAA_NXZ 0000000180049ac0 f i libucrtd:output.obj
 0001:00048b00       ?should_format@?$standard_base@DV?$stream_output_adapter@D@__crt_stdio_output@@@__crt_stdio_output@@IEAA_NXZ 0000000180049b00 f i libucrtd:output.obj
 0001:00048b10       ?should_format@?$standard_base@DV?$string_output_adapter@D@__crt_stdio_output@@@__crt_stdio_output@@IEAA_NXZ 0000000180049b10 f i libucrtd:output.obj
 0001:00048b20       ?should_format@?$standard_base@_WV?$stream_output_adapter@_W@__crt_stdio_output@@@__crt_stdio_output@@IEAA_NXZ 0000000180049b20 f i libucrtd:output.obj
 0001:00048b30       ?should_format@?$standard_base@_WV?$string_output_adapter@_W@__crt_stdio_output@@@__crt_stdio_output@@IEAA_NXZ 0000000180049b30 f i libucrtd:output.obj
 0001:00048b40       ?should_skip_normal_state_processing@?$positional_parameter_base@DV?$stream_output_adapter@D@__crt_stdio_output@@@__crt_stdio_output@@IEAA_NXZ 0000000180049b40 f i libucrtd:output.obj
 0001:00048b90       ?should_skip_normal_state_processing@?$positional_parameter_base@DV?$string_output_adapter@D@__crt_stdio_output@@@__crt_stdio_output@@IEAA_NXZ 0000000180049b90 f i libucrtd:output.obj
 0001:00048be0       ?should_skip_normal_state_processing@?$positional_parameter_base@_WV?$stream_output_adapter@_W@__crt_stdio_output@@@__crt_stdio_output@@IEAA_NXZ 0000000180049be0 f i libucrtd:output.obj
 0001:00048c30       ?should_skip_normal_state_processing@?$positional_parameter_base@_WV?$string_output_adapter@_W@__crt_stdio_output@@@__crt_stdio_output@@IEAA_NXZ 0000000180049c30 f i libucrtd:output.obj
 0001:00048c80       ?should_skip_normal_state_processing@?$standard_base@DV?$stream_output_adapter@D@__crt_stdio_output@@@__crt_stdio_output@@IEAA_NXZ 0000000180049c80 f i libucrtd:output.obj
 0001:00048c90       ?should_skip_normal_state_processing@?$standard_base@DV?$string_output_adapter@D@__crt_stdio_output@@@__crt_stdio_output@@IEAA_NXZ 0000000180049c90 f i libucrtd:output.obj
 0001:00048ca0       ?should_skip_normal_state_processing@?$standard_base@_WV?$stream_output_adapter@_W@__crt_stdio_output@@@__crt_stdio_output@@IEAA_NXZ 0000000180049ca0 f i libucrtd:output.obj
 0001:00048cb0       ?should_skip_normal_state_processing@?$standard_base@_WV?$string_output_adapter@_W@__crt_stdio_output@@@__crt_stdio_output@@IEAA_NXZ 0000000180049cb0 f i libucrtd:output.obj
 0001:00048cc0       ?should_skip_type_state_output@?$positional_parameter_base@DV?$stream_output_adapter@D@__crt_stdio_output@@@__crt_stdio_output@@IEBA_NXZ 0000000180049cc0 f i libucrtd:output.obj
 0001:00048d00       ?should_skip_type_state_output@?$positional_parameter_base@DV?$string_output_adapter@D@__crt_stdio_output@@@__crt_stdio_output@@IEBA_NXZ 0000000180049d00 f i libucrtd:output.obj
 0001:00048d40       ?should_skip_type_state_output@?$positional_parameter_base@_WV?$stream_output_adapter@_W@__crt_stdio_output@@@__crt_stdio_output@@IEBA_NXZ 0000000180049d40 f i libucrtd:output.obj
 0001:00048d80       ?should_skip_type_state_output@?$positional_parameter_base@_WV?$string_output_adapter@_W@__crt_stdio_output@@@__crt_stdio_output@@IEBA_NXZ 0000000180049d80 f i libucrtd:output.obj
 0001:00048dc0       ?should_skip_type_state_output@?$standard_base@DV?$stream_output_adapter@D@__crt_stdio_output@@@__crt_stdio_output@@IEBA_NXZ 0000000180049dc0 f i libucrtd:output.obj
 0001:00048dd0       ?should_skip_type_state_output@?$standard_base@DV?$string_output_adapter@D@__crt_stdio_output@@@__crt_stdio_output@@IEBA_NXZ 0000000180049dd0 f i libucrtd:output.obj
 0001:00048de0       ?should_skip_type_state_output@?$standard_base@_WV?$stream_output_adapter@_W@__crt_stdio_output@@@__crt_stdio_output@@IEBA_NXZ 0000000180049de0 f i libucrtd:output.obj
 0001:00048df0       ?should_skip_type_state_output@?$standard_base@_WV?$string_output_adapter@_W@__crt_stdio_output@@@__crt_stdio_output@@IEBA_NXZ 0000000180049df0 f i libucrtd:output.obj
 0001:00048e00       ?state_case_dot@?$output_processor@DV?$stream_output_adapter@D@__crt_stdio_output@@V?$format_validation_base@DV?$stream_output_adapter@D@__crt_stdio_output@@@2@@__crt_stdio_output@@AEAA_NXZ 0000000180049e00 f i libucrtd:output.obj
 0001:00048e20       ?state_case_dot@?$output_processor@DV?$stream_output_adapter@D@__crt_stdio_output@@V?$positional_parameter_base@DV?$stream_output_adapter@D@__crt_stdio_output@@@2@@__crt_stdio_output@@AEAA_NXZ 0000000180049e20 f i libucrtd:output.obj
 0001:00048e40       ?state_case_dot@?$output_processor@DV?$stream_output_adapter@D@__crt_stdio_output@@V?$standard_base@DV?$stream_output_adapter@D@__crt_stdio_output@@@2@@__crt_stdio_output@@AEAA_NXZ 0000000180049e40 f i libucrtd:output.obj
 0001:00048e60       ?state_case_dot@?$output_processor@DV?$string_output_adapter@D@__crt_stdio_output@@V?$format_validation_base@DV?$string_output_adapter@D@__crt_stdio_output@@@2@@__crt_stdio_output@@AEAA_NXZ 0000000180049e60 f i libucrtd:output.obj
 0001:00048e80       ?state_case_dot@?$output_processor@DV?$string_output_adapter@D@__crt_stdio_output@@V?$positional_parameter_base@DV?$string_output_adapter@D@__crt_stdio_output@@@2@@__crt_stdio_output@@AEAA_NXZ 0000000180049e80 f i libucrtd:output.obj
 0001:00048ea0       ?state_case_dot@?$output_processor@DV?$string_output_adapter@D@__crt_stdio_output@@V?$standard_base@DV?$string_output_adapter@D@__crt_stdio_output@@@2@@__crt_stdio_output@@AEAA_NXZ 0000000180049ea0 f i libucrtd:output.obj
 0001:00048ec0       ?state_case_dot@?$output_processor@_WV?$stream_output_adapter@_W@__crt_stdio_output@@V?$format_validation_base@_WV?$stream_output_adapter@_W@__crt_stdio_output@@@2@@__crt_stdio_output@@AEAA_NXZ 0000000180049ec0 f i libucrtd:output.obj
 0001:00048ee0       ?state_case_dot@?$output_processor@_WV?$stream_output_adapter@_W@__crt_stdio_output@@V?$positional_parameter_base@_WV?$stream_output_adapter@_W@__crt_stdio_output@@@2@@__crt_stdio_output@@AEAA_NXZ 0000000180049ee0 f i libucrtd:output.obj
 0001:00048f00       ?state_case_dot@?$output_processor@_WV?$stream_output_adapter@_W@__crt_stdio_output@@V?$standard_base@_WV?$stream_output_adapter@_W@__crt_stdio_output@@@2@@__crt_stdio_output@@AEAA_NXZ 0000000180049f00 f i libucrtd:output.obj
 0001:00048f20       ?state_case_dot@?$output_processor@_WV?$string_output_adapter@_W@__crt_stdio_output@@V?$format_validation_base@_WV?$string_output_adapter@_W@__crt_stdio_output@@@2@@__crt_stdio_output@@AEAA_NXZ 0000000180049f20 f i libucrtd:output.obj
 0001:00048f40       ?state_case_dot@?$output_processor@_WV?$string_output_adapter@_W@__crt_stdio_output@@V?$positional_parameter_base@_WV?$string_output_adapter@_W@__crt_stdio_output@@@2@@__crt_stdio_output@@AEAA_NXZ 0000000180049f40 f i libucrtd:output.obj
 0001:00048f60       ?state_case_dot@?$output_processor@_WV?$string_output_adapter@_W@__crt_stdio_output@@V?$standard_base@_WV?$string_output_adapter@_W@__crt_stdio_output@@@2@@__crt_stdio_output@@AEAA_NXZ 0000000180049f60 f i libucrtd:output.obj
 0001:00048f80       ?state_case_flag@?$output_processor@DV?$stream_output_adapter@D@__crt_stdio_output@@V?$format_validation_base@DV?$stream_output_adapter@D@__crt_stdio_output@@@2@@__crt_stdio_output@@AEAA_NXZ 0000000180049f80 f i libucrtd:output.obj
 0001:00049020       ?state_case_flag@?$output_processor@DV?$stream_output_adapter@D@__crt_stdio_output@@V?$positional_parameter_base@DV?$stream_output_adapter@D@__crt_stdio_output@@@2@@__crt_stdio_output@@AEAA_NXZ 000000018004a020 f i libucrtd:output.obj
 0001:000490c0       ?state_case_flag@?$output_processor@DV?$stream_output_adapter@D@__crt_stdio_output@@V?$standard_base@DV?$stream_output_adapter@D@__crt_stdio_output@@@2@@__crt_stdio_output@@AEAA_NXZ 000000018004a0c0 f i libucrtd:output.obj
 0001:00049160       ?state_case_flag@?$output_processor@DV?$string_output_adapter@D@__crt_stdio_output@@V?$format_validation_base@DV?$string_output_adapter@D@__crt_stdio_output@@@2@@__crt_stdio_output@@AEAA_NXZ 000000018004a160 f i libucrtd:output.obj
 0001:00049200       ?state_case_flag@?$output_processor@DV?$string_output_adapter@D@__crt_stdio_output@@V?$positional_parameter_base@DV?$string_output_adapter@D@__crt_stdio_output@@@2@@__crt_stdio_output@@AEAA_NXZ 000000018004a200 f i libucrtd:output.obj
 0001:000492a0       ?state_case_flag@?$output_processor@DV?$string_output_adapter@D@__crt_stdio_output@@V?$standard_base@DV?$string_output_adapter@D@__crt_stdio_output@@@2@@__crt_stdio_output@@AEAA_NXZ 000000018004a2a0 f i libucrtd:output.obj
 0001:00049340       ?state_case_flag@?$output_processor@_WV?$stream_output_adapter@_W@__crt_stdio_output@@V?$format_validation_base@_WV?$stream_output_adapter@_W@__crt_stdio_output@@@2@@__crt_stdio_output@@AEAA_NXZ 000000018004a340 f i libucrtd:output.obj
 0001:000493e0       ?state_case_flag@?$output_processor@_WV?$stream_output_adapter@_W@__crt_stdio_output@@V?$positional_parameter_base@_WV?$stream_output_adapter@_W@__crt_stdio_output@@@2@@__crt_stdio_output@@AEAA_NXZ 000000018004a3e0 f i libucrtd:output.obj
 0001:00049480       ?state_case_flag@?$output_processor@_WV?$stream_output_adapter@_W@__crt_stdio_output@@V?$standard_base@_WV?$stream_output_adapter@_W@__crt_stdio_output@@@2@@__crt_stdio_output@@AEAA_NXZ 000000018004a480 f i libucrtd:output.obj
 0001:00049520       ?state_case_flag@?$output_processor@_WV?$string_output_adapter@_W@__crt_stdio_output@@V?$format_validation_base@_WV?$string_output_adapter@_W@__crt_stdio_output@@@2@@__crt_stdio_output@@AEAA_NXZ 000000018004a520 f i libucrtd:output.obj
 0001:000495c0       ?state_case_flag@?$output_processor@_WV?$string_output_adapter@_W@__crt_stdio_output@@V?$positional_parameter_base@_WV?$string_output_adapter@_W@__crt_stdio_output@@@2@@__crt_stdio_output@@AEAA_NXZ 000000018004a5c0 f i libucrtd:output.obj
 0001:00049660       ?state_case_flag@?$output_processor@_WV?$string_output_adapter@_W@__crt_stdio_output@@V?$standard_base@_WV?$string_output_adapter@_W@__crt_stdio_output@@@2@@__crt_stdio_output@@AEAA_NXZ 000000018004a660 f i libucrtd:output.obj
 0001:00049700       ?state_case_normal@?$output_processor@DV?$stream_output_adapter@D@__crt_stdio_output@@V?$format_validation_base@DV?$stream_output_adapter@D@__crt_stdio_output@@@2@@__crt_stdio_output@@AEAA_NXZ 000000018004a700 f i libucrtd:output.obj
 0001:00049800       ?state_case_normal@?$output_processor@DV?$stream_output_adapter@D@__crt_stdio_output@@V?$positional_parameter_base@DV?$stream_output_adapter@D@__crt_stdio_output@@@2@@__crt_stdio_output@@AEAA_NXZ 000000018004a800 f i libucrtd:output.obj
 0001:00049900       ?state_case_normal@?$output_processor@DV?$stream_output_adapter@D@__crt_stdio_output@@V?$standard_base@DV?$stream_output_adapter@D@__crt_stdio_output@@@2@@__crt_stdio_output@@AEAA_NXZ 000000018004a900 f i libucrtd:output.obj
 0001:00049a00       ?state_case_normal@?$output_processor@DV?$string_output_adapter@D@__crt_stdio_output@@V?$format_validation_base@DV?$string_output_adapter@D@__crt_stdio_output@@@2@@__crt_stdio_output@@AEAA_NXZ 000000018004aa00 f i libucrtd:output.obj
 0001:00049b00       ?state_case_normal@?$output_processor@DV?$string_output_adapter@D@__crt_stdio_output@@V?$positional_parameter_base@DV?$string_output_adapter@D@__crt_stdio_output@@@2@@__crt_stdio_output@@AEAA_NXZ 000000018004ab00 f i libucrtd:output.obj
 0001:00049c00       ?state_case_normal@?$output_processor@DV?$string_output_adapter@D@__crt_stdio_output@@V?$standard_base@DV?$string_output_adapter@D@__crt_stdio_output@@@2@@__crt_stdio_output@@AEAA_NXZ 000000018004ac00 f i libucrtd:output.obj
 0001:00049d00       ?state_case_normal@?$output_processor@_WV?$stream_output_adapter@_W@__crt_stdio_output@@V?$format_validation_base@_WV?$stream_output_adapter@_W@__crt_stdio_output@@@2@@__crt_stdio_output@@AEAA_NXZ 000000018004ad00 f i libucrtd:output.obj
 0001:00049e00       ?state_case_normal@?$output_processor@_WV?$stream_output_adapter@_W@__crt_stdio_output@@V?$positional_parameter_base@_WV?$stream_output_adapter@_W@__crt_stdio_output@@@2@@__crt_stdio_output@@AEAA_NXZ 000000018004ae00 f i libucrtd:output.obj
 0001:00049f00       ?state_case_normal@?$output_processor@_WV?$stream_output_adapter@_W@__crt_stdio_output@@V?$standard_base@_WV?$stream_output_adapter@_W@__crt_stdio_output@@@2@@__crt_stdio_output@@AEAA_NXZ 000000018004af00 f i libucrtd:output.obj
 0001:0004a000       ?state_case_normal@?$output_processor@_WV?$string_output_adapter@_W@__crt_stdio_output@@V?$format_validation_base@_WV?$string_output_adapter@_W@__crt_stdio_output@@@2@@__crt_stdio_output@@AEAA_NXZ 000000018004b000 f i libucrtd:output.obj
 0001:0004a100       ?state_case_normal@?$output_processor@_WV?$string_output_adapter@_W@__crt_stdio_output@@V?$positional_parameter_base@_WV?$string_output_adapter@_W@__crt_stdio_output@@@2@@__crt_stdio_output@@AEAA_NXZ 000000018004b100 f i libucrtd:output.obj
 0001:0004a200       ?state_case_normal@?$output_processor@_WV?$string_output_adapter@_W@__crt_stdio_output@@V?$standard_base@_WV?$string_output_adapter@_W@__crt_stdio_output@@@2@@__crt_stdio_output@@AEAA_NXZ 000000018004b200 f i libucrtd:output.obj
 0001:0004a300       ?state_case_normal_common@?$output_processor@DV?$stream_output_adapter@D@__crt_stdio_output@@V?$format_validation_base@DV?$stream_output_adapter@D@__crt_stdio_output@@@2@@__crt_stdio_output@@AEAA_NXZ 000000018004b300 f i libucrtd:output.obj
 0001:0004a360       ?state_case_normal_common@?$output_processor@DV?$stream_output_adapter@D@__crt_stdio_output@@V?$positional_parameter_base@DV?$stream_output_adapter@D@__crt_stdio_output@@@2@@__crt_stdio_output@@AEAA_NXZ 000000018004b360 f i libucrtd:output.obj
 0001:0004a3c0       ?state_case_normal_common@?$output_processor@DV?$stream_output_adapter@D@__crt_stdio_output@@V?$standard_base@DV?$stream_output_adapter@D@__crt_stdio_output@@@2@@__crt_stdio_output@@AEAA_NXZ 000000018004b3c0 f i libucrtd:output.obj
 0001:0004a420       ?state_case_normal_common@?$output_processor@DV?$string_output_adapter@D@__crt_stdio_output@@V?$format_validation_base@DV?$string_output_adapter@D@__crt_stdio_output@@@2@@__crt_stdio_output@@AEAA_NXZ 000000018004b420 f i libucrtd:output.obj
 0001:0004a480       ?state_case_normal_common@?$output_processor@DV?$string_output_adapter@D@__crt_stdio_output@@V?$positional_parameter_base@DV?$string_output_adapter@D@__crt_stdio_output@@@2@@__crt_stdio_output@@AEAA_NXZ 000000018004b480 f i libucrtd:output.obj
 0001:0004a4e0       ?state_case_normal_common@?$output_processor@DV?$string_output_adapter@D@__crt_stdio_output@@V?$standard_base@DV?$string_output_adapter@D@__crt_stdio_output@@@2@@__crt_stdio_output@@AEAA_NXZ 000000018004b4e0 f i libucrtd:output.obj
 0001:0004a540       ?state_case_normal_common@?$output_processor@_WV?$stream_output_adapter@_W@__crt_stdio_output@@V?$format_validation_base@_WV?$stream_output_adapter@_W@__crt_stdio_output@@@2@@__crt_stdio_output@@AEAA_NXZ 000000018004b540 f i libucrtd:output.obj
 0001:0004a5a0       ?state_case_normal_common@?$output_processor@_WV?$stream_output_adapter@_W@__crt_stdio_output@@V?$positional_parameter_base@_WV?$stream_output_adapter@_W@__crt_stdio_output@@@2@@__crt_stdio_output@@AEAA_NXZ 000000018004b5a0 f i libucrtd:output.obj
 0001:0004a600       ?state_case_normal_common@?$output_processor@_WV?$stream_output_adapter@_W@__crt_stdio_output@@V?$standard_base@_WV?$stream_output_adapter@_W@__crt_stdio_output@@@2@@__crt_stdio_output@@AEAA_NXZ 000000018004b600 f i libucrtd:output.obj
 0001:0004a660       ?state_case_normal_common@?$output_processor@_WV?$string_output_adapter@_W@__crt_stdio_output@@V?$format_validation_base@_WV?$string_output_adapter@_W@__crt_stdio_output@@@2@@__crt_stdio_output@@AEAA_NXZ 000000018004b660 f i libucrtd:output.obj
 0001:0004a6c0       ?state_case_normal_common@?$output_processor@_WV?$string_output_adapter@_W@__crt_stdio_output@@V?$positional_parameter_base@_WV?$string_output_adapter@_W@__crt_stdio_output@@@2@@__crt_stdio_output@@AEAA_NXZ 000000018004b6c0 f i libucrtd:output.obj
 0001:0004a720       ?state_case_normal_common@?$output_processor@_WV?$string_output_adapter@_W@__crt_stdio_output@@V?$standard_base@_WV?$string_output_adapter@_W@__crt_stdio_output@@@2@@__crt_stdio_output@@AEAA_NXZ 000000018004b720 f i libucrtd:output.obj
 0001:0004a780       ?state_case_normal_tchar@?$output_processor@DV?$stream_output_adapter@D@__crt_stdio_output@@V?$format_validation_base@DV?$stream_output_adapter@D@__crt_stdio_output@@@2@@__crt_stdio_output@@AEAA_ND@Z 000000018004b780 f i libucrtd:output.obj
 0001:0004a910       ?state_case_normal_tchar@?$output_processor@DV?$stream_output_adapter@D@__crt_stdio_output@@V?$positional_parameter_base@DV?$stream_output_adapter@D@__crt_stdio_output@@@2@@__crt_stdio_output@@AEAA_ND@Z 000000018004b910 f i libucrtd:output.obj
 0001:0004aaa0       ?state_case_normal_tchar@?$output_processor@DV?$stream_output_adapter@D@__crt_stdio_output@@V?$standard_base@DV?$stream_output_adapter@D@__crt_stdio_output@@@2@@__crt_stdio_output@@AEAA_ND@Z 000000018004baa0 f i libucrtd:output.obj
 0001:0004ac30       ?state_case_normal_tchar@?$output_processor@DV?$string_output_adapter@D@__crt_stdio_output@@V?$format_validation_base@DV?$string_output_adapter@D@__crt_stdio_output@@@2@@__crt_stdio_output@@AEAA_ND@Z 000000018004bc30 f i libucrtd:output.obj
 0001:0004adc0       ?state_case_normal_tchar@?$output_processor@DV?$string_output_adapter@D@__crt_stdio_output@@V?$positional_parameter_base@DV?$string_output_adapter@D@__crt_stdio_output@@@2@@__crt_stdio_output@@AEAA_ND@Z 000000018004bdc0 f i libucrtd:output.obj
 0001:0004af50       ?state_case_normal_tchar@?$output_processor@DV?$string_output_adapter@D@__crt_stdio_output@@V?$standard_base@DV?$string_output_adapter@D@__crt_stdio_output@@@2@@__crt_stdio_output@@AEAA_ND@Z 000000018004bf50 f i libucrtd:output.obj
 0001:0004b0e0       ?state_case_normal_tchar@?$output_processor@_WV?$stream_output_adapter@_W@__crt_stdio_output@@V?$format_validation_base@_WV?$stream_output_adapter@_W@__crt_stdio_output@@@2@@__crt_stdio_output@@AEAA_N_W@Z 000000018004c0e0 f i libucrtd:output.obj
 0001:0004b100       ?state_case_normal_tchar@?$output_processor@_WV?$stream_output_adapter@_W@__crt_stdio_output@@V?$positional_parameter_base@_WV?$stream_output_adapter@_W@__crt_stdio_output@@@2@@__crt_stdio_output@@AEAA_N_W@Z 000000018004c100 f i libucrtd:output.obj
 0001:0004b120       ?state_case_normal_tchar@?$output_processor@_WV?$stream_output_adapter@_W@__crt_stdio_output@@V?$standard_base@_WV?$stream_output_adapter@_W@__crt_stdio_output@@@2@@__crt_stdio_output@@AEAA_N_W@Z 000000018004c120 f i libucrtd:output.obj
 0001:0004b140       ?state_case_normal_tchar@?$output_processor@_WV?$string_output_adapter@_W@__crt_stdio_output@@V?$format_validation_base@_WV?$string_output_adapter@_W@__crt_stdio_output@@@2@@__crt_stdio_output@@AEAA_N_W@Z 000000018004c140 f i libucrtd:output.obj
 0001:0004b160       ?state_case_normal_tchar@?$output_processor@_WV?$string_output_adapter@_W@__crt_stdio_output@@V?$positional_parameter_base@_WV?$string_output_adapter@_W@__crt_stdio_output@@@2@@__crt_stdio_output@@AEAA_N_W@Z 000000018004c160 f i libucrtd:output.obj
 0001:0004b180       ?state_case_normal_tchar@?$output_processor@_WV?$string_output_adapter@_W@__crt_stdio_output@@V?$standard_base@_WV?$string_output_adapter@_W@__crt_stdio_output@@@2@@__crt_stdio_output@@AEAA_N_W@Z 000000018004c180 f i libucrtd:output.obj
 0001:0004b1a0       ?state_case_percent@?$output_processor@DV?$stream_output_adapter@D@__crt_stdio_output@@V?$format_validation_base@DV?$stream_output_adapter@D@__crt_stdio_output@@@2@@__crt_stdio_output@@AEAA_NXZ 000000018004c1a0 f i libucrtd:output.obj
 0001:0004b1f0       ?state_case_percent@?$output_processor@DV?$stream_output_adapter@D@__crt_stdio_output@@V?$positional_parameter_base@DV?$stream_output_adapter@D@__crt_stdio_output@@@2@@__crt_stdio_output@@AEAA_NXZ 000000018004c1f0 f i libucrtd:output.obj
 0001:0004b240       ?state_case_percent@?$output_processor@DV?$stream_output_adapter@D@__crt_stdio_output@@V?$standard_base@DV?$stream_output_adapter@D@__crt_stdio_output@@@2@@__crt_stdio_output@@AEAA_NXZ 000000018004c240 f i libucrtd:output.obj
 0001:0004b290       ?state_case_percent@?$output_processor@DV?$string_output_adapter@D@__crt_stdio_output@@V?$format_validation_base@DV?$string_output_adapter@D@__crt_stdio_output@@@2@@__crt_stdio_output@@AEAA_NXZ 000000018004c290 f i libucrtd:output.obj
 0001:0004b2e0       ?state_case_percent@?$output_processor@DV?$string_output_adapter@D@__crt_stdio_output@@V?$positional_parameter_base@DV?$string_output_adapter@D@__crt_stdio_output@@@2@@__crt_stdio_output@@AEAA_NXZ 000000018004c2e0 f i libucrtd:output.obj
 0001:0004b330       ?state_case_percent@?$output_processor@DV?$string_output_adapter@D@__crt_stdio_output@@V?$standard_base@DV?$string_output_adapter@D@__crt_stdio_output@@@2@@__crt_stdio_output@@AEAA_NXZ 000000018004c330 f i libucrtd:output.obj
 0001:0004b380       ?state_case_percent@?$output_processor@_WV?$stream_output_adapter@_W@__crt_stdio_output@@V?$format_validation_base@_WV?$stream_output_adapter@_W@__crt_stdio_output@@@2@@__crt_stdio_output@@AEAA_NXZ 000000018004c380 f i libucrtd:output.obj
 0001:0004b3d0       ?state_case_percent@?$output_processor@_WV?$stream_output_adapter@_W@__crt_stdio_output@@V?$positional_parameter_base@_WV?$stream_output_adapter@_W@__crt_stdio_output@@@2@@__crt_stdio_output@@AEAA_NXZ 000000018004c3d0 f i libucrtd:output.obj
 0001:0004b420       ?state_case_percent@?$output_processor@_WV?$stream_output_adapter@_W@__crt_stdio_output@@V?$standard_base@_WV?$stream_output_adapter@_W@__crt_stdio_output@@@2@@__crt_stdio_output@@AEAA_NXZ 000000018004c420 f i libucrtd:output.obj
 0001:0004b470       ?state_case_percent@?$output_processor@_WV?$string_output_adapter@_W@__crt_stdio_output@@V?$format_validation_base@_WV?$string_output_adapter@_W@__crt_stdio_output@@@2@@__crt_stdio_output@@AEAA_NXZ 000000018004c470 f i libucrtd:output.obj
 0001:0004b4c0       ?state_case_percent@?$output_processor@_WV?$string_output_adapter@_W@__crt_stdio_output@@V?$positional_parameter_base@_WV?$string_output_adapter@_W@__crt_stdio_output@@@2@@__crt_stdio_output@@AEAA_NXZ 000000018004c4c0 f i libucrtd:output.obj
 0001:0004b510       ?state_case_percent@?$output_processor@_WV?$string_output_adapter@_W@__crt_stdio_output@@V?$standard_base@_WV?$string_output_adapter@_W@__crt_stdio_output@@@2@@__crt_stdio_output@@AEAA_NXZ 000000018004c510 f i libucrtd:output.obj
 0001:0004b560       ?state_case_precision@?$output_processor@DV?$stream_output_adapter@D@__crt_stdio_output@@V?$format_validation_base@DV?$stream_output_adapter@D@__crt_stdio_output@@@2@@__crt_stdio_output@@AEAA_NXZ 000000018004c560 f i libucrtd:output.obj
 0001:0004b5e0       ?state_case_precision@?$output_processor@DV?$stream_output_adapter@D@__crt_stdio_output@@V?$positional_parameter_base@DV?$stream_output_adapter@D@__crt_stdio_output@@@2@@__crt_stdio_output@@AEAA_NXZ 000000018004c5e0 f i libucrtd:output.obj
 0001:0004b660       ?state_case_precision@?$output_processor@DV?$stream_output_adapter@D@__crt_stdio_output@@V?$standard_base@DV?$stream_output_adapter@D@__crt_stdio_output@@@2@@__crt_stdio_output@@AEAA_NXZ 000000018004c660 f i libucrtd:output.obj
 0001:0004b6e0       ?state_case_precision@?$output_processor@DV?$string_output_adapter@D@__crt_stdio_output@@V?$format_validation_base@DV?$string_output_adapter@D@__crt_stdio_output@@@2@@__crt_stdio_output@@AEAA_NXZ 000000018004c6e0 f i libucrtd:output.obj
 0001:0004b760       ?state_case_precision@?$output_processor@DV?$string_output_adapter@D@__crt_stdio_output@@V?$positional_parameter_base@DV?$string_output_adapter@D@__crt_stdio_output@@@2@@__crt_stdio_output@@AEAA_NXZ 000000018004c760 f i libucrtd:output.obj
 0001:0004b7e0       ?state_case_precision@?$output_processor@DV?$string_output_adapter@D@__crt_stdio_output@@V?$standard_base@DV?$string_output_adapter@D@__crt_stdio_output@@@2@@__crt_stdio_output@@AEAA_NXZ 000000018004c7e0 f i libucrtd:output.obj
 0001:0004b860       ?state_case_precision@?$output_processor@_WV?$stream_output_adapter@_W@__crt_stdio_output@@V?$format_validation_base@_WV?$stream_output_adapter@_W@__crt_stdio_output@@@2@@__crt_stdio_output@@AEAA_NXZ 000000018004c860 f i libucrtd:output.obj
 0001:0004b8e0       ?state_case_precision@?$output_processor@_WV?$stream_output_adapter@_W@__crt_stdio_output@@V?$positional_parameter_base@_WV?$stream_output_adapter@_W@__crt_stdio_output@@@2@@__crt_stdio_output@@AEAA_NXZ 000000018004c8e0 f i libucrtd:output.obj
 0001:0004b960       ?state_case_precision@?$output_processor@_WV?$stream_output_adapter@_W@__crt_stdio_output@@V?$standard_base@_WV?$stream_output_adapter@_W@__crt_stdio_output@@@2@@__crt_stdio_output@@AEAA_NXZ 000000018004c960 f i libucrtd:output.obj
 0001:0004b9e0       ?state_case_precision@?$output_processor@_WV?$string_output_adapter@_W@__crt_stdio_output@@V?$format_validation_base@_WV?$string_output_adapter@_W@__crt_stdio_output@@@2@@__crt_stdio_output@@AEAA_NXZ 000000018004c9e0 f i libucrtd:output.obj
 0001:0004ba60       ?state_case_precision@?$output_processor@_WV?$string_output_adapter@_W@__crt_stdio_output@@V?$positional_parameter_base@_WV?$string_output_adapter@_W@__crt_stdio_output@@@2@@__crt_stdio_output@@AEAA_NXZ 000000018004ca60 f i libucrtd:output.obj
 0001:0004bae0       ?state_case_precision@?$output_processor@_WV?$string_output_adapter@_W@__crt_stdio_output@@V?$standard_base@_WV?$string_output_adapter@_W@__crt_stdio_output@@@2@@__crt_stdio_output@@AEAA_NXZ 000000018004cae0 f i libucrtd:output.obj
 0001:0004bb60       ?state_case_size@?$output_processor@DV?$stream_output_adapter@D@__crt_stdio_output@@V?$format_validation_base@DV?$stream_output_adapter@D@__crt_stdio_output@@@2@@__crt_stdio_output@@AEAA_NXZ 000000018004cb60 f i libucrtd:output.obj
 0001:0004c020       ?state_case_size@?$output_processor@DV?$stream_output_adapter@D@__crt_stdio_output@@V?$positional_parameter_base@DV?$stream_output_adapter@D@__crt_stdio_output@@@2@@__crt_stdio_output@@AEAA_NXZ 000000018004d020 f i libucrtd:output.obj
 0001:0004c4e0       ?state_case_size@?$output_processor@DV?$stream_output_adapter@D@__crt_stdio_output@@V?$standard_base@DV?$stream_output_adapter@D@__crt_stdio_output@@@2@@__crt_stdio_output@@AEAA_NXZ 000000018004d4e0 f i libucrtd:output.obj
 0001:0004c9a0       ?state_case_size@?$output_processor@DV?$string_output_adapter@D@__crt_stdio_output@@V?$format_validation_base@DV?$string_output_adapter@D@__crt_stdio_output@@@2@@__crt_stdio_output@@AEAA_NXZ 000000018004d9a0 f i libucrtd:output.obj
 0001:0004ce60       ?state_case_size@?$output_processor@DV?$string_output_adapter@D@__crt_stdio_output@@V?$positional_parameter_base@DV?$string_output_adapter@D@__crt_stdio_output@@@2@@__crt_stdio_output@@AEAA_NXZ 000000018004de60 f i libucrtd:output.obj
 0001:0004d320       ?state_case_size@?$output_processor@DV?$string_output_adapter@D@__crt_stdio_output@@V?$standard_base@DV?$string_output_adapter@D@__crt_stdio_output@@@2@@__crt_stdio_output@@AEAA_NXZ 000000018004e320 f i libucrtd:output.obj
 0001:0004d7e0       ?state_case_size@?$output_processor@_WV?$stream_output_adapter@_W@__crt_stdio_output@@V?$format_validation_base@_WV?$stream_output_adapter@_W@__crt_stdio_output@@@2@@__crt_stdio_output@@AEAA_NXZ 000000018004e7e0 f i libucrtd:output.obj
 0001:0004dca0       ?state_case_size@?$output_processor@_WV?$stream_output_adapter@_W@__crt_stdio_output@@V?$positional_parameter_base@_WV?$stream_output_adapter@_W@__crt_stdio_output@@@2@@__crt_stdio_output@@AEAA_NXZ 000000018004eca0 f i libucrtd:output.obj
 0001:0004e160       ?state_case_size@?$output_processor@_WV?$stream_output_adapter@_W@__crt_stdio_output@@V?$standard_base@_WV?$stream_output_adapter@_W@__crt_stdio_output@@@2@@__crt_stdio_output@@AEAA_NXZ 000000018004f160 f i libucrtd:output.obj
 0001:0004e620       ?state_case_size@?$output_processor@_WV?$string_output_adapter@_W@__crt_stdio_output@@V?$format_validation_base@_WV?$string_output_adapter@_W@__crt_stdio_output@@@2@@__crt_stdio_output@@AEAA_NXZ 000000018004f620 f i libucrtd:output.obj
 0001:0004eae0       ?state_case_size@?$output_processor@_WV?$string_output_adapter@_W@__crt_stdio_output@@V?$positional_parameter_base@_WV?$string_output_adapter@_W@__crt_stdio_output@@@2@@__crt_stdio_output@@AEAA_NXZ 000000018004fae0 f i libucrtd:output.obj
 0001:0004efa0       ?state_case_size@?$output_processor@_WV?$string_output_adapter@_W@__crt_stdio_output@@V?$standard_base@_WV?$string_output_adapter@_W@__crt_stdio_output@@@2@@__crt_stdio_output@@AEAA_NXZ 000000018004ffa0 f i libucrtd:output.obj
 0001:0004f460       ?state_case_type@?$output_processor@DV?$stream_output_adapter@D@__crt_stdio_output@@V?$format_validation_base@DV?$stream_output_adapter@D@__crt_stdio_output@@@2@@__crt_stdio_output@@AEAA_NXZ 0000000180050460 f i libucrtd:output.obj
 0001:0004f920       ?state_case_type@?$output_processor@DV?$stream_output_adapter@D@__crt_stdio_output@@V?$positional_parameter_base@DV?$stream_output_adapter@D@__crt_stdio_output@@@2@@__crt_stdio_output@@AEAA_NXZ 0000000180050920 f i libucrtd:output.obj
 0001:0004fde0       ?state_case_type@?$output_processor@DV?$stream_output_adapter@D@__crt_stdio_output@@V?$standard_base@DV?$stream_output_adapter@D@__crt_stdio_output@@@2@@__crt_stdio_output@@AEAA_NXZ 0000000180050de0 f i libucrtd:output.obj
 0001:000502a0       ?state_case_type@?$output_processor@DV?$string_output_adapter@D@__crt_stdio_output@@V?$format_validation_base@DV?$string_output_adapter@D@__crt_stdio_output@@@2@@__crt_stdio_output@@AEAA_NXZ 00000001800512a0 f i libucrtd:output.obj
 0001:00050760       ?state_case_type@?$output_processor@DV?$string_output_adapter@D@__crt_stdio_output@@V?$positional_parameter_base@DV?$string_output_adapter@D@__crt_stdio_output@@@2@@__crt_stdio_output@@AEAA_NXZ 0000000180051760 f i libucrtd:output.obj
 0001:00050c20       ?state_case_type@?$output_processor@DV?$string_output_adapter@D@__crt_stdio_output@@V?$standard_base@DV?$string_output_adapter@D@__crt_stdio_output@@@2@@__crt_stdio_output@@AEAA_NXZ 0000000180051c20 f i libucrtd:output.obj
 0001:000510e0       ?state_case_type@?$output_processor@_WV?$stream_output_adapter@_W@__crt_stdio_output@@V?$format_validation_base@_WV?$stream_output_adapter@_W@__crt_stdio_output@@@2@@__crt_stdio_output@@AEAA_NXZ 00000001800520e0 f i libucrtd:output.obj
 0001:00051670       ?state_case_type@?$output_processor@_WV?$stream_output_adapter@_W@__crt_stdio_output@@V?$positional_parameter_base@_WV?$stream_output_adapter@_W@__crt_stdio_output@@@2@@__crt_stdio_output@@AEAA_NXZ 0000000180052670 f i libucrtd:output.obj
 0001:00051c00       ?state_case_type@?$output_processor@_WV?$stream_output_adapter@_W@__crt_stdio_output@@V?$standard_base@_WV?$stream_output_adapter@_W@__crt_stdio_output@@@2@@__crt_stdio_output@@AEAA_NXZ 0000000180052c00 f i libucrtd:output.obj
 0001:00052190       ?state_case_type@?$output_processor@_WV?$string_output_adapter@_W@__crt_stdio_output@@V?$format_validation_base@_WV?$string_output_adapter@_W@__crt_stdio_output@@@2@@__crt_stdio_output@@AEAA_NXZ 0000000180053190 f i libucrtd:output.obj
 0001:00052720       ?state_case_type@?$output_processor@_WV?$string_output_adapter@_W@__crt_stdio_output@@V?$positional_parameter_base@_WV?$string_output_adapter@_W@__crt_stdio_output@@@2@@__crt_stdio_output@@AEAA_NXZ 0000000180053720 f i libucrtd:output.obj
 0001:00052cb0       ?state_case_type@?$output_processor@_WV?$string_output_adapter@_W@__crt_stdio_output@@V?$standard_base@_WV?$string_output_adapter@_W@__crt_stdio_output@@@2@@__crt_stdio_output@@AEAA_NXZ 0000000180053cb0 f i libucrtd:output.obj
 0001:00053240       ?state_case_width@?$output_processor@DV?$stream_output_adapter@D@__crt_stdio_output@@V?$format_validation_base@DV?$stream_output_adapter@D@__crt_stdio_output@@@2@@__crt_stdio_output@@AEAA_NXZ 0000000180054240 f i libucrtd:output.obj
 0001:000532d0       ?state_case_width@?$output_processor@DV?$stream_output_adapter@D@__crt_stdio_output@@V?$positional_parameter_base@DV?$stream_output_adapter@D@__crt_stdio_output@@@2@@__crt_stdio_output@@AEAA_NXZ 00000001800542d0 f i libucrtd:output.obj
 0001:00053360       ?state_case_width@?$output_processor@DV?$stream_output_adapter@D@__crt_stdio_output@@V?$standard_base@DV?$stream_output_adapter@D@__crt_stdio_output@@@2@@__crt_stdio_output@@AEAA_NXZ 0000000180054360 f i libucrtd:output.obj
 0001:000533f0       ?state_case_width@?$output_processor@DV?$string_output_adapter@D@__crt_stdio_output@@V?$format_validation_base@DV?$string_output_adapter@D@__crt_stdio_output@@@2@@__crt_stdio_output@@AEAA_NXZ 00000001800543f0 f i libucrtd:output.obj
 0001:00053480       ?state_case_width@?$output_processor@DV?$string_output_adapter@D@__crt_stdio_output@@V?$positional_parameter_base@DV?$string_output_adapter@D@__crt_stdio_output@@@2@@__crt_stdio_output@@AEAA_NXZ 0000000180054480 f i libucrtd:output.obj
 0001:00053510       ?state_case_width@?$output_processor@DV?$string_output_adapter@D@__crt_stdio_output@@V?$standard_base@DV?$string_output_adapter@D@__crt_stdio_output@@@2@@__crt_stdio_output@@AEAA_NXZ 0000000180054510 f i libucrtd:output.obj
 0001:000535a0       ?state_case_width@?$output_processor@_WV?$stream_output_adapter@_W@__crt_stdio_output@@V?$format_validation_base@_WV?$stream_output_adapter@_W@__crt_stdio_output@@@2@@__crt_stdio_output@@AEAA_NXZ 00000001800545a0 f i libucrtd:output.obj
 0001:00053630       ?state_case_width@?$output_processor@_WV?$stream_output_adapter@_W@__crt_stdio_output@@V?$positional_parameter_base@_WV?$stream_output_adapter@_W@__crt_stdio_output@@@2@@__crt_stdio_output@@AEAA_NXZ 0000000180054630 f i libucrtd:output.obj
 0001:000536c0       ?state_case_width@?$output_processor@_WV?$stream_output_adapter@_W@__crt_stdio_output@@V?$standard_base@_WV?$stream_output_adapter@_W@__crt_stdio_output@@@2@@__crt_stdio_output@@AEAA_NXZ 00000001800546c0 f i libucrtd:output.obj
 0001:00053750       ?state_case_width@?$output_processor@_WV?$string_output_adapter@_W@__crt_stdio_output@@V?$format_validation_base@_WV?$string_output_adapter@_W@__crt_stdio_output@@@2@@__crt_stdio_output@@AEAA_NXZ 0000000180054750 f i libucrtd:output.obj
 0001:000537e0       ?state_case_width@?$output_processor@_WV?$string_output_adapter@_W@__crt_stdio_output@@V?$positional_parameter_base@_WV?$string_output_adapter@_W@__crt_stdio_output@@@2@@__crt_stdio_output@@AEAA_NXZ 00000001800547e0 f i libucrtd:output.obj
 0001:00053870       ?state_case_width@?$output_processor@_WV?$string_output_adapter@_W@__crt_stdio_output@@V?$standard_base@_WV?$string_output_adapter@_W@__crt_stdio_output@@@2@@__crt_stdio_output@@AEAA_NXZ 0000000180054870 f i libucrtd:output.obj
 0001:00053900       ?state_count@?$format_validation_base@DV?$stream_output_adapter@D@__crt_stdio_output@@@__crt_stdio_output@@KAIXZ 0000000180054900 f i libucrtd:output.obj
 0001:00053910       ?state_count@?$format_validation_base@DV?$string_output_adapter@D@__crt_stdio_output@@@__crt_stdio_output@@KAIXZ 0000000180054910 f i libucrtd:output.obj
 0001:00053920       ?state_count@?$format_validation_base@_WV?$stream_output_adapter@_W@__crt_stdio_output@@@__crt_stdio_output@@KAIXZ 0000000180054920 f i libucrtd:output.obj
 0001:00053930       ?state_count@?$format_validation_base@_WV?$string_output_adapter@_W@__crt_stdio_output@@@__crt_stdio_output@@KAIXZ 0000000180054930 f i libucrtd:output.obj
 0001:00053940       ?state_count@?$standard_base@DV?$stream_output_adapter@D@__crt_stdio_output@@@__crt_stdio_output@@KAIXZ 0000000180054940 f i libucrtd:output.obj
 0001:00053950       ?state_count@?$standard_base@DV?$string_output_adapter@D@__crt_stdio_output@@@__crt_stdio_output@@KAIXZ 0000000180054950 f i libucrtd:output.obj
 0001:00053960       ?state_count@?$standard_base@_WV?$stream_output_adapter@_W@__crt_stdio_output@@@__crt_stdio_output@@KAIXZ 0000000180054960 f i libucrtd:output.obj
 0001:00053970       ?state_count@?$standard_base@_WV?$string_output_adapter@_W@__crt_stdio_output@@@__crt_stdio_output@@KAIXZ 0000000180054970 f i libucrtd:output.obj
 0001:00053980       ?state_transition_table@?$format_validation_base@DV?$stream_output_adapter@D@__crt_stdio_output@@@__crt_stdio_output@@KAAEBV?$spectre_mitigated_lookup_table@Ustate_transition_pair@__crt_stdio_output@@$0IA@@2@XZ 0000000180054980 f i libucrtd:output.obj
 0001:00053990       ?state_transition_table@?$format_validation_base@DV?$string_output_adapter@D@__crt_stdio_output@@@__crt_stdio_output@@KAAEBV?$spectre_mitigated_lookup_table@Ustate_transition_pair@__crt_stdio_output@@$0IA@@2@XZ 0000000180054990 f i libucrtd:output.obj
 0001:000539a0       ?state_transition_table@?$format_validation_base@_WV?$stream_output_adapter@_W@__crt_stdio_output@@@__crt_stdio_output@@KAAEBV?$spectre_mitigated_lookup_table@Ustate_transition_pair@__crt_stdio_output@@$0IA@@2@XZ 00000001800549a0 f i libucrtd:output.obj
 0001:000539b0       ?state_transition_table@?$format_validation_base@_WV?$string_output_adapter@_W@__crt_stdio_output@@@__crt_stdio_output@@KAAEBV?$spectre_mitigated_lookup_table@Ustate_transition_pair@__crt_stdio_output@@$0IA@@2@XZ 00000001800549b0 f i libucrtd:output.obj
 0001:000539c0       ?state_transition_table@?$standard_base@DV?$stream_output_adapter@D@__crt_stdio_output@@@__crt_stdio_output@@KAAEBV?$spectre_mitigated_lookup_table@Ustate_transition_pair@__crt_stdio_output@@$0IA@@2@XZ 00000001800549c0 f i libucrtd:output.obj
 0001:000539d0       ?state_transition_table@?$standard_base@DV?$string_output_adapter@D@__crt_stdio_output@@@__crt_stdio_output@@KAAEBV?$spectre_mitigated_lookup_table@Ustate_transition_pair@__crt_stdio_output@@$0IA@@2@XZ 00000001800549d0 f i libucrtd:output.obj
 0001:000539e0       ?state_transition_table@?$standard_base@_WV?$stream_output_adapter@_W@__crt_stdio_output@@@__crt_stdio_output@@KAAEBV?$spectre_mitigated_lookup_table@Ustate_transition_pair@__crt_stdio_output@@$0IA@@2@XZ 00000001800549e0 f i libucrtd:output.obj
 0001:000539f0       ?state_transition_table@?$standard_base@_WV?$string_output_adapter@_W@__crt_stdio_output@@@__crt_stdio_output@@KAAEBV?$spectre_mitigated_lookup_table@Ustate_transition_pair@__crt_stdio_output@@$0IA@@2@XZ 00000001800549f0 f i libucrtd:output.obj
 0001:00053a00       ?tchar_string@?$common_data@D@__crt_stdio_output@@IEAAAEAPEADD@Z 0000000180054a00 f i libucrtd:output.obj
 0001:00053a20       ?tchar_string@?$common_data@D@__crt_stdio_output@@IEAAAEAPEADXZ 0000000180054a20 f i libucrtd:output.obj
 0001:00053a40       ?tchar_string@?$common_data@_W@__crt_stdio_output@@IEAAAEAPEA_WXZ 0000000180054a40 f i libucrtd:output.obj
 0001:00053a60       ?tchar_string@?$common_data@_W@__crt_stdio_output@@IEAAAEAPEA_W_W@Z 0000000180054a60 f i libucrtd:output.obj
 0001:00053a80       ?to_integer_size@__crt_stdio_output@@YA_KW4length_modifier@1@@Z 0000000180054a80 f i libucrtd:output.obj
 0001:00053b30       ?type_case_X@?$output_processor@DV?$stream_output_adapter@D@__crt_stdio_output@@V?$format_validation_base@DV?$stream_output_adapter@D@__crt_stdio_output@@@2@@__crt_stdio_output@@AEAA_NXZ 0000000180054b30 f i libucrtd:output.obj
 0001:00053b50       ?type_case_X@?$output_processor@DV?$stream_output_adapter@D@__crt_stdio_output@@V?$positional_parameter_base@DV?$stream_output_adapter@D@__crt_stdio_output@@@2@@__crt_stdio_output@@AEAA_NXZ 0000000180054b50 f i libucrtd:output.obj
 0001:00053b70       ?type_case_X@?$output_processor@DV?$stream_output_adapter@D@__crt_stdio_output@@V?$standard_base@DV?$stream_output_adapter@D@__crt_stdio_output@@@2@@__crt_stdio_output@@AEAA_NXZ 0000000180054b70 f i libucrtd:output.obj
 0001:00053b90       ?type_case_X@?$output_processor@DV?$string_output_adapter@D@__crt_stdio_output@@V?$format_validation_base@DV?$string_output_adapter@D@__crt_stdio_output@@@2@@__crt_stdio_output@@AEAA_NXZ 0000000180054b90 f i libucrtd:output.obj
 0001:00053bb0       ?type_case_X@?$output_processor@DV?$string_output_adapter@D@__crt_stdio_output@@V?$positional_parameter_base@DV?$string_output_adapter@D@__crt_stdio_output@@@2@@__crt_stdio_output@@AEAA_NXZ 0000000180054bb0 f i libucrtd:output.obj
 0001:00053bd0       ?type_case_X@?$output_processor@DV?$string_output_adapter@D@__crt_stdio_output@@V?$standard_base@DV?$string_output_adapter@D@__crt_stdio_output@@@2@@__crt_stdio_output@@AEAA_NXZ 0000000180054bd0 f i libucrtd:output.obj
 0001:00053bf0       ?type_case_X@?$output_processor@_WV?$stream_output_adapter@_W@__crt_stdio_output@@V?$format_validation_base@_WV?$stream_output_adapter@_W@__crt_stdio_output@@@2@@__crt_stdio_output@@AEAA_NXZ 0000000180054bf0 f i libucrtd:output.obj
 0001:00053c10       ?type_case_X@?$output_processor@_WV?$stream_output_adapter@_W@__crt_stdio_output@@V?$positional_parameter_base@_WV?$stream_output_adapter@_W@__crt_stdio_output@@@2@@__crt_stdio_output@@AEAA_NXZ 0000000180054c10 f i libucrtd:output.obj
 0001:00053c30       ?type_case_X@?$output_processor@_WV?$stream_output_adapter@_W@__crt_stdio_output@@V?$standard_base@_WV?$stream_output_adapter@_W@__crt_stdio_output@@@2@@__crt_stdio_output@@AEAA_NXZ 0000000180054c30 f i libucrtd:output.obj
 0001:00053c50       ?type_case_X@?$output_processor@_WV?$string_output_adapter@_W@__crt_stdio_output@@V?$format_validation_base@_WV?$string_output_adapter@_W@__crt_stdio_output@@@2@@__crt_stdio_output@@AEAA_NXZ 0000000180054c50 f i libucrtd:output.obj
 0001:00053c70       ?type_case_X@?$output_processor@_WV?$string_output_adapter@_W@__crt_stdio_output@@V?$positional_parameter_base@_WV?$string_output_adapter@_W@__crt_stdio_output@@@2@@__crt_stdio_output@@AEAA_NXZ 0000000180054c70 f i libucrtd:output.obj
 0001:00053c90       ?type_case_X@?$output_processor@_WV?$string_output_adapter@_W@__crt_stdio_output@@V?$standard_base@_WV?$string_output_adapter@_W@__crt_stdio_output@@@2@@__crt_stdio_output@@AEAA_NXZ 0000000180054c90 f i libucrtd:output.obj
 0001:00053cb0       ?type_case_Z@?$output_processor@DV?$stream_output_adapter@D@__crt_stdio_output@@V?$format_validation_base@DV?$stream_output_adapter@D@__crt_stdio_output@@@2@@__crt_stdio_output@@AEAA_NXZ 0000000180054cb0 f i libucrtd:output.obj
 0001:00053dd0       ?type_case_Z@?$output_processor@DV?$stream_output_adapter@D@__crt_stdio_output@@V?$positional_parameter_base@DV?$stream_output_adapter@D@__crt_stdio_output@@@2@@__crt_stdio_output@@AEAA_NXZ 0000000180054dd0 f i libucrtd:output.obj
 0001:00053ef0       ?type_case_Z@?$output_processor@DV?$stream_output_adapter@D@__crt_stdio_output@@V?$standard_base@DV?$stream_output_adapter@D@__crt_stdio_output@@@2@@__crt_stdio_output@@AEAA_NXZ 0000000180054ef0 f i libucrtd:output.obj
 0001:00054010       ?type_case_Z@?$output_processor@DV?$string_output_adapter@D@__crt_stdio_output@@V?$format_validation_base@DV?$string_output_adapter@D@__crt_stdio_output@@@2@@__crt_stdio_output@@AEAA_NXZ 0000000180055010 f i libucrtd:output.obj
 0001:00054130       ?type_case_Z@?$output_processor@DV?$string_output_adapter@D@__crt_stdio_output@@V?$positional_parameter_base@DV?$string_output_adapter@D@__crt_stdio_output@@@2@@__crt_stdio_output@@AEAA_NXZ 0000000180055130 f i libucrtd:output.obj
 0001:00054250       ?type_case_Z@?$output_processor@DV?$string_output_adapter@D@__crt_stdio_output@@V?$standard_base@DV?$string_output_adapter@D@__crt_stdio_output@@@2@@__crt_stdio_output@@AEAA_NXZ 0000000180055250 f i libucrtd:output.obj
 0001:00054370       ?type_case_Z@?$output_processor@_WV?$stream_output_adapter@_W@__crt_stdio_output@@V?$format_validation_base@_WV?$stream_output_adapter@_W@__crt_stdio_output@@@2@@__crt_stdio_output@@AEAA_NXZ 0000000180055370 f i libucrtd:output.obj
 0001:00054490       ?type_case_Z@?$output_processor@_WV?$stream_output_adapter@_W@__crt_stdio_output@@V?$positional_parameter_base@_WV?$stream_output_adapter@_W@__crt_stdio_output@@@2@@__crt_stdio_output@@AEAA_NXZ 0000000180055490 f i libucrtd:output.obj
 0001:000545b0       ?type_case_Z@?$output_processor@_WV?$stream_output_adapter@_W@__crt_stdio_output@@V?$standard_base@_WV?$stream_output_adapter@_W@__crt_stdio_output@@@2@@__crt_stdio_output@@AEAA_NXZ 00000001800555b0 f i libucrtd:output.obj
 0001:000546d0       ?type_case_Z@?$output_processor@_WV?$string_output_adapter@_W@__crt_stdio_output@@V?$format_validation_base@_WV?$string_output_adapter@_W@__crt_stdio_output@@@2@@__crt_stdio_output@@AEAA_NXZ 00000001800556d0 f i libucrtd:output.obj
 0001:000547f0       ?type_case_Z@?$output_processor@_WV?$string_output_adapter@_W@__crt_stdio_output@@V?$positional_parameter_base@_WV?$string_output_adapter@_W@__crt_stdio_output@@@2@@__crt_stdio_output@@AEAA_NXZ 00000001800557f0 f i libucrtd:output.obj
 0001:00054910       ?type_case_Z@?$output_processor@_WV?$string_output_adapter@_W@__crt_stdio_output@@V?$standard_base@_WV?$string_output_adapter@_W@__crt_stdio_output@@@2@@__crt_stdio_output@@AEAA_NXZ 0000000180055910 f i libucrtd:output.obj
 0001:00054a30       ?type_case_a@?$output_processor@DV?$stream_output_adapter@D@__crt_stdio_output@@V?$format_validation_base@DV?$stream_output_adapter@D@__crt_stdio_output@@@2@@__crt_stdio_output@@AEAA_NXZ 0000000180055a30 f i libucrtd:output.obj
 0001:00054e90       ?type_case_a@?$output_processor@DV?$stream_output_adapter@D@__crt_stdio_output@@V?$positional_parameter_base@DV?$stream_output_adapter@D@__crt_stdio_output@@@2@@__crt_stdio_output@@AEAA_NXZ 0000000180055e90 f i libucrtd:output.obj
 0001:000552f0       ?type_case_a@?$output_processor@DV?$stream_output_adapter@D@__crt_stdio_output@@V?$standard_base@DV?$stream_output_adapter@D@__crt_stdio_output@@@2@@__crt_stdio_output@@AEAA_NXZ 00000001800562f0 f i libucrtd:output.obj
 0001:00055750       ?type_case_a@?$output_processor@DV?$string_output_adapter@D@__crt_stdio_output@@V?$format_validation_base@DV?$string_output_adapter@D@__crt_stdio_output@@@2@@__crt_stdio_output@@AEAA_NXZ 0000000180056750 f i libucrtd:output.obj
 0001:00055bb0       ?type_case_a@?$output_processor@DV?$string_output_adapter@D@__crt_stdio_output@@V?$positional_parameter_base@DV?$string_output_adapter@D@__crt_stdio_output@@@2@@__crt_stdio_output@@AEAA_NXZ 0000000180056bb0 f i libucrtd:output.obj
 0001:00056010       ?type_case_a@?$output_processor@DV?$string_output_adapter@D@__crt_stdio_output@@V?$standard_base@DV?$string_output_adapter@D@__crt_stdio_output@@@2@@__crt_stdio_output@@AEAA_NXZ 0000000180057010 f i libucrtd:output.obj
 0001:00056470       ?type_case_a@?$output_processor@_WV?$stream_output_adapter@_W@__crt_stdio_output@@V?$format_validation_base@_WV?$stream_output_adapter@_W@__crt_stdio_output@@@2@@__crt_stdio_output@@AEAA_NXZ 0000000180057470 f i libucrtd:output.obj
 0001:000568e0       ?type_case_a@?$output_processor@_WV?$stream_output_adapter@_W@__crt_stdio_output@@V?$positional_parameter_base@_WV?$stream_output_adapter@_W@__crt_stdio_output@@@2@@__crt_stdio_output@@AEAA_NXZ 00000001800578e0 f i libucrtd:output.obj
 0001:00056d50       ?type_case_a@?$output_processor@_WV?$stream_output_adapter@_W@__crt_stdio_output@@V?$standard_base@_WV?$stream_output_adapter@_W@__crt_stdio_output@@@2@@__crt_stdio_output@@AEAA_NXZ 0000000180057d50 f i libucrtd:output.obj
 0001:000571c0       ?type_case_a@?$output_processor@_WV?$string_output_adapter@_W@__crt_stdio_output@@V?$format_validation_base@_WV?$string_output_adapter@_W@__crt_stdio_output@@@2@@__crt_stdio_output@@AEAA_NXZ 00000001800581c0 f i libucrtd:output.obj
 0001:00057630       ?type_case_a@?$output_processor@_WV?$string_output_adapter@_W@__crt_stdio_output@@V?$positional_parameter_base@_WV?$string_output_adapter@_W@__crt_stdio_output@@@2@@__crt_stdio_output@@AEAA_NXZ 0000000180058630 f i libucrtd:output.obj
 0001:00057aa0       ?type_case_a@?$output_processor@_WV?$string_output_adapter@_W@__crt_stdio_output@@V?$standard_base@_WV?$string_output_adapter@_W@__crt_stdio_output@@@2@@__crt_stdio_output@@AEAA_NXZ 0000000180058aa0 f i libucrtd:output.obj
 0001:00057f10       ?type_case_c@?$output_processor@DV?$stream_output_adapter@D@__crt_stdio_output@@V?$format_validation_base@DV?$stream_output_adapter@D@__crt_stdio_output@@@2@@__crt_stdio_output@@AEAA_NXZ 0000000180058f10 f i libucrtd:output.obj
 0001:00057f30       ?type_case_c@?$output_processor@DV?$stream_output_adapter@D@__crt_stdio_output@@V?$positional_parameter_base@DV?$stream_output_adapter@D@__crt_stdio_output@@@2@@__crt_stdio_output@@AEAA_NXZ 0000000180058f30 f i libucrtd:output.obj
 0001:00057f50       ?type_case_c@?$output_processor@DV?$stream_output_adapter@D@__crt_stdio_output@@V?$standard_base@DV?$stream_output_adapter@D@__crt_stdio_output@@@2@@__crt_stdio_output@@AEAA_NXZ 0000000180058f50 f i libucrtd:output.obj
 0001:00057f70       ?type_case_c@?$output_processor@DV?$string_output_adapter@D@__crt_stdio_output@@V?$format_validation_base@DV?$string_output_adapter@D@__crt_stdio_output@@@2@@__crt_stdio_output@@AEAA_NXZ 0000000180058f70 f i libucrtd:output.obj
 0001:00057f90       ?type_case_c@?$output_processor@DV?$string_output_adapter@D@__crt_stdio_output@@V?$positional_parameter_base@DV?$string_output_adapter@D@__crt_stdio_output@@@2@@__crt_stdio_output@@AEAA_NXZ 0000000180058f90 f i libucrtd:output.obj
 0001:00057fb0       ?type_case_c@?$output_processor@DV?$string_output_adapter@D@__crt_stdio_output@@V?$standard_base@DV?$string_output_adapter@D@__crt_stdio_output@@@2@@__crt_stdio_output@@AEAA_NXZ 0000000180058fb0 f i libucrtd:output.obj
 0001:00057fd0       ?type_case_c@?$output_processor@_WV?$stream_output_adapter@_W@__crt_stdio_output@@V?$format_validation_base@_WV?$stream_output_adapter@_W@__crt_stdio_output@@@2@@__crt_stdio_output@@AEAA_NXZ 0000000180058fd0 f i libucrtd:output.obj
 0001:00057ff0       ?type_case_c@?$output_processor@_WV?$stream_output_adapter@_W@__crt_stdio_output@@V?$positional_parameter_base@_WV?$stream_output_adapter@_W@__crt_stdio_output@@@2@@__crt_stdio_output@@AEAA_NXZ 0000000180058ff0 f i libucrtd:output.obj
 0001:00058010       ?type_case_c@?$output_processor@_WV?$stream_output_adapter@_W@__crt_stdio_output@@V?$standard_base@_WV?$stream_output_adapter@_W@__crt_stdio_output@@@2@@__crt_stdio_output@@AEAA_NXZ 0000000180059010 f i libucrtd:output.obj
 0001:00058030       ?type_case_c@?$output_processor@_WV?$string_output_adapter@_W@__crt_stdio_output@@V?$format_validation_base@_WV?$string_output_adapter@_W@__crt_stdio_output@@@2@@__crt_stdio_output@@AEAA_NXZ 0000000180059030 f i libucrtd:output.obj
 0001:00058050       ?type_case_c@?$output_processor@_WV?$string_output_adapter@_W@__crt_stdio_output@@V?$positional_parameter_base@_WV?$string_output_adapter@_W@__crt_stdio_output@@@2@@__crt_stdio_output@@AEAA_NXZ 0000000180059050 f i libucrtd:output.obj
 0001:00058070       ?type_case_c@?$output_processor@_WV?$string_output_adapter@_W@__crt_stdio_output@@V?$standard_base@_WV?$string_output_adapter@_W@__crt_stdio_output@@@2@@__crt_stdio_output@@AEAA_NXZ 0000000180059070 f i libucrtd:output.obj
 0001:00058090       ?type_case_c_tchar@?$output_processor@DV?$stream_output_adapter@D@__crt_stdio_output@@V?$format_validation_base@DV?$stream_output_adapter@D@__crt_stdio_output@@@2@@__crt_stdio_output@@AEAA_ND@Z 0000000180059090 f i libucrtd:output.obj
 0001:00058200       ?type_case_c_tchar@?$output_processor@DV?$stream_output_adapter@D@__crt_stdio_output@@V?$positional_parameter_base@DV?$stream_output_adapter@D@__crt_stdio_output@@@2@@__crt_stdio_output@@AEAA_ND@Z 0000000180059200 f i libucrtd:output.obj
 0001:00058370       ?type_case_c_tchar@?$output_processor@DV?$stream_output_adapter@D@__crt_stdio_output@@V?$standard_base@DV?$stream_output_adapter@D@__crt_stdio_output@@@2@@__crt_stdio_output@@AEAA_ND@Z 0000000180059370 f i libucrtd:output.obj
 0001:000584e0       ?type_case_c_tchar@?$output_processor@DV?$string_output_adapter@D@__crt_stdio_output@@V?$format_validation_base@DV?$string_output_adapter@D@__crt_stdio_output@@@2@@__crt_stdio_output@@AEAA_ND@Z 00000001800594e0 f i libucrtd:output.obj
 0001:00058650       ?type_case_c_tchar@?$output_processor@DV?$string_output_adapter@D@__crt_stdio_output@@V?$positional_parameter_base@DV?$string_output_adapter@D@__crt_stdio_output@@@2@@__crt_stdio_output@@AEAA_ND@Z 0000000180059650 f i libucrtd:output.obj
 0001:000587c0       ?type_case_c_tchar@?$output_processor@DV?$string_output_adapter@D@__crt_stdio_output@@V?$standard_base@DV?$string_output_adapter@D@__crt_stdio_output@@@2@@__crt_stdio_output@@AEAA_ND@Z 00000001800597c0 f i libucrtd:output.obj
 0001:00058930       ?type_case_c_tchar@?$output_processor@_WV?$stream_output_adapter@_W@__crt_stdio_output@@V?$format_validation_base@_WV?$stream_output_adapter@_W@__crt_stdio_output@@@2@@__crt_stdio_output@@AEAA_N_W@Z 0000000180059930 f i libucrtd:output.obj
 0001:00058a90       ?type_case_c_tchar@?$output_processor@_WV?$stream_output_adapter@_W@__crt_stdio_output@@V?$positional_parameter_base@_WV?$stream_output_adapter@_W@__crt_stdio_output@@@2@@__crt_stdio_output@@AEAA_N_W@Z 0000000180059a90 f i libucrtd:output.obj
 0001:00058bf0       ?type_case_c_tchar@?$output_processor@_WV?$stream_output_adapter@_W@__crt_stdio_output@@V?$standard_base@_WV?$stream_output_adapter@_W@__crt_stdio_output@@@2@@__crt_stdio_output@@AEAA_N_W@Z 0000000180059bf0 f i libucrtd:output.obj
 0001:00058d50       ?type_case_c_tchar@?$output_processor@_WV?$string_output_adapter@_W@__crt_stdio_output@@V?$format_validation_base@_WV?$string_output_adapter@_W@__crt_stdio_output@@@2@@__crt_stdio_output@@AEAA_N_W@Z 0000000180059d50 f i libucrtd:output.obj
 0001:00058eb0       ?type_case_c_tchar@?$output_processor@_WV?$string_output_adapter@_W@__crt_stdio_output@@V?$positional_parameter_base@_WV?$string_output_adapter@_W@__crt_stdio_output@@@2@@__crt_stdio_output@@AEAA_N_W@Z 0000000180059eb0 f i libucrtd:output.obj
 0001:00059010       ?type_case_c_tchar@?$output_processor@_WV?$string_output_adapter@_W@__crt_stdio_output@@V?$standard_base@_WV?$string_output_adapter@_W@__crt_stdio_output@@@2@@__crt_stdio_output@@AEAA_N_W@Z 000000018005a010 f i libucrtd:output.obj
 0001:00059170       ?type_case_d@?$output_processor@DV?$stream_output_adapter@D@__crt_stdio_output@@V?$format_validation_base@DV?$stream_output_adapter@D@__crt_stdio_output@@@2@@__crt_stdio_output@@AEAA_NXZ 000000018005a170 f i libucrtd:output.obj
 0001:000591a0       ?type_case_d@?$output_processor@DV?$stream_output_adapter@D@__crt_stdio_output@@V?$positional_parameter_base@DV?$stream_output_adapter@D@__crt_stdio_output@@@2@@__crt_stdio_output@@AEAA_NXZ 000000018005a1a0 f i libucrtd:output.obj
 0001:000591d0       ?type_case_d@?$output_processor@DV?$stream_output_adapter@D@__crt_stdio_output@@V?$standard_base@DV?$stream_output_adapter@D@__crt_stdio_output@@@2@@__crt_stdio_output@@AEAA_NXZ 000000018005a1d0 f i libucrtd:output.obj
 0001:00059200       ?type_case_d@?$output_processor@DV?$string_output_adapter@D@__crt_stdio_output@@V?$format_validation_base@DV?$string_output_adapter@D@__crt_stdio_output@@@2@@__crt_stdio_output@@AEAA_NXZ 000000018005a200 f i libucrtd:output.obj
 0001:00059230       ?type_case_d@?$output_processor@DV?$string_output_adapter@D@__crt_stdio_output@@V?$positional_parameter_base@DV?$string_output_adapter@D@__crt_stdio_output@@@2@@__crt_stdio_output@@AEAA_NXZ 000000018005a230 f i libucrtd:output.obj
 0001:00059260       ?type_case_d@?$output_processor@DV?$string_output_adapter@D@__crt_stdio_output@@V?$standard_base@DV?$string_output_adapter@D@__crt_stdio_output@@@2@@__crt_stdio_output@@AEAA_NXZ 000000018005a260 f i libucrtd:output.obj
 0001:00059290       ?type_case_d@?$output_processor@_WV?$stream_output_adapter@_W@__crt_stdio_output@@V?$format_validation_base@_WV?$stream_output_adapter@_W@__crt_stdio_output@@@2@@__crt_stdio_output@@AEAA_NXZ 000000018005a290 f i libucrtd:output.obj
 0001:000592c0       ?type_case_d@?$output_processor@_WV?$stream_output_adapter@_W@__crt_stdio_output@@V?$positional_parameter_base@_WV?$stream_output_adapter@_W@__crt_stdio_output@@@2@@__crt_stdio_output@@AEAA_NXZ 000000018005a2c0 f i libucrtd:output.obj
 0001:000592f0       ?type_case_d@?$output_processor@_WV?$stream_output_adapter@_W@__crt_stdio_output@@V?$standard_base@_WV?$stream_output_adapter@_W@__crt_stdio_output@@@2@@__crt_stdio_output@@AEAA_NXZ 000000018005a2f0 f i libucrtd:output.obj
 0001:00059320       ?type_case_d@?$output_processor@_WV?$string_output_adapter@_W@__crt_stdio_output@@V?$format_validation_base@_WV?$string_output_adapter@_W@__crt_stdio_output@@@2@@__crt_stdio_output@@AEAA_NXZ 000000018005a320 f i libucrtd:output.obj
 0001:00059350       ?type_case_d@?$output_processor@_WV?$string_output_adapter@_W@__crt_stdio_output@@V?$positional_parameter_base@_WV?$string_output_adapter@_W@__crt_stdio_output@@@2@@__crt_stdio_output@@AEAA_NXZ 000000018005a350 f i libucrtd:output.obj
 0001:00059380       ?type_case_d@?$output_processor@_WV?$string_output_adapter@_W@__crt_stdio_output@@V?$standard_base@_WV?$string_output_adapter@_W@__crt_stdio_output@@@2@@__crt_stdio_output@@AEAA_NXZ 000000018005a380 f i libucrtd:output.obj
 0001:000593b0       ?type_case_n@?$output_processor@DV?$stream_output_adapter@D@__crt_stdio_output@@V?$format_validation_base@DV?$stream_output_adapter@D@__crt_stdio_output@@@2@@__crt_stdio_output@@AEAA_NXZ 000000018005a3b0 f i libucrtd:output.obj
 0001:00059640       ?type_case_n@?$output_processor@DV?$stream_output_adapter@D@__crt_stdio_output@@V?$positional_parameter_base@DV?$stream_output_adapter@D@__crt_stdio_output@@@2@@__crt_stdio_output@@AEAA_NXZ 000000018005a640 f i libucrtd:output.obj
 0001:000598d0       ?type_case_n@?$output_processor@DV?$stream_output_adapter@D@__crt_stdio_output@@V?$standard_base@DV?$stream_output_adapter@D@__crt_stdio_output@@@2@@__crt_stdio_output@@AEAA_NXZ 000000018005a8d0 f i libucrtd:output.obj
 0001:00059b60       ?type_case_n@?$output_processor@DV?$string_output_adapter@D@__crt_stdio_output@@V?$format_validation_base@DV?$string_output_adapter@D@__crt_stdio_output@@@2@@__crt_stdio_output@@AEAA_NXZ 000000018005ab60 f i libucrtd:output.obj
 0001:00059df0       ?type_case_n@?$output_processor@DV?$string_output_adapter@D@__crt_stdio_output@@V?$positional_parameter_base@DV?$string_output_adapter@D@__crt_stdio_output@@@2@@__crt_stdio_output@@AEAA_NXZ 000000018005adf0 f i libucrtd:output.obj
 0001:0005a080       ?type_case_n@?$output_processor@DV?$string_output_adapter@D@__crt_stdio_output@@V?$standard_base@DV?$string_output_adapter@D@__crt_stdio_output@@@2@@__crt_stdio_output@@AEAA_NXZ 000000018005b080 f i libucrtd:output.obj
 0001:0005a310       ?type_case_n@?$output_processor@_WV?$stream_output_adapter@_W@__crt_stdio_output@@V?$format_validation_base@_WV?$stream_output_adapter@_W@__crt_stdio_output@@@2@@__crt_stdio_output@@AEAA_NXZ 000000018005b310 f i libucrtd:output.obj
 0001:0005a5a0       ?type_case_n@?$output_processor@_WV?$stream_output_adapter@_W@__crt_stdio_output@@V?$positional_parameter_base@_WV?$stream_output_adapter@_W@__crt_stdio_output@@@2@@__crt_stdio_output@@AEAA_NXZ 000000018005b5a0 f i libucrtd:output.obj
 0001:0005a830       ?type_case_n@?$output_processor@_WV?$stream_output_adapter@_W@__crt_stdio_output@@V?$standard_base@_WV?$stream_output_adapter@_W@__crt_stdio_output@@@2@@__crt_stdio_output@@AEAA_NXZ 000000018005b830 f i libucrtd:output.obj
 0001:0005aac0       ?type_case_n@?$output_processor@_WV?$string_output_adapter@_W@__crt_stdio_output@@V?$format_validation_base@_WV?$string_output_adapter@_W@__crt_stdio_output@@@2@@__crt_stdio_output@@AEAA_NXZ 000000018005bac0 f i libucrtd:output.obj
 0001:0005ad50       ?type_case_n@?$output_processor@_WV?$string_output_adapter@_W@__crt_stdio_output@@V?$positional_parameter_base@_WV?$string_output_adapter@_W@__crt_stdio_output@@@2@@__crt_stdio_output@@AEAA_NXZ 000000018005bd50 f i libucrtd:output.obj
 0001:0005afe0       ?type_case_n@?$output_processor@_WV?$string_output_adapter@_W@__crt_stdio_output@@V?$standard_base@_WV?$string_output_adapter@_W@__crt_stdio_output@@@2@@__crt_stdio_output@@AEAA_NXZ 000000018005bfe0 f i libucrtd:output.obj
 0001:0005b270       ?type_case_o@?$output_processor@DV?$stream_output_adapter@D@__crt_stdio_output@@V?$format_validation_base@DV?$stream_output_adapter@D@__crt_stdio_output@@@2@@__crt_stdio_output@@AEAA_NXZ 000000018005c270 f i libucrtd:output.obj
 0001:0005b2b0       ?type_case_o@?$output_processor@DV?$stream_output_adapter@D@__crt_stdio_output@@V?$positional_parameter_base@DV?$stream_output_adapter@D@__crt_stdio_output@@@2@@__crt_stdio_output@@AEAA_NXZ 000000018005c2b0 f i libucrtd:output.obj
 0001:0005b2f0       ?type_case_o@?$output_processor@DV?$stream_output_adapter@D@__crt_stdio_output@@V?$standard_base@DV?$stream_output_adapter@D@__crt_stdio_output@@@2@@__crt_stdio_output@@AEAA_NXZ 000000018005c2f0 f i libucrtd:output.obj
 0001:0005b330       ?type_case_o@?$output_processor@DV?$string_output_adapter@D@__crt_stdio_output@@V?$format_validation_base@DV?$string_output_adapter@D@__crt_stdio_output@@@2@@__crt_stdio_output@@AEAA_NXZ 000000018005c330 f i libucrtd:output.obj
 0001:0005b370       ?type_case_o@?$output_processor@DV?$string_output_adapter@D@__crt_stdio_output@@V?$positional_parameter_base@DV?$string_output_adapter@D@__crt_stdio_output@@@2@@__crt_stdio_output@@AEAA_NXZ 000000018005c370 f i libucrtd:output.obj
 0001:0005b3b0       ?type_case_o@?$output_processor@DV?$string_output_adapter@D@__crt_stdio_output@@V?$standard_base@DV?$string_output_adapter@D@__crt_stdio_output@@@2@@__crt_stdio_output@@AEAA_NXZ 000000018005c3b0 f i libucrtd:output.obj
 0001:0005b3f0       ?type_case_o@?$output_processor@_WV?$stream_output_adapter@_W@__crt_stdio_output@@V?$format_validation_base@_WV?$stream_output_adapter@_W@__crt_stdio_output@@@2@@__crt_stdio_output@@AEAA_NXZ 000000018005c3f0 f i libucrtd:output.obj
 0001:0005b430       ?type_case_o@?$output_processor@_WV?$stream_output_adapter@_W@__crt_stdio_output@@V?$positional_parameter_base@_WV?$stream_output_adapter@_W@__crt_stdio_output@@@2@@__crt_stdio_output@@AEAA_NXZ 000000018005c430 f i libucrtd:output.obj
 0001:0005b470       ?type_case_o@?$output_processor@_WV?$stream_output_adapter@_W@__crt_stdio_output@@V?$standard_base@_WV?$stream_output_adapter@_W@__crt_stdio_output@@@2@@__crt_stdio_output@@AEAA_NXZ 000000018005c470 f i libucrtd:output.obj
 0001:0005b4b0       ?type_case_o@?$output_processor@_WV?$string_output_adapter@_W@__crt_stdio_output@@V?$format_validation_base@_WV?$string_output_adapter@_W@__crt_stdio_output@@@2@@__crt_stdio_output@@AEAA_NXZ 000000018005c4b0 f i libucrtd:output.obj
 0001:0005b4f0       ?type_case_o@?$output_processor@_WV?$string_output_adapter@_W@__crt_stdio_output@@V?$positional_parameter_base@_WV?$string_output_adapter@_W@__crt_stdio_output@@@2@@__crt_stdio_output@@AEAA_NXZ 000000018005c4f0 f i libucrtd:output.obj
 0001:0005b530       ?type_case_o@?$output_processor@_WV?$string_output_adapter@_W@__crt_stdio_output@@V?$standard_base@_WV?$string_output_adapter@_W@__crt_stdio_output@@@2@@__crt_stdio_output@@AEAA_NXZ 000000018005c530 f i libucrtd:output.obj
 0001:0005b570       ?type_case_p@?$output_processor@DV?$stream_output_adapter@D@__crt_stdio_output@@V?$format_validation_base@DV?$stream_output_adapter@D@__crt_stdio_output@@@2@@__crt_stdio_output@@AEAA_NXZ 000000018005c570 f i libucrtd:output.obj
 0001:0005b5b0       ?type_case_p@?$output_processor@DV?$stream_output_adapter@D@__crt_stdio_output@@V?$positional_parameter_base@DV?$stream_output_adapter@D@__crt_stdio_output@@@2@@__crt_stdio_output@@AEAA_NXZ 000000018005c5b0 f i libucrtd:output.obj
 0001:0005b5f0       ?type_case_p@?$output_processor@DV?$stream_output_adapter@D@__crt_stdio_output@@V?$standard_base@DV?$stream_output_adapter@D@__crt_stdio_output@@@2@@__crt_stdio_output@@AEAA_NXZ 000000018005c5f0 f i libucrtd:output.obj
 0001:0005b630       ?type_case_p@?$output_processor@DV?$string_output_adapter@D@__crt_stdio_output@@V?$format_validation_base@DV?$string_output_adapter@D@__crt_stdio_output@@@2@@__crt_stdio_output@@AEAA_NXZ 000000018005c630 f i libucrtd:output.obj
 0001:0005b670       ?type_case_p@?$output_processor@DV?$string_output_adapter@D@__crt_stdio_output@@V?$positional_parameter_base@DV?$string_output_adapter@D@__crt_stdio_output@@@2@@__crt_stdio_output@@AEAA_NXZ 000000018005c670 f i libucrtd:output.obj
 0001:0005b6b0       ?type_case_p@?$output_processor@DV?$string_output_adapter@D@__crt_stdio_output@@V?$standard_base@DV?$string_output_adapter@D@__crt_stdio_output@@@2@@__crt_stdio_output@@AEAA_NXZ 000000018005c6b0 f i libucrtd:output.obj
 0001:0005b6f0       ?type_case_p@?$output_processor@_WV?$stream_output_adapter@_W@__crt_stdio_output@@V?$format_validation_base@_WV?$stream_output_adapter@_W@__crt_stdio_output@@@2@@__crt_stdio_output@@AEAA_NXZ 000000018005c6f0 f i libucrtd:output.obj
 0001:0005b730       ?type_case_p@?$output_processor@_WV?$stream_output_adapter@_W@__crt_stdio_output@@V?$positional_parameter_base@_WV?$stream_output_adapter@_W@__crt_stdio_output@@@2@@__crt_stdio_output@@AEAA_NXZ 000000018005c730 f i libucrtd:output.obj
 0001:0005b770       ?type_case_p@?$output_processor@_WV?$stream_output_adapter@_W@__crt_stdio_output@@V?$standard_base@_WV?$stream_output_adapter@_W@__crt_stdio_output@@@2@@__crt_stdio_output@@AEAA_NXZ 000000018005c770 f i libucrtd:output.obj
 0001:0005b7b0       ?type_case_p@?$output_processor@_WV?$string_output_adapter@_W@__crt_stdio_output@@V?$format_validation_base@_WV?$string_output_adapter@_W@__crt_stdio_output@@@2@@__crt_stdio_output@@AEAA_NXZ 000000018005c7b0 f i libucrtd:output.obj
 0001:0005b7f0       ?type_case_p@?$output_processor@_WV?$string_output_adapter@_W@__crt_stdio_output@@V?$positional_parameter_base@_WV?$string_output_adapter@_W@__crt_stdio_output@@@2@@__crt_stdio_output@@AEAA_NXZ 000000018005c7f0 f i libucrtd:output.obj
 0001:0005b830       ?type_case_p@?$output_processor@_WV?$string_output_adapter@_W@__crt_stdio_output@@V?$standard_base@_WV?$string_output_adapter@_W@__crt_stdio_output@@@2@@__crt_stdio_output@@AEAA_NXZ 000000018005c830 f i libucrtd:output.obj
 0001:0005b870       ?type_case_s@?$output_processor@DV?$stream_output_adapter@D@__crt_stdio_output@@V?$format_validation_base@DV?$stream_output_adapter@D@__crt_stdio_output@@@2@@__crt_stdio_output@@AEAA_NXZ 000000018005c870 f i libucrtd:output.obj
 0001:0005b990       ?type_case_s@?$output_processor@DV?$stream_output_adapter@D@__crt_stdio_output@@V?$positional_parameter_base@DV?$stream_output_adapter@D@__crt_stdio_output@@@2@@__crt_stdio_output@@AEAA_NXZ 000000018005c990 f i libucrtd:output.obj
 0001:0005bab0       ?type_case_s@?$output_processor@DV?$stream_output_adapter@D@__crt_stdio_output@@V?$standard_base@DV?$stream_output_adapter@D@__crt_stdio_output@@@2@@__crt_stdio_output@@AEAA_NXZ 000000018005cab0 f i libucrtd:output.obj
 0001:0005bbd0       ?type_case_s@?$output_processor@DV?$string_output_adapter@D@__crt_stdio_output@@V?$format_validation_base@DV?$string_output_adapter@D@__crt_stdio_output@@@2@@__crt_stdio_output@@AEAA_NXZ 000000018005cbd0 f i libucrtd:output.obj
 0001:0005bcf0       ?type_case_s@?$output_processor@DV?$string_output_adapter@D@__crt_stdio_output@@V?$positional_parameter_base@DV?$string_output_adapter@D@__crt_stdio_output@@@2@@__crt_stdio_output@@AEAA_NXZ 000000018005ccf0 f i libucrtd:output.obj
 0001:0005be10       ?type_case_s@?$output_processor@DV?$string_output_adapter@D@__crt_stdio_output@@V?$standard_base@DV?$string_output_adapter@D@__crt_stdio_output@@@2@@__crt_stdio_output@@AEAA_NXZ 000000018005ce10 f i libucrtd:output.obj
 0001:0005bf30       ?type_case_s@?$output_processor@_WV?$stream_output_adapter@_W@__crt_stdio_output@@V?$format_validation_base@_WV?$stream_output_adapter@_W@__crt_stdio_output@@@2@@__crt_stdio_output@@AEAA_NXZ 000000018005cf30 f i libucrtd:output.obj
 0001:0005c050       ?type_case_s@?$output_processor@_WV?$stream_output_adapter@_W@__crt_stdio_output@@V?$positional_parameter_base@_WV?$stream_output_adapter@_W@__crt_stdio_output@@@2@@__crt_stdio_output@@AEAA_NXZ 000000018005d050 f i libucrtd:output.obj
 0001:0005c170       ?type_case_s@?$output_processor@_WV?$stream_output_adapter@_W@__crt_stdio_output@@V?$standard_base@_WV?$stream_output_adapter@_W@__crt_stdio_output@@@2@@__crt_stdio_output@@AEAA_NXZ 000000018005d170 f i libucrtd:output.obj
 0001:0005c290       ?type_case_s@?$output_processor@_WV?$string_output_adapter@_W@__crt_stdio_output@@V?$format_validation_base@_WV?$string_output_adapter@_W@__crt_stdio_output@@@2@@__crt_stdio_output@@AEAA_NXZ 000000018005d290 f i libucrtd:output.obj
 0001:0005c3b0       ?type_case_s@?$output_processor@_WV?$string_output_adapter@_W@__crt_stdio_output@@V?$positional_parameter_base@_WV?$string_output_adapter@_W@__crt_stdio_output@@@2@@__crt_stdio_output@@AEAA_NXZ 000000018005d3b0 f i libucrtd:output.obj
 0001:0005c4d0       ?type_case_s@?$output_processor@_WV?$string_output_adapter@_W@__crt_stdio_output@@V?$standard_base@_WV?$string_output_adapter@_W@__crt_stdio_output@@@2@@__crt_stdio_output@@AEAA_NXZ 000000018005d4d0 f i libucrtd:output.obj
 0001:0005c5f0       ?type_case_s_compute_narrow_string_length@?$output_processor@DV?$stream_output_adapter@D@__crt_stdio_output@@V?$format_validation_base@DV?$stream_output_adapter@D@__crt_stdio_output@@@2@@__crt_stdio_output@@AEAAHHD@Z 000000018005d5f0 f i libucrtd:output.obj
 0001:0005c620       ?type_case_s_compute_narrow_string_length@?$output_processor@DV?$stream_output_adapter@D@__crt_stdio_output@@V?$positional_parameter_base@DV?$stream_output_adapter@D@__crt_stdio_output@@@2@@__crt_stdio_output@@AEAAHHD@Z 000000018005d620 f i libucrtd:output.obj
 0001:0005c650       ?type_case_s_compute_narrow_string_length@?$output_processor@DV?$stream_output_adapter@D@__crt_stdio_output@@V?$standard_base@DV?$stream_output_adapter@D@__crt_stdio_output@@@2@@__crt_stdio_output@@AEAAHHD@Z 000000018005d650 f i libucrtd:output.obj
 0001:0005c680       ?type_case_s_compute_narrow_string_length@?$output_processor@DV?$string_output_adapter@D@__crt_stdio_output@@V?$format_validation_base@DV?$string_output_adapter@D@__crt_stdio_output@@@2@@__crt_stdio_output@@AEAAHHD@Z 000000018005d680 f i libucrtd:output.obj
 0001:0005c6b0       ?type_case_s_compute_narrow_string_length@?$output_processor@DV?$string_output_adapter@D@__crt_stdio_output@@V?$positional_parameter_base@DV?$string_output_adapter@D@__crt_stdio_output@@@2@@__crt_stdio_output@@AEAAHHD@Z 000000018005d6b0 f i libucrtd:output.obj
 0001:0005c6e0       ?type_case_s_compute_narrow_string_length@?$output_processor@DV?$string_output_adapter@D@__crt_stdio_output@@V?$standard_base@DV?$string_output_adapter@D@__crt_stdio_output@@@2@@__crt_stdio_output@@AEAAHHD@Z 000000018005d6e0 f i libucrtd:output.obj
 0001:0005c710       ?type_case_s_compute_narrow_string_length@?$output_processor@_WV?$stream_output_adapter@_W@__crt_stdio_output@@V?$format_validation_base@_WV?$stream_output_adapter@_W@__crt_stdio_output@@@2@@__crt_stdio_output@@AEAAHH_W@Z 000000018005d710 f i libucrtd:output.obj
 0001:0005c860       ?type_case_s_compute_narrow_string_length@?$output_processor@_WV?$stream_output_adapter@_W@__crt_stdio_output@@V?$positional_parameter_base@_WV?$stream_output_adapter@_W@__crt_stdio_output@@@2@@__crt_stdio_output@@AEAAHH_W@Z 000000018005d860 f i libucrtd:output.obj
 0001:0005c9b0       ?type_case_s_compute_narrow_string_length@?$output_processor@_WV?$stream_output_adapter@_W@__crt_stdio_output@@V?$standard_base@_WV?$stream_output_adapter@_W@__crt_stdio_output@@@2@@__crt_stdio_output@@AEAAHH_W@Z 000000018005d9b0 f i libucrtd:output.obj
 0001:0005cb00       ?type_case_s_compute_narrow_string_length@?$output_processor@_WV?$string_output_adapter@_W@__crt_stdio_output@@V?$format_validation_base@_WV?$string_output_adapter@_W@__crt_stdio_output@@@2@@__crt_stdio_output@@AEAAHH_W@Z 000000018005db00 f i libucrtd:output.obj
 0001:0005cc50       ?type_case_s_compute_narrow_string_length@?$output_processor@_WV?$string_output_adapter@_W@__crt_stdio_output@@V?$positional_parameter_base@_WV?$string_output_adapter@_W@__crt_stdio_output@@@2@@__crt_stdio_output@@AEAAHH_W@Z 000000018005dc50 f i libucrtd:output.obj
 0001:0005cda0       ?type_case_s_compute_narrow_string_length@?$output_processor@_WV?$string_output_adapter@_W@__crt_stdio_output@@V?$standard_base@_WV?$string_output_adapter@_W@__crt_stdio_output@@@2@@__crt_stdio_output@@AEAAHH_W@Z 000000018005dda0 f i libucrtd:output.obj
 0001:0005cef0       ?type_case_u@?$output_processor@DV?$stream_output_adapter@D@__crt_stdio_output@@V?$format_validation_base@DV?$stream_output_adapter@D@__crt_stdio_output@@@2@@__crt_stdio_output@@AEAA_NXZ 000000018005def0 f i libucrtd:output.obj
 0001:0005cf10       ?type_case_u@?$output_processor@DV?$stream_output_adapter@D@__crt_stdio_output@@V?$positional_parameter_base@DV?$stream_output_adapter@D@__crt_stdio_output@@@2@@__crt_stdio_output@@AEAA_NXZ 000000018005df10 f i libucrtd:output.obj
 0001:0005cf30       ?type_case_u@?$output_processor@DV?$stream_output_adapter@D@__crt_stdio_output@@V?$standard_base@DV?$stream_output_adapter@D@__crt_stdio_output@@@2@@__crt_stdio_output@@AEAA_NXZ 000000018005df30 f i libucrtd:output.obj
 0001:0005cf50       ?type_case_u@?$output_processor@DV?$string_output_adapter@D@__crt_stdio_output@@V?$format_validation_base@DV?$string_output_adapter@D@__crt_stdio_output@@@2@@__crt_stdio_output@@AEAA_NXZ 000000018005df50 f i libucrtd:output.obj
 0001:0005cf70       ?type_case_u@?$output_processor@DV?$string_output_adapter@D@__crt_stdio_output@@V?$positional_parameter_base@DV?$string_output_adapter@D@__crt_stdio_output@@@2@@__crt_stdio_output@@AEAA_NXZ 000000018005df70 f i libucrtd:output.obj
 0001:0005cf90       ?type_case_u@?$output_processor@DV?$string_output_adapter@D@__crt_stdio_output@@V?$standard_base@DV?$string_output_adapter@D@__crt_stdio_output@@@2@@__crt_stdio_output@@AEAA_NXZ 000000018005df90 f i libucrtd:output.obj
 0001:0005cfb0       ?type_case_u@?$output_processor@_WV?$stream_output_adapter@_W@__crt_stdio_output@@V?$format_validation_base@_WV?$stream_output_adapter@_W@__crt_stdio_output@@@2@@__crt_stdio_output@@AEAA_NXZ 000000018005dfb0 f i libucrtd:output.obj
 0001:0005cfd0       ?type_case_u@?$output_processor@_WV?$stream_output_adapter@_W@__crt_stdio_output@@V?$positional_parameter_base@_WV?$stream_output_adapter@_W@__crt_stdio_output@@@2@@__crt_stdio_output@@AEAA_NXZ 000000018005dfd0 f i libucrtd:output.obj
 0001:0005cff0       ?type_case_u@?$output_processor@_WV?$stream_output_adapter@_W@__crt_stdio_output@@V?$standard_base@_WV?$stream_output_adapter@_W@__crt_stdio_output@@@2@@__crt_stdio_output@@AEAA_NXZ 000000018005dff0 f i libucrtd:output.obj
 0001:0005d010       ?type_case_u@?$output_processor@_WV?$string_output_adapter@_W@__crt_stdio_output@@V?$format_validation_base@_WV?$string_output_adapter@_W@__crt_stdio_output@@@2@@__crt_stdio_output@@AEAA_NXZ 000000018005e010 f i libucrtd:output.obj
 0001:0005d030       ?type_case_u@?$output_processor@_WV?$string_output_adapter@_W@__crt_stdio_output@@V?$positional_parameter_base@_WV?$string_output_adapter@_W@__crt_stdio_output@@@2@@__crt_stdio_output@@AEAA_NXZ 000000018005e030 f i libucrtd:output.obj
 0001:0005d050       ?type_case_u@?$output_processor@_WV?$string_output_adapter@_W@__crt_stdio_output@@V?$standard_base@_WV?$string_output_adapter@_W@__crt_stdio_output@@@2@@__crt_stdio_output@@AEAA_NXZ 000000018005e050 f i libucrtd:output.obj
 0001:0005d070       ?type_case_x@?$output_processor@DV?$stream_output_adapter@D@__crt_stdio_output@@V?$format_validation_base@DV?$stream_output_adapter@D@__crt_stdio_output@@@2@@__crt_stdio_output@@AEAA_NXZ 000000018005e070 f i libucrtd:output.obj
 0001:0005d090       ?type_case_x@?$output_processor@DV?$stream_output_adapter@D@__crt_stdio_output@@V?$positional_parameter_base@DV?$stream_output_adapter@D@__crt_stdio_output@@@2@@__crt_stdio_output@@AEAA_NXZ 000000018005e090 f i libucrtd:output.obj
 0001:0005d0b0       ?type_case_x@?$output_processor@DV?$stream_output_adapter@D@__crt_stdio_output@@V?$standard_base@DV?$stream_output_adapter@D@__crt_stdio_output@@@2@@__crt_stdio_output@@AEAA_NXZ 000000018005e0b0 f i libucrtd:output.obj
 0001:0005d0d0       ?type_case_x@?$output_processor@DV?$string_output_adapter@D@__crt_stdio_output@@V?$format_validation_base@DV?$string_output_adapter@D@__crt_stdio_output@@@2@@__crt_stdio_output@@AEAA_NXZ 000000018005e0d0 f i libucrtd:output.obj
 0001:0005d0f0       ?type_case_x@?$output_processor@DV?$string_output_adapter@D@__crt_stdio_output@@V?$positional_parameter_base@DV?$string_output_adapter@D@__crt_stdio_output@@@2@@__crt_stdio_output@@AEAA_NXZ 000000018005e0f0 f i libucrtd:output.obj
 0001:0005d110       ?type_case_x@?$output_processor@DV?$string_output_adapter@D@__crt_stdio_output@@V?$standard_base@DV?$string_output_adapter@D@__crt_stdio_output@@@2@@__crt_stdio_output@@AEAA_NXZ 000000018005e110 f i libucrtd:output.obj
 0001:0005d130       ?type_case_x@?$output_processor@_WV?$stream_output_adapter@_W@__crt_stdio_output@@V?$format_validation_base@_WV?$stream_output_adapter@_W@__crt_stdio_output@@@2@@__crt_stdio_output@@AEAA_NXZ 000000018005e130 f i libucrtd:output.obj
 0001:0005d150       ?type_case_x@?$output_processor@_WV?$stream_output_adapter@_W@__crt_stdio_output@@V?$positional_parameter_base@_WV?$stream_output_adapter@_W@__crt_stdio_output@@@2@@__crt_stdio_output@@AEAA_NXZ 000000018005e150 f i libucrtd:output.obj
 0001:0005d170       ?type_case_x@?$output_processor@_WV?$stream_output_adapter@_W@__crt_stdio_output@@V?$standard_base@_WV?$stream_output_adapter@_W@__crt_stdio_output@@@2@@__crt_stdio_output@@AEAA_NXZ 000000018005e170 f i libucrtd:output.obj
 0001:0005d190       ?type_case_x@?$output_processor@_WV?$string_output_adapter@_W@__crt_stdio_output@@V?$format_validation_base@_WV?$string_output_adapter@_W@__crt_stdio_output@@@2@@__crt_stdio_output@@AEAA_NXZ 000000018005e190 f i libucrtd:output.obj
 0001:0005d1b0       ?type_case_x@?$output_processor@_WV?$string_output_adapter@_W@__crt_stdio_output@@V?$positional_parameter_base@_WV?$string_output_adapter@_W@__crt_stdio_output@@@2@@__crt_stdio_output@@AEAA_NXZ 000000018005e1b0 f i libucrtd:output.obj
 0001:0005d1d0       ?type_case_x@?$output_processor@_WV?$string_output_adapter@_W@__crt_stdio_output@@V?$standard_base@_WV?$string_output_adapter@_W@__crt_stdio_output@@@2@@__crt_stdio_output@@AEAA_NXZ 000000018005e1d0 f i libucrtd:output.obj
 0001:0005d1f0       ?unget@?$c_string_character_source@D@__crt_strtox@@QEAAXD@Z 000000018005e1f0 f i libucrtd:output.obj
 0001:0005d2d0       ?unget@?$c_string_character_source@_W@__crt_strtox@@QEAAX_W@Z 000000018005e2d0 f i libucrtd:output.obj
 0001:0005d3b0       ?unsafe_value@?$cached@H@__crt_cached_ptd_host@@QEAAHXZ 000000018005e3b0 f i libucrtd:output.obj
 0001:0005d3c0       ?unsafe_value@?$cached@K@__crt_cached_ptd_host@@QEAAKXZ 000000018005e3c0 f i libucrtd:output.obj
 0001:0005d3d0       ?unset_flag@?$output_processor@DV?$stream_output_adapter@D@__crt_stdio_output@@V?$format_validation_base@DV?$stream_output_adapter@D@__crt_stdio_output@@@2@@__crt_stdio_output@@AEAAXI@Z 000000018005e3d0 f i libucrtd:output.obj
 0001:0005d400       ?unset_flag@?$output_processor@DV?$stream_output_adapter@D@__crt_stdio_output@@V?$positional_parameter_base@DV?$stream_output_adapter@D@__crt_stdio_output@@@2@@__crt_stdio_output@@AEAAXI@Z 000000018005e400 f i libucrtd:output.obj
 0001:0005d430       ?unset_flag@?$output_processor@DV?$stream_output_adapter@D@__crt_stdio_output@@V?$standard_base@DV?$stream_output_adapter@D@__crt_stdio_output@@@2@@__crt_stdio_output@@AEAAXI@Z 000000018005e430 f i libucrtd:output.obj
 0001:0005d460       ?unset_flag@?$output_processor@DV?$string_output_adapter@D@__crt_stdio_output@@V?$format_validation_base@DV?$string_output_adapter@D@__crt_stdio_output@@@2@@__crt_stdio_output@@AEAAXI@Z 000000018005e460 f i libucrtd:output.obj
 0001:0005d490       ?unset_flag@?$output_processor@DV?$string_output_adapter@D@__crt_stdio_output@@V?$positional_parameter_base@DV?$string_output_adapter@D@__crt_stdio_output@@@2@@__crt_stdio_output@@AEAAXI@Z 000000018005e490 f i libucrtd:output.obj
 0001:0005d4c0       ?unset_flag@?$output_processor@DV?$string_output_adapter@D@__crt_stdio_output@@V?$standard_base@DV?$string_output_adapter@D@__crt_stdio_output@@@2@@__crt_stdio_output@@AEAAXI@Z 000000018005e4c0 f i libucrtd:output.obj
 0001:0005d4f0       ?unset_flag@?$output_processor@_WV?$stream_output_adapter@_W@__crt_stdio_output@@V?$format_validation_base@_WV?$stream_output_adapter@_W@__crt_stdio_output@@@2@@__crt_stdio_output@@AEAAXI@Z 000000018005e4f0 f i libucrtd:output.obj
 0001:0005d520       ?unset_flag@?$output_processor@_WV?$stream_output_adapter@_W@__crt_stdio_output@@V?$positional_parameter_base@_WV?$stream_output_adapter@_W@__crt_stdio_output@@@2@@__crt_stdio_output@@AEAAXI@Z 000000018005e520 f i libucrtd:output.obj
 0001:0005d550       ?unset_flag@?$output_processor@_WV?$stream_output_adapter@_W@__crt_stdio_output@@V?$standard_base@_WV?$stream_output_adapter@_W@__crt_stdio_output@@@2@@__crt_stdio_output@@AEAAXI@Z 000000018005e550 f i libucrtd:output.obj
 0001:0005d580       ?unset_flag@?$output_processor@_WV?$string_output_adapter@_W@__crt_stdio_output@@V?$format_validation_base@_WV?$string_output_adapter@_W@__crt_stdio_output@@@2@@__crt_stdio_output@@AEAAXI@Z 000000018005e580 f i libucrtd:output.obj
 0001:0005d5b0       ?unset_flag@?$output_processor@_WV?$string_output_adapter@_W@__crt_stdio_output@@V?$positional_parameter_base@_WV?$string_output_adapter@_W@__crt_stdio_output@@@2@@__crt_stdio_output@@AEAAXI@Z 000000018005e5b0 f i libucrtd:output.obj
 0001:0005d5e0       ?unset_flag@?$output_processor@_WV?$string_output_adapter@_W@__crt_stdio_output@@V?$standard_base@_WV?$string_output_adapter@_W@__crt_stdio_output@@@2@@__crt_stdio_output@@AEAAXI@Z 000000018005e5e0 f i libucrtd:output.obj
 0001:0005d610       ?update_field_width@?$positional_parameter_base@DV?$stream_output_adapter@D@__crt_stdio_output@@@__crt_stdio_output@@IEAA_NXZ 000000018005e610 f i libucrtd:output.obj
 0001:0005d810       ?update_field_width@?$positional_parameter_base@DV?$string_output_adapter@D@__crt_stdio_output@@@__crt_stdio_output@@IEAA_NXZ 000000018005e810 f i libucrtd:output.obj
 0001:0005da10       ?update_field_width@?$positional_parameter_base@_WV?$stream_output_adapter@_W@__crt_stdio_output@@@__crt_stdio_output@@IEAA_NXZ 000000018005ea10 f i libucrtd:output.obj
 0001:0005dc10       ?update_field_width@?$positional_parameter_base@_WV?$string_output_adapter@_W@__crt_stdio_output@@@__crt_stdio_output@@IEAA_NXZ 000000018005ec10 f i libucrtd:output.obj
 0001:0005de10       ?update_field_width@?$standard_base@DV?$stream_output_adapter@D@__crt_stdio_output@@@__crt_stdio_output@@IEAA_NXZ 000000018005ee10 f i libucrtd:output.obj
 0001:0005de40       ?update_field_width@?$standard_base@DV?$string_output_adapter@D@__crt_stdio_output@@@__crt_stdio_output@@IEAA_NXZ 000000018005ee40 f i libucrtd:output.obj
 0001:0005de70       ?update_field_width@?$standard_base@_WV?$stream_output_adapter@_W@__crt_stdio_output@@@__crt_stdio_output@@IEAA_NXZ 000000018005ee70 f i libucrtd:output.obj
 0001:0005dea0       ?update_field_width@?$standard_base@_WV?$string_output_adapter@_W@__crt_stdio_output@@@__crt_stdio_output@@IEAA_NXZ 000000018005eea0 f i libucrtd:output.obj
 0001:0005ded0       ?update_locale@__crt_cached_ptd_host@@AEAAXXZ 000000018005eed0 f i libucrtd:output.obj
 0001:0005df00       ?update_locale_slow@__crt_cached_ptd_host@@AEAAXXZ 000000018005ef00 f i libucrtd:output.obj
 0001:0005dfb0       ?update_precision@?$positional_parameter_base@DV?$stream_output_adapter@D@__crt_stdio_output@@@__crt_stdio_output@@IEAA_NXZ 000000018005efb0 f i libucrtd:output.obj
 0001:0005e1b0       ?update_precision@?$positional_parameter_base@DV?$string_output_adapter@D@__crt_stdio_output@@@__crt_stdio_output@@IEAA_NXZ 000000018005f1b0 f i libucrtd:output.obj
 0001:0005e3b0       ?update_precision@?$positional_parameter_base@_WV?$stream_output_adapter@_W@__crt_stdio_output@@@__crt_stdio_output@@IEAA_NXZ 000000018005f3b0 f i libucrtd:output.obj
 0001:0005e5b0       ?update_precision@?$positional_parameter_base@_WV?$string_output_adapter@_W@__crt_stdio_output@@@__crt_stdio_output@@IEAA_NXZ 000000018005f5b0 f i libucrtd:output.obj
 0001:0005e7b0       ?update_precision@?$standard_base@DV?$stream_output_adapter@D@__crt_stdio_output@@@__crt_stdio_output@@IEAA_NXZ 000000018005f7b0 f i libucrtd:output.obj
 0001:0005e7e0       ?update_precision@?$standard_base@DV?$string_output_adapter@D@__crt_stdio_output@@@__crt_stdio_output@@IEAA_NXZ 000000018005f7e0 f i libucrtd:output.obj
 0001:0005e810       ?update_precision@?$standard_base@_WV?$stream_output_adapter@_W@__crt_stdio_output@@@__crt_stdio_output@@IEAA_NXZ 000000018005f810 f i libucrtd:output.obj
 0001:0005e840       ?update_precision@?$standard_base@_WV?$string_output_adapter@_W@__crt_stdio_output@@@__crt_stdio_output@@IEAA_NXZ 000000018005f840 f i libucrtd:output.obj
 0001:0005e870       ?valid@?$cached@H@__crt_cached_ptd_host@@QEBA_NXZ 000000018005f870 f i libucrtd:output.obj
 0001:0005e880       ?valid@?$cached@K@__crt_cached_ptd_host@@QEBA_NXZ 000000018005f880 f i libucrtd:output.obj
 0001:0005e890       ?valid@__crt_stdio_stream@@QEBA_NXZ 000000018005f890 f i libucrtd:output.obj
 0001:0005e8c0       ?validate@?$c_string_character_source@D@__crt_strtox@@QEBA_NXZ 000000018005f8c0 f i libucrtd:output.obj
 0001:0005e980       ?validate@?$c_string_character_source@_W@__crt_strtox@@QEBA_NXZ 000000018005f980 f i libucrtd:output.obj
 0001:0005ea40       ?validate@?$stream_output_adapter@D@__crt_stdio_output@@QEBA_NAEAV__crt_cached_ptd_host@@@Z 000000018005fa40 f i libucrtd:output.obj
 0001:0005eb40       ?validate@?$stream_output_adapter@_W@__crt_stdio_output@@QEBA_NAEAV__crt_cached_ptd_host@@@Z 000000018005fb40 f i libucrtd:output.obj
 0001:0005ec40       ?validate@?$string_output_adapter@D@__crt_stdio_output@@QEBA_NAEAV__crt_cached_ptd_host@@@Z 000000018005fc40 f i libucrtd:output.obj
 0001:0005ed20       ?validate@?$string_output_adapter@_W@__crt_stdio_output@@QEBA_NAEAV__crt_cached_ptd_host@@@Z 000000018005fd20 f i libucrtd:output.obj
 0001:0005ee00       ?validate_and_store_parameter_data@?$positional_parameter_base@DV?$stream_output_adapter@D@__crt_stdio_output@@@__crt_stdio_output@@AEAA_NAEAUparameter_data@12@W4parameter_type@12@DW4length_modifier@2@@Z 000000018005fe00 f i libucrtd:output.obj
 0001:0005ef40       ?validate_and_store_parameter_data@?$positional_parameter_base@DV?$string_output_adapter@D@__crt_stdio_output@@@__crt_stdio_output@@AEAA_NAEAUparameter_data@12@W4parameter_type@12@DW4length_modifier@2@@Z 000000018005ff40 f i libucrtd:output.obj
 0001:0005f080       ?validate_and_store_parameter_data@?$positional_parameter_base@_WV?$stream_output_adapter@_W@__crt_stdio_output@@@__crt_stdio_output@@AEAA_NAEAUparameter_data@12@W4parameter_type@12@_WW4length_modifier@2@@Z 0000000180060080 f i libucrtd:output.obj
 0001:0005f1c0       ?validate_and_store_parameter_data@?$positional_parameter_base@_WV?$string_output_adapter@_W@__crt_stdio_output@@@__crt_stdio_output@@AEAA_NAEAUparameter_data@12@W4parameter_type@12@_WW4length_modifier@2@@Z 00000001800601c0 f i libucrtd:output.obj
 0001:0005f300       ?validate_and_update_state_at_beginning_of_format_character@?$positional_parameter_base@DV?$stream_output_adapter@D@__crt_stdio_output@@@__crt_stdio_output@@IEAA_NXZ 0000000180060300 f i libucrtd:output.obj
 0001:0005f5a0       ?validate_and_update_state_at_beginning_of_format_character@?$positional_parameter_base@DV?$string_output_adapter@D@__crt_stdio_output@@@__crt_stdio_output@@IEAA_NXZ 00000001800605a0 f i libucrtd:output.obj
 0001:0005f840       ?validate_and_update_state_at_beginning_of_format_character@?$positional_parameter_base@_WV?$stream_output_adapter@_W@__crt_stdio_output@@@__crt_stdio_output@@IEAA_NXZ 0000000180060840 f i libucrtd:output.obj
 0001:0005fae0       ?validate_and_update_state_at_beginning_of_format_character@?$positional_parameter_base@_WV?$string_output_adapter@_W@__crt_stdio_output@@@__crt_stdio_output@@IEAA_NXZ 0000000180060ae0 f i libucrtd:output.obj
 0001:0005fd80       ?validate_and_update_state_at_beginning_of_format_character@?$standard_base@DV?$stream_output_adapter@D@__crt_stdio_output@@@__crt_stdio_output@@IEAA_NXZ 0000000180060d80 f i libucrtd:output.obj
 0001:0005fd90       ?validate_and_update_state_at_beginning_of_format_character@?$standard_base@DV?$string_output_adapter@D@__crt_stdio_output@@@__crt_stdio_output@@IEAA_NXZ 0000000180060d90 f i libucrtd:output.obj
 0001:0005fda0       ?validate_and_update_state_at_beginning_of_format_character@?$standard_base@_WV?$stream_output_adapter@_W@__crt_stdio_output@@@__crt_stdio_output@@IEAA_NXZ 0000000180060da0 f i libucrtd:output.obj
 0001:0005fdb0       ?validate_and_update_state_at_beginning_of_format_character@?$standard_base@_WV?$string_output_adapter@_W@__crt_stdio_output@@@__crt_stdio_output@@IEAA_NXZ 0000000180060db0 f i libucrtd:output.obj
 0001:0005fdc0       ?validate_and_update_state_at_end_of_format_string@?$format_validation_base@DV?$stream_output_adapter@D@__crt_stdio_output@@@__crt_stdio_output@@IEAA_NXZ 0000000180060dc0 f i libucrtd:output.obj
 0001:0005feb0       ?validate_and_update_state_at_end_of_format_string@?$format_validation_base@DV?$string_output_adapter@D@__crt_stdio_output@@@__crt_stdio_output@@IEAA_NXZ 0000000180060eb0 f i libucrtd:output.obj
 0001:0005ffa0       ?validate_and_update_state_at_end_of_format_string@?$format_validation_base@_WV?$stream_output_adapter@_W@__crt_stdio_output@@@__crt_stdio_output@@IEAA_NXZ 0000000180060fa0 f i libucrtd:output.obj
 0001:00060090       ?validate_and_update_state_at_end_of_format_string@?$format_validation_base@_WV?$string_output_adapter@_W@__crt_stdio_output@@@__crt_stdio_output@@IEAA_NXZ 0000000180061090 f i libucrtd:output.obj
 0001:00060180       ?validate_and_update_state_at_end_of_format_string@?$positional_parameter_base@DV?$stream_output_adapter@D@__crt_stdio_output@@@__crt_stdio_output@@IEAA_NXZ 0000000180061180 f i libucrtd:output.obj
 0001:000603b0       ?validate_and_update_state_at_end_of_format_string@?$positional_parameter_base@DV?$string_output_adapter@D@__crt_stdio_output@@@__crt_stdio_output@@IEAA_NXZ 00000001800613b0 f i libucrtd:output.obj
 0001:000605e0       ?validate_and_update_state_at_end_of_format_string@?$positional_parameter_base@_WV?$stream_output_adapter@_W@__crt_stdio_output@@@__crt_stdio_output@@IEAA_NXZ 00000001800615e0 f i libucrtd:output.obj
 0001:00060810       ?validate_and_update_state_at_end_of_format_string@?$positional_parameter_base@_WV?$string_output_adapter@_W@__crt_stdio_output@@@__crt_stdio_output@@IEAA_NXZ 0000000180061810 f i libucrtd:output.obj
 0001:00060a40       ?validate_and_update_state_at_end_of_format_string@?$standard_base@DV?$stream_output_adapter@D@__crt_stdio_output@@@__crt_stdio_output@@IEBA_NXZ 0000000180061a40 f i libucrtd:output.obj
 0001:00060a50       ?validate_and_update_state_at_end_of_format_string@?$standard_base@DV?$string_output_adapter@D@__crt_stdio_output@@@__crt_stdio_output@@IEBA_NXZ 0000000180061a50 f i libucrtd:output.obj
 0001:00060a60       ?validate_and_update_state_at_end_of_format_string@?$standard_base@_WV?$stream_output_adapter@_W@__crt_stdio_output@@@__crt_stdio_output@@IEBA_NXZ 0000000180061a60 f i libucrtd:output.obj
 0001:00060a70       ?validate_and_update_state_at_end_of_format_string@?$standard_base@_WV?$string_output_adapter@_W@__crt_stdio_output@@@__crt_stdio_output@@IEBA_NXZ 0000000180061a70 f i libucrtd:output.obj
 0001:00060a80       ?validate_state_for_type_case_a@?$positional_parameter_base@DV?$stream_output_adapter@D@__crt_stdio_output@@@__crt_stdio_output@@IEAA_NXZ 0000000180061a80 f i libucrtd:output.obj
 0001:00060be0       ?validate_state_for_type_case_a@?$positional_parameter_base@DV?$string_output_adapter@D@__crt_stdio_output@@@__crt_stdio_output@@IEAA_NXZ 0000000180061be0 f i libucrtd:output.obj
 0001:00060d40       ?validate_state_for_type_case_a@?$positional_parameter_base@_WV?$stream_output_adapter@_W@__crt_stdio_output@@@__crt_stdio_output@@IEAA_NXZ 0000000180061d40 f i libucrtd:output.obj
 0001:00060ea0       ?validate_state_for_type_case_a@?$positional_parameter_base@_WV?$string_output_adapter@_W@__crt_stdio_output@@@__crt_stdio_output@@IEAA_NXZ 0000000180061ea0 f i libucrtd:output.obj
 0001:00061000       ?validate_state_for_type_case_a@?$standard_base@DV?$stream_output_adapter@D@__crt_stdio_output@@@__crt_stdio_output@@IEBA_NXZ 0000000180062000 f i libucrtd:output.obj
 0001:00061010       ?validate_state_for_type_case_a@?$standard_base@DV?$string_output_adapter@D@__crt_stdio_output@@@__crt_stdio_output@@IEBA_NXZ 0000000180062010 f i libucrtd:output.obj
 0001:00061020       ?validate_state_for_type_case_a@?$standard_base@_WV?$stream_output_adapter@_W@__crt_stdio_output@@@__crt_stdio_output@@IEBA_NXZ 0000000180062020 f i libucrtd:output.obj
 0001:00061030       ?validate_state_for_type_case_a@?$standard_base@_WV?$string_output_adapter@_W@__crt_stdio_output@@@__crt_stdio_output@@IEBA_NXZ 0000000180062030 f i libucrtd:output.obj
 0001:00061040       ?validate_stream_is_ansi_if_required@?$__acrt_stdio_char_traits@D@@SA_NQEAU_iobuf@@@Z 0000000180062040 f i libucrtd:output.obj
 0001:000611e0       ?validate_stream_is_ansi_if_required@?$__acrt_stdio_char_traits@_W@@SA_NQEAU_iobuf@@@Z 00000001800621e0 f i libucrtd:output.obj
 0001:000611f0       ?wide_character_to_digit@__crt_strtox@@YAH_W@Z 00000001800621f0 f i libucrtd:output.obj
 0001:00061560       ?wide_null_string@?$output_processor@DV?$stream_output_adapter@D@__crt_stdio_output@@V?$format_validation_base@DV?$stream_output_adapter@D@__crt_stdio_output@@@2@@__crt_stdio_output@@CAPEA_WXZ 0000000180062560 f i libucrtd:output.obj
 0001:00061570       ?wide_null_string@?$output_processor@DV?$stream_output_adapter@D@__crt_stdio_output@@V?$positional_parameter_base@DV?$stream_output_adapter@D@__crt_stdio_output@@@2@@__crt_stdio_output@@CAPEA_WXZ 0000000180062570 f i libucrtd:output.obj
 0001:00061580       ?wide_null_string@?$output_processor@DV?$stream_output_adapter@D@__crt_stdio_output@@V?$standard_base@DV?$stream_output_adapter@D@__crt_stdio_output@@@2@@__crt_stdio_output@@CAPEA_WXZ 0000000180062580 f i libucrtd:output.obj
 0001:00061590       ?wide_null_string@?$output_processor@DV?$string_output_adapter@D@__crt_stdio_output@@V?$format_validation_base@DV?$string_output_adapter@D@__crt_stdio_output@@@2@@__crt_stdio_output@@CAPEA_WXZ 0000000180062590 f i libucrtd:output.obj
 0001:000615a0       ?wide_null_string@?$output_processor@DV?$string_output_adapter@D@__crt_stdio_output@@V?$positional_parameter_base@DV?$string_output_adapter@D@__crt_stdio_output@@@2@@__crt_stdio_output@@CAPEA_WXZ 00000001800625a0 f i libucrtd:output.obj
 0001:000615b0       ?wide_null_string@?$output_processor@DV?$string_output_adapter@D@__crt_stdio_output@@V?$standard_base@DV?$string_output_adapter@D@__crt_stdio_output@@@2@@__crt_stdio_output@@CAPEA_WXZ 00000001800625b0 f i libucrtd:output.obj
 0001:000615c0       ?wide_null_string@?$output_processor@_WV?$stream_output_adapter@_W@__crt_stdio_output@@V?$format_validation_base@_WV?$stream_output_adapter@_W@__crt_stdio_output@@@2@@__crt_stdio_output@@CAPEA_WXZ 00000001800625c0 f i libucrtd:output.obj
 0001:000615d0       ?wide_null_string@?$output_processor@_WV?$stream_output_adapter@_W@__crt_stdio_output@@V?$positional_parameter_base@_WV?$stream_output_adapter@_W@__crt_stdio_output@@@2@@__crt_stdio_output@@CAPEA_WXZ 00000001800625d0 f i libucrtd:output.obj
 0001:000615e0       ?wide_null_string@?$output_processor@_WV?$stream_output_adapter@_W@__crt_stdio_output@@V?$standard_base@_WV?$stream_output_adapter@_W@__crt_stdio_output@@@2@@__crt_stdio_output@@CAPEA_WXZ 00000001800625e0 f i libucrtd:output.obj
 0001:000615f0       ?wide_null_string@?$output_processor@_WV?$string_output_adapter@_W@__crt_stdio_output@@V?$format_validation_base@_WV?$string_output_adapter@_W@__crt_stdio_output@@@2@@__crt_stdio_output@@CAPEA_WXZ 00000001800625f0 f i libucrtd:output.obj
 0001:00061600       ?wide_null_string@?$output_processor@_WV?$string_output_adapter@_W@__crt_stdio_output@@V?$positional_parameter_base@_WV?$string_output_adapter@_W@__crt_stdio_output@@@2@@__crt_stdio_output@@CAPEA_WXZ 0000000180062600 f i libucrtd:output.obj
 0001:00061610       ?wide_null_string@?$output_processor@_WV?$string_output_adapter@_W@__crt_stdio_output@@V?$standard_base@_WV?$string_output_adapter@_W@__crt_stdio_output@@@2@@__crt_stdio_output@@CAPEA_WXZ 0000000180062610 f i libucrtd:output.obj
 0001:00061620       ?write_character@?$output_adapter_common@DV?$stream_output_adapter@D@__crt_stdio_output@@@__crt_stdio_output@@QEBAXDQEAHAEAV__crt_cached_ptd_host@@@Z 0000000180062620 f i libucrtd:output.obj
 0001:00061680       ?write_character@?$output_adapter_common@_WV?$stream_output_adapter@_W@__crt_stdio_output@@@__crt_stdio_output@@QEBAX_WQEAHAEAV__crt_cached_ptd_host@@@Z 0000000180062680 f i libucrtd:output.obj
 0001:000616e0       ?write_character@?$string_output_adapter@D@__crt_stdio_output@@QEBA_NDQEAHAEAV__crt_cached_ptd_host@@@Z 00000001800626e0 f i libucrtd:output.obj
 0001:000617b0       ?write_character@?$string_output_adapter@_W@__crt_stdio_output@@QEBA_N_WQEAHAEAV__crt_cached_ptd_host@@@Z 00000001800627b0 f i libucrtd:output.obj
 0001:00061880       ?write_character_without_count_update@?$stream_output_adapter@D@__crt_stdio_output@@QEBA_NDAEAV__crt_cached_ptd_host@@@Z 0000000180062880 f i libucrtd:output.obj
 0001:00061910       ?write_character_without_count_update@?$stream_output_adapter@_W@__crt_stdio_output@@QEBA_N_WAEAV__crt_cached_ptd_host@@@Z 0000000180062910 f i libucrtd:output.obj
 0001:000619a0       ?write_stored_string_tchar@?$output_processor@DV?$stream_output_adapter@D@__crt_stdio_output@@V?$format_validation_base@DV?$stream_output_adapter@D@__crt_stdio_output@@@2@@__crt_stdio_output@@AEAA_ND@Z 00000001800629a0 f i libucrtd:output.obj
 0001:00061c90       ?write_stored_string_tchar@?$output_processor@DV?$stream_output_adapter@D@__crt_stdio_output@@V?$positional_parameter_base@DV?$stream_output_adapter@D@__crt_stdio_output@@@2@@__crt_stdio_output@@AEAA_ND@Z 0000000180062c90 f i libucrtd:output.obj
 0001:00061f80       ?write_stored_string_tchar@?$output_processor@DV?$stream_output_adapter@D@__crt_stdio_output@@V?$standard_base@DV?$stream_output_adapter@D@__crt_stdio_output@@@2@@__crt_stdio_output@@AEAA_ND@Z 0000000180062f80 f i libucrtd:output.obj
 0001:00062270       ?write_stored_string_tchar@?$output_processor@DV?$string_output_adapter@D@__crt_stdio_output@@V?$format_validation_base@DV?$string_output_adapter@D@__crt_stdio_output@@@2@@__crt_stdio_output@@AEAA_ND@Z 0000000180063270 f i libucrtd:output.obj
 0001:00062560       ?write_stored_string_tchar@?$output_processor@DV?$string_output_adapter@D@__crt_stdio_output@@V?$positional_parameter_base@DV?$string_output_adapter@D@__crt_stdio_output@@@2@@__crt_stdio_output@@AEAA_ND@Z 0000000180063560 f i libucrtd:output.obj
 0001:00062850       ?write_stored_string_tchar@?$output_processor@DV?$string_output_adapter@D@__crt_stdio_output@@V?$standard_base@DV?$string_output_adapter@D@__crt_stdio_output@@@2@@__crt_stdio_output@@AEAA_ND@Z 0000000180063850 f i libucrtd:output.obj
 0001:00062b40       ?write_stored_string_tchar@?$output_processor@_WV?$stream_output_adapter@_W@__crt_stdio_output@@V?$format_validation_base@_WV?$stream_output_adapter@_W@__crt_stdio_output@@@2@@__crt_stdio_output@@AEAA_N_W@Z 0000000180063b40 f i libucrtd:output.obj
 0001:00062e60       ?write_stored_string_tchar@?$output_processor@_WV?$stream_output_adapter@_W@__crt_stdio_output@@V?$positional_parameter_base@_WV?$stream_output_adapter@_W@__crt_stdio_output@@@2@@__crt_stdio_output@@AEAA_N_W@Z 0000000180063e60 f i libucrtd:output.obj
 0001:00063180       ?write_stored_string_tchar@?$output_processor@_WV?$stream_output_adapter@_W@__crt_stdio_output@@V?$standard_base@_WV?$stream_output_adapter@_W@__crt_stdio_output@@@2@@__crt_stdio_output@@AEAA_N_W@Z 0000000180064180 f i libucrtd:output.obj
 0001:000634a0       ?write_stored_string_tchar@?$output_processor@_WV?$string_output_adapter@_W@__crt_stdio_output@@V?$format_validation_base@_WV?$string_output_adapter@_W@__crt_stdio_output@@@2@@__crt_stdio_output@@AEAA_N_W@Z 00000001800644a0 f i libucrtd:output.obj
 0001:000637c0       ?write_stored_string_tchar@?$output_processor@_WV?$string_output_adapter@_W@__crt_stdio_output@@V?$positional_parameter_base@_WV?$string_output_adapter@_W@__crt_stdio_output@@@2@@__crt_stdio_output@@AEAA_N_W@Z 00000001800647c0 f i libucrtd:output.obj
 0001:00063ae0       ?write_stored_string_tchar@?$output_processor@_WV?$string_output_adapter@_W@__crt_stdio_output@@V?$standard_base@_WV?$string_output_adapter@_W@__crt_stdio_output@@@2@@__crt_stdio_output@@AEAA_N_W@Z 0000000180064ae0 f i libucrtd:output.obj
 0001:00063e00       ?write_string@?$stream_output_adapter@D@__crt_stdio_output@@QEBAXQEBDHQEAHAEAV__crt_cached_ptd_host@@@Z 0000000180064e00 f i libucrtd:output.obj
 0001:00063e80       ?write_string@?$stream_output_adapter@_W@__crt_stdio_output@@QEBAXQEB_WHQEAHAEAV__crt_cached_ptd_host@@@Z 0000000180064e80 f i libucrtd:output.obj
 0001:00063f00       ?write_string@?$string_output_adapter@D@__crt_stdio_output@@QEBAXQEBDHQEAHAEAV__crt_cached_ptd_host@@@Z 0000000180064f00 f i libucrtd:output.obj
 0001:00064070       ?write_string@?$string_output_adapter@_W@__crt_stdio_output@@QEBAXQEB_WHQEAHAEAV__crt_cached_ptd_host@@@Z 0000000180065070 f i libucrtd:output.obj
 0001:000641e0       ?write_string_impl@?$output_adapter_common@DV?$stream_output_adapter@D@__crt_stdio_output@@@__crt_stdio_output@@IEBAXQEBDHQEAHAEAV__crt_cached_ptd_host@@@Z 00000001800651e0 f i libucrtd:output.obj
 0001:00064300       ?write_string_impl@?$output_adapter_common@_WV?$stream_output_adapter@_W@__crt_stdio_output@@@__crt_stdio_output@@IEBAXQEB_WHQEAHAEAV__crt_cached_ptd_host@@@Z 0000000180065300 f i libucrtd:output.obj
 0001:00064420       __acrt_disable_global_locale_sync 0000000180065420 f i libucrtd:output.obj
 0001:00064450       __acrt_enable_global_locale_sync 0000000180065450 f i libucrtd:output.obj
 0001:00064480       __acrt_isleadbyte_l_noupdate 0000000180065480 f i libucrtd:output.obj
 0001:000644b0       __acrt_locale_changed      00000001800654b0 f i libucrtd:output.obj
 0001:000644e0       __acrt_locale_get_ctype_array_value 00000001800654e0 f i libucrtd:output.obj
 0001:00064520       __ascii_iswalpha           0000000180065520 f i libucrtd:output.obj
 0001:00064560       __ascii_toupper            0000000180065560 f i libucrtd:output.obj
 0001:00064580       __ascii_towupper           0000000180065580 f i libucrtd:output.obj
 0001:000645a0       __stdio_common_vfprintf    00000001800655a0 f   libucrtd:output.obj
 0001:00064620       __stdio_common_vfprintf_p  0000000180065620 f   libucrtd:output.obj
 0001:000646a0       __stdio_common_vfprintf_s  00000001800656a0 f   libucrtd:output.obj
 0001:00064720       __stdio_common_vfwprintf   0000000180065720 f   libucrtd:output.obj
 0001:000647a0       __stdio_common_vfwprintf_p 00000001800657a0 f   libucrtd:output.obj
 0001:00064820       __stdio_common_vfwprintf_s 0000000180065820 f   libucrtd:output.obj
 0001:000648a0       __stdio_common_vsnprintf_s 00000001800658a0 f   libucrtd:output.obj
 0001:00064930       __stdio_common_vsnwprintf_s 0000000180065930 f   libucrtd:output.obj
 0001:000649c0       __stdio_common_vsprintf    00000001800659c0 f   libucrtd:output.obj
 0001:00064a50       __stdio_common_vsprintf_p  0000000180065a50 f   libucrtd:output.obj
 0001:00064ae0       __stdio_common_vsprintf_s  0000000180065ae0 f   libucrtd:output.obj
 0001:00064b70       __stdio_common_vswprintf   0000000180065b70 f   libucrtd:output.obj
 0001:00064c00       __stdio_common_vswprintf_p 0000000180065c00 f   libucrtd:output.obj
 0001:00064c90       __stdio_common_vswprintf_s 0000000180065c90 f   libucrtd:output.obj
 0001:00064d20       _ctype_fast_check_internal 0000000180065d20 f i libucrtd:output.obj
 0001:00064d50       _isdigit_fast_internal     0000000180065d50 f i libucrtd:output.obj
 0001:00064d80       _tolower_fast_internal     0000000180065d80 f i libucrtd:output.obj
 0001:00066f20       ??$ftprintf@PEAU_iobuf@@PEBDAEBQEBDAEBQEBDAEBI@?$__crt_char_traits@D@@SAH$$QEAPEAU_iobuf@@$$QEAPEBDAEBQEBD2AEBI@Z 0000000180067f20 f i libucrtd:assert.obj
 0001:00066f70       ??$ftprintf@PEAU_iobuf@@PEB_WAEBQEB_WAEBQEB_WAEBI@?$__crt_char_traits@_W@@SAH$$QEAPEAU_iobuf@@$$QEAPEB_WAEBQEB_W2AEBI@Z 0000000180067f70 f i libucrtd:assert.obj
 0001:00066fc0       ??$get_module_file_name@AEAPEAUHINSTANCE__@@AEAY0BAF@DK@?$__crt_char_traits@D@@SAKAEAPEAUHINSTANCE__@@AEAY0BAF@D$$QEAK@Z 0000000180067fc0 f i libucrtd:assert.obj
 0001:00067000       ??$get_module_file_name@AEAPEAUHINSTANCE__@@AEAY0BAF@_WK@?$__crt_char_traits@_W@@SAKAEAPEAUHINSTANCE__@@AEAY0BAF@_W$$QEAK@Z 0000000180068000 f i libucrtd:assert.obj
 0001:00067040       ??$itot_s@AEBIPEAD_KH@?$__crt_char_traits@D@@SAHAEBI$$QEAPEAD$$QEA_K$$QEAH@Z 0000000180068040 f i libucrtd:assert.obj
 0001:00067090       ??$itot_s@AEBIPEA_W_KH@?$__crt_char_traits@_W@@SAHAEBI$$QEAPEA_W$$QEA_K$$QEAH@Z 0000000180068090 f i libucrtd:assert.obj
 0001:000670e0       ??$show_message_box@AEAY0CEA@DPEBDJ@?$__crt_char_traits@D@@SAHAEAY0CEA@D$$QEAPEBD$$QEAJ@Z 00000001800680e0 f i libucrtd:assert.obj
 0001:00067120       ??$show_message_box@AEAY0CEA@_WPEB_WJ@?$__crt_char_traits@_W@@SAHAEAY0CEA@_W$$QEAPEB_W$$QEAJ@Z 0000000180068120 f i libucrtd:assert.obj
 0001:00067160       ??$tcscat_s@AEBQEADAEB_KAEAPEAD@?$__crt_char_traits@D@@SAHAEBQEADAEB_KAEAPEAD@Z 0000000180068160 f i libucrtd:assert.obj
 0001:000671a0       ??$tcscat_s@AEBQEADAEB_KAEBQEBD@?$__crt_char_traits@D@@SAHAEBQEADAEB_KAEBQEBD@Z 00000001800681a0 f i libucrtd:assert.obj
 0001:000671e0       ??$tcscat_s@AEBQEADAEB_KPEBD@?$__crt_char_traits@D@@SAHAEBQEADAEB_K$$QEAPEBD@Z 00000001800681e0 f i libucrtd:assert.obj
 0001:00067220       ??$tcscat_s@AEBQEA_WAEB_KAEAPEA_W@?$__crt_char_traits@_W@@SAHAEBQEA_WAEB_KAEAPEA_W@Z 0000000180068220 f i libucrtd:assert.obj
 0001:00067260       ??$tcscat_s@AEBQEA_WAEB_KAEBQEB_W@?$__crt_char_traits@_W@@SAHAEBQEA_WAEB_KAEBQEB_W@Z 0000000180068260 f i libucrtd:assert.obj
 0001:000672a0       ??$tcscat_s@AEBQEA_WAEB_KPEB_W@?$__crt_char_traits@_W@@SAHAEBQEA_WAEB_K$$QEAPEB_W@Z 00000001800682a0 f i libucrtd:assert.obj
 0001:000672e0       ??$tcscpy_s@AEAY0BAF@D_KPEBD@?$__crt_char_traits@D@@SAHAEAY0BAF@D$$QEA_K$$QEAPEBD@Z 00000001800682e0 f i libucrtd:assert.obj
 0001:00067320       ??$tcscpy_s@AEAY0BAF@_W_KPEB_W@?$__crt_char_traits@_W@@SAHAEAY0BAF@_W$$QEA_K$$QEAPEB_W@Z 0000000180068320 f i libucrtd:assert.obj
 0001:00067360       ??$tcscpy_s@AEBQEADAEB_KPEBD@?$__crt_char_traits@D@@SAHAEBQEADAEB_K$$QEAPEBD@Z 0000000180068360 f i libucrtd:assert.obj
 0001:000673a0       ??$tcscpy_s@AEBQEA_WAEB_KPEB_W@?$__crt_char_traits@_W@@SAHAEBQEA_WAEB_K$$QEAPEB_W@Z 00000001800683a0 f i libucrtd:assert.obj
 0001:000673e0       ??$tcslen@AEAY0BAF@D@?$__crt_char_traits@D@@SA_KAEAY0BAF@D@Z 00000001800683e0 f i libucrtd:assert.obj
 0001:00067400       ??$tcslen@AEAY0BAF@_W@?$__crt_char_traits@_W@@SA_KAEAY0BAF@_W@Z 0000000180068400 f i libucrtd:assert.obj
 0001:00067420       ??$tcslen@AEBQEAD@?$__crt_char_traits@D@@SA_KAEBQEAD@Z 0000000180068420 f i libucrtd:assert.obj
 0001:00067440       ??$tcslen@AEBQEA_W@?$__crt_char_traits@_W@@SA_KAEBQEA_W@Z 0000000180068440 f i libucrtd:assert.obj
 0001:00067460       ??$tcslen@AEBQEBD@?$__crt_char_traits@D@@SA_KAEBQEBD@Z 0000000180068460 f i libucrtd:assert.obj
 0001:00067480       ??$tcslen@AEBQEB_W@?$__crt_char_traits@_W@@SA_KAEBQEB_W@Z 0000000180068480 f i libucrtd:assert.obj
 0001:000674a0       ??$tcsncat_s@AEBQEADAEB_KAEAPEBD_K@?$__crt_char_traits@D@@SAHAEBQEADAEB_KAEAPEBD$$QEA_K@Z 00000001800684a0 f i libucrtd:assert.obj
 0001:000674f0       ??$tcsncat_s@AEBQEADAEB_KAEBQEBDAEB_K@?$__crt_char_traits@D@@SAHAEBQEADAEB_KAEBQEBD1@Z 00000001800684f0 f i libucrtd:assert.obj
 0001:00067540       ??$tcsncat_s@AEBQEADAEB_KPEBD_K@?$__crt_char_traits@D@@SAHAEBQEADAEB_K$$QEAPEBD$$QEA_K@Z 0000000180068540 f i libucrtd:assert.obj
 0001:00067590       ??$tcsncat_s@AEBQEA_WAEB_KAEAPEB_W_K@?$__crt_char_traits@_W@@SAHAEBQEA_WAEB_KAEAPEB_W$$QEA_K@Z 0000000180068590 f i libucrtd:assert.obj
 0001:000675e0       ??$tcsncat_s@AEBQEA_WAEB_KAEBQEB_WAEB_K@?$__crt_char_traits@_W@@SAHAEBQEA_WAEB_KAEBQEB_W1@Z 00000001800685e0 f i libucrtd:assert.obj
 0001:00067630       ??$tcsncat_s@AEBQEA_WAEB_KPEB_W_K@?$__crt_char_traits@_W@@SAHAEBQEA_WAEB_K$$QEAPEB_W$$QEA_K@Z 0000000180068630 f i libucrtd:assert.obj
 0001:00067930       ?has_any_buffer@__crt_stdio_stream@@QEBA_NXZ 0000000180068930 f i libucrtd:assert.obj
 0001:00067950       ?has_any_of@__crt_stdio_stream@@QEBA_NJ@Z 0000000180068950 f i libucrtd:assert.obj
 0001:00067990       _assert                    0000000180068990 f   libucrtd:assert.obj
 0001:000679d0       _invoke_watson_if_error    00000001800689d0 f i libucrtd:assert.obj
 0001:00067a20       _vfprintf_l                0000000180068a20 f i libucrtd:assert.obj
 0001:00067a70       _vfwprintf_l               0000000180068a70 f i libucrtd:assert.obj
 0001:00067ac0       _vswprintf_c_l             0000000180068ac0 f i libucrtd:assert.obj
 0001:00067b30       _wassert                   0000000180068b30 f   libucrtd:assert.obj
 0001:00067b70       fprintf                    0000000180068b70 f i libucrtd:assert.obj
 0001:00067bd0       fwprintf                   0000000180068bd0 f i libucrtd:assert.obj
 0001:00067d70       swprintf                   0000000180068d70 f i libucrtd:assert.obj
 0001:00067e20       _get_terminate             0000000180068e20 f   libucrtd:terminate.obj
 0001:00067e40       set_terminate              0000000180068e40 f   libucrtd:terminate.obj
 0001:00067e80       terminate                  0000000180068e80 f   libucrtd:terminate.obj
 0001:00067ec0       ??$?RU?$__crt_report_hook_node@D@@@__crt_internal_free_policy@@QEBAXQEBU?$__crt_report_hook_node@D@@@Z 0000000180068ec0 f i libucrtd:dbgrpt.obj
 0001:00067ef0       ??$?RU?$__crt_report_hook_node@_W@@@__crt_internal_free_policy@@QEBAXQEBU?$__crt_report_hook_node@_W@@@Z 0000000180068ef0 f i libucrtd:dbgrpt.obj
 0001:00069250       ??0?$__crt_unique_heap_ptr@U?$__crt_report_hook_node@D@@U__crt_internal_free_policy@@@@QEAA@QEAU?$__crt_report_hook_node@D@@@Z 000000018006a250 f i libucrtd:dbgrpt.obj
 0001:00069270       ??0?$__crt_unique_heap_ptr@U?$__crt_report_hook_node@_W@@U__crt_internal_free_policy@@@@QEAA@QEAU?$__crt_report_hook_node@_W@@@Z 000000018006a270 f i libucrtd:dbgrpt.obj
 0001:00069290       ??1?$__crt_unique_heap_ptr@U?$__crt_report_hook_node@D@@U__crt_internal_free_policy@@@@QEAA@XZ 000000018006a290 f i libucrtd:dbgrpt.obj
 0001:000692b0       ??1?$__crt_unique_heap_ptr@U?$__crt_report_hook_node@_W@@U__crt_internal_free_policy@@@@QEAA@XZ 000000018006a2b0 f i libucrtd:dbgrpt.obj
 0001:000692d0       ??B?$__crt_unique_heap_ptr@U?$__crt_report_hook_node@D@@U__crt_internal_free_policy@@@@QEBA_NXZ 000000018006a2d0 f i libucrtd:dbgrpt.obj
 0001:000692f0       ??B?$__crt_unique_heap_ptr@U?$__crt_report_hook_node@_W@@U__crt_internal_free_policy@@@@QEBA_NXZ 000000018006a2f0 f i libucrtd:dbgrpt.obj
 0001:00069a10       ?detach@?$__crt_unique_heap_ptr@U?$__crt_report_hook_node@D@@U__crt_internal_free_policy@@@@QEAAPEAU?$__crt_report_hook_node@D@@XZ 000000018006aa10 f i libucrtd:dbgrpt.obj
 0001:00069a40       ?detach@?$__crt_unique_heap_ptr@U?$__crt_report_hook_node@_W@@U__crt_internal_free_policy@@@@QEAAPEAU?$__crt_report_hook_node@_W@@XZ 000000018006aa40 f i libucrtd:dbgrpt.obj
 0001:00069a70       ?get@?$__crt_unique_heap_ptr@U?$__crt_report_hook_node@D@@U__crt_internal_free_policy@@@@QEBAPEAU?$__crt_report_hook_node@D@@XZ 000000018006aa70 f i libucrtd:dbgrpt.obj
 0001:00069a80       ?get@?$__crt_unique_heap_ptr@U?$__crt_report_hook_node@_W@@U__crt_internal_free_policy@@@@QEBAPEAU?$__crt_report_hook_node@_W@@XZ 000000018006aa80 f i libucrtd:dbgrpt.obj
 0001:00069af0       ?is_valid@?$__crt_unique_heap_ptr@U?$__crt_report_hook_node@D@@U__crt_internal_free_policy@@@@QEBA_NXZ 000000018006aaf0 f i libucrtd:dbgrpt.obj
 0001:00069b20       ?is_valid@?$__crt_unique_heap_ptr@U?$__crt_report_hook_node@_W@@U__crt_internal_free_policy@@@@QEBA_NXZ 000000018006ab20 f i libucrtd:dbgrpt.obj
 0001:00069b50       ?release@?$__crt_unique_heap_ptr@U?$__crt_report_hook_node@D@@U__crt_internal_free_policy@@@@QEAAXXZ 000000018006ab50 f i libucrtd:dbgrpt.obj
 0001:00069b80       ?release@?$__crt_unique_heap_ptr@U?$__crt_report_hook_node@_W@@U__crt_internal_free_policy@@@@QEAAXXZ 000000018006ab80 f i libucrtd:dbgrpt.obj
 0001:00069bb0       _CrtDbgReport              000000018006abb0 f   libucrtd:dbgrpt.obj
 0001:00069c30       _CrtDbgReportW             000000018006ac30 f   libucrtd:dbgrpt.obj
 0001:00069cb0       _CrtSetReportHook2         000000018006acb0 f   libucrtd:dbgrpt.obj
 0001:00069cd0       _CrtSetReportHookW2        000000018006acd0 f   libucrtd:dbgrpt.obj
 0001:00069cf0       __acrt_MessageWindowA      000000018006acf0 f   libucrtd:dbgrpt.obj
 0001:00069d40       __acrt_MessageWindowW      000000018006ad40 f   libucrtd:dbgrpt.obj
 0001:00069d90       _invoke_watson_if_oneof    000000018006ad90 f i libucrtd:dbgrpt.obj
 0001:00069df0       _snwprintf_s               000000018006adf0 f i libucrtd:dbgrpt.obj
 0001:00069e70       _vsnwprintf_s_l            000000018006ae70 f i libucrtd:dbgrpt.obj
 0001:00069ef0       _callnewh                  000000018006aef0 f   libucrtd:new_handler.obj
 0001:00069f50       __acrt_initialize_new_handler 000000018006af50 f   libucrtd:new_handler.obj
 0001:00069f80       _query_new_handler         000000018006af80 f   libucrtd:new_handler.obj
 0001:00069fd0       _set_new_handler           000000018006afd0 f   libucrtd:new_handler.obj
 0001:0006a040       ?_set_new_handler@@YAP6AH_K@ZH@Z 000000018006b040 f   libucrtd:new_handler.obj
 0001:0006a0b0       ??$?B$$A6AH_K@Z@__crt_fast_encoded_nullptr_t@@QEBAP6AH_K@ZXZ 000000018006b0b0 f i libucrtd:new_handler.obj
 0001:0006a0d0       ??$__crt_fast_decode_pointer@P6AH_K@Z@@YAP6AH_K@ZQ6AH0@Z@Z 000000018006b0d0 f i libucrtd:new_handler.obj
 0001:0006a110       ??$__crt_fast_encode_pointer@P6AH_K@Z@@YAP6AH_K@ZQ6AH0@Z@Z 000000018006b110 f i libucrtd:new_handler.obj
 0001:0006a150       ?__crt_fast_encode_pointer@@YA?AU__crt_fast_encoded_nullptr_t@@$$T@Z 000000018006b150 f i libucrtd:new_handler.obj
 0001:0006a170       ?__crt_rotate_pointer_value@@YA_K_KH@Z 000000018006b170 f i libucrtd:new_handler.obj
 0001:0006a190       ?get_current_state_index@__crt_state_management@@YA_KXZ 000000018006b190 f i libucrtd:new_handler.obj
 0001:0006a1a0       ?initialize@?$dual_state_global@P6AH_K@Z@__crt_state_management@@QEAAXQ6AH_K@Z@Z 000000018006b1a0 f i libucrtd:new_handler.obj
 0001:0006a1f0       ?value@?$dual_state_global@P6AH_K@Z@__crt_state_management@@QEAAAEAP6AH_K@ZXZ 000000018006b1f0 f i libucrtd:new_handler.obj
 0001:0006a210       malloc                     000000018006b210 f   libucrtd:malloc.obj
 0001:0006a240       _initterm                  000000018006b240 f   libucrtd:initterm.obj
 0001:0006a2a0       _initterm_e                000000018006b2a0 f   libucrtd:initterm.obj
 0001:0006a320       __p__crtDbgFlag            000000018006b320 f   libucrtd:debug_heap.obj
 0001:0006a330       __p__crtBreakAlloc         000000018006b330 f   libucrtd:debug_heap.obj
 0001:0006a340       _CrtGetAllocHook           000000018006b340 f   libucrtd:debug_heap.obj
 0001:0006a350       _CrtSetAllocHook           000000018006b350 f   libucrtd:debug_heap.obj
 0001:0006a380       _CrtGetDumpClient          000000018006b380 f   libucrtd:debug_heap.obj
 0001:0006a390       _CrtSetDumpClient          000000018006b390 f   libucrtd:debug_heap.obj
 0001:0006a3c0       _CrtCheckMemory            000000018006b3c0 f   libucrtd:debug_heap.obj
 0001:0006a560       _CrtDoForAllClientObjects  000000018006b560 f   libucrtd:debug_heap.obj
 0001:0006a6b0       _CrtDumpMemoryLeaks        000000018006b6b0 f   libucrtd:debug_heap.obj
 0001:0006a790       _CrtIsMemoryBlock          000000018006b790 f   libucrtd:debug_heap.obj
 0001:0006a8d0       _CrtIsValidHeapPointer     000000018006b8d0 f   libucrtd:debug_heap.obj
 0001:0006a920       _CrtIsValidPointer         000000018006b920 f   libucrtd:debug_heap.obj
 0001:0006a960       _CrtMemCheckpoint          000000018006b960 f   libucrtd:debug_heap.obj
 0001:0006abf0       _CrtMemDifference          000000018006bbf0 f   libucrtd:debug_heap.obj
 0001:0006af50       _CrtMemDumpAllObjectsSince 000000018006bf50 f   libucrtd:debug_heap.obj
 0001:0006afb0       _CrtMemDumpStatistics      000000018006bfb0 f   libucrtd:debug_heap.obj
 0001:0006b150       _CrtReportBlockType        000000018006c150 f   libucrtd:debug_heap.obj
 0001:0006b190       _CrtSetBreakAlloc          000000018006c190 f   libucrtd:debug_heap.obj
 0001:0006b1c0       _CrtSetDbgFlag             000000018006c1c0 f   libucrtd:debug_heap.obj
 0001:0006b320       _aligned_free_dbg          000000018006c320 f   libucrtd:debug_heap.obj
 0001:0006b410       _aligned_malloc_dbg        000000018006c410 f   libucrtd:debug_heap.obj
 0001:0006b460       _aligned_msize_dbg         000000018006c460 f   libucrtd:debug_heap.obj
 0001:0006b630       _aligned_offset_malloc_dbg 000000018006c630 f   libucrtd:debug_heap.obj
 0001:0006b920       _aligned_offset_realloc_dbg 000000018006c920 f   libucrtd:debug_heap.obj
 0001:0006be20       _aligned_offset_recalloc_dbg 000000018006ce20 f   libucrtd:debug_heap.obj
 0001:0006bf40       _aligned_realloc_dbg       000000018006cf40 f   libucrtd:debug_heap.obj
 0001:0006bf90       _aligned_recalloc_dbg      000000018006cf90 f   libucrtd:debug_heap.obj
 0001:0006bff0       _calloc_dbg                000000018006cff0 f   libucrtd:debug_heap.obj
 0001:0006c090       _expand_dbg                000000018006d090 f   libucrtd:debug_heap.obj
 0001:0006c1d0       _free_dbg                  000000018006d1d0 f   libucrtd:debug_heap.obj
 0001:0006c240       _malloc_dbg                000000018006d240 f   libucrtd:debug_heap.obj
 0001:0006c280       _msize_dbg                 000000018006d280 f   libucrtd:debug_heap.obj
 0001:0006c420       _realloc_dbg               000000018006d420 f   libucrtd:debug_heap.obj
 0001:0006c4a0       _recalloc_dbg              000000018006d4a0 f   libucrtd:debug_heap.obj
 0001:0006dd80       _CrtSetDbgBlockType        000000018006ed80 f   libucrtd:debug_heap.obj
 0001:0006ea40       ??0_LocaleUpdate@@QEAA@QEAU__crt_locale_pointers@@@Z 000000018006fa40 f i libucrtd:debug_heap.obj
 0001:0006eb60       ??1_LocaleUpdate@@QEAA@XZ  000000018006fb60 f i libucrtd:debug_heap.obj
 0001:0006eb90       ?GetLocaleT@_LocaleUpdate@@QEAAPEAU__crt_locale_pointers@@XZ 000000018006fb90 f i libucrtd:debug_heap.obj
 0001:0006eba0       __acrt_get_locale_data_prefix 000000018006fba0 f i libucrtd:debug_heap.obj
 0001:0006ebc0       _chvalidchk_l              000000018006fbc0 f i libucrtd:debug_heap.obj
 0001:0006ebf0       _ischartype_l              000000018006fbf0 f i libucrtd:debug_heap.obj
 0001:0006f160       strcpy_s                   0000000180070160 f   libucrtd:strcpy_s.obj
 0001:0006f800       strcat_s                   0000000180070800 f   libucrtd:strcat_s.obj
 0001:0006f8a0       _seh_filter_dll            00000001800708a0 f   libucrtd:exception_filter.obj
 0001:0006f8d0       _seh_filter_exe            00000001800708d0 f   libucrtd:exception_filter.obj
 0001:0006fb90       ??$?B$$A6AXPEAXK0@Z@__crt_fast_encoded_nullptr_t@@QEBAP6AXPEAXK0@ZXZ 0000000180070b90 f i libucrtd:exit.obj
 0001:0006fc50       ??$__crt_fast_decode_pointer@P6AXPEAXK0@Z@@YAP6AXPEAXK0@ZQ6AX0K0@Z@Z 0000000180070c50 f i libucrtd:exit.obj
 0001:0006fc90       ??$__crt_fast_encode_pointer@P6AXPEAXK0@Z@@YAP6AXPEAXK0@ZQ6AX0K0@Z@Z 0000000180070c90 f i libucrtd:exit.obj
 0001:0006fcd0       ??$__crt_get_proc_address@P6AXI@Z@@YAP6AXI@ZQEAUHINSTANCE__@@QEBD@Z 0000000180070cd0 f i libucrtd:exit.obj
 0001:0006fd90       ??0?$__crt_unique_handle_t@U__crt_hmodule_traits@@@@QEAA@QEAUHINSTANCE__@@@Z 0000000180070d90 f i libucrtd:exit.obj
 0001:0006fdb0       ??1?$__crt_unique_handle_t@U__crt_hmodule_traits@@@@QEAA@XZ 0000000180070db0 f i libucrtd:exit.obj
 0001:0006ff20       ?__acrt_select_exit_lock@@YA?AW4__acrt_lock_id@@XZ 0000000180070f20 f i libucrtd:exit.obj
 0001:0006ff50       ?close@?$__crt_unique_handle_t@U__crt_hmodule_traits@@@@QEAAXXZ 0000000180070f50 f i libucrtd:exit.obj
 0001:0006ff90       ?close@__crt_hmodule_traits@@SA_NPEAUHINSTANCE__@@@Z 0000000180070f90 f i libucrtd:exit.obj
 0001:000700d0       ?get@?$__crt_unique_handle_t@U__crt_hmodule_traits@@@@QEBAPEAUHINSTANCE__@@XZ 00000001800710d0 f i libucrtd:exit.obj
 0001:000700e0       ?get_address_of@?$__crt_unique_handle_t@U__crt_hmodule_traits@@@@QEAAPEAPEAUHINSTANCE__@@XZ 00000001800710e0 f i libucrtd:exit.obj
 0001:000700f0       ?get_invalid_value@__crt_hmodule_traits@@SAPEAUHINSTANCE__@@XZ 00000001800710f0 f i libucrtd:exit.obj
 0001:000702a0       _Exit                      00000001800712a0 f   libucrtd:exit.obj
 0001:000702c0       __acrt_initialize_thread_local_exit_callback 00000001800712c0 f   libucrtd:exit.obj
 0001:000702e0       _c_exit                    00000001800712e0 f   libucrtd:exit.obj
 0001:00070300       _cexit                     0000000180071300 f   libucrtd:exit.obj
 0001:00070320       _exit                      0000000180071320 f   libucrtd:exit.obj
 0001:00070340       _is_c_termination_complete 0000000180071340 f   libucrtd:exit.obj
 0001:00070360       _register_thread_local_exe_atexit_callback 0000000180071360 f   libucrtd:exit.obj
 0001:000703b0       exit                       00000001800713b0 f   libucrtd:exit.obj
 0001:000703d0       quick_exit                 00000001800713d0 f   libucrtd:exit.obj
 0001:000703f0       ??$?RE@__crt_internal_free_policy@@QEBAXQEBE@Z 00000001800713f0 f i libucrtd:argv_parsing.obj
 0001:00070420       ??$?RPEAD@__crt_internal_free_policy@@QEBAXQEBQEAD@Z 0000000180071420 f i libucrtd:argv_parsing.obj
 0001:00070450       ??$?RPEA_W@__crt_internal_free_policy@@QEBAXQEBQEA_W@Z 0000000180071450 f i libucrtd:argv_parsing.obj
 0001:00070ba0       ??$get_module_file_name@$$TAEAY0BAF@DH@?$__crt_char_traits@D@@SAK$$QEA$$TAEAY0BAF@D$$QEAH@Z 0000000180071ba0 f i libucrtd:argv_parsing.obj
 0001:00070be0       ??$get_module_file_name@$$TAEAY0BAF@_WH@?$__crt_char_traits@_W@@SAK$$QEA$$TAEAY0BAF@_W$$QEAH@Z 0000000180071be0 f i libucrtd:argv_parsing.obj
 0001:00071600       ??$set_program_name@PEAD@?$__crt_char_traits@D@@SAX$$QEAPEAD@Z 0000000180072600 f i libucrtd:argv_parsing.obj
 0001:00071620       ??$set_program_name@PEA_W@?$__crt_char_traits@_W@@SAX$$QEAPEA_W@Z 0000000180072620 f i libucrtd:argv_parsing.obj
 0001:00071680       ??0?$__crt_unique_heap_ptr@EU__crt_internal_free_policy@@@@QEAA@QEAE@Z 0000000180072680 f i libucrtd:argv_parsing.obj
 0001:000716a0       ??0?$__crt_unique_heap_ptr@PEADU__crt_internal_free_policy@@@@QEAA@QEAPEAD@Z 00000001800726a0 f i libucrtd:argv_parsing.obj
 0001:000716c0       ??0?$__crt_unique_heap_ptr@PEA_WU__crt_internal_free_policy@@@@QEAA@QEAPEA_W@Z 00000001800726c0 f i libucrtd:argv_parsing.obj
 0001:000716e0       ??1?$__crt_unique_heap_ptr@EU__crt_internal_free_policy@@@@QEAA@XZ 00000001800726e0 f i libucrtd:argv_parsing.obj
 0001:00071700       ??1?$__crt_unique_heap_ptr@PEADU__crt_internal_free_policy@@@@QEAA@XZ 0000000180072700 f i libucrtd:argv_parsing.obj
 0001:00071720       ??1?$__crt_unique_heap_ptr@PEA_WU__crt_internal_free_policy@@@@QEAA@XZ 0000000180072720 f i libucrtd:argv_parsing.obj
 0001:00071740       ??B?$__crt_unique_heap_ptr@EU__crt_internal_free_policy@@@@QEBA_NXZ 0000000180072740 f i libucrtd:argv_parsing.obj
 0001:00071820       ?detach@?$__crt_unique_heap_ptr@EU__crt_internal_free_policy@@@@QEAAPEAEXZ 0000000180072820 f i libucrtd:argv_parsing.obj
 0001:00071850       ?detach@?$__crt_unique_heap_ptr@PEADU__crt_internal_free_policy@@@@QEAAPEAPEADXZ 0000000180072850 f i libucrtd:argv_parsing.obj
 0001:00071880       ?detach@?$__crt_unique_heap_ptr@PEA_WU__crt_internal_free_policy@@@@QEAAPEAPEA_WXZ 0000000180072880 f i libucrtd:argv_parsing.obj
 0001:00071940       ?get@?$__crt_unique_heap_ptr@EU__crt_internal_free_policy@@@@QEBAPEAEXZ 0000000180072940 f i libucrtd:argv_parsing.obj
 0001:00071950       ?get@?$__crt_unique_heap_ptr@PEADU__crt_internal_free_policy@@@@QEBAPEAPEADXZ 0000000180072950 f i libucrtd:argv_parsing.obj
 0001:00071960       ?get@?$__crt_unique_heap_ptr@PEA_WU__crt_internal_free_policy@@@@QEBAPEAPEA_WXZ 0000000180072960 f i libucrtd:argv_parsing.obj
 0001:00071970       ?get_address_of@?$__crt_unique_heap_ptr@PEADU__crt_internal_free_policy@@@@QEAAPEAPEAPEADXZ 0000000180072970 f i libucrtd:argv_parsing.obj
 0001:00071980       ?get_address_of@?$__crt_unique_heap_ptr@PEA_WU__crt_internal_free_policy@@@@QEAAPEAPEAPEA_WXZ 0000000180072980 f i libucrtd:argv_parsing.obj
 0001:000719d0       ?is_valid@?$__crt_unique_heap_ptr@EU__crt_internal_free_policy@@@@QEBA_NXZ 00000001800729d0 f i libucrtd:argv_parsing.obj
 0001:00071a00       ?release@?$__crt_unique_heap_ptr@EU__crt_internal_free_policy@@@@QEAAXXZ 0000000180072a00 f i libucrtd:argv_parsing.obj
 0001:00071a30       ?release@?$__crt_unique_heap_ptr@PEADU__crt_internal_free_policy@@@@QEAAXXZ 0000000180072a30 f i libucrtd:argv_parsing.obj
 0001:00071a60       ?release@?$__crt_unique_heap_ptr@PEA_WU__crt_internal_free_policy@@@@QEAAXXZ 0000000180072a60 f i libucrtd:argv_parsing.obj
 0001:00071ae0       __acrt_allocate_buffer_for_argv 0000000180072ae0 f   libucrtd:argv_parsing.obj
 0001:00071c00       _configure_narrow_argv     0000000180072c00 f   libucrtd:argv_parsing.obj
 0001:00071c20       _configure_wide_argv       0000000180072c20 f   libucrtd:argv_parsing.obj
 0001:00071c40       _set_pgmptr                0000000180072c40 f i libucrtd:argv_parsing.obj
 0001:00071c60       _set_wpgmptr               0000000180072c60 f i libucrtd:argv_parsing.obj
 0001:00071c80       ??$?R_W@__crt_internal_free_policy@@QEBAXQEB_W@Z 0000000180072c80 f i libucrtd:environment_initialization.obj
 0001:00072640       ??$get_environment_from_os@$$V@?$__crt_char_traits@D@@SAPEADXZ 0000000180073640 f i libucrtd:environment_initialization.obj
 0001:00072650       ??$get_environment_from_os@$$V@?$__crt_char_traits@_W@@SAPEA_WXZ 0000000180073650 f i libucrtd:environment_initialization.obj
 0001:00072960       ??$set_variable_in_environment_nolock@PEADH@?$__crt_char_traits@D@@SAH$$QEAPEAD$$QEAH@Z 0000000180073960 f i libucrtd:environment_initialization.obj
 0001:00072990       ??$set_variable_in_environment_nolock@PEA_WH@?$__crt_char_traits@_W@@SAH$$QEAPEA_W$$QEAH@Z 0000000180073990 f i libucrtd:environment_initialization.obj
 0001:000729c0       ??$tcscpy_s@PEADAEB_KAEAPEAD@?$__crt_char_traits@D@@SAH$$QEAPEADAEB_KAEAPEAD@Z 00000001800739c0 f i libucrtd:environment_initialization.obj
 0001:00072a00       ??$tcscpy_s@PEA_WAEB_KAEAPEA_W@?$__crt_char_traits@_W@@SAH$$QEAPEA_WAEB_KAEAPEA_W@Z 0000000180073a00 f i libucrtd:environment_initialization.obj
 0001:00072a40       ??$tcslen@AEAPEAD@?$__crt_char_traits@D@@SA_KAEAPEAD@Z 0000000180073a40 f i libucrtd:environment_initialization.obj
 0001:00072a60       ??$tcslen@AEAPEA_W@?$__crt_char_traits@_W@@SA_KAEAPEA_W@Z 0000000180073a60 f i libucrtd:environment_initialization.obj
 0001:00072a80       ??$uninitialize@A6AXAEAPEAPEAD@_E@?$dual_state_global@PEAPEAD@__crt_state_management@@QEAAXA6AXAEAPEAPEAD@_E@Z 0000000180073a80 f i libucrtd:environment_initialization.obj
 0001:00072af0       ??$uninitialize@A6AXAEAPEAPEA_W@_E@?$dual_state_global@PEAPEA_W@__crt_state_management@@QEAAXA6AXAEAPEAPEA_W@_E@Z 0000000180073af0 f i libucrtd:environment_initialization.obj
 0001:00072be0       ??0?$__crt_unique_heap_ptr@_WU__crt_internal_free_policy@@@@QEAA@QEA_W@Z 0000000180073be0 f i libucrtd:environment_initialization.obj
 0001:00072c00       ??1?$__crt_unique_heap_ptr@_WU__crt_internal_free_policy@@@@QEAA@XZ 0000000180073c00 f i libucrtd:environment_initialization.obj
 0001:00072c20       ??B?$__crt_unique_heap_ptr@PEADU__crt_internal_free_policy@@@@QEBA_NXZ 0000000180073c20 f i libucrtd:environment_initialization.obj
 0001:00072c40       ??B?$__crt_unique_heap_ptr@PEA_WU__crt_internal_free_policy@@@@QEBA_NXZ 0000000180073c40 f i libucrtd:environment_initialization.obj
 0001:00072c60       ??B?$__crt_unique_heap_ptr@_WU__crt_internal_free_policy@@@@QEBA_NXZ 0000000180073c60 f i libucrtd:environment_initialization.obj
 0001:00072c80       ?__crt_compute_required_transform_buffer_count@@YA_KIQEBD@Z 0000000180073c80 f i libucrtd:environment_initialization.obj
 0001:00072cc0       ?__crt_compute_required_transform_buffer_count@@YA_KIQEB_W@Z 0000000180073cc0 f i libucrtd:environment_initialization.obj
 0001:00072d10       ?__crt_transform_string@@YA_KIQEBDQEA_W_K@Z 0000000180073d10 f i libucrtd:environment_initialization.obj
 0001:00072d60       ?__crt_transform_string@@YA_KIQEB_WQEAD_K@Z 0000000180073d60 f i libucrtd:environment_initialization.obj
 0001:00072dc0       ?detach@?$__crt_unique_heap_ptr@DU__crt_internal_free_policy@@@@QEAAPEADXZ 0000000180073dc0 f i libucrtd:environment_initialization.obj
 0001:00072df0       ?detach@?$__crt_unique_heap_ptr@_WU__crt_internal_free_policy@@@@QEAAPEA_WXZ 0000000180073df0 f i libucrtd:environment_initialization.obj
 0001:00072e20       ?get@?$__crt_unique_heap_ptr@_WU__crt_internal_free_policy@@@@QEBAPEA_WXZ 0000000180073e20 f i libucrtd:environment_initialization.obj
 0001:00072eb0       ?initialize@?$dual_state_global@PEAPEAD@__crt_state_management@@QEAAXQEAPEAD@Z 0000000180073eb0 f i libucrtd:environment_initialization.obj
 0001:00072f00       ?initialize@?$dual_state_global@PEAPEA_W@__crt_state_management@@QEAAXQEAPEA_W@Z 0000000180073f00 f i libucrtd:environment_initialization.obj
 0001:00072f50       ?is_valid@?$__crt_unique_heap_ptr@PEADU__crt_internal_free_policy@@@@QEBA_NXZ 0000000180073f50 f i libucrtd:environment_initialization.obj
 0001:00072f80       ?is_valid@?$__crt_unique_heap_ptr@PEA_WU__crt_internal_free_policy@@@@QEBA_NXZ 0000000180073f80 f i libucrtd:environment_initialization.obj
 0001:00072fb0       ?is_valid@?$__crt_unique_heap_ptr@_WU__crt_internal_free_policy@@@@QEBA_NXZ 0000000180073fb0 f i libucrtd:environment_initialization.obj
 0001:00073010       ?release@?$__crt_unique_heap_ptr@_WU__crt_internal_free_policy@@@@QEAAXXZ 0000000180074010 f i libucrtd:environment_initialization.obj
 0001:00073040       ?value@?$dual_state_global@PEAPEAD@__crt_state_management@@QEAAAEAPEAPEADXZ 0000000180074040 f i libucrtd:environment_initialization.obj
 0001:00073060       ?value@?$dual_state_global@PEAPEA_W@__crt_state_management@@QEAAAEAPEAPEA_WXZ 0000000180074060 f i libucrtd:environment_initialization.obj
 0001:00073080       __dcrt_get_or_create_narrow_environment_nolock 0000000180074080 f   libucrtd:environment_initialization.obj
 0001:00073090       __dcrt_get_or_create_wide_environment_nolock 0000000180074090 f   libucrtd:environment_initialization.obj
 0001:000730a0       __dcrt_uninitialize_environments_nolock 00000001800740a0 f   libucrtd:environment_initialization.obj
 0001:000730f0       __p__environ               00000001800740f0 f   libucrtd:environment_initialization.obj
 0001:00073110       __p__wenviron              0000000180074110 f   libucrtd:environment_initialization.obj
 0001:00073130       _get_initial_narrow_environment 0000000180074130 f   libucrtd:environment_initialization.obj
 0001:00073140       _get_initial_wide_environment 0000000180074140 f   libucrtd:environment_initialization.obj
 0001:00073150       _initialize_narrow_environment 0000000180074150 f   libucrtd:environment_initialization.obj
 0001:00073160       _initialize_wide_environment 0000000180074160 f   libucrtd:environment_initialization.obj
 0001:00073170       ??$?B$$A6AXXZ@__crt_fast_encoded_nullptr_t@@QEBAP6AXXZXZ 0000000180074170 f i libucrtd:onexit.obj
 0001:00073190       ??$?BP6AXXZ@__crt_fast_encoded_nullptr_t@@QEBAPEAP6AXXZXZ 0000000180074190 f i libucrtd:onexit.obj
 0001:000731b0       ??$?RP6AXXZ@__crt_internal_free_policy@@QEBAXQEBQ6AXXZ@Z 00000001800741b0 f i libucrtd:onexit.obj
 0001:00073340       ??$__crt_fast_decode_pointer@P6AXXZ@@YAP6AXXZQ6AXXZ@Z 0000000180074340 f i libucrtd:onexit.obj
 0001:00073380       ??$__crt_fast_decode_pointer@PEAP6AXXZ@@YAPEAP6AXXZQEAP6AXXZ@Z 0000000180074380 f i libucrtd:onexit.obj
 0001:000733c0       ??$__crt_fast_encode_pointer@P6AHXZ@@YAP6AHXZQ6AHXZ@Z 00000001800743c0 f i libucrtd:onexit.obj
 0001:00073400       ??$__crt_fast_encode_pointer@P6AXXZ@@YAP6AXXZQ6AXXZ@Z 0000000180074400 f i libucrtd:onexit.obj
 0001:00073440       ??$__crt_fast_encode_pointer@PEAP6AXXZ@@YAPEAP6AXXZQEAP6AXXZ@Z 0000000180074440 f i libucrtd:onexit.obj
 0001:00073550       ??0?$__crt_unique_heap_ptr@P6AXXZU__crt_internal_free_policy@@@@QEAA@QEAP6AXXZ@Z 0000000180074550 f i libucrtd:onexit.obj
 0001:00073570       ??1?$__crt_unique_heap_ptr@P6AXXZU__crt_internal_free_policy@@@@QEAA@XZ 0000000180074570 f i libucrtd:onexit.obj
 0001:00073590       ??1scoped_global_state_reset@__crt_state_management@@QEAA@XZ 0000000180074590 f i libucrtd:onexit.obj
 0001:00073b90       ?detach@?$__crt_unique_heap_ptr@P6AXXZU__crt_internal_free_policy@@@@QEAAPEAP6AXXZXZ 0000000180074b90 f i libucrtd:onexit.obj
 0001:00073bc0       ?release@?$__crt_unique_heap_ptr@P6AXXZU__crt_internal_free_policy@@@@QEAAXXZ 0000000180074bc0 f i libucrtd:onexit.obj
 0001:00073bf0       _crt_at_quick_exit         0000000180074bf0 f   libucrtd:onexit.obj
 0001:00073c10       _crt_atexit                0000000180074c10 f   libucrtd:onexit.obj
 0001:00073c30       _execute_onexit_table      0000000180074c30 f   libucrtd:onexit.obj
 0001:00073c70       _initialize_onexit_table   0000000180074c70 f   libucrtd:onexit.obj
 0001:00073cf0       _register_onexit_function  0000000180074cf0 f   libucrtd:onexit.obj
 0001:00073f70       ??$?BX@__crt_fast_encoded_nullptr_t@@QEBAPEAXXZ 0000000180074f70 f i libucrtd:initialization.obj
 0001:00073f90       ??$__crt_fast_encode_pointer@PEAX@@YAPEAXQEAX@Z 0000000180074f90 f i libucrtd:initialization.obj
 0001:00074090       ?initialize@?$dual_state_global@PEAU__crt_locale_data@@@__crt_state_management@@QEAAXQEAU__crt_locale_data@@@Z 0000000180075090 f i libucrtd:initialization.obj
 0001:000740e0       __acrt_initialize          00000001800750e0 f   libucrtd:initialization.obj
 0001:00074110       __acrt_thread_attach       0000000180075110 f   libucrtd:initialization.obj
 0001:00074130       __acrt_thread_detach       0000000180075130 f   libucrtd:initialization.obj
 0001:00074140       __acrt_uninitialize        0000000180075140 f   libucrtd:initialization.obj
 0001:00074170       __acrt_uninitialize_critical 0000000180075170 f   libucrtd:initialization.obj
 0001:00074f90       _makepath                  0000000180075f90 f   libucrtd:makepath.obj
 0001:00074fe0       _makepath_s                0000000180075fe0 f   libucrtd:makepath.obj
 0001:00075030       _wmakepath                 0000000180076030 f   libucrtd:makepath.obj
 0001:00075080       _wmakepath_s               0000000180076080 f   libucrtd:makepath.obj
 0001:000776f0       ??$tcsncpy_s@AEAPEAD_KAEAPEBDAEB_K@?$__crt_char_traits@D@@SAHAEAPEAD$$QEA_KAEAPEBDAEB_K@Z 00000001800786f0 f i libucrtd:splitpath.obj
 0001:00077740       ??$tcsncpy_s@AEAPEAD_KAEAPEBDH@?$__crt_char_traits@D@@SAHAEAPEAD$$QEA_KAEAPEBD$$QEAH@Z 0000000180078740 f i libucrtd:splitpath.obj
 0001:00077790       ??$tcsncpy_s@AEAPEA_W_KAEAPEB_WAEB_K@?$__crt_char_traits@_W@@SAHAEAPEA_W$$QEA_KAEAPEB_WAEB_K@Z 0000000180078790 f i libucrtd:splitpath.obj
 0001:000777e0       ??$tcsncpy_s@AEAPEA_W_KAEAPEB_WH@?$__crt_char_traits@_W@@SAHAEAPEA_W$$QEA_KAEAPEB_W$$QEAH@Z 00000001800787e0 f i libucrtd:splitpath.obj
 0001:00077a90       _splitpath                 0000000180078a90 f   libucrtd:splitpath.obj
 0001:00077ad0       _splitpath_s               0000000180078ad0 f   libucrtd:splitpath.obj
 0001:00077b70       _wsplitpath                0000000180078b70 f   libucrtd:splitpath.obj
 0001:00077bb0       _wsplitpath_s              0000000180078bb0 f   libucrtd:splitpath.obj
 0001:00078150       wcscpy_s                   0000000180079150 f   libucrtd:wcscpy_s.obj
 0001:00078180       _set_abort_behavior        0000000180079180 f   libucrtd:abort.obj
 0001:000781c0       abort                      00000001800791c0 f   libucrtd:abort.obj
 0001:00078240       free                       0000000180079240 f   libucrtd:free.obj
 0001:00078260       ??$__crt_fast_decode_pointer@P6AXPEB_W00I_K@Z@@YAP6AXPEB_W00I_K@ZQ6AX000I1@Z@Z 0000000180079260 f i libucrtd:invalid_parameter.obj
 0001:000782a0       ??$__crt_fast_encode_pointer@P6AXPEB_W00I_K@Z@@YAP6AXPEB_W00I_K@ZQ6AX000I1@Z@Z 00000001800792a0 f i libucrtd:invalid_parameter.obj
 0001:000782e0       ??$initialize_from_array@$$BY00Q6AXPEB_W00I_K@Z@?$dual_state_global@P6AXPEB_W00I_K@Z@__crt_state_management@@QEAAXAEAY00Q6AXPEB_W00I_K@Z@Z 00000001800792e0 f i libucrtd:invalid_parameter.obj
 0001:00078400       ?check_synchronize_global_state_index@__crt_cached_ptd_host@@AEAA_KXZ 0000000180079400 f i libucrtd:invalid_parameter.obj
 0001:00078460       ?dangerous_get_state_array@?$dual_state_global@P6AXPEB_W00I_K@Z@__crt_state_management@@QEAAPEAP6AXPEB_W00I_K@ZXZ 0000000180079460 f i libucrtd:invalid_parameter.obj
 0001:00078470       ?get_current_global_state_index@__crt_cached_ptd_host@@QEAA_KXZ 0000000180079470 f i libucrtd:invalid_parameter.obj
 0001:00078490       ?get_raw_ptd_noexit@__crt_cached_ptd_host@@QEAAPEAU__acrt_ptd@@XZ 0000000180079490 f i libucrtd:invalid_parameter.obj
 0001:000784b0       ?try_synchronize_per_thread_data@__crt_cached_ptd_host@@AEAAPEAU__acrt_ptd@@XZ 00000001800794b0 f i libucrtd:invalid_parameter.obj
 0001:000784e0       ?value@?$dual_state_global@P6AXPEB_W00I_K@Z@__crt_state_management@@QEAAAEAP6AXPEB_W00I_K@ZAEAV__crt_cached_ptd_host@@@Z 00000001800794e0 f i libucrtd:invalid_parameter.obj
 0001:00078510       ?value@?$dual_state_global@P6AXPEB_W00I_K@Z@__crt_state_management@@QEAAAEAP6AXPEB_W00I_K@ZXZ 0000000180079510 f i libucrtd:invalid_parameter.obj
 0001:00078530       __acrt_call_reportfault    0000000180079530 f   libucrtd:invalid_parameter.obj
 0001:00078660       __acrt_initialize_invalid_parameter_handler 0000000180079660 f   libucrtd:invalid_parameter.obj
 0001:00078690       _get_invalid_parameter_handler 0000000180079690 f   libucrtd:invalid_parameter.obj
 0001:000786b0       _get_thread_local_invalid_parameter_handler 00000001800796b0 f   libucrtd:invalid_parameter.obj
 0001:000786e0       _invalid_parameter         00000001800796e0 f   libucrtd:invalid_parameter.obj
 0001:00078750       _invalid_parameter_internal 0000000180079750 f   libucrtd:invalid_parameter.obj
 0001:00078890       _invalid_parameter_noinfo  0000000180079890 f   libucrtd:invalid_parameter.obj
 0001:000788c0       _invalid_parameter_noinfo_noreturn 00000001800798c0 f   libucrtd:invalid_parameter.obj
 0001:00078900       _invoke_watson             0000000180079900 f   libucrtd:invalid_parameter.obj
 0001:00078960       _set_invalid_parameter_handler 0000000180079960 f   libucrtd:invalid_parameter.obj
 0001:000789b0       _set_thread_local_invalid_parameter_handler 00000001800799b0 f   libucrtd:invalid_parameter.obj
 0001:000789f0       ??$is_overflow_condition@_K@__crt_strtox@@YA_NI_K@Z 00000001800799f0 f i libucrtd:atox.obj
 0001:00078a60       ??$make_c_string_character_source@D$$T@__crt_strtox@@YA?AV?$c_string_character_source@D@0@QEBD$$T@Z 0000000180079a60 f i libucrtd:atox.obj
 0001:00078aa0       ??$make_c_string_character_source@_W$$T@__crt_strtox@@YA?AV?$c_string_character_source@_W@0@QEB_W$$T@Z 0000000180079aa0 f i libucrtd:atox.obj
 0001:00078ae0       ??$parse_integer@KV?$c_string_character_source@D@__crt_strtox@@$00@__crt_strtox@@YAKAEAV__crt_cached_ptd_host@@V?$c_string_character_source@D@0@H_N@Z 0000000180079ae0 f i libucrtd:atox.obj
 0001:00078fa0       ??$parse_integer@KV?$c_string_character_source@_W@__crt_strtox@@$00@__crt_strtox@@YAKAEAV__crt_cached_ptd_host@@V?$c_string_character_source@_W@0@H_N@Z 0000000180079fa0 f i libucrtd:atox.obj
 0001:00079470       ??$parse_integer@_KV?$c_string_character_source@D@__crt_strtox@@$00@__crt_strtox@@YA_KAEAV__crt_cached_ptd_host@@V?$c_string_character_source@D@0@H_N@Z 000000018007a470 f i libucrtd:atox.obj
 0001:00079980       ??$parse_integer@_KV?$c_string_character_source@_W@__crt_strtox@@$00@__crt_strtox@@YA_KAEAV__crt_cached_ptd_host@@V?$c_string_character_source@_W@0@H_N@Z 000000018007a980 f i libucrtd:atox.obj
 0001:00079ea0       ??$parse_integer_from_string@JD$$T@__crt_strtox@@YAJQEBD$$THQEAU__crt_locale_pointers@@@Z 000000018007aea0 f i libucrtd:atox.obj
 0001:00079f30       ??$parse_integer_from_string@J_W$$T@__crt_strtox@@YAJQEB_W$$THQEAU__crt_locale_pointers@@@Z 000000018007af30 f i libucrtd:atox.obj
 0001:00079fc0       ??$parse_integer_from_string@_JD$$T@__crt_strtox@@YA_JQEBD$$THQEAU__crt_locale_pointers@@@Z 000000018007afc0 f i libucrtd:atox.obj
 0001:0007a050       ??$parse_integer_from_string@_J_W$$T@__crt_strtox@@YA_JQEB_W$$THQEAU__crt_locale_pointers@@@Z 000000018007b050 f i libucrtd:atox.obj
 0001:0007a0e0       ?is_space@__crt_strtox@@YA_NDQEAU__crt_locale_pointers@@@Z 000000018007b0e0 f i libucrtd:atox.obj
 0001:0007a130       ?is_space@__crt_strtox@@YA_N_WPEAU__crt_locale_pointers@@@Z 000000018007b130 f i libucrtd:atox.obj
 0001:0007a170       ?maximum_signed_value@__crt_strtox@@YA_J_K@Z 000000018007b170 f i libucrtd:atox.obj
 0001:0007a180       ?minimum_signed_value@__crt_strtox@@YA_J_K@Z 000000018007b180 f i libucrtd:atox.obj
 0001:0007a190       _atoi64                    000000018007b190 f   libucrtd:atox.obj
 0001:0007a1c0       _atoi64_l                  000000018007b1c0 f   libucrtd:atox.obj
 0001:0007a1f0       _atoi_l                    000000018007b1f0 f   libucrtd:atox.obj
 0001:0007a220       _atol_l                    000000018007b220 f   libucrtd:atox.obj
 0001:0007a250       _atoll_l                   000000018007b250 f   libucrtd:atox.obj
 0001:0007a280       _wtoi                      000000018007b280 f   libucrtd:atox.obj
 0001:0007a2b0       _wtoi64                    000000018007b2b0 f   libucrtd:atox.obj
 0001:0007a2e0       _wtoi64_l                  000000018007b2e0 f   libucrtd:atox.obj
 0001:0007a310       _wtoi_l                    000000018007b310 f   libucrtd:atox.obj
 0001:0007a340       _wtol                      000000018007b340 f   libucrtd:atox.obj
 0001:0007a370       _wtol_l                    000000018007b370 f   libucrtd:atox.obj
 0001:0007a3a0       _wtoll                     000000018007b3a0 f   libucrtd:atox.obj
 0001:0007a3d0       _wtoll_l                   000000018007b3d0 f   libucrtd:atox.obj
 0001:0007a400       atoi                       000000018007b400 f   libucrtd:atox.obj
 0001:0007a430       atol                       000000018007b430 f   libucrtd:atox.obj
 0001:0007a460       atoll                      000000018007b460 f   libucrtd:atox.obj
 0001:0007a490       wcsncmp                    000000018007b490 f   libucrtd:wcsncmp.obj
 0001:0007a520       _CrtGetDebugFillThreshold  000000018007b520 f   libucrtd:debug_fill_threshold.obj
 0001:0007a530       _CrtSetDebugFillThreshold  000000018007b530 f   libucrtd:debug_fill_threshold.obj
 0001:0007a6e0       ?get_doserrno@__crt_cached_ptd_host@@QEAA@XZ 000000018007b6e0 f i libucrtd:errno.obj
 0001:0007a6f0       ?set@?$cached@K@__crt_cached_ptd_host@@QEAAKK@Z 000000018007b6f0 f i libucrtd:errno.obj
 0001:0007a720       __acrt_errno_from_os_error 000000018007b720 f   libucrtd:errno.obj
 0001:0007a7f0       __acrt_errno_map_os_error  000000018007b7f0 f   libucrtd:errno.obj
 0001:0007a820       __acrt_errno_map_os_error_ptd 000000018007b820 f   libucrtd:errno.obj
 0001:0007a880       __doserrno                 000000018007b880 f   libucrtd:errno.obj
 0001:0007a8b0       _errno                     000000018007b8b0 f   libucrtd:errno.obj
 0001:0007a8e0       _get_doserrno              000000018007b8e0 f   libucrtd:errno.obj
 0001:0007a9a0       _get_errno                 000000018007b9a0 f   libucrtd:errno.obj
 0001:0007aa60       _set_doserrno              000000018007ba60 f   libucrtd:errno.obj
 0001:0007aaa0       _set_errno                 000000018007baa0 f   libucrtd:errno.obj
 0001:0007bde0       ??1?$__crt_simd_cleanup_guard@$00@@QEAA@XZ 000000018007cde0 f i libucrtd:strnlen.obj
 0001:0007bdf0       ??1?$__crt_simd_cleanup_guard@$0A@@@QEAA@XZ 000000018007cdf0 f i libucrtd:strnlen.obj
 0001:0007be00       ?compare_equals@?$__crt_simd_traits@$00E@@SA?AT__m256i@@T2@0@Z 000000018007ce00 f i libucrtd:strnlen.obj
 0001:0007be40       ?compare_equals@?$__crt_simd_traits@$00G@@SA?AT__m256i@@T2@0@Z 000000018007ce40 f i libucrtd:strnlen.obj
 0001:0007be80       ?compare_equals@?$__crt_simd_traits@$0A@E@@SA?AT__m128i@@T2@0@Z 000000018007ce80 f i libucrtd:strnlen.obj
 0001:0007beb0       ?compare_equals@?$__crt_simd_traits@$0A@G@@SA?AT__m128i@@T2@0@Z 000000018007ceb0 f i libucrtd:strnlen.obj
 0001:0007bee0       ?compute_byte_mask@?$__crt_simd_pack_traits@$00@@SAHT__m256i@@@Z 000000018007cee0 f i libucrtd:strnlen.obj
 0001:0007bf00       ?compute_byte_mask@?$__crt_simd_pack_traits@$0A@@@SAHT__m128i@@@Z 000000018007cf00 f i libucrtd:strnlen.obj
 0001:0007bf20       ?get_zero_pack@?$__crt_simd_pack_traits@$00@@SA?AT__m256i@@XZ 000000018007cf20 f i libucrtd:strnlen.obj
 0001:0007bf50       ?get_zero_pack@?$__crt_simd_pack_traits@$0A@@@SA?AT__m128i@@XZ 000000018007cf50 f i libucrtd:strnlen.obj
 0001:0007bf70       strnlen                    000000018007cf70 f   libucrtd:strnlen.obj
 0001:0007bfa0       wcslen                     000000018007cfa0 f   libucrtd:strnlen.obj
 0001:0007bfc0       wcsnlen                    000000018007cfc0 f   libucrtd:strnlen.obj
 0001:0007bff0       ?value@?$dual_state_global@PEAU__crt_locale_data@@@__crt_state_management@@QEAAAEAPEAU__crt_locale_data@@XZ 000000018007cff0 f i libucrtd:locale_update.obj
 0001:0007c010       ?value@?$dual_state_global@PEAU__crt_multibyte_data@@@__crt_state_management@@QEAAAEAPEAU__crt_multibyte_data@@XZ 000000018007d010 f i libucrtd:locale_update.obj
 0001:0007c030       ?value_explicit@?$dual_state_global@PEAU__crt_locale_data@@@__crt_state_management@@QEAAAEAPEAU__crt_locale_data@@_K@Z 000000018007d030 f i libucrtd:locale_update.obj
 0001:0007c050       ?value_explicit@?$dual_state_global@PEAU__crt_multibyte_data@@@__crt_state_management@@QEAAAEAPEAU__crt_multibyte_data@@_K@Z 000000018007d050 f i libucrtd:locale_update.obj
 0001:0007c070       __acrt_should_sync_with_global_locale 000000018007d070 f i libucrtd:locale_update.obj
 0001:0007c0b0       __acrt_update_locale_info  000000018007d0b0 f   libucrtd:locale_update.obj
 0001:0007c100       __acrt_update_locale_info_explicit 000000018007d100 f   libucrtd:locale_update.obj
 0001:0007c160       __acrt_update_multibyte_info 000000018007d160 f   libucrtd:locale_update.obj
 0001:0007c1b0       __acrt_update_multibyte_info_explicit 000000018007d1b0 f   libucrtd:locale_update.obj
 0001:0007c210       ?__acrt_fp_classify@@YA?AW4__acrt_fp_class@@AEBN@Z 000000018007d210 f i libucrtd:cvt.obj
 0001:0007c310       ?__acrt_fp_is_negative@@YA_NAEBN@Z 000000018007d310 f i libucrtd:cvt.obj
 0001:0007dc50       ?strrchr@@YAPEADQEADH@Z    000000018007ec50 f i libucrtd:cvt.obj
 0001:0007dc70       __acrt_fp_format           000000018007ec70 f   libucrtd:cvt.obj
 0001:0007e340       ?value_or@?$cached@H@__crt_cached_ptd_host@@QEBAHH@Z 000000018007f340 f i libucrtd:wctomb.obj
 0001:0007e370       _wctomb_internal           000000018007f370 f   libucrtd:wctomb.obj
 0001:0007e8d0       _wctomb_l                  000000018007f8d0 f   libucrtd:wctomb.obj
 0001:0007e980       _wctomb_s_l                000000018007f980 f   libucrtd:wctomb.obj
 0001:0007ea00       wctomb                     000000018007fa00 f   libucrtd:wctomb.obj
 0001:0007eaa0       wctomb_s                   000000018007faa0 f   libucrtd:wctomb.obj
 0001:0007eb20       _isleadbyte_fast_internal  000000018007fb20 f i libucrtd:mbtowc.obj
 0001:0007eb50       _mbtowc_internal           000000018007fb50 f   libucrtd:mbtowc.obj
 0001:0007eee0       _mbtowc_l                  000000018007fee0 f   libucrtd:mbtowc.obj
 0001:0007ef50       mbtowc                     000000018007ff50 f   libucrtd:mbtowc.obj
 0001:0007efb0       ?__mblen_utf8@__crt_mbstring@@YAHPEBD@Z 000000018007ffb0 f   libucrtd:mbrtoc32.obj
 0001:0007f050       ?__mbrtoc32_utf8@__crt_mbstring@@YA_KPEA_UPEBD_KPEAU_Mbstatet@@AEAV__crt_cached_ptd_host@@@Z 0000000180080050 f   libucrtd:mbrtoc32.obj
 0001:0007f420       mbrtoc32                   0000000180080420 f   libucrtd:mbrtoc32.obj
 0001:0007f4a0       ?__c16rtomb_utf8@__crt_mbstring@@YA_KPEAD_SPEAU_Mbstatet@@AEAV__crt_cached_ptd_host@@@Z 00000001800804a0 f   libucrtd:c16rtomb.obj
 0001:0007f6e0       c16rtomb                   00000001800806e0 f   libucrtd:c16rtomb.obj
 0001:0007f7b0       ?__mbrtowc_utf8@__crt_mbstring@@YA_KPEA_WPEBD_KPEAU_Mbstatet@@AEAV__crt_cached_ptd_host@@@Z 00000001800807b0 f   libucrtd:mbrtowc.obj
 0001:0007f840       ?__mbsrtowcs_utf8@__crt_mbstring@@YA_KPEA_WPEAPEBD_KPEAU_Mbstatet@@AEAV__crt_cached_ptd_host@@@Z 0000000180080840 f   libucrtd:mbrtowc.obj
 0001:00080a40       btowc                      0000000180081a40 f   libucrtd:mbrtowc.obj
 0001:00080b10       mbrlen                     0000000180081b10 f   libucrtd:mbrtowc.obj
 0001:00080bc0       mbrtowc                    0000000180081bc0 f   libucrtd:mbrtowc.obj
 0001:00080cd0       mbsrtowcs                  0000000180081cd0 f   libucrtd:mbrtowc.obj
 0001:00080d50       mbsrtowcs_s                0000000180081d50 f   libucrtd:mbrtowc.obj
 0001:00080de0       ?lowio_handle@__crt_stdio_stream@@QEBAHXZ 0000000180081de0 f i libucrtd:fileno.obj
 0001:00080e10       _fileno                    0000000180081e10 f   libucrtd:fileno.obj
 0001:00080ef0       ??$?RPEAU__crt_stdio_stream_data@@@__crt_internal_free_policy@@QEBAXQEBQEAU__crt_stdio_stream_data@@@Z 0000000180081ef0 f i libucrtd:_file.obj
 0001:00080f20       ??0?$__crt_unique_heap_ptr@PEAU__crt_stdio_stream_data@@U__crt_internal_free_policy@@@@QEAA@QEAPEAU__crt_stdio_stream_data@@@Z 0000000180081f20 f i libucrtd:_file.obj
 0001:00080f40       ??1?$__crt_unique_heap_ptr@PEAU__crt_stdio_stream_data@@U__crt_internal_free_policy@@@@QEAA@XZ 0000000180081f40 f i libucrtd:_file.obj
 0001:00080f60       ?detach@?$__crt_unique_heap_ptr@PEAU__crt_stdio_stream_data@@U__crt_internal_free_policy@@@@QEAAPEAPEAU__crt_stdio_stream_data@@XZ 0000000180081f60 f i libucrtd:_file.obj
 0001:00080f90       ?release@?$__crt_unique_heap_ptr@PEAU__crt_stdio_stream_data@@U__crt_internal_free_policy@@@@QEAAXXZ 0000000180081f90 f i libucrtd:_file.obj
 0001:00080fc0       __acrt_initialize_stdio    0000000180081fc0 f   libucrtd:_file.obj
 0001:000811b0       __acrt_iob_func            00000001800821b0 f   libucrtd:_file.obj
 0001:000811d0       __acrt_uninitialize_stdio  00000001800821d0 f   libucrtd:_file.obj
 0001:00081260       _get_stream_buffer_pointers 0000000180082260 f   libucrtd:_file.obj
 0001:00081390       _lock_file                 0000000180082390 f   libucrtd:_file.obj
 0001:000813d0       _unlock_file               00000001800823d0 f   libucrtd:_file.obj
 0001:00081410       _get_printf_count_output   0000000180082410 f   libucrtd:printf_count_output.obj
 0001:00081440       _set_printf_count_output   0000000180082440 f   libucrtd:printf_count_output.obj
 0001:00081680       _fputwc_nolock             0000000180082680 f   libucrtd:fputwc.obj
 0001:000816d0       _fputwc_nolock_internal    00000001800826d0 f   libucrtd:fputwc.obj
 0001:000819a0       _fputwchar                 00000001800829a0 f   libucrtd:fputwc.obj
 0001:000819d0       _putwc_nolock              00000001800829d0 f   libucrtd:fputwc.obj
 0001:00081a00       fputwc                     0000000180082a00 f   libucrtd:fputwc.obj
 0001:00081a50       putwc                      0000000180082a50 f   libucrtd:fputwc.obj
 0001:00081a80       putwchar                   0000000180082a80 f   libucrtd:fputwc.obj
 0001:00081da0       _fputc_nolock              0000000180082da0 f   libucrtd:fputc.obj
 0001:00081df0       _fputc_nolock_internal     0000000180082df0 f   libucrtd:fputc.obj
 0001:00081eb0       _fputchar                  0000000180082eb0 f   libucrtd:fputc.obj
 0001:00081ee0       _putc_nolock               0000000180082ee0 f   libucrtd:fputc.obj
 0001:00081f00       fputc                      0000000180082f00 f   libucrtd:fputc.obj
 0001:00081f50       putc                       0000000180082f50 f   libucrtd:fputc.obj
 0001:00081f70       putchar                    0000000180082f70 f   libucrtd:fputc.obj
 0001:00081f90       ?has_temporary_buffer@__crt_stdio_stream@@QEBA_NXZ 0000000180082f90 f i libucrtd:_sftbuf.obj
 0001:00081fb0       ?set_flags@__crt_stdio_stream@@QEBA_NJ@Z 0000000180082fb0 f i libucrtd:_sftbuf.obj
 0001:00082020       ?unset_flags@__crt_stdio_stream@@QEBA_NJ@Z 0000000180083020 f i libucrtd:_sftbuf.obj
 0001:00082080       __acrt_should_use_temporary_buffer 0000000180083080 f   libucrtd:_sftbuf.obj
 0001:000820d0       __acrt_stdio_begin_temporary_buffering_nolock 00000001800830d0 f   libucrtd:_sftbuf.obj
 0001:00082330       __acrt_stdio_end_temporary_buffering_nolock 0000000180083330 f   libucrtd:_sftbuf.obj
 0001:000823d0       ??$?RU__acrt_ptd@@@__crt_internal_free_policy@@QEBAXQEBU__acrt_ptd@@@Z 00000001800833d0 f i libucrtd:per_thread_data.obj
 0001:00082680       ??$internal_get_ptd_head@P6APEAXK@Z@@YAPEAU__acrt_ptd@@P6APEAXK@Z@Z 0000000180083680 f i libucrtd:per_thread_data.obj
 0001:000826c0       ??$try_get_ptd_head@P6APEAXK@Z@@YAPEAU__acrt_ptd@@P6APEAXK@Z@Z 00000001800836c0 f i libucrtd:per_thread_data.obj
 0001:000828b0       ??0?$__crt_unique_heap_ptr@U__acrt_ptd@@U__crt_internal_free_policy@@@@QEAA@QEAU__acrt_ptd@@@Z 00000001800838b0 f i libucrtd:per_thread_data.obj
 0001:000828d0       ??1?$__crt_unique_heap_ptr@U__acrt_ptd@@U__crt_internal_free_policy@@@@QEAA@XZ 00000001800838d0 f i libucrtd:per_thread_data.obj
 0001:000828f0       ??B?$__crt_unique_heap_ptr@U__acrt_ptd@@U__crt_internal_free_policy@@@@QEBA_NXZ 00000001800838f0 f i libucrtd:per_thread_data.obj
 0001:00082c40       ?dangerous_get_state_array@?$dual_state_global@PEAU__crt_locale_data@@@__crt_state_management@@QEAAPEAPEAU__crt_locale_data@@XZ 0000000180083c40 f i libucrtd:per_thread_data.obj
 0001:00082e10       ?detach@?$__crt_unique_heap_ptr@U__acrt_ptd@@U__crt_internal_free_policy@@@@QEAAPEAU__acrt_ptd@@XZ 0000000180083e10 f i libucrtd:per_thread_data.obj
 0001:00082e40       ?get@?$__crt_unique_heap_ptr@U__acrt_ptd@@U__crt_internal_free_policy@@@@QEBAPEAU__acrt_ptd@@XZ 0000000180083e40 f i libucrtd:per_thread_data.obj
 0001:00082e50       ?get_current_state_index2@__crt_state_management@@YA_KXZ 0000000180083e50 f i libucrtd:per_thread_data.obj
 0001:00082e60       ?internal_get_ptd_head_slow@@YAPEAU__acrt_ptd@@XZ 0000000180083e60 f   libucrtd:per_thread_data.obj
 0001:00083090       ?is_valid@?$__crt_unique_heap_ptr@U__acrt_ptd@@U__crt_internal_free_policy@@@@QEBA_NXZ 0000000180084090 f i libucrtd:per_thread_data.obj
 0001:000830c0       ?release@?$__crt_unique_heap_ptr@U__acrt_ptd@@U__crt_internal_free_policy@@@@QEAAXXZ 00000001800840c0 f i libucrtd:per_thread_data.obj
 0001:000831b0       __acrt_freeptd             00000001800841b0 f   libucrtd:per_thread_data.obj
 0001:000831f0       __acrt_getptd              00000001800841f0 f   libucrtd:per_thread_data.obj
 0001:00083220       __acrt_getptd_head         0000000180084220 f   libucrtd:per_thread_data.obj
 0001:00083250       __acrt_getptd_noexit       0000000180084250 f   libucrtd:per_thread_data.obj
 0001:00083290       __acrt_getptd_noexit_explicit 0000000180084290 f   libucrtd:per_thread_data.obj
 0001:000832c0       __acrt_initialize_ptd      00000001800842c0 f   libucrtd:per_thread_data.obj
 0001:00083310       __acrt_uninitialize_ptd    0000000180084310 f   libucrtd:per_thread_data.obj
 0001:00083340       __threadhandle             0000000180084340 f   libucrtd:per_thread_data.obj
 0001:00083350       __threadid                 0000000180084350 f   libucrtd:per_thread_data.obj
 0001:00083370       ??$?RU__crt_locale_data@@@__crt_internal_free_policy@@QEBAXQEBU__crt_locale_data@@@Z 0000000180084370 f i libucrtd:wsetlocale.obj
 0001:000833a0       ??$?RU__crt_locale_pointers@@@__crt_internal_free_policy@@QEBAXQEBU__crt_locale_pointers@@@Z 00000001800843a0 f i libucrtd:wsetlocale.obj
 0001:000833d0       ??$?RU__crt_multibyte_data@@@__crt_internal_free_policy@@QEBAXQEBU__crt_multibyte_data@@@Z 00000001800843d0 f i libucrtd:wsetlocale.obj
 0001:00083980       ??0?$__crt_unique_heap_ptr@U__crt_locale_data@@U__crt_internal_free_policy@@@@QEAA@QEAU__crt_locale_data@@@Z 0000000180084980 f i libucrtd:wsetlocale.obj
 0001:000839a0       ??0?$__crt_unique_heap_ptr@U__crt_locale_pointers@@U__crt_internal_free_policy@@@@QEAA@QEAU__crt_locale_pointers@@@Z 00000001800849a0 f i libucrtd:wsetlocale.obj
 0001:000839c0       ??0?$__crt_unique_heap_ptr@U__crt_multibyte_data@@U__crt_internal_free_policy@@@@QEAA@QEAU__crt_multibyte_data@@@Z 00000001800849c0 f i libucrtd:wsetlocale.obj
 0001:000839e0       ??0_expandlocale_locale_name_cache@@QEAA@QEA_W_KQEAU__crt_qualified_locale_data@@@Z 00000001800849e0 f i libucrtd:wsetlocale.obj
 0001:00083a90       ??1?$__crt_unique_heap_ptr@U__crt_locale_data@@U__crt_internal_free_policy@@@@QEAA@XZ 0000000180084a90 f i libucrtd:wsetlocale.obj
 0001:00083ab0       ??1?$__crt_unique_heap_ptr@U__crt_locale_pointers@@U__crt_internal_free_policy@@@@QEAA@XZ 0000000180084ab0 f i libucrtd:wsetlocale.obj
 0001:00083ad0       ??1?$__crt_unique_heap_ptr@U__crt_multibyte_data@@U__crt_internal_free_policy@@@@QEAA@XZ 0000000180084ad0 f i libucrtd:wsetlocale.obj
 0001:00083af0       ??1_expandlocale_locale_name_cache@@QEAA@XZ 0000000180084af0 f i libucrtd:wsetlocale.obj
 0001:00083b70       ??B?$__crt_unique_heap_ptr@U__crt_locale_data@@U__crt_internal_free_policy@@@@QEBA_NXZ 0000000180084b70 f i libucrtd:wsetlocale.obj
 0001:00083b90       ??B?$__crt_unique_heap_ptr@U__crt_locale_pointers@@U__crt_internal_free_policy@@@@QEBA_NXZ 0000000180084b90 f i libucrtd:wsetlocale.obj
 0001:00083bb0       ??B?$__crt_unique_heap_ptr@U__crt_multibyte_data@@U__crt_internal_free_policy@@@@QEBA_NXZ 0000000180084bb0 f i libucrtd:wsetlocale.obj
 0001:00084060       ?commit_locale_name@_expandlocale_locale_name_cache@@QEAAXQEB_W_K@Z 0000000180085060 f i libucrtd:wsetlocale.obj
 0001:000840e0       ?commit_locale_name_cache_already_updated@_expandlocale_locale_name_cache@@QEAAXQEB_W_K@Z 00000001800850e0 f i libucrtd:wsetlocale.obj
 0001:00084150       ?detach@?$__crt_unique_heap_ptr@U__crt_locale_data@@U__crt_internal_free_policy@@@@QEAAPEAU__crt_locale_data@@XZ 0000000180085150 f i libucrtd:wsetlocale.obj
 0001:00084180       ?detach@?$__crt_unique_heap_ptr@U__crt_locale_pointers@@U__crt_internal_free_policy@@@@QEAAPEAU__crt_locale_pointers@@XZ 0000000180085180 f i libucrtd:wsetlocale.obj
 0001:000841b0       ?detach@?$__crt_unique_heap_ptr@U__crt_multibyte_data@@U__crt_internal_free_policy@@@@QEAAPEAU__crt_multibyte_data@@XZ 00000001800851b0 f i libucrtd:wsetlocale.obj
 0001:000841e0       ?get@?$__crt_unique_heap_ptr@U__crt_locale_data@@U__crt_internal_free_policy@@@@QEBAPEAU__crt_locale_data@@XZ 00000001800851e0 f i libucrtd:wsetlocale.obj
 0001:000841f0       ?get@?$__crt_unique_heap_ptr@U__crt_locale_pointers@@U__crt_internal_free_policy@@@@QEBAPEAU__crt_locale_pointers@@XZ 00000001800851f0 f i libucrtd:wsetlocale.obj
 0001:00084200       ?get@?$__crt_unique_heap_ptr@U__crt_multibyte_data@@U__crt_internal_free_policy@@@@QEBAPEAU__crt_multibyte_data@@XZ 0000000180085200 f i libucrtd:wsetlocale.obj
 0001:00084210       ?is_valid@?$__crt_unique_heap_ptr@U__crt_locale_data@@U__crt_internal_free_policy@@@@QEBA_NXZ 0000000180085210 f i libucrtd:wsetlocale.obj
 0001:00084240       ?is_valid@?$__crt_unique_heap_ptr@U__crt_locale_pointers@@U__crt_internal_free_policy@@@@QEBA_NXZ 0000000180085240 f i libucrtd:wsetlocale.obj
 0001:00084270       ?is_valid@?$__crt_unique_heap_ptr@U__crt_multibyte_data@@U__crt_internal_free_policy@@@@QEBA_NXZ 0000000180085270 f i libucrtd:wsetlocale.obj
 0001:000842a0       ?release@?$__crt_unique_heap_ptr@U__crt_locale_data@@U__crt_internal_free_policy@@@@QEAAXXZ 00000001800852a0 f i libucrtd:wsetlocale.obj
 0001:000842d0       ?release@?$__crt_unique_heap_ptr@U__crt_locale_pointers@@U__crt_internal_free_policy@@@@QEAAXXZ 00000001800852d0 f i libucrtd:wsetlocale.obj
 0001:00084300       ?release@?$__crt_unique_heap_ptr@U__crt_multibyte_data@@U__crt_internal_free_policy@@@@QEAAXXZ 0000000180085300 f i libucrtd:wsetlocale.obj
 0001:00084330       __acrt_copy_locale_name    0000000180085330 f   libucrtd:wsetlocale.obj
 0001:00084410       __acrt_set_locale_changed  0000000180085410 f   libucrtd:wsetlocale.obj
 0001:00084420       __acrt_uninitialize_locale 0000000180085420 f   libucrtd:wsetlocale.obj
 0001:00084450       __ascii_tolower            0000000180085450 f i libucrtd:wsetlocale.obj
 0001:00084470       __ascii_towlower           0000000180085470 f i libucrtd:wsetlocale.obj
 0001:00084490       __lc_lctowcs               0000000180085490 f   libucrtd:wsetlocale.obj
 0001:00084580       __lc_wcstolc               0000000180085580 f   libucrtd:wsetlocale.obj
 0001:00084860       _configthreadlocale        0000000180085860 f   libucrtd:wsetlocale.obj
 0001:00084a20       _create_locale             0000000180085a20 f   libucrtd:wsetlocale.obj
 0001:00085130       _free_locale               0000000180086130 f   libucrtd:wsetlocale.obj
 0001:00085220       _get_current_locale        0000000180086220 f   libucrtd:wsetlocale.obj
 0001:00085340       _wcreate_locale            0000000180086340 f   libucrtd:wsetlocale.obj
 0001:00085640       _wcscats                   0000000180086640 f   libucrtd:wsetlocale.obj
 0001:00085730       _wsetlocale                0000000180086730 f   libucrtd:wsetlocale.obj
 0001:000873e0       __p___mb_cur_max           00000001800883e0 f   libucrtd:nlsdata.obj
 0001:000877d0       __acrt_initialize_lowio    00000001800887d0 f   libucrtd:ioinit.obj
 0001:00087820       __acrt_uninitialize_lowio  0000000180088820 f   libucrtd:ioinit.obj
 0001:00087a70       __acrt_report_runtime_error 0000000180088a70 f   libucrtd:report_runtime_error.obj
 0001:00087cf0       _query_app_type            0000000180088cf0 f   libucrtd:report_runtime_error.obj
 0001:00087d00       _set_app_type              0000000180088d00 f   libucrtd:report_runtime_error.obj
 0001:00089550       _i64toa                    000000018008a550 f   libucrtd:xtoa.obj
 0001:000895c0       _i64toa_s                  000000018008a5c0 f   libucrtd:xtoa.obj
 0001:00089630       _i64tow                    000000018008a630 f   libucrtd:xtoa.obj
 0001:000896a0       _i64tow_s                  000000018008a6a0 f   libucrtd:xtoa.obj
 0001:00089710       _itoa                      000000018008a710 f   libucrtd:xtoa.obj
 0001:00089780       _itoa_s                    000000018008a780 f   libucrtd:xtoa.obj
 0001:000897e0       _itow                      000000018008a7e0 f   libucrtd:xtoa.obj
 0001:00089850       _itow_s                    000000018008a850 f   libucrtd:xtoa.obj
 0001:000898b0       _ltoa                      000000018008a8b0 f   libucrtd:xtoa.obj
 0001:00089920       _ltoa_s                    000000018008a920 f   libucrtd:xtoa.obj
 0001:00089980       _ltow                      000000018008a980 f   libucrtd:xtoa.obj
 0001:000899f0       _ltow_s                    000000018008a9f0 f   libucrtd:xtoa.obj
 0001:00089a50       _ui64toa                   000000018008aa50 f   libucrtd:xtoa.obj
 0001:00089a90       _ui64toa_s                 000000018008aa90 f   libucrtd:xtoa.obj
 0001:00089ad0       _ui64tow                   000000018008aad0 f   libucrtd:xtoa.obj
 0001:00089b10       _ui64tow_s                 000000018008ab10 f   libucrtd:xtoa.obj
 0001:00089b50       _ultoa                     000000018008ab50 f   libucrtd:xtoa.obj
 0001:00089b90       _ultoa_s                   000000018008ab90 f   libucrtd:xtoa.obj
 0001:00089bd0       _ultow                     000000018008abd0 f   libucrtd:xtoa.obj
 0001:00089c10       _ultow_s                   000000018008ac10 f   libucrtd:xtoa.obj
 0001:00089c50       _set_error_mode            000000018008ac50 f   libucrtd:set_error_mode.obj
 0001:0008a3e0       wcscat_s                   000000018008b3e0 f   libucrtd:wcscat_s.obj
 0001:0008abb0       wcsncat_s                  000000018008bbb0 f   libucrtd:wcsncat_s.obj
 0001:0008b370       strncat_s                  000000018008c370 f   libucrtd:strncat_s.obj
 0001:0008b3b0       ??$__acrt_convert_wcs_mbs_cp@_WDV<lambda_f788ae46380686e8b737efdd8c720d07>@@U__crt_win32_buffer_no_resizing@@@@YAHQEB_WAEAV?$__crt_win32_buffer@DU__crt_win32_buffer_no_resizing@@@@AEBV<lambda_f788ae46380686e8b737efdd8c720d07>@@I@Z 000000018008c3b0 f i libucrtd:getmodulefilenamea.obj
 0001:0008b560       ??$__acrt_wcs_to_mbs_cp@U__crt_win32_buffer_no_resizing@@@@YAHQEB_WAEAV?$__crt_win32_buffer@DU__crt_win32_buffer_no_resizing@@@@I@Z 000000018008c560 f i libucrtd:getmodulefilenamea.obj
 0001:0008b5b0       ??0?$__crt_win32_buffer@DU__crt_win32_buffer_no_resizing@@@@QEAA@QEAD_K@Z 000000018008c5b0 f i libucrtd:getmodulefilenamea.obj
 0001:0008b620       ??1?$__crt_win32_buffer@DU__crt_win32_buffer_no_resizing@@@@QEAA@XZ 000000018008c620 f i libucrtd:getmodulefilenamea.obj
 0001:0008b650       ??R<lambda_f788ae46380686e8b737efdd8c720d07>@@QEBA@IQEB_WQEAD_K@Z 000000018008c650 f i libucrtd:getmodulefilenamea.obj
 0001:0008b6b0       ?__acrt_get_utf8_acp_compatibility_codepage@@YAIXZ 000000018008c6b0 f i libucrtd:getmodulefilenamea.obj
 0001:0008b750       ?_deallocate@?$__crt_win32_buffer@DU__crt_win32_buffer_no_resizing@@@@AEAAXXZ 000000018008c750 f i libucrtd:getmodulefilenamea.obj
 0001:0008b7a0       ?allocate@?$__crt_win32_buffer@DU__crt_win32_buffer_no_resizing@@@@QEAAH_K@Z 000000018008c7a0 f i libucrtd:getmodulefilenamea.obj
 0001:0008b820       ?allocate@__crt_win32_buffer_no_resizing@@SAHQEAPEAX_KAEBV__crt_win32_buffer_empty_debug_info@@@Z 000000018008c820 f i libucrtd:getmodulefilenamea.obj
 0001:0008b850       ?capacity@?$__crt_win32_buffer@DU__crt_win32_buffer_no_resizing@@@@QEBA_KXZ 000000018008c850 f i libucrtd:getmodulefilenamea.obj
 0001:0008b860       ?data@?$__crt_win32_buffer@DU__crt_win32_buffer_no_resizing@@@@QEAAPEADXZ 000000018008c860 f i libucrtd:getmodulefilenamea.obj
 0001:0008b870       ?deallocate@__crt_win32_buffer_no_resizing@@SAXQEAXAEBV__crt_win32_buffer_empty_debug_info@@@Z 000000018008c870 f i libucrtd:getmodulefilenamea.obj
 0001:0008b880       ?debug_info@?$__crt_win32_buffer@DU__crt_win32_buffer_no_resizing@@@@QEBAAEBV__crt_win32_buffer_empty_debug_info@@XZ 000000018008c880 f i libucrtd:getmodulefilenamea.obj
 0001:0008b890       ?set_to_nullptr@?$__crt_win32_buffer@DU__crt_win32_buffer_no_resizing@@@@QEAAXXZ 000000018008c890 f i libucrtd:getmodulefilenamea.obj
 0001:0008b8d0       ?size@?$__crt_win32_buffer@DU__crt_win32_buffer_no_resizing@@@@QEAAX_K@Z 000000018008c8d0 f i libucrtd:getmodulefilenamea.obj
 0001:0008b8f0       ?size@?$__crt_win32_buffer@DU__crt_win32_buffer_no_resizing@@@@QEBA_KXZ 000000018008c8f0 f i libucrtd:getmodulefilenamea.obj
 0001:0008b900       __acrt_GetModuleFileNameA  000000018008c900 f   libucrtd:getmodulefilenamea.obj
 0001:0008bc60       ??$message_box@$$TAEBQEBDAEBQEBDK@?$__crt_char_traits@D@@SAH$$QEA$$TAEBQEBD1$$QEAK@Z 000000018008cc60 f i libucrtd:crtmbox.obj
 0001:0008bcb0       ??$message_box@$$TAEBQEB_WAEBQEB_WK@?$__crt_char_traits@_W@@SAH$$QEA$$TAEBQEB_W1$$QEAK@Z 000000018008ccb0 f i libucrtd:crtmbox.obj
 0001:0008bd00       ??$message_box@PEAUHWND__@@AEBQEBDAEBQEBDAEBI@?$__crt_char_traits@D@@SAH$$QEAPEAUHWND__@@AEBQEBD1AEBI@Z 000000018008cd00 f i libucrtd:crtmbox.obj
 0001:0008bd50       ??$message_box@PEAUHWND__@@AEBQEB_WAEBQEB_WAEBI@?$__crt_char_traits@_W@@SAH$$QEAPEAUHWND__@@AEBQEB_W1AEBI@Z 000000018008cd50 f i libucrtd:crtmbox.obj
 0001:0008bda0       ??$output_debug_string@AEBQEBD@?$__crt_char_traits@D@@SAXAEBQEBD@Z 000000018008cda0 f i libucrtd:crtmbox.obj
 0001:0008bdc0       ??$output_debug_string@AEBQEB_W@?$__crt_char_traits@_W@@SAXAEBQEB_W@Z 000000018008cdc0 f i libucrtd:crtmbox.obj
 0001:0008bde0       __acrt_show_narrow_message_box 000000018008cde0 f   libucrtd:crtmbox.obj
 0001:0008be10       __acrt_show_wide_message_box 000000018008ce10 f   libucrtd:crtmbox.obj
 0001:0008c1c0       ??0__crt_stdio_stream@@QEAA@QEAU__crt_stdio_stream_data@@@Z 000000018008d1c0 f i libucrtd:fflush.obj
 0001:0008c470       ?__acrt_stdio_reset_buffer@@YAXV__crt_stdio_stream@@@Z 000000018008d470 f i libucrtd:fflush.obj
 0001:0008c640       ?has_all_of@__crt_stdio_stream@@QEBA_NJ@Z 000000018008d640 f i libucrtd:fflush.obj
 0001:0008c720       __acrt_stdio_flush_nolock  000000018008d720 f   libucrtd:fflush.obj
 0001:0008c840       _fflush_nolock             000000018008d840 f   libucrtd:fflush.obj
 0001:0008c880       _flushall                  000000018008d880 f   libucrtd:fflush.obj
 0001:0008c890       fflush                     000000018008d890 f   libucrtd:fflush.obj
 0001:0008d050       setvbuf                    000000018008e050 f   libucrtd:setvbuf.obj
 0001:0008d0c0       ??$?B$$A6AXH@Z@__crt_fast_encoded_nullptr_t@@QEBAP6AXH@ZXZ 000000018008e0c0 f i libucrtd:signal.obj
 0001:0008d190       ??$__crt_fast_decode_pointer@P6AXH@Z@@YAP6AXH@ZQ6AXH@Z@Z 000000018008e190 f i libucrtd:signal.obj
 0001:0008d1d0       ??$__crt_fast_encode_pointer@P6AXH@Z@@YAP6AXH@ZQ6AXH@Z@Z 000000018008e1d0 f i libucrtd:signal.obj
 0001:0008d460       ?initialize@?$dual_state_global@P6AXH@Z@__crt_state_management@@QEAAXQ6AXH@Z@Z 000000018008e460 f i libucrtd:signal.obj
 0001:0008d5e0       ?value@?$dual_state_global@P6AXH@Z@__crt_state_management@@QEAAAEAP6AXH@ZXZ 000000018008e5e0 f i libucrtd:signal.obj
 0001:0008d600       __acrt_get_sigabrt_handler 000000018008e600 f   libucrtd:signal.obj
 0001:0008d630       __acrt_initialize_signal_handlers 000000018008e630 f   libucrtd:signal.obj
 0001:0008d690       __fpecode                  000000018008e690 f   libucrtd:signal.obj
 0001:0008d6b0       __pxcptinfoptrs            000000018008e6b0 f   libucrtd:signal.obj
 0001:0008d6d0       raise                      000000018008e6d0 f   libucrtd:signal.obj
 0001:0008dbd0       signal                     000000018008ebd0 f   libucrtd:signal.obj
 0001:0008dea0       _CrtGetReportHook          000000018008eea0 f   libucrtd:dbgrptt.obj
 0001:0008deb0       _CrtSetReportFile          000000018008eeb0 f   libucrtd:dbgrptt.obj
 0001:0008e010       _CrtSetReportHook          000000018008f010 f   libucrtd:dbgrptt.obj
 0001:0008e040       _CrtSetReportMode          000000018008f040 f   libucrtd:dbgrptt.obj
 0001:0008e200       _VCrtDbgReportA            000000018008f200 f   libucrtd:dbgrptt.obj
 0001:0008ec20       _VCrtDbgReportW            000000018008fc20 f   libucrtd:dbgrptt.obj
 0001:0008f800       _snprintf_s                0000000180090800 f i libucrtd:dbgrptt.obj
 0001:0008f880       _vsnprintf_s               0000000180090880 f i libucrtd:dbgrptt.obj
 0001:0008f8d0       _vsnprintf_s_l             00000001800908d0 f i libucrtd:dbgrptt.obj
 0001:0008f950       __acrt_initialize_locks    0000000180090950 f   libucrtd:locks.obj
 0001:0008f9c0       __acrt_lock                00000001800909c0 f   libucrtd:locks.obj
 0001:0008f9f0       __acrt_uninitialize_locks  00000001800909f0 f   libucrtd:locks.obj
 0001:0008fa50       __acrt_unlock              0000000180090a50 f   libucrtd:locks.obj
 0001:0008fa80       _lock_locales              0000000180090a80 f   libucrtd:locks.obj
 0001:0008faa0       _unlock_locales            0000000180090aa0 f   libucrtd:locks.obj
 0001:0008fac0       _chvalidator               0000000180090ac0 f   libucrtd:isctype.obj
 0001:0008fb30       _chvalidator_l             0000000180090b30 f   libucrtd:isctype.obj
 0001:0008fbe0       _isctype                   0000000180090be0 f   libucrtd:isctype.obj
 0001:0008fc30       _isctype_l                 0000000180090c30 f   libucrtd:isctype.obj
 0001:0008fe70       _free_base                 0000000180090e70 f   libucrtd:free_base.obj
 0001:0008fee0       _realloc_base              0000000180090ee0 f   libucrtd:realloc_base.obj
 0001:0008ff90       _expand                    0000000180090f90 f   libucrtd:expand.obj
 0001:0008ffd0       _expand_base               0000000180090fd0 f   libucrtd:expand.obj
 0001:000901d0       _query_new_mode            00000001800911d0 f   libucrtd:new_mode.obj
 0001:00090200       _set_new_mode              0000000180091200 f   libucrtd:new_mode.obj
 0001:000902d0       ?value@?$dual_state_global@J@__crt_state_management@@QEAAAEAJXZ 00000001800912d0 f i libucrtd:new_mode.obj
 0001:000902f0       _CrtDefaultAllocHook       00000001800912f0 f   libucrtd:debug_heap_hook.obj
 0001:00090310       _get_heap_handle           0000000180091310 f   libucrtd:heap_handle.obj
 0001:00090370       __acrt_initialize_heap     0000000180091370 f   libucrtd:heap_handle.obj
 0001:000903a0       __acrt_uninitialize_heap   00000001800913a0 f   libucrtd:heap_handle.obj
 0001:000903c0       __acrt_getheap             00000001800913c0 f   libucrtd:heap_handle.obj
 0001:00090420       __acrt_app_verifier_enabled 0000000180091420 f   libucrtd:peb_access.obj
 0001:00090460       __acrt_is_secure_process   0000000180091460 f   libucrtd:peb_access.obj
 0001:00090850       __acrt_get_begin_thread_init_policy 0000000180091850 f   libucrtd:win_policies.obj
 0001:00090860       __acrt_get_developer_information_policy 0000000180091860 f   libucrtd:win_policies.obj
 0001:00090880       __acrt_get_process_end_policy 0000000180091880 f   libucrtd:win_policies.obj
 0001:00090890       __acrt_get_windowing_model_policy 0000000180091890 f   libucrtd:win_policies.obj
 0001:00090910       ??$__acrt_convert_wcs_mbs_cp@D_WV<lambda_7c9dea7b4ca7285d2cdb541a38da6275>@@U__crt_win32_buffer_internal_dynamic_resizing@@@@YAHQEBDAEAV?$__crt_win32_buffer@_WU__crt_win32_buffer_internal_dynamic_resizing@@@@AEBV<lambda_7c9dea7b4ca7285d2cdb541a38da6275>@@I@Z 0000000180091910 f i libucrtd:argv_wildcards.obj
 0001:00090ac0       ??$__acrt_convert_wcs_mbs_cp@_WDV<lambda_d8593a27d1aa8c02be35c86a17d324c4>@@U__crt_win32_buffer_internal_dynamic_resizing@@@@YAHQEB_WAEAV?$__crt_win32_buffer@DU__crt_win32_buffer_internal_dynamic_resizing@@@@AEBV<lambda_d8593a27d1aa8c02be35c86a17d324c4>@@I@Z 0000000180091ac0 f i libucrtd:argv_wildcards.obj
 0001:00090c70       ??$__acrt_mbs_to_wcs_cp@U__crt_win32_buffer_internal_dynamic_resizing@@@@YAHQEBDAEAV?$__crt_win32_buffer@_WU__crt_win32_buffer_internal_dynamic_resizing@@@@I@Z 0000000180091c70 f i libucrtd:argv_wildcards.obj
 0001:00090cc0       ??$__acrt_wcs_to_mbs_cp@U__crt_win32_buffer_internal_dynamic_resizing@@@@YAHQEB_WAEAV?$__crt_win32_buffer@DU__crt_win32_buffer_internal_dynamic_resizing@@@@I@Z 0000000180091cc0 f i libucrtd:argv_wildcards.obj
 0001:00092160       ??$tcsncpy_s@AEAPEAD_KAEAPEADAEB_K@?$__crt_char_traits@D@@SAHAEAPEAD$$QEA_K0AEB_K@Z 0000000180093160 f i libucrtd:argv_wildcards.obj
 0001:000921b0       ??$tcsncpy_s@AEAPEA_W_KAEAPEA_WAEB_K@?$__crt_char_traits@_W@@SAHAEAPEA_W$$QEA_K0AEB_K@Z 00000001800931b0 f i libucrtd:argv_wildcards.obj
 0001:00092200       ??$tcsncpy_s@PEADAEB_KAEBQEBDAEB_K@?$__crt_char_traits@D@@SAH$$QEAPEADAEB_KAEBQEBD1@Z 0000000180093200 f i libucrtd:argv_wildcards.obj
 0001:00092250       ??$tcsncpy_s@PEAD_KAEBQEBDAEB_K@?$__crt_char_traits@D@@SAH$$QEAPEAD$$QEA_KAEBQEBDAEB_K@Z 0000000180093250 f i libucrtd:argv_wildcards.obj
 0001:000922a0       ??$tcsncpy_s@PEA_WAEB_KAEBQEB_WAEB_K@?$__crt_char_traits@_W@@SAH$$QEAPEA_WAEB_KAEBQEB_W1@Z 00000001800932a0 f i libucrtd:argv_wildcards.obj
 0001:000922f0       ??$tcsncpy_s@PEA_W_KAEBQEB_WAEB_K@?$__crt_char_traits@_W@@SAH$$QEAPEA_W$$QEA_KAEBQEB_WAEB_K@Z 00000001800932f0 f i libucrtd:argv_wildcards.obj
 0001:00092340       ??$tcspbrk@AEAPEADAEAY02$$CBD@?$__crt_char_traits@D@@SAPEADAEAPEADAEAY02$$CBD@Z 0000000180093340 f i libucrtd:argv_wildcards.obj
 0001:00092370       ??$tcspbrk@AEAPEA_WAEAY02$$CB_W@?$__crt_char_traits@_W@@SAPEA_WAEAPEA_WAEAY02$$CB_W@Z 0000000180093370 f i libucrtd:argv_wildcards.obj
 0001:000923a0       ??0?$__crt_unique_handle_t@U__crt_findfile_traits@@@@QEAA@QEAX@Z 00000001800933a0 f i libucrtd:argv_wildcards.obj
 0001:000923c0       ??0?$__crt_win32_buffer@DU__crt_win32_buffer_internal_dynamic_resizing@@@@QEAA@XZ 00000001800933c0 f i libucrtd:argv_wildcards.obj
 0001:00092420       ??0?$__crt_win32_buffer@_WU__crt_win32_buffer_internal_dynamic_resizing@@@@QEAA@XZ 0000000180093420 f i libucrtd:argv_wildcards.obj
 0001:00092500       ??1?$__crt_unique_handle_t@U__crt_findfile_traits@@@@QEAA@XZ 0000000180093500 f i libucrtd:argv_wildcards.obj
 0001:00092520       ??1?$__crt_win32_buffer@DU__crt_win32_buffer_internal_dynamic_resizing@@@@QEAA@XZ 0000000180093520 f i libucrtd:argv_wildcards.obj
 0001:00092550       ??1?$__crt_win32_buffer@_WU__crt_win32_buffer_internal_dynamic_resizing@@@@QEAA@XZ 0000000180093550 f i libucrtd:argv_wildcards.obj
 0001:00092680       ??R<lambda_7c9dea7b4ca7285d2cdb541a38da6275>@@QEBA@IQEBDQEA_W_K@Z 0000000180093680 f i libucrtd:argv_wildcards.obj
 0001:000927f0       ??R<lambda_d8593a27d1aa8c02be35c86a17d324c4>@@QEBA@IQEB_WQEAD_K@Z 00000001800937f0 f i libucrtd:argv_wildcards.obj
 0001:00092850       ?_deallocate@?$__crt_win32_buffer@DU__crt_win32_buffer_internal_dynamic_resizing@@@@AEAAXXZ 0000000180093850 f i libucrtd:argv_wildcards.obj
 0001:000928a0       ?_deallocate@?$__crt_win32_buffer@_WU__crt_win32_buffer_internal_dynamic_resizing@@@@AEAAXXZ 00000001800938a0 f i libucrtd:argv_wildcards.obj
 0001:000928f0       ?allocate@?$__crt_win32_buffer@DU__crt_win32_buffer_internal_dynamic_resizing@@@@QEAAH_K@Z 00000001800938f0 f i libucrtd:argv_wildcards.obj
 0001:00092970       ?allocate@?$__crt_win32_buffer@_WU__crt_win32_buffer_internal_dynamic_resizing@@@@QEAAH_K@Z 0000000180093970 f i libucrtd:argv_wildcards.obj
 0001:00092a00       ?allocate@__crt_win32_buffer_internal_dynamic_resizing@@SAHQEAPEAX_KAEBV__crt_win32_buffer_empty_debug_info@@@Z 0000000180093a00 f i libucrtd:argv_wildcards.obj
 0001:00092b60       ?capacity@?$__crt_win32_buffer@DU__crt_win32_buffer_internal_dynamic_resizing@@@@QEBA_KXZ 0000000180093b60 f i libucrtd:argv_wildcards.obj
 0001:00092b70       ?capacity@?$__crt_win32_buffer@_WU__crt_win32_buffer_internal_dynamic_resizing@@@@QEBA_KXZ 0000000180093b70 f i libucrtd:argv_wildcards.obj
 0001:00092b80       ?close@?$__crt_unique_handle_t@U__crt_findfile_traits@@@@QEAAXXZ 0000000180093b80 f i libucrtd:argv_wildcards.obj
 0001:00092bc0       ?close@__crt_findfile_traits@@SA_NPEAX@Z 0000000180093bc0 f i libucrtd:argv_wildcards.obj
 0001:00092c00       ?data@?$__crt_win32_buffer@DU__crt_win32_buffer_internal_dynamic_resizing@@@@QEAAPEADXZ 0000000180093c00 f i libucrtd:argv_wildcards.obj
 0001:00092c10       ?data@?$__crt_win32_buffer@_WU__crt_win32_buffer_internal_dynamic_resizing@@@@QEAAPEA_WXZ 0000000180093c10 f i libucrtd:argv_wildcards.obj
 0001:00092c20       ?deallocate@__crt_win32_buffer_internal_dynamic_resizing@@SAXQEAXAEBV__crt_win32_buffer_empty_debug_info@@@Z 0000000180093c20 f i libucrtd:argv_wildcards.obj
 0001:00092c50       ?debug_info@?$__crt_win32_buffer@DU__crt_win32_buffer_internal_dynamic_resizing@@@@QEBAAEBV__crt_win32_buffer_empty_debug_info@@XZ 0000000180093c50 f i libucrtd:argv_wildcards.obj
 0001:00092c60       ?debug_info@?$__crt_win32_buffer@_WU__crt_win32_buffer_internal_dynamic_resizing@@@@QEBAAEBV__crt_win32_buffer_empty_debug_info@@XZ 0000000180093c60 f i libucrtd:argv_wildcards.obj
 0001:00093050       ?get@?$__crt_unique_handle_t@U__crt_findfile_traits@@@@QEBAPEAXXZ 0000000180094050 f i libucrtd:argv_wildcards.obj
 0001:000930c0       ?get_invalid_value@__crt_findfile_traits@@SAPEAXXZ 00000001800940c0 f i libucrtd:argv_wildcards.obj
 0001:00093180       ?set_to_nullptr@?$__crt_win32_buffer@DU__crt_win32_buffer_internal_dynamic_resizing@@@@QEAAXXZ 0000000180094180 f i libucrtd:argv_wildcards.obj
 0001:000931c0       ?set_to_nullptr@?$__crt_win32_buffer@_WU__crt_win32_buffer_internal_dynamic_resizing@@@@QEAAXXZ 00000001800941c0 f i libucrtd:argv_wildcards.obj
 0001:00093200       ?size@?$__crt_win32_buffer@DU__crt_win32_buffer_internal_dynamic_resizing@@@@QEAAX_K@Z 0000000180094200 f i libucrtd:argv_wildcards.obj
 0001:00093220       ?size@?$__crt_win32_buffer@_WU__crt_win32_buffer_internal_dynamic_resizing@@@@QEAAX_K@Z 0000000180094220 f i libucrtd:argv_wildcards.obj
 0001:00093280       ?strpbrk@@YAPEADQEADQEBD@Z 0000000180094280 f i libucrtd:argv_wildcards.obj
 0001:000932b0       ?wcspbrk@@YAPEA_WPEA_WPEB_W@Z 00000001800942b0 f i libucrtd:argv_wildcards.obj
 0001:000932e0       __acrt_expand_narrow_argv_wildcards 00000001800942e0 f   libucrtd:argv_wildcards.obj
 0001:00093310       __acrt_expand_wide_argv_wildcards 0000000180094310 f   libucrtd:argv_wildcards.obj
 0001:000933e0       ??$initialize_from_array@$$BY10BAA@E@?$dual_state_global@PEAE@__crt_state_management@@QEAAXAEAY10BAA@E@Z 00000001800943e0 f i libucrtd:mbctype.obj
 0001:00093450       ??$initialize_from_array@$$BY10BAB@E@?$dual_state_global@PEAE@__crt_state_management@@QEAAXAEAY10BAB@E@Z 0000000180094450 f i libucrtd:mbctype.obj
 0001:00093740       ?dangerous_get_state_array@?$dual_state_global@PEAE@__crt_state_management@@QEAAPEAPEAEXZ 0000000180094740 f i libucrtd:mbctype.obj
 0001:00093750       ?dangerous_get_state_array@?$dual_state_global@PEAU__crt_multibyte_data@@@__crt_state_management@@QEAAPEAPEAU__crt_multibyte_data@@XZ 0000000180094750 f i libucrtd:mbctype.obj
 0001:00093840       ?initialize@?$dual_state_global@PEAU__crt_multibyte_data@@@__crt_state_management@@QEAAXQEAU__crt_multibyte_data@@@Z 0000000180094840 f i libucrtd:mbctype.obj
 0001:00094150       ?value@?$dual_state_global@PEAE@__crt_state_management@@QEAAAEAPEAEXZ 0000000180095150 f i libucrtd:mbctype.obj
 0001:00094170       __acrt_initialize_multibyte 0000000180095170 f   libucrtd:mbctype.obj
 0001:00094240       __acrt_update_thread_multibyte_data 0000000180095240 f   libucrtd:mbctype.obj
 0001:00094280       __p__mbcasemap             0000000180095280 f   libucrtd:mbctype.obj
 0001:000942a0       __p__mbctype               00000001800952a0 f   libucrtd:mbctype.obj
 0001:000942c0       _getmbcp                   00000001800952c0 f   libucrtd:mbctype.obj
 0001:00094340       _setmbcp                   0000000180095340 f   libucrtd:mbctype.obj
 0001:00094380       _setmbcp_nolock            0000000180095380 f   libucrtd:mbctype.obj
 0001:00094ab0       _ismbbalnum                0000000180095ab0 f   libucrtd:ismbbyte.obj
 0001:00094ae0       _ismbbalnum_l              0000000180095ae0 f   libucrtd:ismbbyte.obj
 0001:00094b10       _ismbbalpha                0000000180095b10 f   libucrtd:ismbbyte.obj
 0001:00094b40       _ismbbalpha_l              0000000180095b40 f   libucrtd:ismbbyte.obj
 0001:00094b70       _ismbbblank                0000000180095b70 f   libucrtd:ismbbyte.obj
 0001:00094bb0       _ismbbblank_l              0000000180095bb0 f   libucrtd:ismbbyte.obj
 0001:00094c00       _ismbbgraph                0000000180095c00 f   libucrtd:ismbbyte.obj
 0001:00094c30       _ismbbgraph_l              0000000180095c30 f   libucrtd:ismbbyte.obj
 0001:00094c60       _ismbbkalnum               0000000180095c60 f   libucrtd:ismbbyte.obj
 0001:00094c90       _ismbbkalnum_l             0000000180095c90 f   libucrtd:ismbbyte.obj
 0001:00094cc0       _ismbbkana                 0000000180095cc0 f   libucrtd:ismbbyte.obj
 0001:00094ce0       _ismbbkana_l               0000000180095ce0 f   libucrtd:ismbbyte.obj
 0001:00094d70       _ismbbkprint               0000000180095d70 f   libucrtd:ismbbyte.obj
 0001:00094da0       _ismbbkprint_l             0000000180095da0 f   libucrtd:ismbbyte.obj
 0001:00094dd0       _ismbbkpunct               0000000180095dd0 f   libucrtd:ismbbyte.obj
 0001:00094e00       _ismbbkpunct_l             0000000180095e00 f   libucrtd:ismbbyte.obj
 0001:00094e30       _ismbblead                 0000000180095e30 f   libucrtd:ismbbyte.obj
 0001:00094e60       _ismbblead_l               0000000180095e60 f   libucrtd:ismbbyte.obj
 0001:00094e90       _ismbbprint                0000000180095e90 f   libucrtd:ismbbyte.obj
 0001:00094ec0       _ismbbprint_l              0000000180095ec0 f   libucrtd:ismbbyte.obj
 0001:00094ef0       _ismbbpunct                0000000180095ef0 f   libucrtd:ismbbyte.obj
 0001:00094f20       _ismbbpunct_l              0000000180095f20 f   libucrtd:ismbbyte.obj
 0001:00094f50       _ismbbtrail                0000000180095f50 f   libucrtd:ismbbyte.obj
 0001:00094f80       _ismbbtrail_l              0000000180095f80 f   libucrtd:ismbbyte.obj
 0001:00094fb0       __acrt_initialize_command_line 0000000180095fb0 f   libucrtd:argv_data.obj
 0001:00094fe0       __acrt_uninitialize_command_line 0000000180095fe0 f   libucrtd:argv_data.obj
 0001:00094ff0       __p___argc                 0000000180095ff0 f   libucrtd:argv_data.obj
 0001:00095000       __p___argv                 0000000180096000 f   libucrtd:argv_data.obj
 0001:00095010       __p___wargv                0000000180096010 f   libucrtd:argv_data.obj
 0001:00095020       __p__acmdln                0000000180096020 f   libucrtd:argv_data.obj
 0001:00095030       __p__pgmptr                0000000180096030 f   libucrtd:argv_data.obj
 0001:00095040       __p__wcmdln                0000000180096040 f   libucrtd:argv_data.obj
 0001:00095050       __p__wpgmptr               0000000180096050 f   libucrtd:argv_data.obj
 0001:00095060       _get_pgmptr                0000000180096060 f   libucrtd:argv_data.obj
 0001:000951d0       _get_wpgmptr               00000001800961d0 f   libucrtd:argv_data.obj
 0001:00095450       __acrt_MultiByteToWideChar 0000000180096450 f   libucrtd:multibytetowidechar.obj
 0001:000955c0       __acrt_WideCharToMultiByte 00000001800965c0 f   libucrtd:widechartomultibyte.obj
 0001:00095860       __dcrt_get_narrow_environment_from_os 0000000180096860 f   libucrtd:get_environment_from_os.obj
 0001:00095a90       __dcrt_get_wide_environment_from_os 0000000180096a90 f   libucrtd:get_environment_from_os.obj
 0001:000972d0       ??$get_or_create_environment_nolock@$$V@?$__crt_char_traits@D@@SAPEAPEADXZ 00000001800982d0 f i libucrtd:setenv.obj
 0001:000972e0       ??$get_or_create_environment_nolock@$$V@?$__crt_char_traits@_W@@SAPEAPEA_WXZ 00000001800982e0 f i libucrtd:setenv.obj
 0001:000972f0       ??$set_environment_variable@AEBQEADQEAD@?$__crt_char_traits@D@@SAHAEBQEAD$$QEBQEAD@Z 00000001800982f0 f i libucrtd:setenv.obj
 0001:00097320       ??$set_environment_variable@AEBQEA_WQEA_W@?$__crt_char_traits@_W@@SAHAEBQEA_W$$QEBQEA_W@Z 0000000180098320 f i libucrtd:setenv.obj
 0001:00097350       ??$tcschr@AEBQEADD@?$__crt_char_traits@D@@SAPEADAEBQEAD$$QEAD@Z 0000000180098350 f i libucrtd:setenv.obj
 0001:00097390       ??$tcschr@AEBQEA_WD@?$__crt_char_traits@_W@@SAPEA_WAEBQEA_W$$QEAD@Z 0000000180098390 f i libucrtd:setenv.obj
 0001:000973d0       ??$tcscpy_s@AEAPEADAEB_KAEAPEAD@?$__crt_char_traits@D@@SAHAEAPEADAEB_K0@Z 00000001800983d0 f i libucrtd:setenv.obj
 0001:00097410       ??$tcscpy_s@AEAPEA_WAEB_KAEAPEA_W@?$__crt_char_traits@_W@@SAHAEAPEA_WAEB_K0@Z 0000000180098410 f i libucrtd:setenv.obj
 0001:00097450       ??$tcscpy_s@AEBQEADAEB_KAEBQEAD@?$__crt_char_traits@D@@SAHAEBQEADAEB_K0@Z 0000000180098450 f i libucrtd:setenv.obj
 0001:00097490       ??$tcscpy_s@AEBQEA_WAEB_KAEBQEA_W@?$__crt_char_traits@_W@@SAHAEBQEA_WAEB_K0@Z 0000000180098490 f i libucrtd:setenv.obj
 0001:000974d0       ??$tcsnicoll@AEBQEBDAEAPEADAEB_K@?$__crt_char_traits@D@@SAHAEBQEBDAEAPEADAEB_K@Z 00000001800984d0 f i libucrtd:setenv.obj
 0001:00097510       ??$tcsnicoll@AEBQEB_WAEAPEA_WAEB_K@?$__crt_char_traits@_W@@SAHAEBQEB_WAEAPEA_WAEB_K@Z 0000000180098510 f i libucrtd:setenv.obj
 0001:00097550       ??$tcsnlen@PEADH@?$__crt_char_traits@D@@SA_K$$QEAPEAD$$QEAH@Z 0000000180098550 f i libucrtd:setenv.obj
 0001:00097580       ??$tcsnlen@PEA_WH@?$__crt_char_traits@_W@@SA_K$$QEAPEA_W$$QEAH@Z 0000000180098580 f i libucrtd:setenv.obj
 0001:00097650       ?strchr@@YAPEADQEADH@Z     0000000180098650 f i libucrtd:setenv.obj
 0001:00097670       ?wcschr@@YAPEA_WPEA_W_W@Z  0000000180098670 f i libucrtd:setenv.obj
 0001:000976a0       __dcrt_set_variable_in_narrow_environment_nolock 00000001800986a0 f   libucrtd:setenv.obj
 0001:000976c0       __dcrt_set_variable_in_wide_environment_nolock 00000001800986c0 f   libucrtd:setenv.obj
 0001:000978c0       ?ReadPointerNoFence@@YAPEAXPEDSEAX@Z 00000001800988c0 f i libucrtd:winapi_thunks.obj
 0001:00098490       GetCurrentThreadEffectiveToken 0000000180099490 f i libucrtd:winapi_thunks.obj
 0001:000984a0       __acrt_AppPolicyGetProcessTerminationMethodInternal 00000001800994a0 f   libucrtd:winapi_thunks.obj
 0001:00098500       __acrt_AppPolicyGetShowDeveloperDiagnosticInternal 0000000180099500 f   libucrtd:winapi_thunks.obj
 0001:00098560       __acrt_AppPolicyGetThreadInitializationTypeInternal 0000000180099560 f   libucrtd:winapi_thunks.obj
 0001:000985c0       __acrt_AppPolicyGetWindowingModelInternal 00000001800995c0 f   libucrtd:winapi_thunks.obj
 0001:00098620       __acrt_AreFileApisANSI     0000000180099620 f   libucrtd:winapi_thunks.obj
 0001:00098660       __acrt_CompareStringEx     0000000180099660 f   libucrtd:winapi_thunks.obj
 0001:00098770       __acrt_EnumSystemLocalesEx 0000000180099770 f   libucrtd:winapi_thunks.obj
 0001:000987f0       __acrt_FlsAlloc            00000001800997f0 f   libucrtd:winapi_thunks.obj
 0001:00098810       __acrt_FlsFree             0000000180099810 f   libucrtd:winapi_thunks.obj
 0001:00098830       __acrt_FlsGetValue         0000000180099830 f   libucrtd:winapi_thunks.obj
 0001:00098850       __acrt_FlsGetValue2        0000000180099850 f   libucrtd:winapi_thunks.obj
 0001:00098880       __acrt_FlsSetValue         0000000180099880 f   libucrtd:winapi_thunks.obj
 0001:000988b0       __acrt_GetDateFormatEx     00000001800998b0 f   libucrtd:winapi_thunks.obj
 0001:00098980       __acrt_GetEnabledXStateFeatures 0000000180099980 f   libucrtd:winapi_thunks.obj
 0001:000989c0       __acrt_GetFileInformationByName 00000001800999c0 f   libucrtd:winapi_thunks.obj
 0001:00098a30       __acrt_GetLocaleInfoEx     0000000180099a30 f   libucrtd:winapi_thunks.obj
 0001:00098ac0       __acrt_GetSystemTimePreciseAsFileTime 0000000180099ac0 f   libucrtd:winapi_thunks.obj
 0001:00098b10       __acrt_GetTempPath2W       0000000180099b10 f   libucrtd:winapi_thunks.obj
 0001:00098b70       __acrt_GetTimeFormatEx     0000000180099b70 f   libucrtd:winapi_thunks.obj
 0001:00098c30       __acrt_GetUserDefaultLocaleName 0000000180099c30 f   libucrtd:winapi_thunks.obj
 0001:00098ca0       __acrt_GetXStateFeaturesMask 0000000180099ca0 f   libucrtd:winapi_thunks.obj
 0001:00098d00       __acrt_InitializeCriticalSectionEx 0000000180099d00 f   libucrtd:winapi_thunks.obj
 0001:00098d30       __acrt_IsThreadAFiber      0000000180099d30 f   libucrtd:winapi_thunks.obj
 0001:00098d40       __acrt_IsValidLocaleName   0000000180099d40 f   libucrtd:winapi_thunks.obj
 0001:00098da0       __acrt_LCIDToLocaleName    0000000180099da0 f   libucrtd:winapi_thunks.obj
 0001:00098e20       __acrt_LCMapStringEx       0000000180099e20 f   libucrtd:winapi_thunks.obj
 0001:00098f20       __acrt_LocaleNameToLCID    0000000180099f20 f   libucrtd:winapi_thunks.obj
 0001:00098f80       __acrt_LocateXStateFeature 0000000180099f80 f   libucrtd:winapi_thunks.obj
 0001:00098fe0       __acrt_MessageBoxA         0000000180099fe0 f   libucrtd:winapi_thunks.obj
 0001:00099050       __acrt_MessageBoxW         000000018009a050 f   libucrtd:winapi_thunks.obj
 0001:000990c0       __acrt_RoInitialize        000000018009a0c0 f   libucrtd:winapi_thunks.obj
 0001:00099110       __acrt_RoUninitialize      000000018009a110 f   libucrtd:winapi_thunks.obj
 0001:00099140       __acrt_RtlGenRandom        000000018009a140 f   libucrtd:winapi_thunks.obj
 0001:000991a0       __acrt_SetThreadStackGuarantee 000000018009a1a0 f   libucrtd:winapi_thunks.obj
 0001:000991f0       __acrt_can_show_message_box 000000018009a1f0 f   libucrtd:winapi_thunks.obj
 0001:00099230       __acrt_can_use_vista_locale_apis 000000018009a230 f   libucrtd:winapi_thunks.obj
 0001:00099260       __acrt_can_use_xstate_apis 000000018009a260 f   libucrtd:winapi_thunks.obj
 0001:00099290       __acrt_eagerly_load_locale_apis 000000018009a290 f   libucrtd:winapi_thunks.obj
 0001:000992d0       __acrt_get_parent_window   000000018009a2d0 f   libucrtd:winapi_thunks.obj
 0001:00099350       __acrt_initialize_winapi_thunks 000000018009a350 f   libucrtd:winapi_thunks.obj
 0001:000993a0       __acrt_is_interactive      000000018009a3a0 f   libucrtd:winapi_thunks.obj
 0001:00099490       __acrt_tls2_supported      000000018009a490 f   libucrtd:winapi_thunks.obj
 0001:000994c0       __acrt_uninitialize_winapi_thunks 000000018009a4c0 f   libucrtd:winapi_thunks.obj
 0001:00099560       __acrt_execute_initializers 000000018009a560 f   libucrtd:shared_initialization.obj
 0001:00099650       __acrt_execute_uninitializers 000000018009a650 f   libucrtd:shared_initialization.obj
 0001:000996d0       ??$__crt_fast_decode_pointer@P6AHPEAU_exception@@@Z@@YAP6AHPEAU_exception@@@ZQ6AH0@Z@Z 000000018009a6d0 f i libucrtd:matherr.obj
 0001:000996f0       ??$__crt_fast_encode_pointer@P6AHPEAU_exception@@@Z@@YAP6AHPEAU_exception@@@ZQ6AH0@Z@Z 000000018009a6f0 f i libucrtd:matherr.obj
 0001:00099710       ?initialize@?$dual_state_global@P6AHPEAU_exception@@@Z@__crt_state_management@@QEAAXQ6AHPEAU_exception@@@Z@Z 000000018009a710 f i libucrtd:matherr.obj
 0001:00099720       ?value@?$dual_state_global@P6AHPEAU_exception@@@Z@__crt_state_management@@QEAAAEAP6AHPEAU_exception@@@ZXZ 000000018009a720 f i libucrtd:matherr.obj
 0001:00099730       __acrt_has_user_matherr    000000018009a730 f   libucrtd:matherr.obj
 0001:00099750       __acrt_initialize_user_matherr 000000018009a750 f   libucrtd:matherr.obj
 0001:00099760       __acrt_invoke_user_matherr 000000018009a760 f   libucrtd:matherr.obj
 0001:00099790       __setusermatherr           000000018009a790 f   libucrtd:matherr.obj
 0001:000997c0       _mbsdec                    000000018009a7c0 f   libucrtd:mbsdec.obj
 0001:000997f0       _mbsdec_l                  000000018009a7f0 f   libucrtd:mbsdec.obj
 0001:0009a130       wcsncpy_s                  000000018009b130 f   libucrtd:wcsncpy_s.obj
 0001:0009a800       strncpy_s                  000000018009b800 f   libucrtd:strncpy_s.obj
 0001:0009a840       _iswctype_l                000000018009b840 f   libucrtd:iswctype.obj
 0001:0009a870       iswctype                   000000018009b870 f   libucrtd:iswctype.obj
 0001:0009a900       __acrt_add_locale_ref      000000018009b900 f   libucrtd:locale_refcounting.obj
 0001:0009aa60       __acrt_free_locale         000000018009ba60 f   libucrtd:locale_refcounting.obj
 0001:0009ade0       __acrt_locale_add_lc_time_reference 000000018009bde0 f   libucrtd:locale_refcounting.obj
 0001:0009ae20       __acrt_locale_free_lc_time_if_unreferenced 000000018009be20 f   libucrtd:locale_refcounting.obj
 0001:0009ae80       __acrt_locale_release_lc_time_reference 000000018009be80 f   libucrtd:locale_refcounting.obj
 0001:0009aec0       __acrt_release_locale_ref  000000018009bec0 f   libucrtd:locale_refcounting.obj
 0001:0009b030       __acrt_update_thread_locale_data 000000018009c030 f   libucrtd:locale_refcounting.obj
 0001:0009b0d0       _updatetlocinfoEx_nolock   000000018009c0d0 f   libucrtd:locale_refcounting.obj
 0001:0009b330       __acrt_fp_strflt_to_string 000000018009c330 f   libucrtd:_fptostr.obj
 0001:0009bef0       ??0big_integer@__crt_strtox@@QEAA@AEBU01@@Z 000000018009cef0 f i libucrtd:cfout.obj
 0001:0009bf50       ??0big_integer@__crt_strtox@@QEAA@XZ 000000018009cf50 f i libucrtd:cfout.obj
 0001:0009c0a0       ??4big_integer@__crt_strtox@@QEAAAEAU01@AEBU01@@Z 000000018009d0a0 f i libucrtd:cfout.obj
 0001:0009c100       ??8__crt_strtox@@YA_NAEBUbig_integer@0@0@Z 000000018009d100 f i libucrtd:cfout.obj
 0001:0009c170       ??9__crt_strtox@@YA_NAEBUbig_integer@0@0@Z 000000018009d170 f i libucrtd:cfout.obj
 0001:0009c1b0       ?add_carry@__crt_strtox@@YAIAEAIII@Z 000000018009d1b0 f i libucrtd:cfout.obj
 0001:0009c200       ?add_multiply_carry@__crt_strtox@@YAIAEAIIII@Z 000000018009d200 f i libucrtd:cfout.obj
 0001:0009c260       ?bit_scan_reverse@__crt_strtox@@YAII@Z 000000018009d260 f i libucrtd:cfout.obj
 0001:0009c2a0       ?count_sequential_high_zeroes@__crt_strtox@@YAII@Z 000000018009d2a0 f i libucrtd:cfout.obj
 0001:0009c2f0       ?divide@__crt_strtox@@YA_KAEAUbig_integer@1@AEBU21@@Z 000000018009d2f0 f i libucrtd:cfout.obj
 0001:0009ccc0       ?is_zero@__crt_strtox@@YA_NAEBUbig_integer@1@@Z 000000018009dcc0 f i libucrtd:cfout.obj
 0001:0009ccf0       ?make_big_integer@__crt_strtox@@YA?AUbig_integer@1@_K@Z 000000018009dcf0 f i libucrtd:cfout.obj
 0001:0009cdc0       ?make_big_integer_power_of_two@__crt_strtox@@YA?AUbig_integer@1@I@Z 000000018009ddc0 f i libucrtd:cfout.obj
 0001:0009ce90       ?multiply@__crt_strtox@@YA_NAEAUbig_integer@1@AEBU21@@Z 000000018009de90 f i libucrtd:cfout.obj
 0001:0009d210       ?multiply@__crt_strtox@@YA_NAEAUbig_integer@1@I@Z 000000018009e210 f i libucrtd:cfout.obj
 0001:0009d330       ?multiply_64_32@__crt_strtox@@YA_K_KI@Z 000000018009e330 f i libucrtd:cfout.obj
 0001:0009d350       ?multiply_by_power_of_ten@__crt_strtox@@YA_NAEAUbig_integer@1@I@Z 000000018009e350 f i libucrtd:cfout.obj
 0001:0009d500       ?multiply_core@__crt_strtox@@YAIQEAIII@Z 000000018009e500 f i libucrtd:cfout.obj
 0001:0009d580       ?shift_left@__crt_strtox@@YA_NAEAUbig_integer@1@I@Z 000000018009e580 f i libucrtd:cfout.obj
 0001:0009d860       __acrt_fltout              000000018009e860 f   libucrtd:cfout.obj
 0001:0009dd90       __fpe_flt_rounds           000000018009ed90 f   libucrtd:fegetround.obj
 0001:0009dde0       fegetround                 000000018009ede0 f   libucrtd:fegetround.obj
 0001:0009de00       ??$?RG@__crt_internal_free_policy@@QEBAXQEBG@Z 000000018009ee00 f i libucrtd:initctype.obj
 0001:0009de30       ??$?RJ@__crt_internal_free_policy@@QEBAXQEBJ@Z 000000018009ee30 f i libucrtd:initctype.obj
 0001:0009de60       ??0?$__crt_unique_heap_ptr@GU__crt_internal_free_policy@@@@QEAA@QEAG@Z 000000018009ee60 f i libucrtd:initctype.obj
 0001:0009de80       ??0?$__crt_unique_heap_ptr@JU__crt_internal_free_policy@@@@QEAA@QEAJ@Z 000000018009ee80 f i libucrtd:initctype.obj
 0001:0009dea0       ??1?$__crt_unique_heap_ptr@GU__crt_internal_free_policy@@@@QEAA@XZ 000000018009eea0 f i libucrtd:initctype.obj
 0001:0009dec0       ??1?$__crt_unique_heap_ptr@JU__crt_internal_free_policy@@@@QEAA@XZ 000000018009eec0 f i libucrtd:initctype.obj
 0001:0009dee0       ?detach@?$__crt_unique_heap_ptr@GU__crt_internal_free_policy@@@@QEAAPEAGXZ 000000018009eee0 f i libucrtd:initctype.obj
 0001:0009df10       ?detach@?$__crt_unique_heap_ptr@JU__crt_internal_free_policy@@@@QEAAPEAJXZ 000000018009ef10 f i libucrtd:initctype.obj
 0001:0009df40       ?release@?$__crt_unique_heap_ptr@GU__crt_internal_free_policy@@@@QEAAXXZ 000000018009ef40 f i libucrtd:initctype.obj
 0001:0009df70       ?release@?$__crt_unique_heap_ptr@JU__crt_internal_free_policy@@@@QEAAXXZ 000000018009ef70 f i libucrtd:initctype.obj
 0001:0009dfa0       ___lc_codepage_func        000000018009efa0 f   libucrtd:initctype.obj
 0001:0009dfe0       ___lc_collate_cp_func      000000018009efe0 f   libucrtd:initctype.obj
 0001:0009e020       ___lc_locale_name_func     000000018009f020 f   libucrtd:initctype.obj
 0001:0009e060       ___mb_cur_max_func         000000018009f060 f   libucrtd:initctype.obj
 0001:0009e0a0       ___mb_cur_max_l_func       000000018009f0a0 f   libucrtd:initctype.obj
 0001:0009e0e0       __acrt_locale_initialize_ctype 000000018009f0e0 f   libucrtd:initctype.obj
 0001:0009ebd0       ?__c32rtomb_utf8@__crt_mbstring@@YA_KPEAD_UPEAU_Mbstatet@@AEAV__crt_cached_ptd_host@@@Z 000000018009fbd0 f   libucrtd:c32rtomb.obj
 0001:0009ee80       c32rtomb                   000000018009fe80 f   libucrtd:c32rtomb.obj
 0001:0009eee0       ?reset_and_return@__crt_mbstring@@YA_K_KPEAU_Mbstatet@@@Z 000000018009fee0 f   libucrtd:common_utf8.obj
 0001:0009ef20       ?return_illegal_sequence@__crt_mbstring@@YA_KPEAU_Mbstatet@@AEAV__crt_cached_ptd_host@@@Z 000000018009ff20 f   libucrtd:common_utf8.obj
 0001:0009ef80       ?is_in_use@__crt_stdio_stream@@QEBA_NXZ 000000018009ff80 f i libucrtd:closeall.obj
 0001:0009efc0       _fcloseall                 000000018009ffc0 f   libucrtd:closeall.obj
 0001:0009f0d0       ?has_crt_buffer@__crt_stdio_stream@@QEBA_NXZ 00000001800a00d0 f i libucrtd:_freebuf.obj
 0001:0009f0f0       __acrt_stdio_free_buffer_nolock 00000001800a00f0 f   libucrtd:_freebuf.obj
 0001:0009fbf0       ?has_big_buffer@__crt_stdio_stream@@QEBA_NXZ 00000001800a0bf0 f i libucrtd:_flsbuf.obj
 0001:0009fd40       __acrt_stdio_flush_and_write_narrow_nolock 00000001800a0d40 f   libucrtd:_flsbuf.obj
 0001:0009fd80       __acrt_stdio_flush_and_write_wide_nolock 00000001800a0d80 f   libucrtd:_flsbuf.obj
 0001:0009fdc0       _isatty                    00000001800a0dc0 f   libucrtd:isatty.obj
 0001:0009fed0       ??$?RUlconv@@@__crt_internal_free_policy@@QEBAXQEBUlconv@@@Z 00000001800a0ed0 f i libucrtd:initmon.obj
 0001:0009ff00       ??0?$__crt_unique_heap_ptr@Ulconv@@U__crt_internal_free_policy@@@@QEAA@QEAUlconv@@@Z 00000001800a0f00 f i libucrtd:initmon.obj
 0001:0009ff20       ??1?$__crt_unique_heap_ptr@Ulconv@@U__crt_internal_free_policy@@@@QEAA@XZ 00000001800a0f20 f i libucrtd:initmon.obj
 0001:0009ff40       ?detach@?$__crt_unique_heap_ptr@Ulconv@@U__crt_internal_free_policy@@@@QEAAPEAUlconv@@XZ 00000001800a0f40 f i libucrtd:initmon.obj
 0001:0009ff70       ?release@?$__crt_unique_heap_ptr@Ulconv@@U__crt_internal_free_policy@@@@QEAAXXZ 00000001800a0f70 f i libucrtd:initmon.obj
 0001:0009ffa0       __acrt_locale_free_monetary 00000001800a0fa0 f   libucrtd:initmon.obj
 0001:000a01b0       __acrt_locale_initialize_monetary 00000001800a11b0 f   libucrtd:initmon.obj
 0001:000a0b90       __acrt_locale_free_numeric 00000001800a1b90 f   libucrtd:initnum.obj
 0001:000a0c70       __acrt_locale_initialize_numeric 00000001800a1c70 f   libucrtd:initnum.obj
 0001:000a12b0       ??$?RU__crt_lc_time_data@@@__crt_internal_free_policy@@QEBAXQEBU__crt_lc_time_data@@@Z 00000001800a22b0 f i libucrtd:inittime.obj
 0001:000a13a0       ??0?$__crt_unique_heap_ptr@U__crt_lc_time_data@@U__crt_internal_free_policy@@@@QEAA@QEAU__crt_lc_time_data@@@Z 00000001800a23a0 f i libucrtd:inittime.obj
 0001:000a13c0       ??1?$__crt_unique_heap_ptr@U__crt_lc_time_data@@U__crt_internal_free_policy@@@@QEAA@XZ 00000001800a23c0 f i libucrtd:inittime.obj
 0001:000a13e0       ??B?$__crt_unique_heap_ptr@U__crt_lc_time_data@@U__crt_internal_free_policy@@@@QEBA_NXZ 00000001800a23e0 f i libucrtd:inittime.obj
 0001:000a1400       ?detach@?$__crt_unique_heap_ptr@U__crt_lc_time_data@@U__crt_internal_free_policy@@@@QEAAPEAU__crt_lc_time_data@@XZ 00000001800a2400 f i libucrtd:inittime.obj
 0001:000a1490       ?get@?$__crt_unique_heap_ptr@U__crt_lc_time_data@@U__crt_internal_free_policy@@@@QEBAPEAU__crt_lc_time_data@@XZ 00000001800a2490 f i libucrtd:inittime.obj
 0001:000a1b00       ?is_valid@?$__crt_unique_heap_ptr@U__crt_lc_time_data@@U__crt_internal_free_policy@@@@QEBA_NXZ 00000001800a2b00 f i libucrtd:inittime.obj
 0001:000a1b30       ?release@?$__crt_unique_heap_ptr@U__crt_lc_time_data@@U__crt_internal_free_policy@@@@QEAAXXZ 00000001800a2b30 f i libucrtd:inittime.obj
 0001:000a1b60       __acrt_locale_free_time    00000001800a2b60 f   libucrtd:inittime.obj
 0001:000a1cd0       __acrt_locale_initialize_time 00000001800a2cd0 f   libucrtd:inittime.obj
 0001:000a1d70       __pctype_func              00000001800a2d70 f   libucrtd:ctype.obj
 0001:000a1db0       __pwctype_func             00000001800a2db0 f   libucrtd:ctype.obj
 0001:000a1dc0       wcscmp                     00000001800a2dc0 f   libucrtd:wcscmpc.obj
 0001:000a1e60       wcscspn                    00000001800a2e60 f   libucrtd:wcscspn.obj
 0001:000a1ef0       wcspbrk                    00000001800a2ef0 f   libucrtd:wcspbrk.obj
 0001:000a1f50       ??0?$__crt_scoped_stack_ptr@_W@@QEAA@U?$__crt_scoped_stack_ptr_tag@_W@@@Z 00000001800a2f50 f i libucrtd:getstringtypea.obj
 0001:000a1f70       ??0?$__crt_scoped_stack_ptr_tag@_W@@QEAA@QEA_W@Z 00000001800a2f70 f i libucrtd:getstringtypea.obj
 0001:000a1f90       ??1?$__crt_scoped_stack_ptr@_W@@QEAA@XZ 00000001800a2f90 f i libucrtd:getstringtypea.obj
 0001:000a1fb0       ?get@?$__crt_scoped_stack_ptr@_W@@QEBAPEA_WXZ 00000001800a2fb0 f i libucrtd:getstringtypea.obj
 0001:000a1fc0       _MallocaComputeSize        00000001800a2fc0 f i libucrtd:getstringtypea.obj
 0001:000a2000       _MarkAllocaS               00000001800a3000 f i libucrtd:getstringtypea.obj
 0001:000a2030       __acrt_GetStringTypeA      00000001800a3030 f   libucrtd:getstringtypea.obj
 0001:000a2290       _freea_crt                 00000001800a3290 f i libucrtd:getstringtypea.obj
 0001:000a3030       __acrt_get_qualified_locale 00000001800a4030 f   libucrtd:get_qualified_locale.obj
 0001:000a41b0       __acrt_get_qualified_locale_downlevel 00000001800a51b0 f   libucrtd:getqloc_downlevel.obj
 0001:000a4550       localeconv                 00000001800a5550 f   libucrtd:localeconv.obj
 0001:000a4590       ??$?RU__crt_lowio_handle_data@@@__crt_internal_free_policy@@QEBAXQEBU__crt_lowio_handle_data@@@Z 00000001800a5590 f i libucrtd:osfinfo.obj
 0001:000a45c0       ??0?$__crt_unique_heap_ptr@U__crt_lowio_handle_data@@U__crt_internal_free_policy@@@@QEAA@QEAU__crt_lowio_handle_data@@@Z 00000001800a55c0 f i libucrtd:osfinfo.obj
 0001:000a45e0       ??1?$__crt_unique_heap_ptr@U__crt_lowio_handle_data@@U__crt_internal_free_policy@@@@QEAA@XZ 00000001800a55e0 f i libucrtd:osfinfo.obj
 0001:000a4600       ??B?$__crt_unique_heap_ptr@U__crt_lowio_handle_data@@U__crt_internal_free_policy@@@@QEBA_NXZ 00000001800a5600 f i libucrtd:osfinfo.obj
 0001:000a4620       ?detach@?$__crt_unique_heap_ptr@U__crt_lowio_handle_data@@U__crt_internal_free_policy@@@@QEAAPEAU__crt_lowio_handle_data@@XZ 00000001800a5620 f i libucrtd:osfinfo.obj
 0001:000a4650       ?get@?$__crt_unique_heap_ptr@U__crt_lowio_handle_data@@U__crt_internal_free_policy@@@@QEBAPEAU__crt_lowio_handle_data@@XZ 00000001800a5650 f i libucrtd:osfinfo.obj
 0001:000a4660       ?is_valid@?$__crt_unique_heap_ptr@U__crt_lowio_handle_data@@U__crt_internal_free_policy@@@@QEBA_NXZ 00000001800a5660 f i libucrtd:osfinfo.obj
 0001:000a4690       ?release@?$__crt_unique_heap_ptr@U__crt_lowio_handle_data@@U__crt_internal_free_policy@@@@QEAAXXZ 00000001800a5690 f i libucrtd:osfinfo.obj
 0001:000a46c0       __acrt_lowio_create_handle_array 00000001800a56c0 f   libucrtd:osfinfo.obj
 0001:000a4880       __acrt_lowio_destroy_handle_array 00000001800a5880 f   libucrtd:osfinfo.obj
 0001:000a4900       __acrt_lowio_ensure_fh_exists 00000001800a5900 f   libucrtd:osfinfo.obj
 0001:000a4a60       __acrt_lowio_lock_fh       00000001800a5a60 f   libucrtd:osfinfo.obj
 0001:000a4aa0       __acrt_lowio_set_os_handle 00000001800a5aa0 f   libucrtd:osfinfo.obj
 0001:000a4bb0       __acrt_lowio_unlock_fh     00000001800a5bb0 f   libucrtd:osfinfo.obj
 0001:000a4bf0       _alloc_osfhnd              00000001800a5bf0 f   libucrtd:osfinfo.obj
 0001:000a4e00       _free_osfhnd               00000001800a5e00 f   libucrtd:osfinfo.obj
 0001:000a4f30       _get_osfhandle             00000001800a5f30 f   libucrtd:osfinfo.obj
 0001:000a5130       _open_osfhandle            00000001800a6130 f   libucrtd:osfinfo.obj
 0001:000a5350       __acrt_OutputDebugStringA  00000001800a6350 f   libucrtd:outputdebugstringa.obj
 0001:000a5630       _commit                    00000001800a6630 f   libucrtd:commit.obj
 0001:000a7060       _utf8_no_of_trailbytes     00000001800a8060 f i libucrtd:write.obj
 0001:000a7080       _write                     00000001800a8080 f   libucrtd:write.obj
 0001:000a70e0       _write_internal            00000001800a80e0 f   libucrtd:write.obj
 0001:000a7480       _write_nolock              00000001800a8480 f   libucrtd:write.obj
 0001:000a8690       _mbstowcs_l                00000001800a9690 f   libucrtd:mbstowcs.obj
 0001:000a8700       _mbstowcs_s_l              00000001800a9700 f   libucrtd:mbstowcs.obj
 0001:000a8790       mbstowcs                   00000001800a9790 f   libucrtd:mbstowcs.obj
 0001:000a87f0       mbstowcs_s                 00000001800a97f0 f   libucrtd:mbstowcs.obj
 0001:000a9680       _wcstombs_l                00000001800aa680 f   libucrtd:wcstombs.obj
 0001:000a96f0       _wcstombs_s_l              00000001800aa6f0 f   libucrtd:wcstombs.obj
 0001:000a9780       wcstombs                   00000001800aa780 f   libucrtd:wcstombs.obj
 0001:000a97e0       wcstombs_s                 00000001800aa7e0 f   libucrtd:wcstombs.obj
 0001:000a9860       _malloc_base               00000001800aa860 f   libucrtd:malloc_base.obj
 0001:000a9a70       qsort                      00000001800aaa70 f   libucrtd:qsort.obj
 0001:000aa290       strpbrk                    00000001800ab290 f   libucrtd:strpbrk.obj
 0001:000aabc0       ??B?$__crt_scoped_stack_ptr@_W@@QEBA_NXZ 00000001800abbc0 f i libucrtd:lcmapstringa.obj
 0001:000ab200       __acrt_LCMapStringA        00000001800ac200 f   libucrtd:lcmapstringa.obj
 0001:000ab2e0       _wcsnicoll                 00000001800ac2e0 f   libucrtd:wcsnicol.obj
 0001:000ab530       _wcsnicoll_l               00000001800ac530 f   libucrtd:wcsnicol.obj
 0001:000ab870       _strnicoll                 00000001800ac870 f   libucrtd:strnicol.obj
 0001:000ab8d0       _strnicoll_l               00000001800ac8d0 f   libucrtd:strnicol.obj
 0001:000abce0       __acrt_SetEnvironmentVariableA 00000001800acce0 f   libucrtd:setenvironmentvariablea.obj
 0001:000abf30       __acrt_DownlevelLCIDToLocaleName 00000001800acf30 f   libucrtd:lcidtoname_downlevel.obj
 0001:000ac050       __acrt_DownlevelLocaleNameToLCID 00000001800ad050 f   libucrtd:lcidtoname_downlevel.obj
 0001:000ac0b0       __acrt_GetStringTypeW      00000001800ad0b0 f   libucrtd:getstringtypew.obj
 0001:000ac0f0       log10                      00000001800ad0f0 f   libucrtd:log10.obj
 0001:000ac6a0       ceil                       00000001800ad6a0 f   libucrtd:ceil.obj
 0001:000ac770       _controlfp_s               00000001800ad770 f   libucrtd:contrlfp.obj
 0001:000ac840       fegetenv                   00000001800ad840 f   libucrtd:fegetenv.obj
 0001:000ac860       fesetenv                   00000001800ad860 f   libucrtd:fesetenv.obj
 0001:000ac8d0       feholdexcept               00000001800ad8d0 f   libucrtd:feholdexcept.obj
 0001:000ac930       ??$__acrt_fenv_shift_bits@W4__acrt_fenv_abstract_control@@@@YA?AW4__acrt_fenv_abstract_control@@W40@0I@Z 00000001800ad930 f i libucrtd:_fenvutils.obj
 0001:000ac940       ??$__acrt_fenv_shift_bits@W4__acrt_fenv_abstract_status@@@@YA?AW4__acrt_fenv_abstract_status@@W40@0I@Z 00000001800ad940 f i libucrtd:_fenvutils.obj
 0001:000ac950       ??$__acrt_fenv_translate_bit@W4__acrt_fenv_abstract_control@@W4__acrt_fenv_machine_sse_control@@@@YA?AW4__acrt_fenv_abstract_control@@W4__acrt_fenv_machine_sse_control@@0W40@1@Z 00000001800ad950 f i libucrtd:_fenvutils.obj
 0001:000ac960       ??$__acrt_fenv_translate_bit@W4__acrt_fenv_abstract_status@@W4__acrt_fenv_machine_sse_status@@@@YA?AW4__acrt_fenv_abstract_status@@W4__acrt_fenv_machine_sse_status@@0W40@1@Z 00000001800ad960 f i libucrtd:_fenvutils.obj
 0001:000ac970       ??$__acrt_fenv_translate_bit@W4__acrt_fenv_machine_sse_control@@W4__acrt_fenv_abstract_control@@@@YA?AW4__acrt_fenv_machine_sse_control@@W4__acrt_fenv_abstract_control@@0W40@1@Z 00000001800ad970 f i libucrtd:_fenvutils.obj
 0001:000ac980       ??$__acrt_fenv_translate_bit@W4__acrt_fenv_machine_sse_status@@W4__acrt_fenv_abstract_status@@@@YA?AW4__acrt_fenv_machine_sse_status@@W4__acrt_fenv_abstract_status@@0W40@1@Z 00000001800ad980 f i libucrtd:_fenvutils.obj
 0001:000ac990       ??$__acrt_fenv_unshift_bits@W4__acrt_fenv_abstract_control@@@@YA?AW4__acrt_fenv_abstract_control@@W40@0I@Z 00000001800ad990 f i libucrtd:_fenvutils.obj
 0001:000ac9a0       ??$__acrt_fenv_unshift_bits@W4__acrt_fenv_abstract_status@@@@YA?AW4__acrt_fenv_abstract_status@@W40@0I@Z 00000001800ad9a0 f i libucrtd:_fenvutils.obj
 0001:000acbb0       ??I@YA?AW4__acrt_fenv_abstract_control@@W40@0@Z 00000001800adbb0 f i libucrtd:_fenvutils.obj
 0001:000acbc0       ??I@YA?AW4__acrt_fenv_abstract_status@@W40@0@Z 00000001800adbc0 f i libucrtd:_fenvutils.obj
 0001:000acbd0       ??I@YA?AW4__acrt_fenv_machine_sse_control@@W40@0@Z 00000001800adbd0 f i libucrtd:_fenvutils.obj
 0001:000acbe0       ??I@YA?AW4__acrt_fenv_machine_sse_status@@W40@0@Z 00000001800adbe0 f i libucrtd:_fenvutils.obj
 0001:000acbf0       ??U@YA?AW4__acrt_fenv_abstract_control@@W40@0@Z 00000001800adbf0 f i libucrtd:_fenvutils.obj
 0001:000acc00       ??U@YA?AW4__acrt_fenv_abstract_status@@W40@0@Z 00000001800adc00 f i libucrtd:_fenvutils.obj
 0001:000acc10       ??U@YA?AW4__acrt_fenv_machine_sse_control@@W40@0@Z 00000001800adc10 f i libucrtd:_fenvutils.obj
 0001:000acc20       ??_5@YAAEAW4__acrt_fenv_abstract_control@@AEAW40@W40@@Z 00000001800adc20 f i libucrtd:_fenvutils.obj
 0001:000acc30       ??_5@YAAEAW4__acrt_fenv_abstract_status@@AEAW40@W40@@Z 00000001800adc30 f i libucrtd:_fenvutils.obj
 0001:000acc40       ??_5@YAAEAW4__acrt_fenv_machine_sse_control@@AEAW40@W40@@Z 00000001800adc40 f i libucrtd:_fenvutils.obj
 0001:000acc50       ??_5@YAAEAW4__acrt_fenv_machine_sse_status@@AEAW40@W40@@Z 00000001800adc50 f i libucrtd:_fenvutils.obj
 0001:000acc60       ?__acrt_fenv_shift_abstract_sse_control@@YA?AW4__acrt_fenv_abstract_control@@W41@@Z 00000001800adc60 f i libucrtd:_fenvutils.obj
 0001:000acc80       ?__acrt_fenv_shift_abstract_sse_status@@YA?AW4__acrt_fenv_abstract_status@@W41@@Z 00000001800adc80 f i libucrtd:_fenvutils.obj
 0001:000acc90       ?__acrt_fenv_unshift_abstract_sse_control@@YA?AW4__acrt_fenv_abstract_control@@W41@@Z 00000001800adc90 f i libucrtd:_fenvutils.obj
 0001:000accb0       ?__acrt_fenv_unshift_abstract_sse_status@@YA?AW4__acrt_fenv_abstract_status@@W41@@Z 00000001800adcb0 f i libucrtd:_fenvutils.obj
 0001:000acfc0       __acrt_fenv_expand_round_control 00000001800adfc0 f   libucrtd:_fenvutils.obj
 0001:000acfe0       __acrt_fenv_get_common_round_control 00000001800adfe0 f   libucrtd:_fenvutils.obj
 0001:000acff0       __acrt_fenv_get_control    00000001800adff0 f   libucrtd:_fenvutils.obj
 0001:000ad0d0       __acrt_fenv_get_fp_status_word_from_exception_mask 00000001800ae0d0 f   libucrtd:_fenvutils.obj
 0001:000ad0e0       __acrt_fenv_get_status     00000001800ae0e0 f   libucrtd:_fenvutils.obj
 0001:000ad140       __acrt_fenv_set_control    00000001800ae140 f   libucrtd:_fenvutils.obj
 0001:000ad270       __acrt_fenv_set_status     00000001800ae270 f   libucrtd:_fenvutils.obj
 0001:000ad510       __acrt_GetLocaleInfoA      00000001800ae510 f   libucrtd:getlocaleinfoa.obj
 0001:000adc80       _fclose_nolock             00000001800aec80 f   libucrtd:fclose.obj
 0001:000adcc0       fclose                     00000001800aecc0 f   libucrtd:fclose.obj
 0001:000ae850       _lseek                     00000001800af850 f   libucrtd:lseek.obj
 0001:000ae8b0       _lseek_internal            00000001800af8b0 f   libucrtd:lseek.obj
 0001:000ae8f0       _lseek_nolock              00000001800af8f0 f   libucrtd:lseek.obj
 0001:000ae950       _lseek_nolock_internal     00000001800af950 f   libucrtd:lseek.obj
 0001:000ae990       _lseeki64                  00000001800af990 f   libucrtd:lseek.obj
 0001:000ae9f0       _lseeki64_internal         00000001800af9f0 f   libucrtd:lseek.obj
 0001:000aea30       _lseeki64_nolock           00000001800afa30 f   libucrtd:lseek.obj
 0001:000aea90       _lseeki64_nolock_internal  00000001800afa90 f   libucrtd:lseek.obj
 0001:000aead0       __acrt_stdio_allocate_buffer_nolock 00000001800afad0 f   libucrtd:_getbuf.obj
 0001:000aedc0       __ascii_wcsicmp            00000001800afdc0 f   libucrtd:wcsicmp.obj
 0001:000aee90       _towlower_fast_internal    00000001800afe90 f i libucrtd:wcsicmp.obj
 0001:000aeee0       _towlower_internal         00000001800afee0 f i libucrtd:wcsicmp.obj
 0001:000aef20       _wcsicmp                   00000001800aff20 f   libucrtd:wcsicmp.obj
 0001:000aef90       _wcsicmp_l                 00000001800aff90 f   libucrtd:wcsicmp.obj
 0001:000af3e0       __ascii_wcsnicmp           00000001800b03e0 f   libucrtd:wcsnicmp.obj
 0001:000af4e0       _wcsnicmp                  00000001800b04e0 f   libucrtd:wcsnicmp.obj
 0001:000af560       _wcsnicmp_l                00000001800b0560 f   libucrtd:wcsnicmp.obj
 0001:000afa00       _putwch                    00000001800b0a00 f   libucrtd:putwch.obj
 0001:000afa30       _putwch_nolock             00000001800b0a30 f   libucrtd:putwch.obj
 0001:000afa80       _putwch_nolock_internal    00000001800b0a80 f   libucrtd:putwch.obj
 0001:000b0980       _read                      00000001800b1980 f   libucrtd:read.obj
 0001:000b0cd0       _read_nolock               00000001800b1cd0 f   libucrtd:read.obj
 0001:000b1ac0       ?__wcsrtombs_utf8@__crt_mbstring@@YA_KPEADPEAPEB_W_KPEAU_Mbstatet@@AEAV__crt_cached_ptd_host@@@Z 00000001800b2ac0 f   libucrtd:wcrtomb.obj
 0001:000b2740       wcrtomb                    00000001800b3740 f   libucrtd:wcrtomb.obj
 0001:000b27c0       wcrtomb_s                  00000001800b37c0 f   libucrtd:wcrtomb.obj
 0001:000b2840       wcsrtombs                  00000001800b3840 f   libucrtd:wcrtomb.obj
 0001:000b28c0       wcsrtombs_s                00000001800b38c0 f   libucrtd:wcrtomb.obj
 0001:000b2f00       wctob                      00000001800b3f00 f   libucrtd:wcrtomb.obj
 0001:000b300c       _guard_check_icall         00000001800b400c f i libucrtd:checkcfg.obj
 0001:000b3030       __strncnt                  00000001800b4030 f   libucrtd:strncnt.obj
 0001:000b3090       __acrt_CompareStringW      00000001800b4090 f   libucrtd:comparestringw.obj
 0001:000b33e0       __ascii_strnicmp           00000001800b43e0 f   libucrtd:strnicmp.obj
 0001:000b34e0       _strnicmp                  00000001800b44e0 f   libucrtd:strnicmp.obj
 0001:000b3570       _strnicmp_l                00000001800b4570 f   libucrtd:strnicmp.obj
 0001:000b3fd0       __acrt_CompareStringA      00000001800b4fd0 f   libucrtd:comparestringa.obj
 0001:000b4070       __acrt_initialize_fma3     00000001800b5070 f   libucrtd:fma3_available.obj
 0001:000b4130       _get_FMA3_enable           00000001800b5130 f   libucrtd:fma3_available.obj
 0001:000b4140       _set_FMA3_enable           00000001800b5140 f   libucrtd:fma3_available.obj
 0001:000b4180       _log10_special             00000001800b5180 f   libucrtd:log_special.obj
 0001:000b41a0       _log10f_special            00000001800b51a0 f   libucrtd:log_special.obj
 0001:000b41c0       _log_special               00000001800b51c0 f   libucrtd:log_special.obj
 0001:000b4280       _logf_special              00000001800b5280 f   libucrtd:log_special.obj
 0001:000b44c0       _handle_error              00000001800b54c0 f   libucrtd:libm_error.obj
 0001:000b4600       _handle_errorf             00000001800b5600 f   libucrtd:libm_error.obj
 0001:000b4740       _handle_nan                00000001800b5740 f   libucrtd:libm_error.obj
 0001:000b4760       _handle_nanf               00000001800b5760 f   libucrtd:libm_error.obj
 0001:000b4770       round_sse41                00000001800b5770 f   libucrtd:floorceil_sse41.obj
 0001:000b47a0       roundf_sse41               00000001800b57a0 f   libucrtd:floorceil_sse41.obj
 0001:000b47c0       floor_sse41                00000001800b57c0 f   libucrtd:floorceil_sse41.obj
 0001:000b47d0       floorf_sse41               00000001800b57d0 f   libucrtd:floorceil_sse41.obj
 0001:000b47e0       ceil_sse41                 00000001800b57e0 f   libucrtd:floorceil_sse41.obj
 0001:000b47f0       ceilf_sse41                00000001800b57f0 f   libucrtd:floorceil_sse41.obj
 0001:000b4800       trunc_sse41                00000001800b5800 f   libucrtd:floorceil_sse41.obj
 0001:000b4810       truncl_sse41               00000001800b5810 f   libucrtd:floorceil_sse41.obj
 0001:000b4820       truncf_sse41               00000001800b5820 f   libucrtd:floorceil_sse41.obj
 0001:000b4830       nearbyint_sse41            00000001800b5830 f   libucrtd:floorceil_sse41.obj
 0001:000b4840       nearbyintl_sse41           00000001800b5840 f   libucrtd:floorceil_sse41.obj
 0001:000b4850       nearbyintf_sse41           00000001800b5850 f   libucrtd:floorceil_sse41.obj
 0001:000b4860       rint_sse41                 00000001800b5860 f   libucrtd:floorceil_sse41.obj
 0001:000b4870       rintl_sse41                00000001800b5870 f   libucrtd:floorceil_sse41.obj
 0001:000b4880       rintf_sse41                00000001800b5880 f   libucrtd:floorceil_sse41.obj
 0001:000b49b0       _clearfp                   00000001800b59b0 f   libucrtd:ieee.obj
 0001:000b4a20       _control87                 00000001800b5a20 f   libucrtd:ieee.obj
 0001:000b4a30       _controlfp                 00000001800b5a30 f   libucrtd:ieee.obj
 0001:000b4a40       _fpreset                   00000001800b5a40 f   libucrtd:ieee.obj
 0001:000b4b10       _set_controlfp             00000001800b5b10 f   libucrtd:ieee.obj
 0001:000b4b40       _statusfp                  00000001800b5b40 f   libucrtd:ieee.obj
 0001:000b5180       _close                     00000001800b6180 f   libucrtd:close.obj
 0001:000b51c0       _close_internal            00000001800b61c0 f   libucrtd:close.obj
 0001:000b5480       _close_nolock              00000001800b6480 f   libucrtd:close.obj
 0001:000b54c0       _close_nolock_internal     00000001800b64c0 f   libucrtd:close.obj
 0001:000b5530       ??$?RU__crt_stdio_stream_data@@@__crt_internal_free_policy@@QEBAXQEBU__crt_stdio_stream_data@@@Z 00000001800b6530 f i libucrtd:stream.obj
 0001:000b5560       ??0?$__crt_unique_heap_ptr@U__crt_stdio_stream_data@@U__crt_internal_free_policy@@@@QEAA@QEAU__crt_stdio_stream_data@@@Z 00000001800b6560 f i libucrtd:stream.obj
 0001:000b5580       ??0__crt_stdio_stream@@QEAA@XZ 00000001800b6580 f i libucrtd:stream.obj
 0001:000b55a0       ??1?$__crt_unique_heap_ptr@U__crt_stdio_stream_data@@U__crt_internal_free_policy@@@@QEAA@XZ 00000001800b65a0 f i libucrtd:stream.obj
 0001:000b55c0       ?__acrt_stdio_allocate_stream@@YA?AV__crt_stdio_stream@@XZ 00000001800b65c0 f   libucrtd:stream.obj
 0001:000b5680       ?__acrt_stdio_free_stream@@YAXV__crt_stdio_stream@@@Z 00000001800b6680 f   libucrtd:stream.obj
 0001:000b5720       ?deallocate@__crt_stdio_stream@@QEAAXXZ 00000001800b6720 f i libucrtd:stream.obj
 0001:000b5740       ?detach@?$__crt_unique_heap_ptr@U__crt_stdio_stream_data@@U__crt_internal_free_policy@@@@QEAAPEAU__crt_stdio_stream_data@@XZ 00000001800b6740 f i libucrtd:stream.obj
 0001:000b5920       ?lock@__crt_stdio_stream@@QEBAXXZ 00000001800b6920 f i libucrtd:stream.obj
 0001:000b5940       ?release@?$__crt_unique_heap_ptr@U__crt_stdio_stream_data@@U__crt_internal_free_policy@@@@QEAAXXZ 00000001800b6940 f i libucrtd:stream.obj
 0001:000b5970       ?try_allocate@__crt_stdio_stream@@QEAA_NXZ 00000001800b6970 f i libucrtd:stream.obj
 0001:000b59e0       ?unlock@__crt_stdio_stream@@QEBAXXZ 00000001800b69e0 f i libucrtd:stream.obj
 0001:000b5a00       _towlower_l                00000001800b6a00 f   libucrtd:towlower.obj
 0001:000b5bb0       towlower                   00000001800b6bb0 f   libucrtd:towlower.obj
 0001:000b5d10       __dcrt_lowio_ensure_console_output_initialized 00000001800b6d10 f   libucrtd:initcon.obj
 0001:000b5d40       __dcrt_terminate_console_output 00000001800b6d40 f   libucrtd:initcon.obj
 0001:000b5d70       __dcrt_write_console       00000001800b6d70 f   libucrtd:initcon.obj
 0001:000b5db0       _clrfp                     00000001800b6db0 f   libucrtd:fpctrl.obj
 0001:000b5dd0       _ctrlfp                    00000001800b6dd0 f   libucrtd:fpctrl.obj
 0001:000b5e50       _get_fpcsr                 00000001800b6e50 f   libucrtd:fpctrl.obj
 0001:000b5e60       _get_fpsr                  00000001800b6e60 f i libucrtd:fpctrl.obj
 0001:000b5e70       _set_fpcsr                 00000001800b6e70 f   libucrtd:fpctrl.obj
 0001:000b5e80       _set_fpsr                  00000001800b6e80 f i libucrtd:fpctrl.obj
 0001:000b5e90       _set_statfp                00000001800b6e90 f   libucrtd:fpctrl.obj
 0001:000b5eb0       _statfp                    00000001800b6eb0 f   libucrtd:fpctrl.obj
 0001:000b5f70       ?should_round_up@__crt_strtox@@YA_N_N000@Z 00000001800b6f70 f i libucrtd:fpexcept.obj
 0001:000b6030       _errcode                   00000001800b7030 f   libucrtd:fpexcept.obj
 0001:000b6070       _except1                   00000001800b7070 f   libucrtd:fpexcept.obj
 0001:000b61f0       _except2                   00000001800b71f0 f   libucrtd:fpexcept.obj
 0001:000b63a0       _fperrraise                00000001800b73a0 f   libucrtd:fpexcept.obj
 0001:000b64b0       _handle_exc                00000001800b74b0 f   libucrtd:fpexcept.obj
 0001:000b6870       _handle_qnan2              00000001800b7870 f   libucrtd:fpexcept.obj
 0001:000b6880       _raise_exc                 00000001800b7880 f   libucrtd:fpexcept.obj
 0001:000b68b0       _raise_exc_ex              00000001800b78b0 f   libucrtd:fpexcept.obj
 0001:000b6bc0       _raise_excf                00000001800b7bc0 f   libucrtd:fpexcept.obj
 0001:000b6bf0       _set_errno_from_matherr    00000001800b7bf0 f   libucrtd:fpexcept.obj
 0001:000b6c30       _umatherr                  00000001800b7c30 f   libucrtd:fpexcept.obj
 0001:000b6d90       __acrt_LCMapStringW        00000001800b7d90 f   libucrtd:lcmapstringw.obj
 0001:000b6e50       ??_4@YAAEAW4__acrt_fenv_abstract_status@@AEAW40@W40@@Z 00000001800b7e50 f i libucrtd:fegetexceptflag.obj
 0001:000b6e60       fegetexceptflag            00000001800b7e60 f   libucrtd:fegetexceptflag.obj
 0001:000b6eb0       ??S@YA?AW4__acrt_fenv_abstract_status@@W40@@Z 00000001800b7eb0 f i libucrtd:fesetexceptflag.obj
 0001:000b6ec0       fesetexceptflag            00000001800b7ec0 f   libucrtd:fesetexceptflag.obj
 0001:000b6f40       _decomp                    00000001800b7f40 f i libucrtd:frexp.obj
 0001:000b7040       _set_exp                   00000001800b8040 f i libucrtd:frexp.obj
 0001:000b7070       _sptype                    00000001800b8070 f i libucrtd:frexp.obj
 0001:000b7100       frexp                      00000001800b8100 f   libucrtd:frexp.obj
 0001:000b7340       fetestexcept               00000001800b8340 f   libucrtd:fetestexcept.obj
 0001:000b7364       IsDebuggerPresent          00000001800b8364 f   kernel32:KERNEL32.dll
 0001:000b736a       RaiseException             00000001800b836a f   kernel32:KERNEL32.dll
 0001:000b7370       MultiByteToWideChar        00000001800b8370 f   kernel32:KERNEL32.dll
 0001:000b7376       WideCharToMultiByte        00000001800b8376 f   kernel32:KERNEL32.dll
 0001:000b737c       RtlCaptureContext          00000001800b837c f   kernel32:KERNEL32.dll
 0001:000b7382       RtlLookupFunctionEntry     00000001800b8382 f   kernel32:KERNEL32.dll
 0001:000b7388       RtlVirtualUnwind           00000001800b8388 f   kernel32:KERNEL32.dll
 0001:000b738e       UnhandledExceptionFilter   00000001800b838e f   kernel32:KERNEL32.dll
 0001:000b7394       SetUnhandledExceptionFilter 00000001800b8394 f   kernel32:KERNEL32.dll
 0001:000b739a       GetCurrentProcess          00000001800b839a f   kernel32:KERNEL32.dll
 0001:000b73a0       TerminateProcess           00000001800b83a0 f   kernel32:KERNEL32.dll
 0001:000b73a6       IsProcessorFeaturePresent  00000001800b83a6 f   kernel32:KERNEL32.dll
 0001:000b73ac       QueryPerformanceCounter    00000001800b83ac f   kernel32:KERNEL32.dll
 0001:000b73b2       GetCurrentProcessId        00000001800b83b2 f   kernel32:KERNEL32.dll
 0001:000b73b8       GetCurrentThreadId         00000001800b83b8 f   kernel32:KERNEL32.dll
 0001:000b73be       GetSystemTimeAsFileTime    00000001800b83be f   kernel32:KERNEL32.dll
 0001:000b73c4       InitializeSListHead        00000001800b83c4 f   kernel32:KERNEL32.dll
 0001:000b73ca       GetStartupInfoW            00000001800b83ca f   kernel32:KERNEL32.dll
 0001:000b73d0       GetModuleHandleW           00000001800b83d0 f   kernel32:KERNEL32.dll
 0001:000b73d6       GetLastError               00000001800b83d6 f   kernel32:KERNEL32.dll
 0001:000b73dc       HeapAlloc                  00000001800b83dc f   kernel32:KERNEL32.dll
 0001:000b73e2       HeapFree                   00000001800b83e2 f   kernel32:KERNEL32.dll
 0001:000b73e8       GetProcessHeap             00000001800b83e8 f   kernel32:KERNEL32.dll
 0001:000b73ee       VirtualQuery               00000001800b83ee f   kernel32:KERNEL32.dll
 0001:000b73f4       FreeLibrary                00000001800b83f4 f   kernel32:KERNEL32.dll
 0001:000b73fa       GetProcAddress             00000001800b83fa f   kernel32:KERNEL32.dll
 0001:000b7400       RtlUnwindEx                00000001800b8400 f   kernel32:KERNEL32.dll
 0001:000b7406       RtlPcToFileHeader          00000001800b8406 f   kernel32:KERNEL32.dll
 0001:000b740c       InterlockedPushEntrySList  00000001800b840c f   kernel32:KERNEL32.dll
 0001:000b7412       InterlockedFlushSList      00000001800b8412 f   kernel32:KERNEL32.dll
 0001:000b7418       GetModuleFileNameW         00000001800b8418 f   kernel32:KERNEL32.dll
 0001:000b741e       LoadLibraryExW             00000001800b841e f   kernel32:KERNEL32.dll
 0001:000b7424       SetLastError               00000001800b8424 f   kernel32:KERNEL32.dll
 0001:000b742a       EncodePointer              00000001800b842a f   kernel32:KERNEL32.dll
 0001:000b7430       EnterCriticalSection       00000001800b8430 f   kernel32:KERNEL32.dll
 0001:000b7436       LeaveCriticalSection       00000001800b8436 f   kernel32:KERNEL32.dll
 0001:000b743c       DeleteCriticalSection      00000001800b843c f   kernel32:KERNEL32.dll
 0001:000b7442       InitializeCriticalSectionAndSpinCount 00000001800b8442 f   kernel32:KERNEL32.dll
 0001:000b7448       TlsAlloc                   00000001800b8448 f   kernel32:KERNEL32.dll
 0001:000b744e       TlsGetValue                00000001800b844e f   kernel32:KERNEL32.dll
 0001:000b7454       TlsSetValue                00000001800b8454 f   kernel32:KERNEL32.dll
 0001:000b745a       TlsFree                    00000001800b845a f   kernel32:KERNEL32.dll
 0001:000b7460       GetStdHandle               00000001800b8460 f   kernel32:KERNEL32.dll
 0001:000b7466       GetFileType                00000001800b8466 f   kernel32:KERNEL32.dll
 0001:000b746c       GetModuleHandleExW         00000001800b846c f   kernel32:KERNEL32.dll
 0001:000b7472       WriteConsoleW              00000001800b8472 f   kernel32:KERNEL32.dll
 0001:000b7478       HeapSize                   00000001800b8478 f   kernel32:KERNEL32.dll
 0001:000b747e       HeapValidate               00000001800b847e f   kernel32:KERNEL32.dll
 0001:000b7484       GetSystemInfo              00000001800b8484 f   kernel32:KERNEL32.dll
 0001:000b748a       ExitProcess                00000001800b848a f   kernel32:KERNEL32.dll
 0001:000b7490       GetCurrentThread           00000001800b8490 f   kernel32:KERNEL32.dll
 0001:000b7496       WriteFile                  00000001800b8496 f   kernel32:KERNEL32.dll
 0001:000b749c       OutputDebugStringW         00000001800b849c f   kernel32:KERNEL32.dll
 0001:000b74a2       SetConsoleCtrlHandler      00000001800b84a2 f   kernel32:KERNEL32.dll
 0001:000b74a8       HeapReAlloc                00000001800b84a8 f   kernel32:KERNEL32.dll
 0001:000b74ae       HeapQueryInformation       00000001800b84ae f   kernel32:KERNEL32.dll
 0001:000b74b4       FindClose                  00000001800b84b4 f   kernel32:KERNEL32.dll
 0001:000b74ba       FindFirstFileExW           00000001800b84ba f   kernel32:KERNEL32.dll
 0001:000b74c0       FindNextFileW              00000001800b84c0 f   kernel32:KERNEL32.dll
 0001:000b74c6       IsValidCodePage            00000001800b84c6 f   kernel32:KERNEL32.dll
 0001:000b74cc       GetACP                     00000001800b84cc f   kernel32:KERNEL32.dll
 0001:000b74d2       GetOEMCP                   00000001800b84d2 f   kernel32:KERNEL32.dll
 0001:000b74d8       GetCPInfo                  00000001800b84d8 f   kernel32:KERNEL32.dll
 0001:000b74de       GetCommandLineA            00000001800b84de f   kernel32:KERNEL32.dll
 0001:000b74e4       GetCommandLineW            00000001800b84e4 f   kernel32:KERNEL32.dll
 0001:000b74ea       GetEnvironmentStringsW     00000001800b84ea f   kernel32:KERNEL32.dll
 0001:000b74f0       FreeEnvironmentStringsW    00000001800b84f0 f   kernel32:KERNEL32.dll
 0001:000b74f6       SetEnvironmentVariableW    00000001800b84f6 f   kernel32:KERNEL32.dll
 0001:000b74fc       GetTempPathW               00000001800b84fc f   kernel32:KERNEL32.dll
 0001:000b7502       FlsAlloc                   00000001800b8502 f   kernel32:KERNEL32.dll
 0001:000b7508       FlsGetValue                00000001800b8508 f   kernel32:KERNEL32.dll
 0001:000b750e       FlsSetValue                00000001800b850e f   kernel32:KERNEL32.dll
 0001:000b7514       FlsFree                    00000001800b8514 f   kernel32:KERNEL32.dll
 0001:000b751a       IsThreadAFiber             00000001800b851a f   kernel32:KERNEL32.dll
 0001:000b7520       InitializeCriticalSectionEx 00000001800b8520 f   kernel32:KERNEL32.dll
 0001:000b7526       VirtualProtect             00000001800b8526 f   kernel32:KERNEL32.dll
 0001:000b752c       GetDateFormatW             00000001800b852c f   kernel32:KERNEL32.dll
 0001:000b7532       GetTimeFormatW             00000001800b8532 f   kernel32:KERNEL32.dll
 0001:000b7538       CompareStringW             00000001800b8538 f   kernel32:KERNEL32.dll
 0001:000b753e       LCMapStringW               00000001800b853e f   kernel32:KERNEL32.dll
 0001:000b7544       GetLocaleInfoW             00000001800b8544 f   kernel32:KERNEL32.dll
 0001:000b754a       IsValidLocale              00000001800b854a f   kernel32:KERNEL32.dll
 0001:000b7550       GetUserDefaultLCID         00000001800b8550 f   kernel32:KERNEL32.dll
 0001:000b7556       EnumSystemLocalesW         00000001800b8556 f   kernel32:KERNEL32.dll
 0001:000b755c       GetFileSizeEx              00000001800b855c f   kernel32:KERNEL32.dll
 0001:000b7562       SetFilePointerEx           00000001800b8562 f   kernel32:KERNEL32.dll
 0001:000b7568       GetStringTypeW             00000001800b8568 f   kernel32:KERNEL32.dll
 0001:000b756e       SetStdHandle               00000001800b856e f   kernel32:KERNEL32.dll
 0001:000b7574       FlushFileBuffers           00000001800b8574 f   kernel32:KERNEL32.dll
 0001:000b757a       GetConsoleOutputCP         00000001800b857a f   kernel32:KERNEL32.dll
 0001:000b7580       GetConsoleMode             00000001800b8580 f   kernel32:KERNEL32.dll
 0001:000b7586       ReadFile                   00000001800b8586 f   kernel32:KERNEL32.dll
 0001:000b758c       ReadConsoleW               00000001800b858c f   kernel32:KERNEL32.dll
 0001:000b7592       CreateFileW                00000001800b8592 f   kernel32:KERNEL32.dll
 0001:000b75a0       _FindPESection             00000001800b85a0 f   LIBCMTD:pesect.obj
 0001:000b7650       _IsNonwritableInCurrentImage 00000001800b8650 f   LIBCMTD:pesect.obj
 0001:000b76e0       _ValidateImageBase         00000001800b86e0 f   LIBCMTD:pesect.obj
 0001:000b7760       __GSHandlerCheck_SEH       00000001800b8760 f   LIBCMTD:gshandlerseh.obj
 0001:000b7820       __GSHandlerCheck_EH        00000001800b8820 f   LIBCMTD:gshandlereh.obj
 0001:000b78e0       __chkstk                   00000001800b88e0 f   LIBCMTD:chkstk.obj
 0001:000b78e0       _alloca_probe              00000001800b88e0 f   LIBCMTD:chkstk.obj
 0001:000b7930       strrchr                    00000001800b8930 f   libvcruntimed:strrchr.obj
 0001:000b7d60       _local_unwind              00000001800b8d60 f   libvcruntimed:jmpuwind.obj
 0001:000b7d90       strchr                     00000001800b8d90 f   libvcruntimed:strchr.obj
 0001:000b7f20       wcschr                     00000001800b8f20 f   libvcruntimed:wcschr.obj
 0001:000b806c       RtlUnwind                  00000001800b906c f   kernel32:KERNEL32.dll
 0001:000b8090       _guard_dispatch_icall_nop  00000001800b9090 f   LIBCMTD:guard_dispatch.obj
 0001:000b80b0       _guard_xfg_dispatch_icall_nop 00000001800b90b0 f   LIBCMTD:guard_xfg_dispatch.obj
 0001:000b80d0       _guard_dispatch_icall      00000001800b90d0 f   libucrtd:dispatchcfg.obj
 0001:000b80d0       _guard_dispatch_icall_$fo_default$ 00000001800b90d0     libucrtd:dispatchcfg.obj
 0001:000b8100       memcpy_repmovs             00000001800b9100 f   libvcruntimed:memcpy.obj
 0001:000b8110       memcpy                     00000001800b9110 f   libvcruntimed:memcpy.obj
 0001:000b8110       memcpy_$fo_default$        00000001800b9110     libvcruntimed:memcpy.obj
 0001:000b8110       memmove                    00000001800b9110 f   libvcruntimed:memcpy.obj
 0001:000b87a0       memset_repstos             00000001800b97a0 f   libvcruntimed:memset.obj
 0001:000b87b0       memset                     00000001800b97b0 f   libvcruntimed:memset.obj
 0001:000b8b50       strcat                     00000001800b9b50 f   libucrtd:strcat.obj
 0001:000b8bf0       strcpy                     00000001800b9bf0 f   libucrtd:strcat.obj
 0001:000b8bf3       ___entry_from_strcat_in_strcpy 00000001800b9bf3     libucrtd:strcat.obj
 0001:000b8cc0       strcmp                     00000001800b9cc0 f   libucrtd:strcmp.obj
 0001:000b8d40       strlen                     00000001800b9d40 f   libucrtd:strlen.obj
 0001:000b8e00       strncmp                    00000001800b9e00 f   libucrtd:strncmp.obj
 0001:000b8e90       memcmp                     00000001800b9e90 f   libvcruntimed:memcmp.obj
 0002:00000000       __imp_OutputDebugStringA   00000001800bb000     kernel32:KERNEL32.dll
 0002:00000008       __imp_CloseHandle          00000001800bb008     kernel32:KERNEL32.dll
 0002:00000010       __imp_ReleaseSemaphore     00000001800bb010     kernel32:KERNEL32.dll
 0002:00000018       __imp_WaitForSingleObject  00000001800bb018     kernel32:KERNEL32.dll
 0002:00000020       __imp_GetLocalTime         00000001800bb020     kernel32:KERNEL32.dll
 0002:00000028       __imp_MapViewOfFile        00000001800bb028     kernel32:KERNEL32.dll
 0002:00000030       __imp_UnmapViewOfFile      00000001800bb030     kernel32:KERNEL32.dll
 0002:00000038       __imp_CreateSemaphoreA     00000001800bb038     kernel32:KERNEL32.dll
 0002:00000040       __imp_OpenSemaphoreA       00000001800bb040     kernel32:KERNEL32.dll
 0002:00000048       __imp_CreateFileMappingA   00000001800bb048     kernel32:KERNEL32.dll
 0002:00000050       __imp_OpenFileMappingA     00000001800bb050     kernel32:KERNEL32.dll
 0002:00000058       __imp_CreateToolhelp32Snapshot 00000001800bb058     kernel32:KERNEL32.dll
 0002:00000060       __imp_Process32First       00000001800bb060     kernel32:KERNEL32.dll
 0002:00000068       __imp_Process32Next        00000001800bb068     kernel32:KERNEL32.dll
 0002:00000070       __imp_CreateFileW          00000001800bb070     kernel32:KERNEL32.dll
 0002:00000078       __imp_IsDebuggerPresent    00000001800bb078     kernel32:KERNEL32.dll
 0002:00000080       __imp_RaiseException       00000001800bb080     kernel32:KERNEL32.dll
 0002:00000088       __imp_MultiByteToWideChar  00000001800bb088     kernel32:KERNEL32.dll
 0002:00000090       __imp_WideCharToMultiByte  00000001800bb090     kernel32:KERNEL32.dll
 0002:00000098       __imp_RtlCaptureContext    00000001800bb098     kernel32:KERNEL32.dll
 0002:000000a0       __imp_RtlLookupFunctionEntry 00000001800bb0a0     kernel32:KERNEL32.dll
 0002:000000a8       __imp_RtlVirtualUnwind     00000001800bb0a8     kernel32:KERNEL32.dll
 0002:000000b0       __imp_UnhandledExceptionFilter 00000001800bb0b0     kernel32:KERNEL32.dll
 0002:000000b8       __imp_SetUnhandledExceptionFilter 00000001800bb0b8     kernel32:KERNEL32.dll
 0002:000000c0       __imp_GetCurrentProcess    00000001800bb0c0     kernel32:KERNEL32.dll
 0002:000000c8       __imp_TerminateProcess     00000001800bb0c8     kernel32:KERNEL32.dll
 0002:000000d0       __imp_IsProcessorFeaturePresent 00000001800bb0d0     kernel32:KERNEL32.dll
 0002:000000d8       __imp_QueryPerformanceCounter 00000001800bb0d8     kernel32:KERNEL32.dll
 0002:000000e0       __imp_GetCurrentProcessId  00000001800bb0e0     kernel32:KERNEL32.dll
 0002:000000e8       __imp_GetCurrentThreadId   00000001800bb0e8     kernel32:KERNEL32.dll
 0002:000000f0       __imp_GetSystemTimeAsFileTime 00000001800bb0f0     kernel32:KERNEL32.dll
 0002:000000f8       __imp_InitializeSListHead  00000001800bb0f8     kernel32:KERNEL32.dll
 0002:00000100       __imp_GetStartupInfoW      00000001800bb100     kernel32:KERNEL32.dll
 0002:00000108       __imp_GetModuleHandleW     00000001800bb108     kernel32:KERNEL32.dll
 0002:00000110       __imp_GetLastError         00000001800bb110     kernel32:KERNEL32.dll
 0002:00000118       __imp_HeapAlloc            00000001800bb118     kernel32:KERNEL32.dll
 0002:00000120       __imp_HeapFree             00000001800bb120     kernel32:KERNEL32.dll
 0002:00000128       __imp_GetProcessHeap       00000001800bb128     kernel32:KERNEL32.dll
 0002:00000130       __imp_VirtualQuery         00000001800bb130     kernel32:KERNEL32.dll
 0002:00000138       __imp_FreeLibrary          00000001800bb138     kernel32:KERNEL32.dll
 0002:00000140       __imp_GetProcAddress       00000001800bb140     kernel32:KERNEL32.dll
 0002:00000148       __imp_RtlUnwindEx          00000001800bb148     kernel32:KERNEL32.dll
 0002:00000150       __imp_RtlPcToFileHeader    00000001800bb150     kernel32:KERNEL32.dll
 0002:00000158       __imp_InterlockedPushEntrySList 00000001800bb158     kernel32:KERNEL32.dll
 0002:00000160       __imp_InterlockedFlushSList 00000001800bb160     kernel32:KERNEL32.dll
 0002:00000168       __imp_GetModuleFileNameW   00000001800bb168     kernel32:KERNEL32.dll
 0002:00000170       __imp_LoadLibraryExW       00000001800bb170     kernel32:KERNEL32.dll
 0002:00000178       __imp_SetLastError         00000001800bb178     kernel32:KERNEL32.dll
 0002:00000180       __imp_EncodePointer        00000001800bb180     kernel32:KERNEL32.dll
 0002:00000188       __imp_EnterCriticalSection 00000001800bb188     kernel32:KERNEL32.dll
 0002:00000190       __imp_LeaveCriticalSection 00000001800bb190     kernel32:KERNEL32.dll
 0002:00000198       __imp_DeleteCriticalSection 00000001800bb198     kernel32:KERNEL32.dll
 0002:000001a0       __imp_InitializeCriticalSectionAndSpinCount 00000001800bb1a0     kernel32:KERNEL32.dll
 0002:000001a8       __imp_TlsAlloc             00000001800bb1a8     kernel32:KERNEL32.dll
 0002:000001b0       __imp_TlsGetValue          00000001800bb1b0     kernel32:KERNEL32.dll
 0002:000001b8       __imp_TlsSetValue          00000001800bb1b8     kernel32:KERNEL32.dll
 0002:000001c0       __imp_TlsFree              00000001800bb1c0     kernel32:KERNEL32.dll
 0002:000001c8       __imp_GetStdHandle         00000001800bb1c8     kernel32:KERNEL32.dll
 0002:000001d0       __imp_GetFileType          00000001800bb1d0     kernel32:KERNEL32.dll
 0002:000001d8       __imp_GetModuleHandleExW   00000001800bb1d8     kernel32:KERNEL32.dll
 0002:000001e0       __imp_WriteConsoleW        00000001800bb1e0     kernel32:KERNEL32.dll
 0002:000001e8       __imp_HeapSize             00000001800bb1e8     kernel32:KERNEL32.dll
 0002:000001f0       __imp_HeapValidate         00000001800bb1f0     kernel32:KERNEL32.dll
 0002:000001f8       __imp_GetSystemInfo        00000001800bb1f8     kernel32:KERNEL32.dll
 0002:00000200       __imp_ExitProcess          00000001800bb200     kernel32:KERNEL32.dll
 0002:00000208       __imp_GetCurrentThread     00000001800bb208     kernel32:KERNEL32.dll
 0002:00000210       __imp_WriteFile            00000001800bb210     kernel32:KERNEL32.dll
 0002:00000218       __imp_OutputDebugStringW   00000001800bb218     kernel32:KERNEL32.dll
 0002:00000220       __imp_SetConsoleCtrlHandler 00000001800bb220     kernel32:KERNEL32.dll
 0002:00000228       __imp_HeapReAlloc          00000001800bb228     kernel32:KERNEL32.dll
 0002:00000230       __imp_HeapQueryInformation 00000001800bb230     kernel32:KERNEL32.dll
 0002:00000238       __imp_FindClose            00000001800bb238     kernel32:KERNEL32.dll
 0002:00000240       __imp_FindFirstFileExW     00000001800bb240     kernel32:KERNEL32.dll
 0002:00000248       __imp_FindNextFileW        00000001800bb248     kernel32:KERNEL32.dll
 0002:00000250       __imp_IsValidCodePage      00000001800bb250     kernel32:KERNEL32.dll
 0002:00000258       __imp_GetACP               00000001800bb258     kernel32:KERNEL32.dll
 0002:00000260       __imp_GetOEMCP             00000001800bb260     kernel32:KERNEL32.dll
 0002:00000268       __imp_GetCPInfo            00000001800bb268     kernel32:KERNEL32.dll
 0002:00000270       __imp_GetCommandLineA      00000001800bb270     kernel32:KERNEL32.dll
 0002:00000278       __imp_GetCommandLineW      00000001800bb278     kernel32:KERNEL32.dll
 0002:00000280       __imp_GetEnvironmentStringsW 00000001800bb280     kernel32:KERNEL32.dll
 0002:00000288       __imp_FreeEnvironmentStringsW 00000001800bb288     kernel32:KERNEL32.dll
 0002:00000290       __imp_SetEnvironmentVariableW 00000001800bb290     kernel32:KERNEL32.dll
 0002:00000298       __imp_GetTempPathW         00000001800bb298     kernel32:KERNEL32.dll
 0002:000002a0       __imp_FlsAlloc             00000001800bb2a0     kernel32:KERNEL32.dll
 0002:000002a8       __imp_FlsGetValue          00000001800bb2a8     kernel32:KERNEL32.dll
 0002:000002b0       __imp_FlsSetValue          00000001800bb2b0     kernel32:KERNEL32.dll
 0002:000002b8       __imp_FlsFree              00000001800bb2b8     kernel32:KERNEL32.dll
 0002:000002c0       __imp_IsThreadAFiber       00000001800bb2c0     kernel32:KERNEL32.dll
 0002:000002c8       __imp_InitializeCriticalSectionEx 00000001800bb2c8     kernel32:KERNEL32.dll
 0002:000002d0       __imp_VirtualProtect       00000001800bb2d0     kernel32:KERNEL32.dll
 0002:000002d8       __imp_GetDateFormatW       00000001800bb2d8     kernel32:KERNEL32.dll
 0002:000002e0       __imp_GetTimeFormatW       00000001800bb2e0     kernel32:KERNEL32.dll
 0002:000002e8       __imp_CompareStringW       00000001800bb2e8     kernel32:KERNEL32.dll
 0002:000002f0       __imp_LCMapStringW         00000001800bb2f0     kernel32:KERNEL32.dll
 0002:000002f8       __imp_GetLocaleInfoW       00000001800bb2f8     kernel32:KERNEL32.dll
 0002:00000300       __imp_IsValidLocale        00000001800bb300     kernel32:KERNEL32.dll
 0002:00000308       __imp_GetUserDefaultLCID   00000001800bb308     kernel32:KERNEL32.dll
 0002:00000310       __imp_EnumSystemLocalesW   00000001800bb310     kernel32:KERNEL32.dll
 0002:00000318       __imp_GetFileSizeEx        00000001800bb318     kernel32:KERNEL32.dll
 0002:00000320       __imp_SetFilePointerEx     00000001800bb320     kernel32:KERNEL32.dll
 0002:00000328       __imp_GetStringTypeW       00000001800bb328     kernel32:KERNEL32.dll
 0002:00000330       __imp_SetStdHandle         00000001800bb330     kernel32:KERNEL32.dll
 0002:00000338       __imp_FlushFileBuffers     00000001800bb338     kernel32:KERNEL32.dll
 0002:00000340       __imp_GetConsoleOutputCP   00000001800bb340     kernel32:KERNEL32.dll
 0002:00000348       __imp_GetConsoleMode       00000001800bb348     kernel32:KERNEL32.dll
 0002:00000350       __imp_ReadFile             00000001800bb350     kernel32:KERNEL32.dll
 0002:00000358       __imp_ReadConsoleW         00000001800bb358     kernel32:KERNEL32.dll
 0002:00000360       __imp_RtlUnwind            00000001800bb360     kernel32:KERNEL32.dll
 0002:00000368       \177KERNEL32_NULL_THUNK_DATA 00000001800bb368     kernel32:KERNEL32.dll
 0002:00000370       __guard_check_icall_fptr   00000001800bb370     LIBCMTD:guard_support.obj
 0002:00000378       __guard_xfg_check_icall_fptr 00000001800bb378     LIBCMTD:guard_support.obj
 0002:00000380       __guard_dispatch_icall_fptr 00000001800bb380     LIBCMTD:guard_support.obj
 0002:00000388       __guard_xfg_dispatch_icall_fptr 00000001800bb388     LIBCMTD:guard_support.obj
 0002:00000390       __guard_xfg_table_dispatch_icall_fptr 00000001800bb390     LIBCMTD:guard_support.obj
 0002:00000398       __castguard_check_failure_os_handled_fptr 00000001800bb398     LIBCMTD:guard_support.obj
 0002:000003a0       __guard_memcpy_fptr        00000001800bb3a0     libvcruntimed:softmemtag.obj
 0002:000003a8       __xc_a                     00000001800bb3a8     LIBCMTD:initializers.obj
 0002:000003b0       __xc_z                     00000001800bb3b0     LIBCMTD:initializers.obj
 0002:000003b8       __xi_a                     00000001800bb3b8     LIBCMTD:initializers.obj
 0002:000003c0       __acrt_stdio_initializer   00000001800bb3c0     libucrtd:stdio_initializer.obj
 0002:000003c8       __acrt_multibyte_initializer 00000001800bb3c8     libucrtd:multibyte_initializer.obj
 0002:000003d0       __acrt_tran_fma3_initializer 00000001800bb3d0     libucrtd:fma3_initializer.obj
 0002:000003d8       __xi_z                     00000001800bb3d8     LIBCMTD:initializers.obj
 0002:000003e0       __xp_a                     00000001800bb3e0     LIBCMTD:initializers.obj
 0002:000003e8       __acrt_locale_terminator   00000001800bb3e8     libucrtd:locale_initializer.obj
 0002:000003f0       __dcrt_console_output_terminator 00000001800bb3f0     libucrtd:console_output_initializer.obj
 0002:000003f8       __acrt_stdio_terminator    00000001800bb3f8     libucrtd:stdio_initializer.obj
 0002:00000400       __xp_z                     00000001800bb400     LIBCMTD:initializers.obj
 0002:00000408       __xt_a                     00000001800bb408     LIBCMTD:initializers.obj
 0002:00000410       __xt_z                     00000001800bb410     LIBCMTD:initializers.obj
 0002:000004b0       ??_7SMemoryBase@sloglib@@6B@ 00000001800bb4b0     main.obj
 0002:000004e0       ??_7SLogBase@sloglib@@6B@  00000001800bb4e0     main.obj
 0002:000020f8       ??_7SMemory@sloglib@@6B@   00000001800bd0f8     SLog.obj
 0002:00002128       ??_7SLog@sloglib@@6B@      00000001800bd128     SLog.obj
 0002:00002180       ??_7type_info@@6B@         00000001800bd180     LIBCMTD:std_type_info_static.obj
 0002:00002188       _pDefaultRawDllMain        00000001800bd188     LIBCMTD:dll_dllmain.obj
 0002:00002188       _pRawDllMain               00000001800bd188     LIBCMTD:dll_dllmain.obj
 0002:000021b8       ??_C@_0BJ@HEGAHDFO@Stack?5pointer?5corruption@ 00000001800bd1b8     LIBCMTD:userapi.obj
 0002:000021d8       ??_C@_0CK@FEGOIOPB@Cast?5to?5smaller?5type?5causing?5lo@ 00000001800bd1d8     LIBCMTD:userapi.obj
 0002:00002208       ??_C@_0BI@CIGMDCBH@Stack?5memory?5corruption@ 00000001800bd208     LIBCMTD:userapi.obj
 0002:00002220       ??_C@_0CK@CNLNOEPB@Local?5variable?5used?5before?5init@ 00000001800bd220     LIBCMTD:userapi.obj
 0002:00002250       ??_C@_0BP@OGBCLIBO@Stack?5around?5_alloca?5corrupted@ 00000001800bd250     LIBCMTD:userapi.obj
 0002:00002278       ??_7exception@std@@6B@     00000001800bd278     LIBCMTD:throw_bad_alloc.obj
 0002:00002288       ??_C@_0BC@EOODALEL@Unknown?5exception@ 00000001800bd288     LIBCMTD:throw_bad_alloc.obj
 0002:000022a8       ??_7bad_alloc@std@@6B@     00000001800bd2a8     LIBCMTD:throw_bad_alloc.obj
 0002:000022b8       ??_C@_0P@GHFPNOJB@bad?5allocation@ 00000001800bd2b8     LIBCMTD:throw_bad_alloc.obj
 0002:000022d0       ??_7bad_array_new_length@std@@6B@ 00000001800bd2d0     LIBCMTD:throw_bad_alloc.obj
 0002:000022e0       ??_C@_0BF@KINCDENJ@bad?5array?5new?5length@ 00000001800bd2e0     LIBCMTD:throw_bad_alloc.obj
 0002:000023c0       ??_C@_0NN@JMPELKLB@The?5value?5of?5ESP?5was?5not?5proper@ 00000001800bd3c0     LIBCMTD:error.obj
 0002:000024a0       ??_C@_0BBN@ELNNILBE@A?5cast?5to?5a?5smaller?5data?5type?5h@ 00000001800bd4a0     LIBCMTD:error.obj
 0002:000025c0       ??_C@_0BN@BPOGFMJL@Stack?5memory?5was?5corrupted?$AN?6@ 00000001800bd5c0     LIBCMTD:error.obj
 0002:000025e0       ??_C@_0DG@DAJCDLPN@A?5local?5variable?5was?5used?5befor@ 00000001800bd5e0     LIBCMTD:error.obj
 0002:00002618       ??_C@_0CM@JMIDGKLA@Stack?5memory?5around?5_alloca?5was@ 00000001800bd618     LIBCMTD:error.obj
 0002:00002648       ??_C@_0BO@CHIONIOI@Unknown?5Runtime?5Check?5Error?$AN?6@ 00000001800bd648     LIBCMTD:error.obj
 0002:00002670       ??_C@_1GM@CNOOJIHC@?$AAR?$AAu?$AAn?$AAt?$AAi?$AAm?$AAe?$AA?5?$AAC?$AAh?$AAe?$AAc?$AAk?$AA?5?$AAE@ 00000001800bd670     LIBCMTD:error.obj
 0002:000026e0       ??_C@_1EA@NFKNIFJP@?$AAR?$AAu?$AAn?$AA?9?$AAT?$AAi?$AAm?$AAe?$AA?5?$AAC?$AAh?$AAe?$AAc?$AAk?$AA?5@ 00000001800bd6e0     LIBCMTD:error.obj
 0002:00002720       ??_C@_0BB@PFFGGCJP@Unknown?5Filename@ 00000001800bd720     LIBCMTD:error.obj
 0002:00002738       ??_C@_0BE@GNBOBNCK@Unknown?5Module?5Name@ 00000001800bd738     LIBCMTD:error.obj
 0002:00002750       ??_C@_0CA@IODNCDPG@Run?9Time?5Check?5Failure?5?$CD?$CFd?5?9?5?$CFs@ 00000001800bd750     LIBCMTD:error.obj
 0002:00002770       ??_C@_0CG@IAFNJNEE@Stack?5corrupted?5near?5unknown?5va@ 00000001800bd770     LIBCMTD:error.obj
 0002:00002798       ??_C@_05MKKEDADM@?$CF?42X?5@ 00000001800bd798     LIBCMTD:error.obj
 0002:000027a0       ??_C@_0EJ@LJKNEOLN@Stack?5area?5around?5_alloca?5memor@ 00000001800bd7a0     LIBCMTD:error.obj
 0002:000027ec       ??_C@_01EEMJAFIK@?6@       00000001800bd7ec     LIBCMTD:error.obj
 0002:000027f0       ??_C@_02LLMPMKNF@?$DO?5@   00000001800bd7f0     LIBCMTD:error.obj
 0002:000027f8       ??_C@_08OMAHNMHJ@?6Data?3?5?$DM@ 00000001800bd7f8     LIBCMTD:error.obj
 0002:00002808       ??_C@_0CK@DKGBICFE@?6Allocation?5number?5within?5this?5@ 00000001800bd808     LIBCMTD:error.obj
 0002:00002838       ??_C@_07DFDJCKFN@?6Size?3?5@ 00000001800bd838     LIBCMTD:error.obj
 0002:00002840       ??_C@_0N@MHFFIMFG@?6Address?3?50x@ 00000001800bd840     LIBCMTD:error.obj
 0002:00002850       ??_C@_0EI@CLEPFNGI@Stack?5area?5around?5_alloca?5memor@ 00000001800bd850     LIBCMTD:error.obj
 0002:00002898       ??_C@_0BK@ODNDAGKB@?$CFs?$CFs?$CFp?$CFs?$CFzd?$CFs?$CFd?$CFs?$CFs?$CFs?$CFs?$CFs@ 00000001800bd898     LIBCMTD:error.obj
 0002:000028b8       ??_C@_0DE@OHJBPMBP@A?5variable?5is?5being?5used?5withou@ 00000001800bd8b8     LIBCMTD:error.obj
 0002:00002960       ??_C@_1EI@MLPKHBGE@?$AAa?$AAp?$AAi?$AA?9?$AAm?$AAs?$AA?9?$AAw?$AAi?$AAn?$AA?9?$AAc?$AAo?$AAr?$AAe@ 00000001800bd960     LIBCMTD:pdblkup.obj
 0002:000029a8       ??_C@_1BK@JHLNAEJL@?$AAa?$AAd?$AAv?$AAa?$AAp?$AAi?$AA3?$AA2?$AA?4?$AAd?$AAl?$AAl@ 00000001800bd9a8     LIBCMTD:pdblkup.obj
 0002:000029c8       ??_C@_0O@COHOBMLB@RegOpenKeyExW@ 00000001800bd9c8     LIBCMTD:pdblkup.obj
 0002:000029d8       ??_C@_0BB@GLNAEDBD@RegQueryValueExW@ 00000001800bd9d8     LIBCMTD:pdblkup.obj
 0002:000029f0       ??_C@_0M@HLOHPNFA@RegCloseKey@ 00000001800bd9f0     LIBCMTD:pdblkup.obj
 0002:00002a00       ??_C@_1HE@EBEAGLFB@?$AAS?$AAO?$AAF?$AAT?$AAW?$AAA?$AAR?$AAE?$AA?2?$AAW?$AAo?$AAw?$AA6?$AA4?$AA3@ 00000001800bda00     LIBCMTD:pdblkup.obj
 0002:00002a78       ??_C@_1BG@EABPBLLF@?$AAP?$AAr?$AAo?$AAd?$AAu?$AAc?$AAt?$AAD?$AAi?$AAr@ 00000001800bda78     LIBCMTD:pdblkup.obj
 0002:00002ab0       ??_C@_1BC@JINFINNJ@?$AAM?$AAS?$AAP?$AAD?$AAB?$AA1?$AA4?$AA0@ 00000001800bdab0     LIBCMTD:pdblkup.obj
 0002:00002ac8       ??_C@_0BB@KCIACLNC@PDBOpenValidate5@ 00000001800bdac8     LIBCMTD:pdblkup.obj
 0002:00002adc       ??_C@_01KDCPPGHE@r@        00000001800bdadc     LIBCMTD:pdblkup.obj
 0002:00002ae0       ?s_negLengthTab@FH4@@3QBCB 00000001800bdae0     libvcruntimed:risctrnsctrl.obj
 0002:00002af0       ?s_shiftTab@FH4@@3QBEB     00000001800bdaf0     libvcruntimed:risctrnsctrl.obj
 0002:00002c38       _pDestructExceptionObject  00000001800bdc38     libvcruntimed:ehhelpers.obj
 0002:00002c40       ??_C@_17CNPHIMPH@?$AA?$CF?$AAl?$AAs@ 00000001800bdc40     libvcruntimed:std_exception.obj
 0002:00002c50       ??_C@_1FK@OACNEHHA@?$AAt?$AAo?$AA?9?$AA?$DO?$AA_?$AAW?$AAh?$AAa?$AAt?$AA?5?$AA?$DN?$AA?$DN?$AA?5?$AAn?$AAu@ 00000001800bdc50     libvcruntimed:std_exception.obj
 0002:00002cb0       ??_C@_1IE@BLOAAGCK@?$AAD?$AA?3?$AA?2?$AAa?$AA?2?$AA_?$AAw?$AAo?$AAr?$AAk?$AA?2?$AA1?$AA?2?$AAs?$AA?2@ 00000001800bdcb0     libvcruntimed:std_exception.obj
 0002:00002d40       ??_C@_0EC@CDJPIOJK@D?3?2a?2_work?21?2s?2src?2vctools?2crt?2@ 00000001800bdd40     libvcruntimed:std_type_info.obj
 0002:00002d90       ??_C@_0EK@HNOIOKGA@D?3?2a?2_work?21?2s?2src?2vctools?2crt?2@ 00000001800bdd90     libvcruntimed:per_thread_data.obj
 0002:00002de8       ??_7bad_exception@std@@6B@ 00000001800bdde8     libvcruntimed:frame.obj
 0002:00002df8       ??_C@_0O@DPKOEFFH@bad?5exception@ 00000001800bddf8     libvcruntimed:frame.obj
 0002:00003520       ??_C@_08EHJDFFNH@__based?$CI@ 00000001800be520     libvcruntimed:undname.obj
 0002:00003530       ??_C@_07KOLFKCDI@__cdecl@  00000001800be530     libvcruntimed:undname.obj
 0002:00003538       ??_C@_09IFJBGAPI@__stdcall@ 00000001800be538     libvcruntimed:undname.obj
 0002:00003548       ??_C@_0L@NPHFGOKO@__thiscall@ 00000001800be548     libvcruntimed:undname.obj
 0002:00003558       ??_C@_0L@JMKHOMEK@__fastcall@ 00000001800be558     libvcruntimed:undname.obj
 0002:00003568       ??_C@_0N@BCKKPABJ@__vectorcall@ 00000001800be568     libvcruntimed:undname.obj
 0002:00003578       ??_C@_0BA@NAGGFLJK@__preserve_none@ 00000001800be578     libvcruntimed:undname.obj
 0002:00003588       ??_C@_09HIJEGCPM@__clrcall@ 00000001800be588     libvcruntimed:undname.obj
 0002:00003594       ??_C@_06GHPCKEAG@__eabi@   00000001800be594     libvcruntimed:undname.obj
 0002:000035a0       ??_C@_09IOPIDJLG@__swift_1@ 00000001800be5a0     libvcruntimed:undname.obj
 0002:000035b0       ??_C@_09KFNFGKHF@__swift_2@ 00000001800be5b0     libvcruntimed:undname.obj
 0002:000035c0       ??_C@_09LMMOFLDE@__swift_3@ 00000001800be5c0     libvcruntimed:undname.obj
 0002:000035d0       ??_C@_07JOMMBBKO@__ptr64@  00000001800be5d0     libvcruntimed:undname.obj
 0002:000035d8       ??_C@_0L@PILCLIHE@__restrict@ 00000001800be5d8     libvcruntimed:undname.obj
 0002:000035e8       ??_C@_0M@GFIIJFMG@__unaligned@ 00000001800be5e8     libvcruntimed:undname.obj
 0002:000035f8       ??_C@_09DHDLOLLB@restrict?$CI@ 00000001800be5f8     libvcruntimed:undname.obj
 0002:00003602       ??_C@_00CNPNBAHC@@         00000001800be602     libvcruntimed:undname.obj
 0002:00003604       ??_C@_04NIHEBCM@?5new@     00000001800be604     libvcruntimed:undname.obj
 0002:00003610       ??_C@_07FPCDHGMM@?5delete@ 00000001800be610     libvcruntimed:undname.obj
 0002:00003618       ??_C@_01NEMOKFLO@?$DN@     00000001800be618     libvcruntimed:undname.obj
 0002:0000361c       ??_C@_02GPIOPFAK@?$DO?$DO@ 00000001800be61c     libvcruntimed:undname.obj
 0002:00003620       ??_C@_02FODMEDOG@?$DM?$DM@ 00000001800be620     libvcruntimed:undname.obj
 0002:00003624       ??_C@_01DCLJPIOD@?$CB@     00000001800be624     libvcruntimed:undname.obj
 0002:00003628       ??_C@_02EGOFBIJA@?$DN?$DN@ 00000001800be628     libvcruntimed:undname.obj
 0002:0000362c       ??_C@_02FDNJECIE@?$CB?$DN@ 00000001800be62c     libvcruntimed:undname.obj
 0002:00003630       ??_C@_02GPECMEKF@?$FL?$FN@ 00000001800be630     libvcruntimed:undname.obj
 0002:00003638       ??_C@_08LHJFAFGD@operator@ 00000001800be638     libvcruntimed:undname.obj
 0002:00003644       ??_C@_02HBOOOICD@?9?$DO@   00000001800be644     libvcruntimed:undname.obj
 0002:00003648       ??_C@_01NBENCBCI@?$CK@     00000001800be648     libvcruntimed:undname.obj
 0002:0000364c       ??_C@_02ECNGHCIF@?$CL?$CL@ 00000001800be64c     libvcruntimed:undname.obj
 0002:00003650       ??_C@_02BAABKJLB@?9?9@     00000001800be650     libvcruntimed:undname.obj
 0002:00003654       ??_C@_01JOAMLHOP@?9@       00000001800be654     libvcruntimed:undname.obj
 0002:00003658       ??_C@_01MIFGBAGJ@?$CL@     00000001800be658     libvcruntimed:undname.obj
 0002:0000365c       ??_C@_01HNPIGOCE@?$CG@     00000001800be65c     libvcruntimed:undname.obj
 0002:00003660       ??_C@_03MNHNFDLC@?9?$DO?$CK@ 00000001800be660     libvcruntimed:undname.obj
 0002:00003664       ??_C@_01KMDKNFGN@?1@       00000001800be664     libvcruntimed:undname.obj
 0002:00003668       ??_C@_01FGNFDNOH@?$CF@     00000001800be668     libvcruntimed:undname.obj
 0002:0000366c       ??_C@_01MNNFJEPP@?$DM@     00000001800be66c     libvcruntimed:undname.obj
 0002:00003670       ??_C@_02EHCHHCKH@?$DM?$DN@ 00000001800be670     libvcruntimed:undname.obj
 0002:00003674       ??_C@_01PPODPGHN@?$DO@     00000001800be674     libvcruntimed:undname.obj
 0002:00003678       ??_C@_02EEKDKGMJ@?$DO?$DN@ 00000001800be678     libvcruntimed:undname.obj
 0002:0000367c       ??_C@_01IHBHIGKO@?0@       00000001800be67c     libvcruntimed:undname.obj
 0002:00003680       ??_C@_02HCKGKOFO@?$CI?$CJ@ 00000001800be680     libvcruntimed:undname.obj
 0002:00003684       ??_C@_01PJKLJHI@?$HO@      00000001800be684     libvcruntimed:undname.obj
 0002:00003688       ??_C@_01JKBOJNNK@?$FO@     00000001800be688     libvcruntimed:undname.obj
 0002:0000368c       ??_C@_01DNKMNLPK@?$HM@     00000001800be68c     libvcruntimed:undname.obj
 0002:00003690       ??_C@_02PPKAJPJL@?$CG?$CG@ 00000001800be690     libvcruntimed:undname.obj
 0002:00003694       ??_C@_02NONPIBCD@?$HM?$HM@ 00000001800be694     libvcruntimed:undname.obj
 0002:00003698       ??_C@_02FPIMKNGF@?$CK?$DN@ 00000001800be698     libvcruntimed:undname.obj
 0002:0000369c       ??_C@_02FOEOMHFC@?$CL?$DN@ 00000001800be69c     libvcruntimed:undname.obj
 0002:000036a0       ??_C@_02FKMDLLOA@?9?$DN@   00000001800be6a0     libvcruntimed:undname.obj
 0002:000036a4       ??_C@_02FJEHGPIO@?1?$DN@   00000001800be6a4     libvcruntimed:undname.obj
 0002:000036a8       ??_C@_02FENAOKFI@?$CF?$DN@ 00000001800be6a8     libvcruntimed:undname.obj
 0002:000036ac       ??_C@_03IKFCCPFF@?$DO?$DO?$DN@ 00000001800be6ac     libvcruntimed:undname.obj
 0002:000036b0       ??_C@_03CDNPDDLA@?$DM?$DM?$DN@ 00000001800be6b0     libvcruntimed:undname.obj
 0002:000036b4       ??_C@_02FGJGFEAB@?$CG?$DN@ 00000001800be6b4     libvcruntimed:undname.obj
 0002:000036b8       ??_C@_02DHLNPPGH@?$HM?$DN@ 00000001800be6b8     libvcruntimed:undname.obj
 0002:000036bc       ??_C@_02MHEGNOJ@?$FO?$DN@  00000001800be6bc     libvcruntimed:undname.obj
 0002:000036c0       ??_C@_09IFPLHPGF@?$GAvftable?8@ 00000001800be6c0     libvcruntimed:undname.obj
 0002:000036d0       ??_C@_09BLBHBJP@?$GAvbtable?8@ 00000001800be6d0     libvcruntimed:undname.obj
 0002:000036e0       ??_C@_07FEEIOKP@?$GAvcall?8@ 00000001800be6e0     libvcruntimed:undname.obj
 0002:000036e8       ??_C@_08LLFFHHDJ@?$GAtypeof?8@ 00000001800be6e8     libvcruntimed:undname.obj
 0002:000036f8       ??_C@_0BF@KDPPACIK@?$GAlocal?5static?5guard?8@ 00000001800be6f8     libvcruntimed:undname.obj
 0002:00003710       ??_C@_08OBABFOLI@?$GAstring?8@ 00000001800be710     libvcruntimed:undname.obj
 0002:00003720       ??_C@_0BD@JDLKDPAB@?$GAvbase?5destructor?8@ 00000001800be720     libvcruntimed:undname.obj
 0002:00003738       ??_C@_0BN@DEGPLNFK@?$GAvector?5deleting?5destructor?8@ 00000001800be738     libvcruntimed:undname.obj
 0002:00003758       ??_C@_0BO@OBMKPJIG@?$GAdefault?5constructor?5closure?8@ 00000001800be758     libvcruntimed:undname.obj
 0002:00003778       ??_C@_0BN@IMDCHIKM@?$GAscalar?5deleting?5destructor?8@ 00000001800be778     libvcruntimed:undname.obj
 0002:00003798       ??_C@_0BO@PFGOCPJJ@?$GAvector?5constructor?5iterator?8@ 00000001800be798     libvcruntimed:undname.obj
 0002:000037b8       ??_C@_0BN@LFPFMEDL@?$GAvector?5destructor?5iterator?8@ 00000001800be7b8     libvcruntimed:undname.obj
 0002:000037d8       ??_C@_0CE@IKBNEHA@?$GAvector?5vbase?5constructor?5itera@ 00000001800be7d8     libvcruntimed:undname.obj
 0002:00003800       ??_C@_0BL@NILFHHPC@?$GAvirtual?5displacement?5map?8@ 00000001800be800     libvcruntimed:undname.obj
 0002:00003820       ??_C@_0CB@JONCMFFK@?$GAeh?5vector?5constructor?5iterator@ 00000001800be820     libvcruntimed:undname.obj
 0002:00003848       ??_C@_0CA@GCEOPDGL@?$GAeh?5vector?5destructor?5iterator?8@ 00000001800be848     libvcruntimed:undname.obj
 0002:00003868       ??_C@_0CH@OOJPLCPH@?$GAeh?5vector?5vbase?5constructor?5it@ 00000001800be868     libvcruntimed:undname.obj
 0002:00003890       ??_C@_0BL@LLKPOHJI@?$GAcopy?5constructor?5closure?8@ 00000001800be890     libvcruntimed:undname.obj
 0002:000038b0       ??_C@_0BA@KBCDOMBN@?$GAudt?5returning?8@ 00000001800be8b0     libvcruntimed:undname.obj
 0002:000038c0       ??_C@_03KLGMFNMG@?$GAEH@   00000001800be8c0     libvcruntimed:undname.obj
 0002:000038c4       ??_C@_05KHLCHHI@?$GARTTI@  00000001800be8c4     libvcruntimed:undname.obj
 0002:000038d0       ??_C@_0BA@KKLDJDLB@?$GAlocal?5vftable?8@ 00000001800be8d0     libvcruntimed:undname.obj
 0002:000038e0       ??_C@_0CE@IIHCMGGL@?$GAlocal?5vftable?5constructor?5clos@ 00000001800be8e0     libvcruntimed:undname.obj
 0002:00003904       ??_C@_06FHBGPFGH@?5new?$FL?$FN@ 00000001800be904     libvcruntimed:undname.obj
 0002:00003910       ??_C@_09LBNFPBCA@?5delete?$FL?$FN@ 00000001800be910     libvcruntimed:undname.obj
 0002:00003920       ??_C@_0P@HJKNJFNN@?$GAomni?5callsig?8@ 00000001800be920     libvcruntimed:undname.obj
 0002:00003930       ??_C@_0BL@CNOONJFP@?$GAplacement?5delete?5closure?8@ 00000001800be930     libvcruntimed:undname.obj
 0002:00003950       ??_C@_0BN@CKNJLHMB@?$GAplacement?5delete?$FL?$FN?5closure?8@ 00000001800be950     libvcruntimed:undname.obj
 0002:00003970       ??_C@_0CG@CFDHKGGD@?$GAmanaged?5vector?5constructor?5ite@ 00000001800be970     libvcruntimed:undname.obj
 0002:00003998       ??_C@_0CF@IMGKMJNO@?$GAmanaged?5vector?5destructor?5iter@ 00000001800be998     libvcruntimed:undname.obj
 0002:000039c0       ??_C@_0CG@HLDDJMAG@?$GAeh?5vector?5copy?5constructor?5ite@ 00000001800be9c0     libvcruntimed:undname.obj
 0002:000039e8       ??_C@_0CM@FCBBDIGB@?$GAeh?5vector?5vbase?5copy?5construct@ 00000001800be9e8     libvcruntimed:undname.obj
 0002:00003a18       ??_C@_0BL@CLIPGLGB@?$GAdynamic?5initializer?5for?5?8@ 00000001800bea18     libvcruntimed:undname.obj
 0002:00003a38       ??_C@_0CB@PDBIFEP@?$GAdynamic?5atexit?5destructor?5for?5@ 00000001800bea38     libvcruntimed:undname.obj
 0002:00003a60       ??_C@_0CD@CGAJBKEJ@?$GAvector?5copy?5constructor?5iterat@ 00000001800bea60     libvcruntimed:undname.obj
 0002:00003a88       ??_C@_0CJ@GJELGAMM@?$GAvector?5vbase?5copy?5constructor?5@ 00000001800bea88     libvcruntimed:undname.obj
 0002:00003ab8       ??_C@_0CL@FGIJHLCE@?$GAmanaged?5vector?5copy?5constructo@ 00000001800beab8     libvcruntimed:undname.obj
 0002:00003ae8       ??_C@_0BM@PMGGMLDN@?$GAlocal?5static?5thread?5guard?8@ 00000001800beae8     libvcruntimed:undname.obj
 0002:00003b08       ??_C@_0N@BDNMDMOL@operator?5?$CC?$CC?5@ 00000001800beb08     libvcruntimed:undname.obj
 0002:00003b18       ??_C@_0BC@GGEBGALA@operator?5co_await@ 00000001800beb18     libvcruntimed:undname.obj
 0002:00003b30       ??_C@_0M@GAAIMMOH@operator?$DM?$DN?$DO@ 00000001800beb30     libvcruntimed:undname.obj
 0002:00003b40       ??_C@_0BC@DAFEJGAK@?5Type?5Descriptor?8@ 00000001800beb40     libvcruntimed:undname.obj
 0002:00003b58       ??_C@_0BM@LDKODKLH@?5Base?5Class?5Descriptor?5at?5?$CI@ 00000001800beb58     libvcruntimed:undname.obj
 0002:00003b78       ??_C@_0BD@LGICGFMM@?5Base?5Class?5Array?8@ 00000001800beb78     libvcruntimed:undname.obj
 0002:00003b90       ??_C@_0BN@MECKDCOJ@?5Class?5Hierarchy?5Descriptor?8@ 00000001800beb90     libvcruntimed:undname.obj
 0002:00003bb0       ??_C@_0BK@CFCOFLF@?5Complete?5Object?5Locator?8@ 00000001800bebb0     libvcruntimed:undname.obj
 0002:00003bd0       ??_C@_0BG@JNJLAMPM@?$GAanonymous?5namespace?8@ 00000001800bebd0     libvcruntimed:undname.obj
 0002:00003be6       ?in_place@std@@3Uin_place_t@1@B 00000001800bebe6     libvcruntimed:undname.obj
 0002:00003be8       ??_C@_04HEJADOOB@CV?3?5@   00000001800bebe8     libvcruntimed:undname.obj
 0002:00003bf0       ??_C@_03GDILBHBJ@$$h@      00000001800bebf0     libvcruntimed:undname.obj
 0002:00003bf4       ??_C@_02MOLJINC@?3?3@      00000001800bebf4     libvcruntimed:undname.obj
 0002:00003bf8       ??_C@_0BE@JAEOCHPE@template?9parameter?9@ 00000001800bebf8     libvcruntimed:undname.obj
 0002:00003c10       ??_C@_0BF@LNLGBBNL@?$GAtemplate?9parameter?9@ 00000001800bec10     libvcruntimed:undname.obj
 0002:00003c28       ??_C@_0O@KHGCOMHP@generic?9type?9@ 00000001800bec28     libvcruntimed:undname.obj
 0002:00003c38       ??_C@_0P@ODDENDLM@?$GAgeneric?9type?9@ 00000001800bec38     libvcruntimed:undname.obj
 0002:00003c48       ??_C@_02OHHJMEON@?8?8@     00000001800bec48     libvcruntimed:undname.obj
 0002:00003c50       ??_C@_0BN@IBLMMFAP@?$GAnon?9type?9template?9parameter@ 00000001800bec50     libvcruntimed:undname.obj
 0002:00003c70       ??_C@_03DLDNIBIK@?$CFlf@   00000001800bec70     libvcruntimed:undname.obj
 0002:00003c74       ??_C@_04OFALKAJ@?$DP?$DP_C@ 00000001800bec74     libvcruntimed:undname.obj
 0002:00003c7c       ??_C@_03KHICJKCI@?4?4?4@   00000001800bec7c     libvcruntimed:undname.obj
 0002:00003c80       ??_C@_04HIBGFPH@NULL@      00000001800bec80     libvcruntimed:undname.obj
 0002:00003c88       ??_C@_02DPKJAMEF@?$CFd@    00000001800bec88     libvcruntimed:undname.obj
 0002:00003c90       ??_C@_0BK@IHCCFNEL@?$GAtemplate?9type?9parameter?9@ 00000001800bec90     libvcruntimed:undname.obj
 0002:00003cb0       ??_C@_0BK@OFCNNNKO@?$GAgeneric?9class?9parameter?9@ 00000001800becb0     libvcruntimed:undname.obj
 0002:00003cd0       ??_C@_0BL@NGJBLFIL@?$GAgeneric?9method?9parameter?9@ 00000001800becd0     libvcruntimed:undname.obj
 0002:00003cf0       ??_C@_07OHNGEDJK@nullptr@  00000001800becf0     libvcruntimed:undname.obj
 0002:00003cf8       ??_C@_06COJIGPIB@lambda@   00000001800becf8     libvcruntimed:undname.obj
 0002:00003d00       ??_C@_04GKJNKENE@void@     00000001800bed00     libvcruntimed:undname.obj
 0002:00003d08       ??_C@_0BE@EODMJLIF@?$GAtemplate?9parameter@ 00000001800bed08     libvcruntimed:undname.obj
 0002:00003d1c       ??_C@_03OPGICMGF@?$HN?8?5@ 00000001800bed1c     libvcruntimed:undname.obj
 0002:00003d20       ??_C@_02IGFCGPIL@?$HN?8@   00000001800bed20     libvcruntimed:undname.obj
 0002:00003d28       ??_C@_0N@CBHHHENL@?$GAvtordispex?$HL@ 00000001800bed28     libvcruntimed:undname.obj
 0002:00003d38       ??_C@_0L@GHPFDFH@?$GAvtordisp?$HL@ 00000001800bed38     libvcruntimed:undname.obj
 0002:00003d48       ??_C@_0L@HNGCOGAE@?$GAadjustor?$HL@ 00000001800bed48     libvcruntimed:undname.obj
 0002:00003d58       ??_C@_0CB@KJDOOODE@?$GAlocal?5static?5destructor?5helper@ 00000001800bed58     libvcruntimed:undname.obj
 0002:00003d80       ??_C@_0DB@ILEFOCIJ@?$GAtemplate?5static?5data?5member?5co@ 00000001800bed80     libvcruntimed:undname.obj
 0002:00003db8       ??_C@_0DA@HGFJFBBE@?$GAtemplate?5static?5data?5member?5de@ 00000001800bedb8     libvcruntimed:undname.obj
 0002:00003de8       ??_C@_07PGOEDBHP@static?5@ 00000001800bede8     libvcruntimed:undname.obj
 0002:00003df0       ??_C@_08NIEOINHE@virtual?5@ 00000001800bedf0     libvcruntimed:undname.obj
 0002:00003e00       ??_C@_09LAPHOOG@private?3?5@ 00000001800bee00     libvcruntimed:undname.obj
 0002:00003e10       ??_C@_0M@GAIFPFIP@protected?3?5@ 00000001800bee10     libvcruntimed:undname.obj
 0002:00003e20       ??_C@_08GPDDCMKI@public?3?5@ 00000001800bee20     libvcruntimed:undname.obj
 0002:00003e30       ??_C@_08KJLFOPNE@?$FLthunk?$FN?3@ 00000001800bee30     libvcruntimed:undname.obj
 0002:00003e40       ??_C@_0M@DHNBOJMP@extern?5?$CCC?$CC?5@ 00000001800bee40     libvcruntimed:undname.obj
 0002:00003e4c       ??_C@_02KCKGHPCA@?$CJ?5@   00000001800bee4c     libvcruntimed:undname.obj
 0002:00003e50       ??_C@_05CIHEBHNO@char?5@   00000001800bee50     libvcruntimed:undname.obj
 0002:00003e58       ??_C@_06EHJMALKF@short?5@  00000001800bee58     libvcruntimed:undname.obj
 0002:00003e60       ??_C@_04LAHKHJMA@int?5@    00000001800bee60     libvcruntimed:undname.obj
 0002:00003e68       ??_C@_05CJIMAING@long?5@   00000001800bee68     libvcruntimed:undname.obj
 0002:00003e70       ??_C@_09EBBEKKIH@unsigned?5@ 00000001800bee70     libvcruntimed:undname.obj
 0002:00003e7c       ??_C@_05BEFAKPML@void?5@   00000001800bee7c     libvcruntimed:undname.obj
 0002:00003e88       ??_C@_09GAIEOBLP@volatile?5@ 00000001800bee88     libvcruntimed:undname.obj
 0002:00003e98       ??_C@_08PABEKFH@volatile@  00000001800bee98     libvcruntimed:undname.obj
 0002:00003ea8       ??_C@_0BA@LKIJLKPP@std?3?3nullptr_t?5@ 00000001800beea8     libvcruntimed:undname.obj
 0002:00003eb8       ??_C@_0P@GCOCNKDM@std?3?3nullptr_t@ 00000001800beeb8     libvcruntimed:undname.obj
 0002:00003ec8       ??_C@_0L@EGPHHEKN@?$DMellipsis?$DO@ 00000001800beec8     libvcruntimed:undname.obj
 0002:00003ed4       ??_C@_04EENFHACM@?0?4?4?4@ 00000001800beed4     libvcruntimed:undname.obj
 0002:00003ee0       ??_C@_0M@ELJOJFFH@?0?$DMellipsis?$DO@ 00000001800beee0     libvcruntimed:undname.obj
 0002:00003ef0       ??_C@_09DNHFEOJI@?5noexcept@ 00000001800beef0     libvcruntimed:undname.obj
 0002:00003efc       ??_C@_03PBJBJNON@cpu@      00000001800beefc     libvcruntimed:undname.obj
 0002:00003f00       ??_C@_03DCBBJBAA@amp@      00000001800bef00     libvcruntimed:undname.obj
 0002:00003f04       ??_C@_02KEGNLNML@?0?5@     00000001800bef04     libvcruntimed:undname.obj
 0002:00003f08       ??_C@_04ENMBGAPA@char@     00000001800bef08     libvcruntimed:undname.obj
 0002:00003f10       ??_C@_05BFKKPKCG@short@    00000001800bef10     libvcruntimed:undname.obj
 0002:00003f18       ??_C@_03JBIPMCLC@int@      00000001800bef18     libvcruntimed:undname.obj
 0002:00003f1c       ??_C@_04GOKPGOLB@long@     00000001800bef1c     libvcruntimed:undname.obj
 0002:00003f24       ??_C@_05KNFBNCOH@float@    00000001800bef24     libvcruntimed:undname.obj
 0002:00003f2c       ??_C@_06BNJCAIGJ@double@   00000001800bef2c     libvcruntimed:undname.obj
 0002:00003f34       ??_C@_04DDKJGDCM@bool@     00000001800bef34     libvcruntimed:undname.obj
 0002:00003f3c       ??_C@_06EBGKOKIG@__int8@   00000001800bef3c     libvcruntimed:undname.obj
 0002:00003f48       ??_C@_07ICFHOGAF@__int16@  00000001800bef48     libvcruntimed:undname.obj
 0002:00003f50       ??_C@_07OFLPPHGP@__int32@  00000001800bef50     libvcruntimed:undname.obj
 0002:00003f58       ??_C@_07LFCOJCAC@__int64@  00000001800bef58     libvcruntimed:undname.obj
 0002:00003f60       ??_C@_08GAHOLHEO@__int128@ 00000001800bef60     libvcruntimed:undname.obj
 0002:00003f70       ??_C@_09EEKGDCPH@?$DMunknown?$DO@ 00000001800bef70     libvcruntimed:undname.obj
 0002:00003f80       ??_C@_07CFHGOPCN@char8_t@  00000001800bef80     libvcruntimed:undname.obj
 0002:00003f88       ??_C@_08HBIPOFJB@char16_t@ 00000001800bef88     libvcruntimed:undname.obj
 0002:00003f98       ??_C@_08IECNCBKG@char32_t@ 00000001800bef98     libvcruntimed:undname.obj
 0002:00003fa8       ??_C@_07CLGGIAMF@wchar_t@  00000001800befa8     libvcruntimed:undname.obj
 0002:00003fb0       ??_C@_04HAPDLBFF@auto@     00000001800befb0     libvcruntimed:undname.obj
 0002:00003fb8       ??_C@_0P@LHCGKIGK@decltype?$CIauto?$CJ@ 00000001800befb8     libvcruntimed:undname.obj
 0002:00003fc8       ??_C@_05PCNBGHCF@this?5@   00000001800befc8     libvcruntimed:undname.obj
 0002:00003fd0       ??_C@_06GCICPBLB@__w64?5@  00000001800befd0     libvcruntimed:undname.obj
 0002:00003fd8       ??_C@_07NFANNNEC@UNKNOWN@  00000001800befd8     libvcruntimed:undname.obj
 0002:00003fe0       ??_C@_07EDHNAJHC@signed?5@ 00000001800befe0     libvcruntimed:undname.obj
 0002:00003fe8       ??_C@_05BNCCCJPP@const@    00000001800befe8     libvcruntimed:undname.obj
 0002:00003ff0       ??_C@_09EFNPDFFP@?5volatile@ 00000001800beff0     libvcruntimed:undname.obj
 0002:00004000       ??_C@_0P@GCIFDJCJ@?$GAunknown?5ecsu?8@ 00000001800bf000     libvcruntimed:undname.obj
 0002:00004010       ??_C@_06MOJHIBMG@union?5@  00000001800bf010     libvcruntimed:undname.obj
 0002:00004018       ??_C@_07DIBCDNGL@struct?5@ 00000001800bf018     libvcruntimed:undname.obj
 0002:00004020       ??_C@_06LJBABKPM@class?5@  00000001800bf020     libvcruntimed:undname.obj
 0002:00004028       ??_C@_08KOFANOFK@coclass?5@ 00000001800bf028     libvcruntimed:undname.obj
 0002:00004038       ??_C@_0N@DLIEFKNA@cointerface?5@ 00000001800bf038     libvcruntimed:undname.obj
 0002:00004048       ??_C@_05LJGMCFOG@enum?5@   00000001800bf048     libvcruntimed:undname.obj
 0002:00004050       ??_C@_06LIJLOJAG@const?5@  00000001800bf050     libvcruntimed:undname.obj
 0002:00004058       ??_C@_02KJPKDIBN@?$CG?5@   00000001800bf058     libvcruntimed:undname.obj
 0002:0000405c       ??_C@_03PCKGMOPB@?$CG?$CG?5@ 00000001800bf05c     libvcruntimed:undname.obj
 0002:00004060       ??_C@_0M@EALIELKG@cli?3?3array?$DM@ 00000001800bf060     libvcruntimed:undname.obj
 0002:00004070       ??_C@_0O@GKABPPIF@cli?3?3pin_ptr?$DM@ 00000001800bf070     libvcruntimed:undname.obj
 0002:00004080       ??_C@_02GOGNNPBN@?$CJ?$FL@ 00000001800bf080     libvcruntimed:undname.obj
 0002:00004084       ??_C@_06EEGAIFAK@?$HLflat?$HN@ 00000001800bf084     libvcruntimed:undname.obj
 0002:0000408c       ??_C@_05JIBOFOHK@?$HLfor?5@ 00000001800bf08c     libvcruntimed:undname.obj
 0002:00004094       ??_C@_02MDINNEEG@s?5@      00000001800bf094     libvcruntimed:undname.obj
 0002:000040a0       ??_7DNameNode@@6B@         00000001800bf0a0     libvcruntimed:undname.obj
 0002:000040c8       ??_7charNode@@6B@          00000001800bf0c8     libvcruntimed:undname.obj
 0002:000040f0       ??_7pcharNode@@6B@         00000001800bf0f0     libvcruntimed:undname.obj
 0002:00004118       ??_7pDNameNode@@6B@        00000001800bf118     libvcruntimed:undname.obj
 0002:00004140       ??_7DNameStatusNode@@6B@   00000001800bf140     libvcruntimed:undname.obj
 0002:00004168       ??_7pairNode@@6B@          00000001800bf168     libvcruntimed:undname.obj
 0002:00004290       ??_C@_04OKOHEJBO@?5?$DP?$DP?5@ 00000001800bf290     libvcruntimed:undname.obj
 0002:000042a0       ?nodes@?1??make@DNameStatusNode@@SAPEBV2@W4DNameStatus@@@Z@4QBV2@B 00000001800bf2a0     libvcruntimed:undname.obj
 0002:000042e0       ??_C@_0CF@ONAOGJIP@operator?$CK?$CI?$CJ?5called?5on?5empty?5opt@ 00000001800bf2e0     libvcruntimed:undname.obj
 0002:00004308       ??_C@_02DKCKIIND@?$CFs@    00000001800bf308     libvcruntimed:undname.obj
 0002:00004310       ??_C@_0CO@DDKCBJPP@D?3?2a?2_work?21?2s?2binaries?2amd64re@ 00000001800bf310     libvcruntimed:undname.obj
 0002:00004358       ??_C@_1DM@KHCHBNEB@?$AAa?$AAp?$AAi?$AA?9?$AAm?$AAs?$AA?9?$AAw?$AAi?$AAn?$AA?9?$AAc?$AAo?$AAr?$AAe@ 00000001800bf358     libvcruntimed:winapi_downlevel.obj
 0002:00004398       ??_C@_1DK@LPPGFMPP@?$AAa?$AAp?$AAi?$AA?9?$AAm?$AAs?$AA?9?$AAw?$AAi?$AAn?$AA?9?$AAc?$AAo?$AAr?$AAe@ 00000001800bf398     libvcruntimed:winapi_downlevel.obj
 0002:000043d8       ??_C@_1BC@GDMECMAK@?$AAk?$AAe?$AAr?$AAn?$AAe?$AAl?$AA3?$AA2@ 00000001800bf3d8     libvcruntimed:winapi_downlevel.obj
 0002:000043f0       ??_C@_1BA@PFFKHIOG@?$AAa?$AAp?$AAi?$AA?9?$AAm?$AAs?$AA?9@ 00000001800bf3f0     libvcruntimed:winapi_downlevel.obj
 0002:00004400       ??_C@_1EM@LBIFGLGH@?$AAc?$AAa?$AAc?$AAh?$AAe?$AAd?$AA_?$AAh?$AAa?$AAn?$AAd?$AAl?$AAe?$AA?5?$AA?$DN@ 00000001800bf400     libvcruntimed:winapi_downlevel.obj
 0002:00004450       ??_C@_1JG@EAIBPIGC@?$AAD?$AA?3?$AA?2?$AAa?$AA?2?$AA_?$AAw?$AAo?$AAr?$AAk?$AA?2?$AA1?$AA?2?$AAs?$AA?2@ 00000001800bf450     libvcruntimed:winapi_downlevel.obj
 0002:000044e8       ??_C@_1DI@MAHEDLDB@?$AAc?$AAa?$AAc?$AAh?$AAe?$AAd?$AA_?$AAh?$AAa?$AAn?$AAd?$AAl?$AAe?$AA?5?$AA?$DN@ 00000001800bf4e8     libvcruntimed:winapi_downlevel.obj
 0002:00004520       ??_C@_1FC@IBNCGNKL@?$AAc?$AAa?$AAc?$AAh?$AAe?$AAd?$AA_?$AAf?$AAp?$AA?5?$AA?$DN?$AA?$DN?$AA?5?$AAi?$AAn@ 00000001800bf520     libvcruntimed:winapi_downlevel.obj
 0002:00004578       ??_C@_1CI@GDJBAGLP@?$AAc?$AAa?$AAc?$AAh?$AAe?$AAd?$AA_?$AAf?$AAp?$AA?5?$AA?$DN?$AA?$DN?$AA?5?$AAn?$AAe@ 00000001800bf578     libvcruntimed:winapi_downlevel.obj
 0002:000045a8       ??_C@_08KNHFBNJ@FlsAlloc@  00000001800bf5a8     libvcruntimed:winapi_downlevel.obj
 0002:000045c0       ??_C@_07PEJMOBNF@FlsFree@  00000001800bf5c0     libvcruntimed:winapi_downlevel.obj
 0002:000045d0       ??_C@_0M@GDNOONDI@FlsGetValue@ 00000001800bf5d0     libvcruntimed:winapi_downlevel.obj
 0002:000045e8       ??_C@_0M@JCPCPOEF@FlsSetValue@ 00000001800bf5e8     libvcruntimed:winapi_downlevel.obj
 0002:00004600       ??_C@_0BM@HCFOFFN@InitializeCriticalSectionEx@ 00000001800bf600     libvcruntimed:winapi_downlevel.obj
 0002:00004620       _Fenv1                     00000001800bf620     libucrtd:output.obj
 0002:00004630       ?standard_lookup_table_spectre@__crt_stdio_output@@3V?$spectre_mitigated_lookup_table@Ustate_transition_pair@__crt_stdio_output@@$0IA@@1@B 00000001800bf630     libucrtd:output.obj
 0002:00004730       ?format_validation_lookup_table_spectre@__crt_stdio_output@@3V?$spectre_mitigated_lookup_table@Ustate_transition_pair@__crt_stdio_output@@$0IA@@1@B 00000001800bf730     libucrtd:output.obj
 0002:00004f60       ??_C@_1BDG@MKBKGHOH@?$AA?$CI?$AA?5?$AA?$CI?$AA_?$AAS?$AAt?$AAr?$AAe?$AAa?$AAm?$AA?4?$AAi?$AAs?$AA_?$AAs@ 00000001800bff60     libucrtd:output.obj
 0002:000050a0       ??_C@_1GC@LCDLABEA@?$AAm?$AAi?$AAn?$AAk?$AAe?$AAr?$AAn?$AAe?$AAl?$AA?2?$AAc?$AAr?$AAt?$AAs?$AA?2@ 00000001800c00a0     libucrtd:output.obj
 0002:00005110       ??_C@_1II@DIIMCJOK@?$AA_?$AA_?$AAa?$AAc?$AAr?$AAt?$AA_?$AAs?$AAt?$AAd?$AAi?$AAo?$AA_?$AAc?$AAh@ 00000001800c0110     libucrtd:output.obj
 0002:000051a0       ??_C@_1GE@DPGDJKLM@?$AAm?$AAi?$AAn?$AAk?$AAe?$AAr?$AAn?$AAe?$AAl?$AA?2?$AAc?$AAr?$AAt?$AAs?$AA?2@ 00000001800c01a0     libucrtd:output.obj
 0002:00005208       ??_C@_1CE@JLIJLEKO@?$AAs?$AAt?$AAr?$AAe?$AAa?$AAm?$AA?5?$AA?$CB?$AA?$DN?$AA?5?$AAn?$AAu?$AAl?$AAl?$AAp@ 00000001800c0208     libucrtd:output.obj
 0002:00005230       ??_C@_1GA@MOBAPGIO@?$AAm?$AAi?$AAn?$AAk?$AAe?$AAr?$AAn?$AAe?$AAl?$AA?2?$AAc?$AAr?$AAt?$AAs?$AA?2@ 00000001800c0230     libucrtd:output.obj
 0002:00005290       ??_C@_1CA@GELIJBMC@?$AAc?$AAo?$AAm?$AAm?$AAo?$AAn?$AA_?$AAv?$AAf?$AAp?$AAr?$AAi?$AAn?$AAt?$AAf@ 00000001800c0290     libucrtd:output.obj
 0002:000052b0       ??_C@_1CE@EAKLPBKK@?$AAf?$AAo?$AAr?$AAm?$AAa?$AAt?$AA?5?$AA?$CB?$AA?$DN?$AA?5?$AAn?$AAu?$AAl?$AAl?$AAp@ 00000001800c02b0     libucrtd:output.obj
 0002:000052d8       ??_C@_1CA@PIMGHCEK@?$AAc?$AAo?$AAm?$AAm?$AAo?$AAn?$AA_?$AAv?$AAs?$AAp?$AAr?$AAi?$AAn?$AAt?$AAf@ 00000001800c02d8     libucrtd:output.obj
 0002:00005300       ??_C@_1EO@EGEEFEFM@?$AAb?$AAu?$AAf?$AAf?$AAe?$AAr?$AA_?$AAc?$AAo?$AAu?$AAn?$AAt?$AA?5?$AA?$DN?$AA?$DN@ 00000001800c0300     libucrtd:output.obj
 0002:00005350       ??_C@_1CE@JEILLNB@?$AAc?$AAo?$AAm?$AAm?$AAo?$AAn?$AA_?$AAv?$AAs?$AAp?$AAr?$AAi?$AAn?$AAt?$AAf@ 00000001800c0350     libucrtd:output.obj
 0002:00005380       ??_C@_1EM@OAFHAOLH@?$AAb?$AAu?$AAf?$AAf?$AAe?$AAr?$AA?5?$AA?$CB?$AA?$DN?$AA?5?$AAn?$AAu?$AAl?$AAl?$AAp@ 00000001800c0380     libucrtd:output.obj
 0002:000053d0       ??_C@_1DA@HPBFKMEB@?$AA?$CI?$AA?$CC?$AAB?$AAu?$AAf?$AAf?$AAe?$AAr?$AA?5?$AAt?$AAo?$AAo?$AA?5?$AAs?$AAm@ 00000001800c03d0     libucrtd:output.obj
 0002:00005400       ??_C@_1CG@LHFJHFBB@?$AAc?$AAo?$AAm?$AAm?$AAo?$AAn?$AA_?$AAv?$AAs?$AAn?$AAp?$AAr?$AAi?$AAn?$AAt@ 00000001800c0400     libucrtd:output.obj
 0002:00005428       ??_C@_1CM@JOIJBMEM@?$AA_?$AAf?$AAo?$AAr?$AAm?$AAa?$AAt?$AA_?$AAi?$AAt?$AA?5?$AA?$CB?$AA?$DN?$AA?5?$AAn@ 00000001800c0428     libucrtd:output.obj
 0002:00005460       ??_C@_1HA@DMAAKIJP@?$AAm?$AAi?$AAn?$AAk?$AAe?$AAr?$AAn?$AAe?$AAl?$AA?2?$AAc?$AAr?$AAt?$AAs?$AA?2@ 00000001800c0460     libucrtd:output.obj
 0002:000054d0       ??_C@_1BNA@OIIAGHJI@?$AA_?$AA_?$AAc?$AAr?$AAt?$AA_?$AAs?$AAt?$AAd?$AAi?$AAo?$AA_?$AAo?$AAu?$AAt@ 00000001800c04d0     libucrtd:output.obj
 0002:000056a0       ??_C@_1EE@DMAIGNBG@?$AA?$CI?$AA?$CC?$AAI?$AAn?$AAc?$AAo?$AAr?$AAr?$AAe?$AAc?$AAt?$AA?5?$AAf?$AAo?$AAr@ 00000001800c06a0     libucrtd:output.obj
 0002:000056f0       ??_C@_1BLI@EGFICANE@?$AA_?$AA_?$AAc?$AAr?$AAt?$AA_?$AAs?$AAt?$AAd?$AAi?$AAo?$AA_?$AAo?$AAu?$AAt@ 00000001800c06f0     libucrtd:output.obj
 0002:000058b0       ??_C@_1BLI@IKDKMDHI@?$AA_?$AA_?$AAc?$AAr?$AAt?$AA_?$AAs?$AAt?$AAd?$AAi?$AAo?$AA_?$AAo?$AAu?$AAt@ 00000001800c08b0     libucrtd:output.obj
 0002:00005a70       ??_C@_1BKA@DNADAJMC@?$AA_?$AA_?$AAc?$AAr?$AAt?$AA_?$AAs?$AAt?$AAd?$AAi?$AAo?$AA_?$AAo?$AAu?$AAt@ 00000001800c0a70     libucrtd:output.obj
 0002:00005c10       ??_C@_1BNA@HGLCOOBP@?$AA_?$AA_?$AAc?$AAr?$AAt?$AA_?$AAs?$AAt?$AAd?$AAi?$AAo?$AA_?$AAo?$AAu?$AAt@ 00000001800c0c10     libucrtd:output.obj
 0002:00005de0       ??_C@_1BLI@FOCNEPKJ@?$AA_?$AA_?$AAc?$AAr?$AAt?$AA_?$AAs?$AAt?$AAd?$AAi?$AAo?$AA_?$AAo?$AAu?$AAt@ 00000001800c0de0     libucrtd:output.obj
 0002:00005fa0       ??_C@_1BMK@CPBKHDIH@?$AA_?$AA_?$AAc?$AAr?$AAt?$AA_?$AAs?$AAt?$AAd?$AAi?$AAo?$AA_?$AAo?$AAu?$AAt@ 00000001800c0fa0     libucrtd:output.obj
 0002:00006170       ??_C@_1BLC@PMCLHHAE@?$AA_?$AA_?$AAc?$AAr?$AAt?$AA_?$AAs?$AAt?$AAd?$AAi?$AAo?$AA_?$AAo?$AAu?$AAt@ 00000001800c1170     libucrtd:output.obj
 0002:00006330       ??_C@_1BLI@EEAAPJD@?$AA_?$AA_?$AAc?$AAr?$AAt?$AA_?$AAs?$AAt?$AAd?$AAi?$AAo?$AA_?$AAo?$AAu?$AAt@ 00000001800c1330     libucrtd:output.obj
 0002:000064f0       ??_C@_1BKA@IIAAOGBO@?$AA_?$AA_?$AAc?$AAr?$AAt?$AA_?$AAs?$AAt?$AAd?$AAi?$AAo?$AA_?$AAo?$AAu?$AAt@ 00000001800c14f0     libucrtd:output.obj
 0002:00006690       ??_C@_1FG@OBJBDPAC@?$AA?$CI?$AA?$CC?$AAN?$AA?5?$AAl?$AAe?$AAn?$AAg?$AAt?$AAh?$AA?5?$AAm?$AAo?$AAd?$AAi@ 00000001800c1690     libucrtd:output.obj
 0002:000066f0       ??_C@_1BOA@BMEGDMHF@?$AA_?$AA_?$AAc?$AAr?$AAt?$AA_?$AAs?$AAt?$AAd?$AAi?$AAo?$AA_?$AAo?$AAu?$AAt@ 00000001800c16f0     libucrtd:output.obj
 0002:000068d0       ??_C@_1EC@GJPNJDCN@?$AA_?$AAl?$AAe?$AAn?$AAg?$AAt?$AAh?$AA?5?$AA?$DN?$AA?$DN?$AA?5?$AAl?$AAe?$AAn?$AAg@ 00000001800c18d0     libucrtd:output.obj
 0002:00006918       ??_C@_1DG@CEJKFDMO@?$AAs?$AAt?$AAa?$AAt?$AAe?$AA_?$AAc?$AAa?$AAs?$AAe?$AA_?$AAn?$AAo?$AAr?$AAm@ 00000001800c1918     libucrtd:output.obj
 0002:00006950       ??_C@_1BOE@IPKNNOEE@?$AA_?$AA_?$AAc?$AAr?$AAt?$AA_?$AAs?$AAt?$AAd?$AAi?$AAo?$AA_?$AAo?$AAu?$AAt@ 00000001800c1950     libucrtd:output.obj
 0002:00006b40       ??_C@_1IC@NLEOMCDL@?$AA_?$AAt?$AAy?$AAp?$AAe?$AA_?$AAi?$AAn?$AAd?$AAe?$AAx?$AA?5?$AA?$DO?$AA?$DN?$AA?5@ 00000001800c1b40     libucrtd:output.obj
 0002:00006bd0       ??_C@_1BFK@KNCMELHH@?$AA_?$AA_?$AAc?$AAr?$AAt?$AA_?$AAs?$AAt?$AAd?$AAi?$AAo?$AA_?$AAo?$AAu?$AAt@ 00000001800c1bd0     libucrtd:output.obj
 0002:00006d30       ??_C@_1FK@BCPANIEK@?$AA?$CI?$AA?$CC?$AAM?$AAi?$AAs?$AAs?$AAi?$AAn?$AAg?$AA?5?$AAp?$AAo?$AAs?$AAi?$AAt@ 00000001800c1d30     libucrtd:output.obj
 0002:00006d90       ??_C@_1BEI@IHLBHMLJ@?$AA_?$AA_?$AAc?$AAr?$AAt?$AA_?$AAs?$AAt?$AAd?$AAi?$AAo?$AA_?$AAo?$AAu?$AAt@ 00000001800c1d90     libucrtd:output.obj
 0002:00006ee0       ??_C@_1BMI@LKDDDFDL@?$AA_?$AA_?$AAc?$AAr?$AAt?$AA_?$AAs?$AAt?$AAd?$AAi?$AAo?$AA_?$AAo?$AAu?$AAt@ 00000001800c1ee0     libucrtd:output.obj
 0002:000070b0       ??_C@_1BMM@JGEKEBKL@?$AA_?$AA_?$AAc?$AAr?$AAt?$AA_?$AAs?$AAt?$AAd?$AAi?$AAo?$AA_?$AAo?$AAu?$AAt@ 00000001800c20b0     libucrtd:output.obj
 0002:00007280       ??_C@_1BEO@ODGKIOAL@?$AA_?$AA_?$AAc?$AAr?$AAt?$AA_?$AAs?$AAt?$AAd?$AAi?$AAo?$AA_?$AAo?$AAu?$AAt@ 00000001800c2280     libucrtd:output.obj
 0002:000073d0       ??_C@_1BDM@GFCGMNL@?$AA_?$AA_?$AAc?$AAr?$AAt?$AA_?$AAs?$AAt?$AAd?$AAi?$AAo?$AA_?$AAo?$AAu?$AAt@ 00000001800c23d0     libucrtd:output.obj
 0002:00007510       ??_C@_1BMI@KBPJOJJI@?$AA_?$AA_?$AAc?$AAr?$AAt?$AA_?$AAs?$AAt?$AAd?$AAi?$AAo?$AA_?$AAo?$AAu?$AAt@ 00000001800c2510     libucrtd:output.obj
 0002:000076e0       ??_C@_1BMM@PGHHMNDM@?$AA_?$AA_?$AAc?$AAr?$AAt?$AA_?$AAs?$AAt?$AAd?$AAi?$AAo?$AA_?$AAo?$AAu?$AAt@ 00000001800c26e0     libucrtd:output.obj
 0002:000078b0       ??_C@_1CI@DDKMNCPP@?$AA_?$AAc?$AAo?$AAn?$AAt?$AAe?$AAx?$AAt?$AA?5?$AA?$CB?$AA?$DN?$AA?5?$AAn?$AAu?$AAl@ 00000001800c28b0     libucrtd:output.obj
 0002:000078e0       ??_C@_1HK@IIPGOADH@?$AA_?$AA_?$AAc?$AAr?$AAt?$AA_?$AAs?$AAt?$AAd?$AAi?$AAo?$AA_?$AAo?$AAu?$AAt@ 00000001800c28e0     libucrtd:output.obj
